(dp1
S'genero'
p2
(dp3
S'type'
p4
S'string'
p5
sS'sortable'
p6
I2
sS'sql'
p7
S'CHAR(512)'
p8
ssS'id'
p9
(dp10
g4
S'id'
p11
sg6
I1
sg7
S'INTEGER PRIMARY KEY AUTOINCREMENT'
p12
ssS'id_genero'
p13
(dp14
S'type'
p15
S'integer'
p16
sS'sortable'
p17
I2
sS'sql'
p18
S'INTEGER'
p19
ss.