(dp1
S'output'
p2
S''
sS'layer'
p3
S'/home/marco/proyectos/web2py-trunk/applications/mvstore/controllers/default.py'
p4
sS'code'
p5
S'#-*- coding: utf-8 -*-\n# this file is released under public domain and you can use without limitations\n\n#########################################################################\n## This is a samples controller\n## - index is the default action of any application\n## - user is required for authentication and authorization\n## - download is for downloading files uploaded in the db (does streaming)\n## - call exposes all registered services (none by default)\n#########################################################################\n\ndef index():\n    """\n    example action using the internationalization operator T and flash\n    rendered by views/default/index.html or views/generic.html\n    """\n    return dict(message=T(\'Hello World\'))\n\ndef user():\n    """\n    exposes:\n    http://..../[app]/default/user/login\n    http://..../[app]/default/user/logout\n    http://..../[app]/default/user/register\n    http://..../[app]/default/user/profile\n    http://..../[app]/default/user/retrieve_password\n    http://..../[app]/default/user/change_password\n    use @auth.requires_login()\n        @auth.requires_membership(\'group name\')\n        @auth.requires_permission(\'read\',\'table name\',record_id)\n    to decorate functions that need access control\n    """\n    return dict(form=auth())\n\n\ndef download():\n    """\n    allows downloading of uploaded files\n    http://..../[app]/default/download/[filename]\n    """\n    return response.download(request,db)\n\n\ndef call():\n    """\n    exposes services. for example:\n    http://..../[app]/default/call/jsonrpc\n    decorate with @services.jsonrpc the functions to expose\n    supports xml, json, xmlrpc, jsonrpc, amfrpc, rss, csv\n    """\n    session.forget()\n    return service()\n\ndef empleados():\n    form=crud.create(db.empleados)\n    if form.accepts(request.vars, session):\n        response.flash = \'Agregado exitosamente\'\n    elif form.errors:\n        response.flash = \'El formulario tiene errores\'\n    else:\n        response.flash = \'Por favor, complete el formulario\'\n        \n    return dict(form=form)\n\ndef clientes():\n    form=crud.create(db.clientes)\n    if form.accepts(request.vars, session):\n        response.flash = \'Agregado exitosamente\'\n    elif form.errors:\n        response.flash = \'El formulario tiene errores\'\n    else:\n        response.flash = \'Por favor, complete el formulario\'\n    return dict(form=form)\n\ndef peliculas():\n    form=crud.create(db.peliculas)\n    if form.accepts(request.vars, session):\n        response.flash = \'Agregado exitosamente\'\n    elif form.errors:\n        response.flash = \'El formulario tiene errores\'\n    else:\n        response.flash = \'Por favor, complete el formulario\'    \n    return dict(form=form)\n    \n\ndef prestamos():\n    form=crud.create(db.prestamos)\n    if form.accepts(request.vars, session):\n        response.flash = \'Agregado exitosamente\'\n    elif form.errors:\n        response.flash = \'El formulario tiene errores\'\n    else:\n        response.flash = \'Por favor, complete el formulario\'\n    return dict(form=form)\n    \ndef personal():\n    return dict(records=db().select(db.empleados.ALL))\n\ndef clientesall():\n    return dict(records=db().select(db.clientes.ALL))\n    \ndef peliculasall():\n    return dict(records=db().select(db.peliculas.ALL))\n    \ndef prestados():\n    return dict(records=db().select(db.prestamos.ALL))\n\ndef busqueda():\n    "an ajax wiki search page"\n    return dict(form=FORM(INPUT(_id=\'keyword\',_name=\'keyword\',\n            _onkeyup="ajax(\'bg_find\', [\'keyword\'], \'target\');")),\n            target_div=DIV(_id=\'target\'), type(_submit))\n\ndef bg_find():\n    pattern = \'%\' + request.vars.keyword.lower() + \'%\'\n    pages = db(db.peliculas.titulo.lower().like(pattern)).select(orderby=db.peliculas.title)\n    items = [A(row.titulo, _href=URL(\'show\', args=row.id)) for row in pages]\n    return UL(*items).xml()\n\n\nresponse._vars=response._caller(busqueda)\n'
p6
sS'snapshot'
p7
(dp8
S'exception'
p9
(dp10
S'__getslice__'
p11
S"<method-wrapper '__getslice__' of exceptions.SyntaxError object>"
p12
sS'text'
p13
S'"target_div=DIV(_id=\'target\'), type(_submit))\\n"'
p14
sS'__str__'
p15
S"<method-wrapper '__str__' of exceptions.SyntaxError object>"
p16
sS'__reduce__'
p17
S'<built-in method __reduce__ of exceptions.SyntaxError object>'
p18
sS'__dict__'
p19
S'{}'
p20
sS'__sizeof__'
p21
S'<built-in method __sizeof__ of exceptions.SyntaxError object>'
p22
sS'__init__'
p23
S"<method-wrapper '__init__' of exceptions.SyntaxError object>"
p24
sS'__setattr__'
p25
S"<method-wrapper '__setattr__' of exceptions.SyntaxError object>"
p26
sS'__reduce_ex__'
p27
S'<built-in method __reduce_ex__ of exceptions.SyntaxError object>'
p28
sS'__new__'
p29
S'<built-in method __new__ of type object>'
p30
sS'__format__'
p31
S'<built-in method __format__ of exceptions.SyntaxError object>'
p32
sS'__class__'
p33
S"<type 'exceptions.SyntaxError'>"
p34
sS'filename'
p35
S"'/home/marco/proyectos/web2py-trunk/applications/mvstore/controllers/default.py'"
p36
sS'lineno'
p37
S'112'
p38
sS'msg'
p39
S"'non-keyword arg after keyword arg'"
p40
sS'__doc__'
p41
S"'Invalid syntax.'"
p42
sS'__getitem__'
p43
S"<method-wrapper '__getitem__' of exceptions.SyntaxError object>"
p44
sS'__setstate__'
p45
S'<built-in method __setstate__ of exceptions.SyntaxError object>'
p46
sS'__getattribute__'
p47
S"<method-wrapper '__getattribute__' of exceptions.SyntaxError object>"
p48
sS'print_file_and_line'
p49
S'None'
p50
sS'args'
p51
S'(\'non-keyword arg after keyword arg\', (\'/home/marco/proyectos/web2py-trunk/applications/mvstore/controllers/default.py\', 112, None, "target_div=DIV(_id=\'target\'), type(_submit))\\n"))'
p52
sS'__subclasshook__'
p53
S'<built-in method __subclasshook__ of type object>'
p54
sS'offset'
p55
S'None'
p56
sS'__unicode__'
p57
S'<built-in method __unicode__ of exceptions.SyntaxError object>'
p58
sS'__delattr__'
p59
S"<method-wrapper '__delattr__' of exceptions.SyntaxError object>"
p60
sS'__repr__'
p61
S"<method-wrapper '__repr__' of exceptions.SyntaxError object>"
p62
sS'__hash__'
p63
S"<method-wrapper '__hash__' of exceptions.SyntaxError object>"
p64
ssS'evalue'
p65
S'non-keyword arg after keyword arg (default.py, line 112)'
p66
sS'request'
p67
ccopy_reg
_reconstructor
p68
(cgluon.html
BEAUTIFY
p69
c__builtin__
object
p70
NtRp71
(dp72
S'attributes'
p73
(dp74
sS'components'
p75
(lp76
g68
(cgluon.html
TABLE
p77
g70
NtRp78
(dp79
g73
(dp80
S'level'
p81
I5
ssS'parent'
p82
Nsg75
(lp83
g68
(cgluon.html
TR
p84
g70
NtRp85
(dp86
g73
(dp87
sg82
g78
sg75
(lp88
g68
(cgluon.html
TD
p89
g70
NtRp90
(dp91
g73
(dp92
S'_style'
p93
S'font-weight:bold;'
p94
ssg82
g85
sg75
(lp95
S'ajax'
p96
asbag68
(g89
g70
NtRp97
(dp98
g73
(dp99
S'_valign'
p100
S'top'
p101
ssg82
g85
sg75
(lp102
S':'
asbag68
(g89
g70
NtRp103
(dp104
g73
(dp105
sg82
g85
sg75
(lp106
g68
(g69
g70
NtRp107
(dp108
g73
(dp109
g81
I5
ssg82
g103
sg75
(lp110
S'False'
p111
asbasbasbag68
(g84
g70
NtRp112
(dp113
g73
(dp114
sg82
g78
sg75
(lp115
g68
(g89
g70
NtRp116
(dp117
g73
(dp118
g93
g94
ssg82
g112
sg75
(lp119
S'application'
p120
asbag68
(g89
g70
NtRp121
(dp122
g73
(dp123
g100
g101
ssg82
g112
sg75
(lp124
S':'
asbag68
(g89
g70
NtRp125
(dp126
g73
(dp127
sg82
g112
sg75
(lp128
g68
(g69
g70
NtRp129
(dp130
g73
(dp131
g81
I5
ssg82
g125
sg75
(lp132
S'mvstore'
p133
asbasbasbag68
(g84
g70
NtRp134
(dp135
g73
(dp136
sg82
g78
sg75
(lp137
g68
(g89
g70
NtRp138
(dp139
g73
(dp140
g93
g94
ssg82
g134
sg75
(lp141
g51
asbag68
(g89
g70
NtRp142
(dp143
g73
(dp144
g100
g101
ssg82
g134
sg75
(lp145
S':'
asbag68
(g89
g70
NtRp146
(dp147
g73
(dp148
sg82
g134
sg75
(lp149
g68
(g69
g70
NtRp150
(dp151
g73
(dp152
g81
I5
ssg82
g146
sg75
(lp153
g68
(g77
g70
NtRp154
(dp155
g73
(dp156
g81
I4
ssg82
Nsg75
(lp157
sbasbasbasbag68
(g84
g70
NtRp158
(dp159
g73
(dp160
sg82
g78
sg75
(lp161
g68
(g89
g70
NtRp162
(dp163
g73
(dp164
g93
g94
ssg82
g158
sg75
(lp165
S'body'
p166
asbag68
(g89
g70
NtRp167
(dp168
g73
(dp169
g100
g101
ssg82
g158
sg75
(lp170
S':'
asbag68
(g89
g70
NtRp171
(dp172
g73
(dp173
sg82
g158
sg75
(lp174
g68
(g69
g70
NtRp175
(dp176
g73
(dp177
g81
I5
ssg82
g171
sg75
(lp178
S"<open file '<fdopen>', mode 'w+b' at 0x2878660>"
p179
asbasbasbag68
(g84
g70
NtRp180
(dp181
g73
(dp182
sg82
g78
sg75
(lp183
g68
(g89
g70
NtRp184
(dp185
g73
(dp186
g93
g94
ssg82
g180
sg75
(lp187
S'client'
p188
asbag68
(g89
g70
NtRp189
(dp190
g73
(dp191
g100
g101
ssg82
g180
sg75
(lp192
S':'
asbag68
(g89
g70
NtRp193
(dp194
g73
(dp195
sg82
g180
sg75
(lp196
g68
(g69
g70
NtRp197
(dp198
g73
(dp199
g81
I5
ssg82
g193
sg75
(lp200
S'127.0.0.1'
p201
asbasbasbag68
(g84
g70
NtRp202
(dp203
g73
(dp204
sg82
g78
sg75
(lp205
g68
(g89
g70
NtRp206
(dp207
g73
(dp208
g93
g94
ssg82
g202
sg75
(lp209
S'controller'
p210
asbag68
(g89
g70
NtRp211
(dp212
g73
(dp213
g100
g101
ssg82
g202
sg75
(lp214
S':'
asbag68
(g89
g70
NtRp215
(dp216
g73
(dp217
sg82
g202
sg75
(lp218
g68
(g69
g70
NtRp219
(dp220
g73
(dp221
g81
I5
ssg82
g215
sg75
(lp222
S'default'
p223
asbasbasbag68
(g84
g70
NtRp224
(dp225
g73
(dp226
sg82
g78
sg75
(lp227
g68
(g89
g70
NtRp228
(dp229
g73
(dp230
g93
g94
ssg82
g224
sg75
(lp231
S'cookies'
p232
asbag68
(g89
g70
NtRp233
(dp234
g73
(dp235
g100
g101
ssg82
g224
sg75
(lp236
S':'
asbag68
(g89
g70
NtRp237
(dp238
g73
(dp239
sg82
g224
sg75
(lp240
g68
(g69
g70
NtRp241
(dp242
g73
(dp243
g81
I5
ssg82
g237
sg75
(lp244
g68
(g77
g70
NtRp245
(dp246
g73
(dp247
g81
I4
ssg82
Nsg75
(lp248
g68
(g84
g70
NtRp249
(dp250
g73
(dp251
sg82
g245
sg75
(lp252
g68
(g89
g70
NtRp253
(dp254
g73
(dp255
g93
g94
ssg82
g249
sg75
(lp256
S'session_id_admin'
p257
asbag68
(g89
g70
NtRp258
(dp259
g73
(dp260
g100
g101
ssg82
g249
sg75
(lp261
S':'
asbag68
(g89
g70
NtRp262
(dp263
g73
(dp264
sg82
g249
sg75
(lp265
g68
(g69
g70
NtRp266
(dp267
g73
(dp268
g81
I4
ssg82
g262
sg75
(lp269
g68
(g77
g70
NtRp270
(dp271
g73
(dp272
g81
I3
ssg82
Nsg75
(lp273
g68
(g84
g70
NtRp274
(dp275
g73
(dp276
sg82
g270
sg75
(lp277
g68
(g89
g70
NtRp278
(dp279
g73
(dp280
g93
g94
ssg82
g274
sg75
(lp281
S'comment'
p282
asbag68
(g89
g70
NtRp283
(dp284
g73
(dp285
g100
g101
ssg82
g274
sg75
(lp286
S':'
asbag68
(g89
g70
NtRp287
(dp288
g73
(dp289
sg82
g274
sg75
(lp290
g68
(g69
g70
NtRp291
(dp292
g73
(dp293
g81
I3
ssg82
g287
sg75
(lp294
S''
asbasbasbag68
(g84
g70
NtRp295
(dp296
g73
(dp297
sg82
g270
sg75
(lp298
g68
(g89
g70
NtRp299
(dp300
g73
(dp301
g93
g94
ssg82
g295
sg75
(lp302
S'domain'
p303
asbag68
(g89
g70
NtRp304
(dp305
g73
(dp306
g100
g101
ssg82
g295
sg75
(lp307
S':'
asbag68
(g89
g70
NtRp308
(dp309
g73
(dp310
sg82
g295
sg75
(lp311
g68
(g69
g70
NtRp312
(dp313
g73
(dp314
g81
I3
ssg82
g308
sg75
(lp315
S''
asbasbasbag68
(g84
g70
NtRp316
(dp317
g73
(dp318
sg82
g270
sg75
(lp319
g68
(g89
g70
NtRp320
(dp321
g73
(dp322
g93
g94
ssg82
g316
sg75
(lp323
S'expires'
p324
asbag68
(g89
g70
NtRp325
(dp326
g73
(dp327
g100
g101
ssg82
g316
sg75
(lp328
S':'
asbag68
(g89
g70
NtRp329
(dp330
g73
(dp331
sg82
g316
sg75
(lp332
g68
(g69
g70
NtRp333
(dp334
g73
(dp335
g81
I3
ssg82
g329
sg75
(lp336
S''
asbasbasbag68
(g84
g70
NtRp337
(dp338
g73
(dp339
sg82
g270
sg75
(lp340
g68
(g89
g70
NtRp341
(dp342
g73
(dp343
g93
g94
ssg82
g337
sg75
(lp344
S'httponly'
p345
asbag68
(g89
g70
NtRp346
(dp347
g73
(dp348
g100
g101
ssg82
g337
sg75
(lp349
S':'
asbag68
(g89
g70
NtRp350
(dp351
g73
(dp352
sg82
g337
sg75
(lp353
g68
(g69
g70
NtRp354
(dp355
g73
(dp356
g81
I3
ssg82
g350
sg75
(lp357
S''
asbasbasbag68
(g84
g70
NtRp358
(dp359
g73
(dp360
sg82
g270
sg75
(lp361
g68
(g89
g70
NtRp362
(dp363
g73
(dp364
g93
g94
ssg82
g358
sg75
(lp365
S'max-age'
p366
asbag68
(g89
g70
NtRp367
(dp368
g73
(dp369
g100
g101
ssg82
g358
sg75
(lp370
S':'
asbag68
(g89
g70
NtRp371
(dp372
g73
(dp373
sg82
g358
sg75
(lp374
g68
(g69
g70
NtRp375
(dp376
g73
(dp377
g81
I3
ssg82
g371
sg75
(lp378
S''
asbasbasbag68
(g84
g70
NtRp379
(dp380
g73
(dp381
sg82
g270
sg75
(lp382
g68
(g89
g70
NtRp383
(dp384
g73
(dp385
g93
g94
ssg82
g379
sg75
(lp386
S'path'
p387
asbag68
(g89
g70
NtRp388
(dp389
g73
(dp390
g100
g101
ssg82
g379
sg75
(lp391
S':'
asbag68
(g89
g70
NtRp392
(dp393
g73
(dp394
sg82
g379
sg75
(lp395
g68
(g69
g70
NtRp396
(dp397
g73
(dp398
g81
I3
ssg82
g392
sg75
(lp399
S''
asbasbasbag68
(g84
g70
NtRp400
(dp401
g73
(dp402
sg82
g270
sg75
(lp403
g68
(g89
g70
NtRp404
(dp405
g73
(dp406
g93
g94
ssg82
g400
sg75
(lp407
S'secure'
p408
asbag68
(g89
g70
NtRp409
(dp410
g73
(dp411
g100
g101
ssg82
g400
sg75
(lp412
S':'
asbag68
(g89
g70
NtRp413
(dp414
g73
(dp415
sg82
g400
sg75
(lp416
g68
(g69
g70
NtRp417
(dp418
g73
(dp419
g81
I3
ssg82
g413
sg75
(lp420
S''
asbasbasbag68
(g84
g70
NtRp421
(dp422
g73
(dp423
sg82
g270
sg75
(lp424
g68
(g89
g70
NtRp425
(dp426
g73
(dp427
g93
g94
ssg82
g421
sg75
(lp428
S'version'
p429
asbag68
(g89
g70
NtRp430
(dp431
g73
(dp432
g100
g101
ssg82
g421
sg75
(lp433
S':'
asbag68
(g89
g70
NtRp434
(dp435
g73
(dp436
sg82
g421
sg75
(lp437
g68
(g69
g70
NtRp438
(dp439
g73
(dp440
g81
I3
ssg82
g434
sg75
(lp441
S''
asbasbasbasbasbasbasbag68
(g84
g70
NtRp442
(dp443
g73
(dp444
sg82
g245
sg75
(lp445
g68
(g89
g70
NtRp446
(dp447
g73
(dp448
g93
g94
ssg82
g442
sg75
(lp449
S'session_id_mvstore'
p450
asbag68
(g89
g70
NtRp451
(dp452
g73
(dp453
g100
g101
ssg82
g442
sg75
(lp454
S':'
asbag68
(g89
g70
NtRp455
(dp456
g73
(dp457
sg82
g442
sg75
(lp458
g68
(g69
g70
NtRp459
(dp460
g73
(dp461
g81
I4
ssg82
g455
sg75
(lp462
g68
(g77
g70
NtRp463
(dp464
g73
(dp465
g81
I3
ssg82
Nsg75
(lp466
g68
(g84
g70
NtRp467
(dp468
g73
(dp469
sg82
g463
sg75
(lp470
g68
(g89
g70
NtRp471
(dp472
g73
(dp473
g93
g94
ssg82
g467
sg75
(lp474
g282
asbag68
(g89
g70
NtRp475
(dp476
g73
(dp477
g100
g101
ssg82
g467
sg75
(lp478
S':'
asbag68
(g89
g70
NtRp479
(dp480
g73
(dp481
sg82
g467
sg75
(lp482
g68
(g69
g70
NtRp483
(dp484
g73
(dp485
g81
I3
ssg82
g479
sg75
(lp486
S''
asbasbasbag68
(g84
g70
NtRp487
(dp488
g73
(dp489
sg82
g463
sg75
(lp490
g68
(g89
g70
NtRp491
(dp492
g73
(dp493
g93
g94
ssg82
g487
sg75
(lp494
g303
asbag68
(g89
g70
NtRp495
(dp496
g73
(dp497
g100
g101
ssg82
g487
sg75
(lp498
S':'
asbag68
(g89
g70
NtRp499
(dp500
g73
(dp501
sg82
g487
sg75
(lp502
g68
(g69
g70
NtRp503
(dp504
g73
(dp505
g81
I3
ssg82
g499
sg75
(lp506
S''
asbasbasbag68
(g84
g70
NtRp507
(dp508
g73
(dp509
sg82
g463
sg75
(lp510
g68
(g89
g70
NtRp511
(dp512
g73
(dp513
g93
g94
ssg82
g507
sg75
(lp514
g324
asbag68
(g89
g70
NtRp515
(dp516
g73
(dp517
g100
g101
ssg82
g507
sg75
(lp518
S':'
asbag68
(g89
g70
NtRp519
(dp520
g73
(dp521
sg82
g507
sg75
(lp522
g68
(g69
g70
NtRp523
(dp524
g73
(dp525
g81
I3
ssg82
g519
sg75
(lp526
S''
asbasbasbag68
(g84
g70
NtRp527
(dp528
g73
(dp529
sg82
g463
sg75
(lp530
g68
(g89
g70
NtRp531
(dp532
g73
(dp533
g93
g94
ssg82
g527
sg75
(lp534
g345
asbag68
(g89
g70
NtRp535
(dp536
g73
(dp537
g100
g101
ssg82
g527
sg75
(lp538
S':'
asbag68
(g89
g70
NtRp539
(dp540
g73
(dp541
sg82
g527
sg75
(lp542
g68
(g69
g70
NtRp543
(dp544
g73
(dp545
g81
I3
ssg82
g539
sg75
(lp546
S''
asbasbasbag68
(g84
g70
NtRp547
(dp548
g73
(dp549
sg82
g463
sg75
(lp550
g68
(g89
g70
NtRp551
(dp552
g73
(dp553
g93
g94
ssg82
g547
sg75
(lp554
g366
asbag68
(g89
g70
NtRp555
(dp556
g73
(dp557
g100
g101
ssg82
g547
sg75
(lp558
S':'
asbag68
(g89
g70
NtRp559
(dp560
g73
(dp561
sg82
g547
sg75
(lp562
g68
(g69
g70
NtRp563
(dp564
g73
(dp565
g81
I3
ssg82
g559
sg75
(lp566
S''
asbasbasbag68
(g84
g70
NtRp567
(dp568
g73
(dp569
sg82
g463
sg75
(lp570
g68
(g89
g70
NtRp571
(dp572
g73
(dp573
g93
g94
ssg82
g567
sg75
(lp574
g387
asbag68
(g89
g70
NtRp575
(dp576
g73
(dp577
g100
g101
ssg82
g567
sg75
(lp578
S':'
asbag68
(g89
g70
NtRp579
(dp580
g73
(dp581
sg82
g567
sg75
(lp582
g68
(g69
g70
NtRp583
(dp584
g73
(dp585
g81
I3
ssg82
g579
sg75
(lp586
S''
asbasbasbag68
(g84
g70
NtRp587
(dp588
g73
(dp589
sg82
g463
sg75
(lp590
g68
(g89
g70
NtRp591
(dp592
g73
(dp593
g93
g94
ssg82
g587
sg75
(lp594
g408
asbag68
(g89
g70
NtRp595
(dp596
g73
(dp597
g100
g101
ssg82
g587
sg75
(lp598
S':'
asbag68
(g89
g70
NtRp599
(dp600
g73
(dp601
sg82
g587
sg75
(lp602
g68
(g69
g70
NtRp603
(dp604
g73
(dp605
g81
I3
ssg82
g599
sg75
(lp606
S''
asbasbasbag68
(g84
g70
NtRp607
(dp608
g73
(dp609
sg82
g463
sg75
(lp610
g68
(g89
g70
NtRp611
(dp612
g73
(dp613
g93
g94
ssg82
g607
sg75
(lp614
g429
asbag68
(g89
g70
NtRp615
(dp616
g73
(dp617
g100
g101
ssg82
g607
sg75
(lp618
S':'
asbag68
(g89
g70
NtRp619
(dp620
g73
(dp621
sg82
g607
sg75
(lp622
g68
(g69
g70
NtRp623
(dp624
g73
(dp625
g81
I3
ssg82
g619
sg75
(lp626
S''
asbasbasbasbasbasbasbasbasbasbasbag68
(g84
g70
NtRp627
(dp628
g73
(dp629
sg82
g78
sg75
(lp630
g68
(g89
g70
NtRp631
(dp632
g73
(dp633
g93
g94
ssg82
g627
sg75
(lp634
S'env'
p635
asbag68
(g89
g70
NtRp636
(dp637
g73
(dp638
g100
g101
ssg82
g627
sg75
(lp639
S':'
asbag68
(g89
g70
NtRp640
(dp641
g73
(dp642
sg82
g627
sg75
(lp643
g68
(g69
g70
NtRp644
(dp645
g73
(dp646
g81
I5
ssg82
g640
sg75
(lp647
g68
(g77
g70
NtRp648
(dp649
g73
(dp650
g81
I4
ssg82
Nsg75
(lp651
g68
(g84
g70
NtRp652
(dp653
g73
(dp654
sg82
g648
sg75
(lp655
g68
(g89
g70
NtRp656
(dp657
g73
(dp658
g93
g94
ssg82
g652
sg75
(lp659
S'app_folders'
p660
asbag68
(g89
g70
NtRp661
(dp662
g73
(dp663
g100
g101
ssg82
g652
sg75
(lp664
S':'
asbag68
(g89
g70
NtRp665
(dp666
g73
(dp667
sg82
g652
sg75
(lp668
g68
(g69
g70
NtRp669
(dp670
g73
(dp671
g81
I4
ssg82
g665
sg75
(lp672
S"set(['/home/marco/proyectos/web2py-trunk/applications/mvstore/', '/home/marco/proyectos/web2py-trunk/applications/admin/'])"
p673
asbasbasbag68
(g84
g70
NtRp674
(dp675
g73
(dp676
sg82
g648
sg75
(lp677
g68
(g89
g70
NtRp678
(dp679
g73
(dp680
g93
g94
ssg82
g674
sg75
(lp681
S'applications_parent'
p682
asbag68
(g89
g70
NtRp683
(dp684
g73
(dp685
g100
g101
ssg82
g674
sg75
(lp686
S':'
asbag68
(g89
g70
NtRp687
(dp688
g73
(dp689
sg82
g674
sg75
(lp690
g68
(g69
g70
NtRp691
(dp692
g73
(dp693
g81
I4
ssg82
g687
sg75
(lp694
S'/home/marco/proyectos/web2py-trunk'
p695
asbasbasbag68
(g84
g70
NtRp696
(dp697
g73
(dp698
sg82
g648
sg75
(lp699
g68
(g89
g70
NtRp700
(dp701
g73
(dp702
g93
g94
ssg82
g696
sg75
(lp703
S'cmd_args'
p704
asbag68
(g89
g70
NtRp705
(dp706
g73
(dp707
g100
g101
ssg82
g696
sg75
(lp708
S':'
asbag68
(g89
g70
NtRp709
(dp710
g73
(dp711
sg82
g696
sg75
(lp712
g68
(g69
g70
NtRp713
(dp714
g73
(dp715
g81
I4
ssg82
g709
sg75
(lp716
g68
(g77
g70
NtRp717
(dp718
g73
(dp719
g81
I3
ssg82
Nsg75
(lp720
sbasbasbasbag68
(g84
g70
NtRp721
(dp722
g73
(dp723
sg82
g648
sg75
(lp724
g68
(g89
g70
NtRp725
(dp726
g73
(dp727
g93
g94
ssg82
g721
sg75
(lp728
S'cmd_options'
p729
asbag68
(g89
g70
NtRp730
(dp731
g73
(dp732
g100
g101
ssg82
g721
sg75
(lp733
S':'
asbag68
(g89
g70
NtRp734
(dp735
g73
(dp736
sg82
g721
sg75
(lp737
g68
(g69
g70
NtRp738
(dp739
g73
(dp740
g81
I4
ssg82
g734
sg75
(lp741
S"<Values at 0x1e61b90: {'verbose': False, 'ip': '127.0.0.1', 'shutdown_timeout': 5, 'taskbar': False, 'port': 8000, 'maxthreads': None, 'softcron': False, 'server_name': 'kiki', 'bpython': False, 'nogui': False, 'nocron': False, 'extcron': False, 'debuglevel': 30, 'test': None, 'folder': '/home/marco/proyectos/web2py-trunk', 'config': '', 'import_models': False, 'winservice': '', 'shell': None, 'run': '', 'log_filename': 'httpserver.log', 'args': [''], 'profiler_filename': None, 'ssl_private_key': '', 'password': 'asd', 'request_queue_size': 5, 'ssl_certificate': '', 'cronjob': False, 'plain': False, 'quiet': False, 'interfaces': None, 'minthreads': None, 'timeout': 10, 'numthreads': None, 'nobanner': False, 'pid_filename': 'httpserver.pid'}>"
p742
asbasbasbag68
(g84
g70
NtRp743
(dp744
g73
(dp745
sg82
g648
sg75
(lp746
g68
(g89
g70
NtRp747
(dp748
g73
(dp749
g93
g94
ssg82
g743
sg75
(lp750
S'content_length'
p751
asbag68
(g89
g70
NtRp752
(dp753
g73
(dp754
g100
g101
ssg82
g743
sg75
(lp755
S':'
asbag68
(g89
g70
NtRp756
(dp757
g73
(dp758
sg82
g743
sg75
(lp759
g68
(g69
g70
NtRp760
(dp761
g73
(dp762
g81
I4
ssg82
g756
sg75
(lp763
S'141'
p764
asbasbasbag68
(g84
g70
NtRp765
(dp766
g73
(dp767
sg82
g648
sg75
(lp768
g68
(g89
g70
NtRp769
(dp770
g73
(dp771
g93
g94
ssg82
g765
sg75
(lp772
S'content_type'
p773
asbag68
(g89
g70
NtRp774
(dp775
g73
(dp776
g100
g101
ssg82
g765
sg75
(lp777
S':'
asbag68
(g89
g70
NtRp778
(dp779
g73
(dp780
sg82
g765
sg75
(lp781
g68
(g69
g70
NtRp782
(dp783
g73
(dp784
g81
I4
ssg82
g778
sg75
(lp785
S'multipart/form-data; boundary=----WebKitFormBoundaryQijUxJDjWdS4xqTl'
p786
asbasbasbag68
(g84
g70
NtRp787
(dp788
g73
(dp789
sg82
g648
sg75
(lp790
g68
(g89
g70
NtRp791
(dp792
g73
(dp793
g93
g94
ssg82
g787
sg75
(lp794
S'db_sessions'
p795
asbag68
(g89
g70
NtRp796
(dp797
g73
(dp798
g100
g101
ssg82
g787
sg75
(lp799
S':'
asbag68
(g89
g70
NtRp800
(dp801
g73
(dp802
sg82
g787
sg75
(lp803
g68
(g69
g70
NtRp804
(dp805
g73
(dp806
g81
I4
ssg82
g800
sg75
(lp807
S'set([])'
p808
asbasbasbag68
(g84
g70
NtRp809
(dp810
g73
(dp811
sg82
g648
sg75
(lp812
g68
(g89
g70
NtRp813
(dp814
g73
(dp815
g93
g94
ssg82
g809
sg75
(lp816
S'debugging'
p817
asbag68
(g89
g70
NtRp818
(dp819
g73
(dp820
g100
g101
ssg82
g809
sg75
(lp821
S':'
asbag68
(g89
g70
NtRp822
(dp823
g73
(dp824
sg82
g809
sg75
(lp825
g68
(g69
g70
NtRp826
(dp827
g73
(dp828
g81
I4
ssg82
g822
sg75
(lp829
g111
asbasbasbag68
(g84
g70
NtRp830
(dp831
g73
(dp832
sg82
g648
sg75
(lp833
g68
(g89
g70
NtRp834
(dp835
g73
(dp836
g93
g94
ssg82
g830
sg75
(lp837
S'gluon_parent'
p838
asbag68
(g89
g70
NtRp839
(dp840
g73
(dp841
g100
g101
ssg82
g830
sg75
(lp842
S':'
asbag68
(g89
g70
NtRp843
(dp844
g73
(dp845
sg82
g830
sg75
(lp846
g68
(g69
g70
NtRp847
(dp848
g73
(dp849
g81
I4
ssg82
g843
sg75
(lp850
S'/home/marco/proyectos/web2py-trunk'
p851
asbasbasbag68
(g84
g70
NtRp852
(dp853
g73
(dp854
sg82
g648
sg75
(lp855
g68
(g89
g70
NtRp856
(dp857
g73
(dp858
g93
g94
ssg82
g852
sg75
(lp859
S'http_accept'
p860
asbag68
(g89
g70
NtRp861
(dp862
g73
(dp863
g100
g101
ssg82
g852
sg75
(lp864
S':'
asbag68
(g89
g70
NtRp865
(dp866
g73
(dp867
sg82
g852
sg75
(lp868
g68
(g69
g70
NtRp869
(dp870
g73
(dp871
g81
I4
ssg82
g865
sg75
(lp872
S'application/xml,application/xhtml+xml,text/html;q=0.9,text/plain;q=0.8,image/png,*/*;q=0.5'
p873
asbasbasbag68
(g84
g70
NtRp874
(dp875
g73
(dp876
sg82
g648
sg75
(lp877
g68
(g89
g70
NtRp878
(dp879
g73
(dp880
g93
g94
ssg82
g874
sg75
(lp881
S'http_accept_charset'
p882
asbag68
(g89
g70
NtRp883
(dp884
g73
(dp885
g100
g101
ssg82
g874
sg75
(lp886
S':'
asbag68
(g89
g70
NtRp887
(dp888
g73
(dp889
sg82
g874
sg75
(lp890
g68
(g69
g70
NtRp891
(dp892
g73
(dp893
g81
I4
ssg82
g887
sg75
(lp894
S'ISO-8859-1,utf-8;q=0.7,*;q=0.3'
p895
asbasbasbag68
(g84
g70
NtRp896
(dp897
g73
(dp898
sg82
g648
sg75
(lp899
g68
(g89
g70
NtRp900
(dp901
g73
(dp902
g93
g94
ssg82
g896
sg75
(lp903
S'http_accept_encoding'
p904
asbag68
(g89
g70
NtRp905
(dp906
g73
(dp907
g100
g101
ssg82
g896
sg75
(lp908
S':'
asbag68
(g89
g70
NtRp909
(dp910
g73
(dp911
sg82
g896
sg75
(lp912
g68
(g69
g70
NtRp913
(dp914
g73
(dp915
g81
I4
ssg82
g909
sg75
(lp916
S'gzip,deflate,sdch'
p917
asbasbasbag68
(g84
g70
NtRp918
(dp919
g73
(dp920
sg82
g648
sg75
(lp921
g68
(g89
g70
NtRp922
(dp923
g73
(dp924
g93
g94
ssg82
g918
sg75
(lp925
S'http_accept_language'
p926
asbag68
(g89
g70
NtRp927
(dp928
g73
(dp929
g100
g101
ssg82
g918
sg75
(lp930
S':'
asbag68
(g89
g70
NtRp931
(dp932
g73
(dp933
sg82
g918
sg75
(lp934
g68
(g69
g70
NtRp935
(dp936
g73
(dp937
g81
I4
ssg82
g931
sg75
(lp938
S'es,en-US;q=0.8,en;q=0.6'
p939
asbasbasbag68
(g84
g70
NtRp940
(dp941
g73
(dp942
sg82
g648
sg75
(lp943
g68
(g89
g70
NtRp944
(dp945
g73
(dp946
g93
g94
ssg82
g940
sg75
(lp947
S'http_cache_control'
p948
asbag68
(g89
g70
NtRp949
(dp950
g73
(dp951
g100
g101
ssg82
g940
sg75
(lp952
S':'
asbag68
(g89
g70
NtRp953
(dp954
g73
(dp955
sg82
g940
sg75
(lp956
g68
(g69
g70
NtRp957
(dp958
g73
(dp959
g81
I4
ssg82
g953
sg75
(lp960
S'max-age=0'
p961
asbasbasbag68
(g84
g70
NtRp962
(dp963
g73
(dp964
sg82
g648
sg75
(lp965
g68
(g89
g70
NtRp966
(dp967
g73
(dp968
g93
g94
ssg82
g962
sg75
(lp969
S'http_connection'
p970
asbag68
(g89
g70
NtRp971
(dp972
g73
(dp973
g100
g101
ssg82
g962
sg75
(lp974
S':'
asbag68
(g89
g70
NtRp975
(dp976
g73
(dp977
sg82
g962
sg75
(lp978
g68
(g69
g70
NtRp979
(dp980
g73
(dp981
g81
I4
ssg82
g975
sg75
(lp982
S'keep-alive'
p983
asbasbasbag68
(g84
g70
NtRp984
(dp985
g73
(dp986
sg82
g648
sg75
(lp987
g68
(g89
g70
NtRp988
(dp989
g73
(dp990
g93
g94
ssg82
g984
sg75
(lp991
S'http_content_length'
p992
asbag68
(g89
g70
NtRp993
(dp994
g73
(dp995
g100
g101
ssg82
g984
sg75
(lp996
S':'
asbag68
(g89
g70
NtRp997
(dp998
g73
(dp999
sg82
g984
sg75
(lp1000
g68
(g69
g70
NtRp1001
(dp1002
g73
(dp1003
g81
I4
ssg82
g997
sg75
(lp1004
g764
asbasbasbag68
(g84
g70
NtRp1005
(dp1006
g73
(dp1007
sg82
g648
sg75
(lp1008
g68
(g89
g70
NtRp1009
(dp1010
g73
(dp1011
g93
g94
ssg82
g1005
sg75
(lp1012
S'http_content_type'
p1013
asbag68
(g89
g70
NtRp1014
(dp1015
g73
(dp1016
g100
g101
ssg82
g1005
sg75
(lp1017
S':'
asbag68
(g89
g70
NtRp1018
(dp1019
g73
(dp1020
sg82
g1005
sg75
(lp1021
g68
(g69
g70
NtRp1022
(dp1023
g73
(dp1024
g81
I4
ssg82
g1018
sg75
(lp1025
g786
asbasbasbag68
(g84
g70
NtRp1026
(dp1027
g73
(dp1028
sg82
g648
sg75
(lp1029
g68
(g89
g70
NtRp1030
(dp1031
g73
(dp1032
g93
g94
ssg82
g1026
sg75
(lp1033
S'http_cookie'
p1034
asbag68
(g89
g70
NtRp1035
(dp1036
g73
(dp1037
g100
g101
ssg82
g1026
sg75
(lp1038
S':'
asbag68
(g89
g70
NtRp1039
(dp1040
g73
(dp1041
sg82
g1026
sg75
(lp1042
g68
(g69
g70
NtRp1043
(dp1044
g73
(dp1045
g81
I4
ssg82
g1039
sg75
(lp1046
S'session_id_admin=127.0.0.1-da4b3bc6-19bf-4a7c-8c73-17607af696fa; session_id_mvstore=127.0.0.1-3ec2a4ac-05f5-4854-b4fa-4eb0800a1e72'
p1047
asbasbasbag68
(g84
g70
NtRp1048
(dp1049
g73
(dp1050
sg82
g648
sg75
(lp1051
g68
(g89
g70
NtRp1052
(dp1053
g73
(dp1054
g93
g94
ssg82
g1048
sg75
(lp1055
S'http_host'
p1056
asbag68
(g89
g70
NtRp1057
(dp1058
g73
(dp1059
g100
g101
ssg82
g1048
sg75
(lp1060
S':'
asbag68
(g89
g70
NtRp1061
(dp1062
g73
(dp1063
sg82
g1048
sg75
(lp1064
g68
(g69
g70
NtRp1065
(dp1066
g73
(dp1067
g81
I4
ssg82
g1061
sg75
(lp1068
S'127.0.0.1:8000'
p1069
asbasbasbag68
(g84
g70
NtRp1070
(dp1071
g73
(dp1072
sg82
g648
sg75
(lp1073
g68
(g89
g70
NtRp1074
(dp1075
g73
(dp1076
g93
g94
ssg82
g1070
sg75
(lp1077
S'http_origin'
p1078
asbag68
(g89
g70
NtRp1079
(dp1080
g73
(dp1081
g100
g101
ssg82
g1070
sg75
(lp1082
S':'
asbag68
(g89
g70
NtRp1083
(dp1084
g73
(dp1085
sg82
g1070
sg75
(lp1086
g68
(g69
g70
NtRp1087
(dp1088
g73
(dp1089
g81
I4
ssg82
g1083
sg75
(lp1090
S'http://127.0.0.1:8000'
p1091
asbasbasbag68
(g84
g70
NtRp1092
(dp1093
g73
(dp1094
sg82
g648
sg75
(lp1095
g68
(g89
g70
NtRp1096
(dp1097
g73
(dp1098
g93
g94
ssg82
g1092
sg75
(lp1099
S'http_referer'
p1100
asbag68
(g89
g70
NtRp1101
(dp1102
g73
(dp1103
g100
g101
ssg82
g1092
sg75
(lp1104
S':'
asbag68
(g89
g70
NtRp1105
(dp1106
g73
(dp1107
sg82
g1092
sg75
(lp1108
g68
(g69
g70
NtRp1109
(dp1110
g73
(dp1111
g81
I4
ssg82
g1105
sg75
(lp1112
S'http://127.0.0.1:8000/mvstore/default/busqueda'
p1113
asbasbasbag68
(g84
g70
NtRp1114
(dp1115
g73
(dp1116
sg82
g648
sg75
(lp1117
g68
(g89
g70
NtRp1118
(dp1119
g73
(dp1120
g93
g94
ssg82
g1114
sg75
(lp1121
S'http_user_agent'
p1122
asbag68
(g89
g70
NtRp1123
(dp1124
g73
(dp1125
g100
g101
ssg82
g1114
sg75
(lp1126
S':'
asbag68
(g89
g70
NtRp1127
(dp1128
g73
(dp1129
sg82
g1114
sg75
(lp1130
g68
(g69
g70
NtRp1131
(dp1132
g73
(dp1133
g81
I4
ssg82
g1127
sg75
(lp1134
S'Mozilla/5.0 (X11; U; Linux x86_64; en-US) AppleWebKit/534.16 (KHTML, like Gecko) Chrome/10.0.648.205 Safari/534.16'
p1135
asbasbasbag68
(g84
g70
NtRp1136
(dp1137
g73
(dp1138
sg82
g648
sg75
(lp1139
g68
(g89
g70
NtRp1140
(dp1141
g73
(dp1142
g93
g94
ssg82
g1136
sg75
(lp1143
S'path_info'
p1144
asbag68
(g89
g70
NtRp1145
(dp1146
g73
(dp1147
g100
g101
ssg82
g1136
sg75
(lp1148
S':'
asbag68
(g89
g70
NtRp1149
(dp1150
g73
(dp1151
sg82
g1136
sg75
(lp1152
g68
(g69
g70
NtRp1153
(dp1154
g73
(dp1155
g81
I4
ssg82
g1149
sg75
(lp1156
S'/mvstore/default/busqueda'
p1157
asbasbasbag68
(g84
g70
NtRp1158
(dp1159
g73
(dp1160
sg82
g648
sg75
(lp1161
g68
(g89
g70
NtRp1162
(dp1163
g73
(dp1164
g93
g94
ssg82
g1158
sg75
(lp1165
S'query_string'
p1166
asbag68
(g89
g70
NtRp1167
(dp1168
g73
(dp1169
g100
g101
ssg82
g1158
sg75
(lp1170
S':'
asbag68
(g89
g70
NtRp1171
(dp1172
g73
(dp1173
sg82
g1158
sg75
(lp1174
g68
(g69
g70
NtRp1175
(dp1176
g73
(dp1177
g81
I4
ssg82
g1171
sg75
(lp1178
S''
asbasbasbag68
(g84
g70
NtRp1179
(dp1180
g73
(dp1181
sg82
g648
sg75
(lp1182
g68
(g89
g70
NtRp1183
(dp1184
g73
(dp1185
g93
g94
ssg82
g1179
sg75
(lp1186
S'remote_addr'
p1187
asbag68
(g89
g70
NtRp1188
(dp1189
g73
(dp1190
g100
g101
ssg82
g1179
sg75
(lp1191
S':'
asbag68
(g89
g70
NtRp1192
(dp1193
g73
(dp1194
sg82
g1179
sg75
(lp1195
g68
(g69
g70
NtRp1196
(dp1197
g73
(dp1198
g81
I4
ssg82
g1192
sg75
(lp1199
g201
asbasbasbag68
(g84
g70
NtRp1200
(dp1201
g73
(dp1202
sg82
g648
sg75
(lp1203
g68
(g89
g70
NtRp1204
(dp1205
g73
(dp1206
g93
g94
ssg82
g1200
sg75
(lp1207
S'remote_port'
p1208
asbag68
(g89
g70
NtRp1209
(dp1210
g73
(dp1211
g100
g101
ssg82
g1200
sg75
(lp1212
S':'
asbag68
(g89
g70
NtRp1213
(dp1214
g73
(dp1215
sg82
g1200
sg75
(lp1216
g68
(g69
g70
NtRp1217
(dp1218
g73
(dp1219
g81
I4
ssg82
g1213
sg75
(lp1220
S'55682'
p1221
asbasbasbag68
(g84
g70
NtRp1222
(dp1223
g73
(dp1224
sg82
g648
sg75
(lp1225
g68
(g89
g70
NtRp1226
(dp1227
g73
(dp1228
g93
g94
ssg82
g1222
sg75
(lp1229
S'request_method'
p1230
asbag68
(g89
g70
NtRp1231
(dp1232
g73
(dp1233
g100
g101
ssg82
g1222
sg75
(lp1234
S':'
asbag68
(g89
g70
NtRp1235
(dp1236
g73
(dp1237
sg82
g1222
sg75
(lp1238
g68
(g69
g70
NtRp1239
(dp1240
g73
(dp1241
g81
I4
ssg82
g1235
sg75
(lp1242
S'POST'
p1243
asbasbasbag68
(g84
g70
NtRp1244
(dp1245
g73
(dp1246
sg82
g648
sg75
(lp1247
g68
(g89
g70
NtRp1248
(dp1249
g73
(dp1250
g93
g94
ssg82
g1244
sg75
(lp1251
S'script_name'
p1252
asbag68
(g89
g70
NtRp1253
(dp1254
g73
(dp1255
g100
g101
ssg82
g1244
sg75
(lp1256
S':'
asbag68
(g89
g70
NtRp1257
(dp1258
g73
(dp1259
sg82
g1244
sg75
(lp1260
g68
(g69
g70
NtRp1261
(dp1262
g73
(dp1263
g81
I4
ssg82
g1257
sg75
(lp1264
S''
asbasbasbag68
(g84
g70
NtRp1265
(dp1266
g73
(dp1267
sg82
g648
sg75
(lp1268
g68
(g89
g70
NtRp1269
(dp1270
g73
(dp1271
g93
g94
ssg82
g1265
sg75
(lp1272
S'server_name'
p1273
asbag68
(g89
g70
NtRp1274
(dp1275
g73
(dp1276
g100
g101
ssg82
g1265
sg75
(lp1277
S':'
asbag68
(g89
g70
NtRp1278
(dp1279
g73
(dp1280
sg82
g1265
sg75
(lp1281
g68
(g69
g70
NtRp1282
(dp1283
g73
(dp1284
g81
I4
ssg82
g1278
sg75
(lp1285
S'kiki'
p1286
asbasbasbag68
(g84
g70
NtRp1287
(dp1288
g73
(dp1289
sg82
g648
sg75
(lp1290
g68
(g89
g70
NtRp1291
(dp1292
g73
(dp1293
g93
g94
ssg82
g1287
sg75
(lp1294
S'server_port'
p1295
asbag68
(g89
g70
NtRp1296
(dp1297
g73
(dp1298
g100
g101
ssg82
g1287
sg75
(lp1299
S':'
asbag68
(g89
g70
NtRp1300
(dp1301
g73
(dp1302
sg82
g1287
sg75
(lp1303
g68
(g69
g70
NtRp1304
(dp1305
g73
(dp1306
g81
I4
ssg82
g1300
sg75
(lp1307
S'8000'
p1308
asbasbasbag68
(g84
g70
NtRp1309
(dp1310
g73
(dp1311
sg82
g648
sg75
(lp1312
g68
(g89
g70
NtRp1313
(dp1314
g73
(dp1315
g93
g94
ssg82
g1309
sg75
(lp1316
S'server_protocol'
p1317
asbag68
(g89
g70
NtRp1318
(dp1319
g73
(dp1320
g100
g101
ssg82
g1309
sg75
(lp1321
S':'
asbag68
(g89
g70
NtRp1322
(dp1323
g73
(dp1324
sg82
g1309
sg75
(lp1325
g68
(g69
g70
NtRp1326
(dp1327
g73
(dp1328
g81
I4
ssg82
g1322
sg75
(lp1329
S'HTTP/1.1'
p1330
asbasbasbag68
(g84
g70
NtRp1331
(dp1332
g73
(dp1333
sg82
g648
sg75
(lp1334
g68
(g89
g70
NtRp1335
(dp1336
g73
(dp1337
g93
g94
ssg82
g1331
sg75
(lp1338
S'server_software'
p1339
asbag68
(g89
g70
NtRp1340
(dp1341
g73
(dp1342
g100
g101
ssg82
g1331
sg75
(lp1343
S':'
asbag68
(g89
g70
NtRp1344
(dp1345
g73
(dp1346
sg82
g1331
sg75
(lp1347
g68
(g69
g70
NtRp1348
(dp1349
g73
(dp1350
g81
I4
ssg82
g1344
sg75
(lp1351
S'Rocket 1.2.2'
p1352
asbasbasbag68
(g84
g70
NtRp1353
(dp1354
g73
(dp1355
sg82
g648
sg75
(lp1356
g68
(g89
g70
NtRp1357
(dp1358
g73
(dp1359
g93
g94
ssg82
g1353
sg75
(lp1360
S'web2py_crontype'
p1361
asbag68
(g89
g70
NtRp1362
(dp1363
g73
(dp1364
g100
g101
ssg82
g1353
sg75
(lp1365
S':'
asbag68
(g89
g70
NtRp1366
(dp1367
g73
(dp1368
sg82
g1353
sg75
(lp1369
g68
(g69
g70
NtRp1370
(dp1371
g73
(dp1372
g81
I4
ssg82
g1366
sg75
(lp1373
S'hard'
p1374
asbasbasbag68
(g84
g70
NtRp1375
(dp1376
g73
(dp1377
sg82
g648
sg75
(lp1378
g68
(g89
g70
NtRp1379
(dp1380
g73
(dp1381
g93
g94
ssg82
g1375
sg75
(lp1382
S'web2py_path'
p1383
asbag68
(g89
g70
NtRp1384
(dp1385
g73
(dp1386
g100
g101
ssg82
g1375
sg75
(lp1387
S':'
asbag68
(g89
g70
NtRp1388
(dp1389
g73
(dp1390
sg82
g1375
sg75
(lp1391
g68
(g69
g70
NtRp1392
(dp1393
g73
(dp1394
g81
I4
ssg82
g1388
sg75
(lp1395
g695
asbasbasbag68
(g84
g70
NtRp1396
(dp1397
g73
(dp1398
sg82
g648
sg75
(lp1399
g68
(g89
g70
NtRp1400
(dp1401
g73
(dp1402
g93
g94
ssg82
g1396
sg75
(lp1403
S'web2py_version'
p1404
asbag68
(g89
g70
NtRp1405
(dp1406
g73
(dp1407
g100
g101
ssg82
g1396
sg75
(lp1408
S':'
asbag68
(g89
g70
NtRp1409
(dp1410
g73
(dp1411
sg82
g1396
sg75
(lp1412
g68
(g69
g70
NtRp1413
(dp1414
g73
(dp1415
g81
I4
ssg82
g1409
sg75
(lp1416
S'        iersion 1.94.1 (2011-03-17 16:30:58)\n'
p1417
asbasbasbag68
(g84
g70
NtRp1418
(dp1419
g73
(dp1420
sg82
g648
sg75
(lp1421
g68
(g89
g70
NtRp1422
(dp1423
g73
(dp1424
g93
g94
ssg82
g1418
sg75
(lp1425
S'wsgi_errors'
p1426
asbag68
(g89
g70
NtRp1427
(dp1428
g73
(dp1429
g100
g101
ssg82
g1418
sg75
(lp1430
S':'
asbag68
(g89
g70
NtRp1431
(dp1432
g73
(dp1433
sg82
g1418
sg75
(lp1434
g68
(g69
g70
NtRp1435
(dp1436
g73
(dp1437
g81
I4
ssg82
g1431
sg75
(lp1438
S"<open file '<stderr>', mode 'w' at 0x7f65db6f81e0>"
p1439
asbasbasbag68
(g84
g70
NtRp1440
(dp1441
g73
(dp1442
sg82
g648
sg75
(lp1443
g68
(g89
g70
NtRp1444
(dp1445
g73
(dp1446
g93
g94
ssg82
g1440
sg75
(lp1447
S'wsgi_file_wrapper'
p1448
asbag68
(g89
g70
NtRp1449
(dp1450
g73
(dp1451
g100
g101
ssg82
g1440
sg75
(lp1452
S':'
asbag68
(g89
g70
NtRp1453
(dp1454
g73
(dp1455
sg82
g1440
sg75
(lp1456
g68
(g69
g70
NtRp1457
(dp1458
g73
(dp1459
g81
I4
ssg82
g1453
sg75
(lp1460
S'<class gluon.rocket.FileWrapper at 0x1cd43b0>'
p1461
asbasbasbag68
(g84
g70
NtRp1462
(dp1463
g73
(dp1464
sg82
g648
sg75
(lp1465
g68
(g89
g70
NtRp1466
(dp1467
g73
(dp1468
g93
g94
ssg82
g1462
sg75
(lp1469
S'wsgi_input'
p1470
asbag68
(g89
g70
NtRp1471
(dp1472
g73
(dp1473
g100
g101
ssg82
g1462
sg75
(lp1474
S':'
asbag68
(g89
g70
NtRp1475
(dp1476
g73
(dp1477
sg82
g1462
sg75
(lp1478
g68
(g69
g70
NtRp1479
(dp1480
g73
(dp1481
g81
I4
ssg82
g1475
sg75
(lp1482
S'<socket._fileobject object at 0x2707750>'
p1483
asbasbasbag68
(g84
g70
NtRp1484
(dp1485
g73
(dp1486
sg82
g648
sg75
(lp1487
g68
(g89
g70
NtRp1488
(dp1489
g73
(dp1490
g93
g94
ssg82
g1484
sg75
(lp1491
S'wsgi_multiprocess'
p1492
asbag68
(g89
g70
NtRp1493
(dp1494
g73
(dp1495
g100
g101
ssg82
g1484
sg75
(lp1496
S':'
asbag68
(g89
g70
NtRp1497
(dp1498
g73
(dp1499
sg82
g1484
sg75
(lp1500
g68
(g69
g70
NtRp1501
(dp1502
g73
(dp1503
g81
I4
ssg82
g1497
sg75
(lp1504
g111
asbasbasbag68
(g84
g70
NtRp1505
(dp1506
g73
(dp1507
sg82
g648
sg75
(lp1508
g68
(g89
g70
NtRp1509
(dp1510
g73
(dp1511
g93
g94
ssg82
g1505
sg75
(lp1512
S'wsgi_multithread'
p1513
asbag68
(g89
g70
NtRp1514
(dp1515
g73
(dp1516
g100
g101
ssg82
g1505
sg75
(lp1517
S':'
asbag68
(g89
g70
NtRp1518
(dp1519
g73
(dp1520
sg82
g1505
sg75
(lp1521
g68
(g69
g70
NtRp1522
(dp1523
g73
(dp1524
g81
I4
ssg82
g1518
sg75
(lp1525
S'True'
p1526
asbasbasbag68
(g84
g70
NtRp1527
(dp1528
g73
(dp1529
sg82
g648
sg75
(lp1530
g68
(g89
g70
NtRp1531
(dp1532
g73
(dp1533
g93
g94
ssg82
g1527
sg75
(lp1534
S'wsgi_run_once'
p1535
asbag68
(g89
g70
NtRp1536
(dp1537
g73
(dp1538
g100
g101
ssg82
g1527
sg75
(lp1539
S':'
asbag68
(g89
g70
NtRp1540
(dp1541
g73
(dp1542
sg82
g1527
sg75
(lp1543
g68
(g69
g70
NtRp1544
(dp1545
g73
(dp1546
g81
I4
ssg82
g1540
sg75
(lp1547
g111
asbasbasbag68
(g84
g70
NtRp1548
(dp1549
g73
(dp1550
sg82
g648
sg75
(lp1551
g68
(g89
g70
NtRp1552
(dp1553
g73
(dp1554
g93
g94
ssg82
g1548
sg75
(lp1555
S'wsgi_url_scheme'
p1556
asbag68
(g89
g70
NtRp1557
(dp1558
g73
(dp1559
g100
g101
ssg82
g1548
sg75
(lp1560
S':'
asbag68
(g89
g70
NtRp1561
(dp1562
g73
(dp1563
sg82
g1548
sg75
(lp1564
g68
(g69
g70
NtRp1565
(dp1566
g73
(dp1567
g81
I4
ssg82
g1561
sg75
(lp1568
S'http'
p1569
asbasbasbag68
(g84
g70
NtRp1570
(dp1571
g73
(dp1572
sg82
g648
sg75
(lp1573
g68
(g89
g70
NtRp1574
(dp1575
g73
(dp1576
g93
g94
ssg82
g1570
sg75
(lp1577
S'wsgi_version'
p1578
asbag68
(g89
g70
NtRp1579
(dp1580
g73
(dp1581
g100
g101
ssg82
g1570
sg75
(lp1582
S':'
asbag68
(g89
g70
NtRp1583
(dp1584
g73
(dp1585
sg82
g1570
sg75
(lp1586
g68
(g69
g70
NtRp1587
(dp1588
g73
(dp1589
g81
I4
ssg82
g1583
sg75
(lp1590
g68
(g77
g70
NtRp1591
(dp1592
g73
(dp1593
g81
I3
ssg82
Nsg75
(lp1594
g68
(g84
g70
NtRp1595
(dp1596
g73
(dp1597
sg82
g1591
sg75
(lp1598
g68
(g89
g70
NtRp1599
(dp1600
g73
(dp1601
sg82
g1595
sg75
(lp1602
g68
(g69
g70
NtRp1603
(dp1604
g73
(dp1605
g81
I3
ssg82
g1599
sg75
(lp1606
S'1'
asbasbasbag68
(g84
g70
NtRp1607
(dp1608
g73
(dp1609
sg82
g1591
sg75
(lp1610
g68
(g89
g70
NtRp1611
(dp1612
g73
(dp1613
sg82
g1607
sg75
(lp1614
g68
(g69
g70
NtRp1615
(dp1616
g73
(dp1617
g81
I3
ssg82
g1611
sg75
(lp1618
S'0'
asbasbasbasbasbasbasbasbasbasbasbag68
(g84
g70
NtRp1619
(dp1620
g73
(dp1621
sg82
g78
sg75
(lp1622
g68
(g89
g70
NtRp1623
(dp1624
g73
(dp1625
g93
g94
ssg82
g1619
sg75
(lp1626
S'extension'
p1627
asbag68
(g89
g70
NtRp1628
(dp1629
g73
(dp1630
g100
g101
ssg82
g1619
sg75
(lp1631
S':'
asbag68
(g89
g70
NtRp1632
(dp1633
g73
(dp1634
sg82
g1619
sg75
(lp1635
g68
(g69
g70
NtRp1636
(dp1637
g73
(dp1638
g81
I5
ssg82
g1632
sg75
(lp1639
S'html'
p1640
asbasbasbag68
(g84
g70
NtRp1641
(dp1642
g73
(dp1643
sg82
g78
sg75
(lp1644
g68
(g89
g70
NtRp1645
(dp1646
g73
(dp1647
g93
g94
ssg82
g1641
sg75
(lp1648
S'folder'
p1649
asbag68
(g89
g70
NtRp1650
(dp1651
g73
(dp1652
g100
g101
ssg82
g1641
sg75
(lp1653
S':'
asbag68
(g89
g70
NtRp1654
(dp1655
g73
(dp1656
sg82
g1641
sg75
(lp1657
g68
(g69
g70
NtRp1658
(dp1659
g73
(dp1660
g81
I5
ssg82
g1654
sg75
(lp1661
S'/home/marco/proyectos/web2py-trunk/applications/mvstore/'
p1662
asbasbasbag68
(g84
g70
NtRp1663
(dp1664
g73
(dp1665
sg82
g78
sg75
(lp1666
g68
(g89
g70
NtRp1667
(dp1668
g73
(dp1669
g93
g94
ssg82
g1663
sg75
(lp1670
S'function'
p1671
asbag68
(g89
g70
NtRp1672
(dp1673
g73
(dp1674
g100
g101
ssg82
g1663
sg75
(lp1675
S':'
asbag68
(g89
g70
NtRp1676
(dp1677
g73
(dp1678
sg82
g1663
sg75
(lp1679
g68
(g69
g70
NtRp1680
(dp1681
g73
(dp1682
g81
I5
ssg82
g1676
sg75
(lp1683
S'busqueda'
p1684
asbasbasbag68
(g84
g70
NtRp1685
(dp1686
g73
(dp1687
sg82
g78
sg75
(lp1688
g68
(g89
g70
NtRp1689
(dp1690
g73
(dp1691
g93
g94
ssg82
g1685
sg75
(lp1692
S'get_vars'
p1693
asbag68
(g89
g70
NtRp1694
(dp1695
g73
(dp1696
g100
g101
ssg82
g1685
sg75
(lp1697
S':'
asbag68
(g89
g70
NtRp1698
(dp1699
g73
(dp1700
sg82
g1685
sg75
(lp1701
g68
(g69
g70
NtRp1702
(dp1703
g73
(dp1704
g81
I5
ssg82
g1698
sg75
(lp1705
g68
(g77
g70
NtRp1706
(dp1707
g73
(dp1708
g81
I4
ssg82
Nsg75
(lp1709
sbasbasbasbag68
(g84
g70
NtRp1710
(dp1711
g73
(dp1712
sg82
g78
sg75
(lp1713
g68
(g89
g70
NtRp1714
(dp1715
g73
(dp1716
g93
g94
ssg82
g1710
sg75
(lp1717
S'is_https'
p1718
asbag68
(g89
g70
NtRp1719
(dp1720
g73
(dp1721
g100
g101
ssg82
g1710
sg75
(lp1722
S':'
asbag68
(g89
g70
NtRp1723
(dp1724
g73
(dp1725
sg82
g1710
sg75
(lp1726
g68
(g69
g70
NtRp1727
(dp1728
g73
(dp1729
g81
I5
ssg82
g1723
sg75
(lp1730
g111
asbasbasbag68
(g84
g70
NtRp1731
(dp1732
g73
(dp1733
sg82
g78
sg75
(lp1734
g68
(g89
g70
NtRp1735
(dp1736
g73
(dp1737
g93
g94
ssg82
g1731
sg75
(lp1738
S'is_local'
p1739
asbag68
(g89
g70
NtRp1740
(dp1741
g73
(dp1742
g100
g101
ssg82
g1731
sg75
(lp1743
S':'
asbag68
(g89
g70
NtRp1744
(dp1745
g73
(dp1746
sg82
g1731
sg75
(lp1747
g68
(g69
g70
NtRp1748
(dp1749
g73
(dp1750
g81
I5
ssg82
g1744
sg75
(lp1751
g1526
asbasbasbag68
(g84
g70
NtRp1752
(dp1753
g73
(dp1754
sg82
g78
sg75
(lp1755
g68
(g89
g70
NtRp1756
(dp1757
g73
(dp1758
g93
g94
ssg82
g1752
sg75
(lp1759
S'is_restful'
p1760
asbag68
(g89
g70
NtRp1761
(dp1762
g73
(dp1763
g100
g101
ssg82
g1752
sg75
(lp1764
S':'
asbag68
(g89
g70
NtRp1765
(dp1766
g73
(dp1767
sg82
g1752
sg75
(lp1768
g68
(g69
g70
NtRp1769
(dp1770
g73
(dp1771
g81
I5
ssg82
g1765
sg75
(lp1772
g111
asbasbasbag68
(g84
g70
NtRp1773
(dp1774
g73
(dp1775
sg82
g78
sg75
(lp1776
g68
(g89
g70
NtRp1777
(dp1778
g73
(dp1779
g93
g94
ssg82
g1773
sg75
(lp1780
S'now'
p1781
asbag68
(g89
g70
NtRp1782
(dp1783
g73
(dp1784
g100
g101
ssg82
g1773
sg75
(lp1785
S':'
asbag68
(g89
g70
NtRp1786
(dp1787
g73
(dp1788
sg82
g1773
sg75
(lp1789
g68
(g69
g70
NtRp1790
(dp1791
g73
(dp1792
g81
I5
ssg82
g1786
sg75
(lp1793
S'datetime.datetime(2011, 6, 19, 21, 13, 51, 503686)'
p1794
asbasbasbag68
(g84
g70
NtRp1795
(dp1796
g73
(dp1797
sg82
g78
sg75
(lp1798
g68
(g89
g70
NtRp1799
(dp1800
g73
(dp1801
g93
g94
ssg82
g1795
sg75
(lp1802
S'post_vars'
p1803
asbag68
(g89
g70
NtRp1804
(dp1805
g73
(dp1806
g100
g101
ssg82
g1795
sg75
(lp1807
S':'
asbag68
(g89
g70
NtRp1808
(dp1809
g73
(dp1810
sg82
g1795
sg75
(lp1811
g68
(g69
g70
NtRp1812
(dp1813
g73
(dp1814
g81
I5
ssg82
g1808
sg75
(lp1815
g68
(g77
g70
NtRp1816
(dp1817
g73
(dp1818
g81
I4
ssg82
Nsg75
(lp1819
g68
(g84
g70
NtRp1820
(dp1821
g73
(dp1822
sg82
g1816
sg75
(lp1823
g68
(g89
g70
NtRp1824
(dp1825
g73
(dp1826
g93
g94
ssg82
g1820
sg75
(lp1827
S'keyword'
p1828
asbag68
(g89
g70
NtRp1829
(dp1830
g73
(dp1831
g100
g101
ssg82
g1820
sg75
(lp1832
S':'
asbag68
(g89
g70
NtRp1833
(dp1834
g73
(dp1835
sg82
g1820
sg75
(lp1836
g68
(g69
g70
NtRp1837
(dp1838
g73
(dp1839
g81
I4
ssg82
g1833
sg75
(lp1840
S'kas'
p1841
asbasbasbasbasbasbasbag68
(g84
g70
NtRp1842
(dp1843
g73
(dp1844
sg82
g78
sg75
(lp1845
g68
(g89
g70
NtRp1846
(dp1847
g73
(dp1848
g93
g94
ssg82
g1842
sg75
(lp1849
S'url'
p1850
asbag68
(g89
g70
NtRp1851
(dp1852
g73
(dp1853
g100
g101
ssg82
g1842
sg75
(lp1854
S':'
asbag68
(g89
g70
NtRp1855
(dp1856
g73
(dp1857
sg82
g1842
sg75
(lp1858
g68
(g69
g70
NtRp1859
(dp1860
g73
(dp1861
g81
I5
ssg82
g1855
sg75
(lp1862
S'/mvstore/default/busqueda'
p1863
asbasbasbag68
(g84
g70
NtRp1864
(dp1865
g73
(dp1866
sg82
g78
sg75
(lp1867
g68
(g89
g70
NtRp1868
(dp1869
g73
(dp1870
g93
g94
ssg82
g1864
sg75
(lp1871
S'uuid'
p1872
asbag68
(g89
g70
NtRp1873
(dp1874
g73
(dp1875
g100
g101
ssg82
g1864
sg75
(lp1876
S':'
asbag68
(g89
g70
NtRp1877
(dp1878
g73
(dp1879
sg82
g1864
sg75
(lp1880
g68
(g69
g70
NtRp1881
(dp1882
g73
(dp1883
g81
I5
ssg82
g1877
sg75
(lp1884
S'mvstore/127.0.0.1.2011-06-19.21-13-51.c45c7929-8c32-4bee-ac53-a37564f79b78'
p1885
asbasbasbag68
(g84
g70
NtRp1886
(dp1887
g73
(dp1888
sg82
g78
sg75
(lp1889
g68
(g89
g70
NtRp1890
(dp1891
g73
(dp1892
g93
g94
ssg82
g1886
sg75
(lp1893
S'vars'
p1894
asbag68
(g89
g70
NtRp1895
(dp1896
g73
(dp1897
g100
g101
ssg82
g1886
sg75
(lp1898
S':'
asbag68
(g89
g70
NtRp1899
(dp1900
g73
(dp1901
sg82
g1886
sg75
(lp1902
g68
(g69
g70
NtRp1903
(dp1904
g73
(dp1905
g81
I5
ssg82
g1899
sg75
(lp1906
g68
(g77
g70
NtRp1907
(dp1908
g73
(dp1909
g81
I4
ssg82
Nsg75
(lp1910
g68
(g84
g70
NtRp1911
(dp1912
g73
(dp1913
sg82
g1907
sg75
(lp1914
g68
(g89
g70
NtRp1915
(dp1916
g73
(dp1917
g93
g94
ssg82
g1911
sg75
(lp1918
g1828
asbag68
(g89
g70
NtRp1919
(dp1920
g73
(dp1921
g100
g101
ssg82
g1911
sg75
(lp1922
S':'
asbag68
(g89
g70
NtRp1923
(dp1924
g73
(dp1925
sg82
g1911
sg75
(lp1926
g68
(g69
g70
NtRp1927
(dp1928
g73
(dp1929
g81
I4
ssg82
g1923
sg75
(lp1930
g1841
asbasbasbasbasbasbasbag68
(g84
g70
NtRp1931
(dp1932
g73
(dp1933
sg82
g78
sg75
(lp1934
g68
(g89
g70
NtRp1935
(dp1936
g73
(dp1937
g93
g94
ssg82
g1931
sg75
(lp1938
S'wsgi'
p1939
asbag68
(g89
g70
NtRp1940
(dp1941
g73
(dp1942
g100
g101
ssg82
g1931
sg75
(lp1943
S':'
asbag68
(g89
g70
NtRp1944
(dp1945
g73
(dp1946
sg82
g1931
sg75
(lp1947
g68
(g69
g70
NtRp1948
(dp1949
g73
(dp1950
g81
I5
ssg82
g1944
sg75
(lp1951
g68
(g77
g70
NtRp1952
(dp1953
g73
(dp1954
g81
I4
ssg82
Nsg75
(lp1955
g68
(g84
g70
NtRp1956
(dp1957
g73
(dp1958
sg82
g1952
sg75
(lp1959
g68
(g89
g70
NtRp1960
(dp1961
g73
(dp1962
g93
g94
ssg82
g1956
sg75
(lp1963
S'environ'
p1964
asbag68
(g89
g70
NtRp1965
(dp1966
g73
(dp1967
g100
g101
ssg82
g1956
sg75
(lp1968
S':'
asbag68
(g89
g70
NtRp1969
(dp1970
g73
(dp1971
sg82
g1956
sg75
(lp1972
g68
(g69
g70
NtRp1973
(dp1974
g73
(dp1975
g81
I4
ssg82
g1969
sg75
(lp1976
g68
(g77
g70
NtRp1977
(dp1978
g73
(dp1979
g81
I3
ssg82
Nsg75
(lp1980
g68
(g84
g70
NtRp1981
(dp1982
g73
(dp1983
sg82
g1977
sg75
(lp1984
g68
(g89
g70
NtRp1985
(dp1986
g73
(dp1987
g93
g94
ssg82
g1981
sg75
(lp1988
S'CONTENT_LENGTH'
p1989
asbag68
(g89
g70
NtRp1990
(dp1991
g73
(dp1992
g100
g101
ssg82
g1981
sg75
(lp1993
S':'
asbag68
(g89
g70
NtRp1994
(dp1995
g73
(dp1996
sg82
g1981
sg75
(lp1997
g68
(g69
g70
NtRp1998
(dp1999
g73
(dp2000
g81
I3
ssg82
g1994
sg75
(lp2001
g764
asbasbasbag68
(g84
g70
NtRp2002
(dp2003
g73
(dp2004
sg82
g1977
sg75
(lp2005
g68
(g89
g70
NtRp2006
(dp2007
g73
(dp2008
g93
g94
ssg82
g2002
sg75
(lp2009
S'CONTENT_TYPE'
p2010
asbag68
(g89
g70
NtRp2011
(dp2012
g73
(dp2013
g100
g101
ssg82
g2002
sg75
(lp2014
S':'
asbag68
(g89
g70
NtRp2015
(dp2016
g73
(dp2017
sg82
g2002
sg75
(lp2018
g68
(g69
g70
NtRp2019
(dp2020
g73
(dp2021
g81
I3
ssg82
g2015
sg75
(lp2022
g786
asbasbasbag68
(g84
g70
NtRp2023
(dp2024
g73
(dp2025
sg82
g1977
sg75
(lp2026
g68
(g89
g70
NtRp2027
(dp2028
g73
(dp2029
g93
g94
ssg82
g2023
sg75
(lp2030
S'HTTP_ACCEPT'
p2031
asbag68
(g89
g70
NtRp2032
(dp2033
g73
(dp2034
g100
g101
ssg82
g2023
sg75
(lp2035
S':'
asbag68
(g89
g70
NtRp2036
(dp2037
g73
(dp2038
sg82
g2023
sg75
(lp2039
g68
(g69
g70
NtRp2040
(dp2041
g73
(dp2042
g81
I3
ssg82
g2036
sg75
(lp2043
g873
asbasbasbag68
(g84
g70
NtRp2044
(dp2045
g73
(dp2046
sg82
g1977
sg75
(lp2047
g68
(g89
g70
NtRp2048
(dp2049
g73
(dp2050
g93
g94
ssg82
g2044
sg75
(lp2051
S'HTTP_ACCEPT_CHARSET'
p2052
asbag68
(g89
g70
NtRp2053
(dp2054
g73
(dp2055
g100
g101
ssg82
g2044
sg75
(lp2056
S':'
asbag68
(g89
g70
NtRp2057
(dp2058
g73
(dp2059
sg82
g2044
sg75
(lp2060
g68
(g69
g70
NtRp2061
(dp2062
g73
(dp2063
g81
I3
ssg82
g2057
sg75
(lp2064
g895
asbasbasbag68
(g84
g70
NtRp2065
(dp2066
g73
(dp2067
sg82
g1977
sg75
(lp2068
g68
(g89
g70
NtRp2069
(dp2070
g73
(dp2071
g93
g94
ssg82
g2065
sg75
(lp2072
S'HTTP_ACCEPT_ENCODING'
p2073
asbag68
(g89
g70
NtRp2074
(dp2075
g73
(dp2076
g100
g101
ssg82
g2065
sg75
(lp2077
S':'
asbag68
(g89
g70
NtRp2078
(dp2079
g73
(dp2080
sg82
g2065
sg75
(lp2081
g68
(g69
g70
NtRp2082
(dp2083
g73
(dp2084
g81
I3
ssg82
g2078
sg75
(lp2085
g917
asbasbasbag68
(g84
g70
NtRp2086
(dp2087
g73
(dp2088
sg82
g1977
sg75
(lp2089
g68
(g89
g70
NtRp2090
(dp2091
g73
(dp2092
g93
g94
ssg82
g2086
sg75
(lp2093
S'HTTP_ACCEPT_LANGUAGE'
p2094
asbag68
(g89
g70
NtRp2095
(dp2096
g73
(dp2097
g100
g101
ssg82
g2086
sg75
(lp2098
S':'
asbag68
(g89
g70
NtRp2099
(dp2100
g73
(dp2101
sg82
g2086
sg75
(lp2102
g68
(g69
g70
NtRp2103
(dp2104
g73
(dp2105
g81
I3
ssg82
g2099
sg75
(lp2106
g939
asbasbasbag68
(g84
g70
NtRp2107
(dp2108
g73
(dp2109
sg82
g1977
sg75
(lp2110
g68
(g89
g70
NtRp2111
(dp2112
g73
(dp2113
g93
g94
ssg82
g2107
sg75
(lp2114
S'HTTP_CACHE_CONTROL'
p2115
asbag68
(g89
g70
NtRp2116
(dp2117
g73
(dp2118
g100
g101
ssg82
g2107
sg75
(lp2119
S':'
asbag68
(g89
g70
NtRp2120
(dp2121
g73
(dp2122
sg82
g2107
sg75
(lp2123
g68
(g69
g70
NtRp2124
(dp2125
g73
(dp2126
g81
I3
ssg82
g2120
sg75
(lp2127
g961
asbasbasbag68
(g84
g70
NtRp2128
(dp2129
g73
(dp2130
sg82
g1977
sg75
(lp2131
g68
(g89
g70
NtRp2132
(dp2133
g73
(dp2134
g93
g94
ssg82
g2128
sg75
(lp2135
S'HTTP_CONNECTION'
p2136
asbag68
(g89
g70
NtRp2137
(dp2138
g73
(dp2139
g100
g101
ssg82
g2128
sg75
(lp2140
S':'
asbag68
(g89
g70
NtRp2141
(dp2142
g73
(dp2143
sg82
g2128
sg75
(lp2144
g68
(g69
g70
NtRp2145
(dp2146
g73
(dp2147
g81
I3
ssg82
g2141
sg75
(lp2148
g983
asbasbasbag68
(g84
g70
NtRp2149
(dp2150
g73
(dp2151
sg82
g1977
sg75
(lp2152
g68
(g89
g70
NtRp2153
(dp2154
g73
(dp2155
g93
g94
ssg82
g2149
sg75
(lp2156
S'HTTP_CONTENT_LENGTH'
p2157
asbag68
(g89
g70
NtRp2158
(dp2159
g73
(dp2160
g100
g101
ssg82
g2149
sg75
(lp2161
S':'
asbag68
(g89
g70
NtRp2162
(dp2163
g73
(dp2164
sg82
g2149
sg75
(lp2165
g68
(g69
g70
NtRp2166
(dp2167
g73
(dp2168
g81
I3
ssg82
g2162
sg75
(lp2169
g764
asbasbasbag68
(g84
g70
NtRp2170
(dp2171
g73
(dp2172
sg82
g1977
sg75
(lp2173
g68
(g89
g70
NtRp2174
(dp2175
g73
(dp2176
g93
g94
ssg82
g2170
sg75
(lp2177
S'HTTP_CONTENT_TYPE'
p2178
asbag68
(g89
g70
NtRp2179
(dp2180
g73
(dp2181
g100
g101
ssg82
g2170
sg75
(lp2182
S':'
asbag68
(g89
g70
NtRp2183
(dp2184
g73
(dp2185
sg82
g2170
sg75
(lp2186
g68
(g69
g70
NtRp2187
(dp2188
g73
(dp2189
g81
I3
ssg82
g2183
sg75
(lp2190
g786
asbasbasbag68
(g84
g70
NtRp2191
(dp2192
g73
(dp2193
sg82
g1977
sg75
(lp2194
g68
(g89
g70
NtRp2195
(dp2196
g73
(dp2197
g93
g94
ssg82
g2191
sg75
(lp2198
S'HTTP_COOKIE'
p2199
asbag68
(g89
g70
NtRp2200
(dp2201
g73
(dp2202
g100
g101
ssg82
g2191
sg75
(lp2203
S':'
asbag68
(g89
g70
NtRp2204
(dp2205
g73
(dp2206
sg82
g2191
sg75
(lp2207
g68
(g69
g70
NtRp2208
(dp2209
g73
(dp2210
g81
I3
ssg82
g2204
sg75
(lp2211
g1047
asbasbasbag68
(g84
g70
NtRp2212
(dp2213
g73
(dp2214
sg82
g1977
sg75
(lp2215
g68
(g89
g70
NtRp2216
(dp2217
g73
(dp2218
g93
g94
ssg82
g2212
sg75
(lp2219
S'HTTP_HOST'
p2220
asbag68
(g89
g70
NtRp2221
(dp2222
g73
(dp2223
g100
g101
ssg82
g2212
sg75
(lp2224
S':'
asbag68
(g89
g70
NtRp2225
(dp2226
g73
(dp2227
sg82
g2212
sg75
(lp2228
g68
(g69
g70
NtRp2229
(dp2230
g73
(dp2231
g81
I3
ssg82
g2225
sg75
(lp2232
g1069
asbasbasbag68
(g84
g70
NtRp2233
(dp2234
g73
(dp2235
sg82
g1977
sg75
(lp2236
g68
(g89
g70
NtRp2237
(dp2238
g73
(dp2239
g93
g94
ssg82
g2233
sg75
(lp2240
S'HTTP_ORIGIN'
p2241
asbag68
(g89
g70
NtRp2242
(dp2243
g73
(dp2244
g100
g101
ssg82
g2233
sg75
(lp2245
S':'
asbag68
(g89
g70
NtRp2246
(dp2247
g73
(dp2248
sg82
g2233
sg75
(lp2249
g68
(g69
g70
NtRp2250
(dp2251
g73
(dp2252
g81
I3
ssg82
g2246
sg75
(lp2253
g1091
asbasbasbag68
(g84
g70
NtRp2254
(dp2255
g73
(dp2256
sg82
g1977
sg75
(lp2257
g68
(g89
g70
NtRp2258
(dp2259
g73
(dp2260
g93
g94
ssg82
g2254
sg75
(lp2261
S'HTTP_REFERER'
p2262
asbag68
(g89
g70
NtRp2263
(dp2264
g73
(dp2265
g100
g101
ssg82
g2254
sg75
(lp2266
S':'
asbag68
(g89
g70
NtRp2267
(dp2268
g73
(dp2269
sg82
g2254
sg75
(lp2270
g68
(g69
g70
NtRp2271
(dp2272
g73
(dp2273
g81
I3
ssg82
g2267
sg75
(lp2274
g1113
asbasbasbag68
(g84
g70
NtRp2275
(dp2276
g73
(dp2277
sg82
g1977
sg75
(lp2278
g68
(g89
g70
NtRp2279
(dp2280
g73
(dp2281
g93
g94
ssg82
g2275
sg75
(lp2282
S'HTTP_USER_AGENT'
p2283
asbag68
(g89
g70
NtRp2284
(dp2285
g73
(dp2286
g100
g101
ssg82
g2275
sg75
(lp2287
S':'
asbag68
(g89
g70
NtRp2288
(dp2289
g73
(dp2290
sg82
g2275
sg75
(lp2291
g68
(g69
g70
NtRp2292
(dp2293
g73
(dp2294
g81
I3
ssg82
g2288
sg75
(lp2295
g1135
asbasbasbag68
(g84
g70
NtRp2296
(dp2297
g73
(dp2298
sg82
g1977
sg75
(lp2299
g68
(g89
g70
NtRp2300
(dp2301
g73
(dp2302
g93
g94
ssg82
g2296
sg75
(lp2303
S'PATH_INFO'
p2304
asbag68
(g89
g70
NtRp2305
(dp2306
g73
(dp2307
g100
g101
ssg82
g2296
sg75
(lp2308
S':'
asbag68
(g89
g70
NtRp2309
(dp2310
g73
(dp2311
sg82
g2296
sg75
(lp2312
g68
(g69
g70
NtRp2313
(dp2314
g73
(dp2315
g81
I3
ssg82
g2309
sg75
(lp2316
g1157
asbasbasbag68
(g84
g70
NtRp2317
(dp2318
g73
(dp2319
sg82
g1977
sg75
(lp2320
g68
(g89
g70
NtRp2321
(dp2322
g73
(dp2323
g93
g94
ssg82
g2317
sg75
(lp2324
S'QUERY_STRING'
p2325
asbag68
(g89
g70
NtRp2326
(dp2327
g73
(dp2328
g100
g101
ssg82
g2317
sg75
(lp2329
S':'
asbag68
(g89
g70
NtRp2330
(dp2331
g73
(dp2332
sg82
g2317
sg75
(lp2333
g68
(g69
g70
NtRp2334
(dp2335
g73
(dp2336
g81
I3
ssg82
g2330
sg75
(lp2337
S''
asbasbasbag68
(g84
g70
NtRp2338
(dp2339
g73
(dp2340
sg82
g1977
sg75
(lp2341
g68
(g89
g70
NtRp2342
(dp2343
g73
(dp2344
g93
g94
ssg82
g2338
sg75
(lp2345
S'REMOTE_ADDR'
p2346
asbag68
(g89
g70
NtRp2347
(dp2348
g73
(dp2349
g100
g101
ssg82
g2338
sg75
(lp2350
S':'
asbag68
(g89
g70
NtRp2351
(dp2352
g73
(dp2353
sg82
g2338
sg75
(lp2354
g68
(g69
g70
NtRp2355
(dp2356
g73
(dp2357
g81
I3
ssg82
g2351
sg75
(lp2358
g201
asbasbasbag68
(g84
g70
NtRp2359
(dp2360
g73
(dp2361
sg82
g1977
sg75
(lp2362
g68
(g89
g70
NtRp2363
(dp2364
g73
(dp2365
g93
g94
ssg82
g2359
sg75
(lp2366
S'REMOTE_PORT'
p2367
asbag68
(g89
g70
NtRp2368
(dp2369
g73
(dp2370
g100
g101
ssg82
g2359
sg75
(lp2371
S':'
asbag68
(g89
g70
NtRp2372
(dp2373
g73
(dp2374
sg82
g2359
sg75
(lp2375
g68
(g69
g70
NtRp2376
(dp2377
g73
(dp2378
g81
I3
ssg82
g2372
sg75
(lp2379
g1221
asbasbasbag68
(g84
g70
NtRp2380
(dp2381
g73
(dp2382
sg82
g1977
sg75
(lp2383
g68
(g89
g70
NtRp2384
(dp2385
g73
(dp2386
g93
g94
ssg82
g2380
sg75
(lp2387
S'REQUEST_METHOD'
p2388
asbag68
(g89
g70
NtRp2389
(dp2390
g73
(dp2391
g100
g101
ssg82
g2380
sg75
(lp2392
S':'
asbag68
(g89
g70
NtRp2393
(dp2394
g73
(dp2395
sg82
g2380
sg75
(lp2396
g68
(g69
g70
NtRp2397
(dp2398
g73
(dp2399
g81
I3
ssg82
g2393
sg75
(lp2400
g1243
asbasbasbag68
(g84
g70
NtRp2401
(dp2402
g73
(dp2403
sg82
g1977
sg75
(lp2404
g68
(g89
g70
NtRp2405
(dp2406
g73
(dp2407
g93
g94
ssg82
g2401
sg75
(lp2408
S'SCRIPT_NAME'
p2409
asbag68
(g89
g70
NtRp2410
(dp2411
g73
(dp2412
g100
g101
ssg82
g2401
sg75
(lp2413
S':'
asbag68
(g89
g70
NtRp2414
(dp2415
g73
(dp2416
sg82
g2401
sg75
(lp2417
g68
(g69
g70
NtRp2418
(dp2419
g73
(dp2420
g81
I3
ssg82
g2414
sg75
(lp2421
S''
asbasbasbag68
(g84
g70
NtRp2422
(dp2423
g73
(dp2424
sg82
g1977
sg75
(lp2425
g68
(g89
g70
NtRp2426
(dp2427
g73
(dp2428
g93
g94
ssg82
g2422
sg75
(lp2429
S'SERVER_NAME'
p2430
asbag68
(g89
g70
NtRp2431
(dp2432
g73
(dp2433
g100
g101
ssg82
g2422
sg75
(lp2434
S':'
asbag68
(g89
g70
NtRp2435
(dp2436
g73
(dp2437
sg82
g2422
sg75
(lp2438
g68
(g69
g70
NtRp2439
(dp2440
g73
(dp2441
g81
I3
ssg82
g2435
sg75
(lp2442
g1286
asbasbasbag68
(g84
g70
NtRp2443
(dp2444
g73
(dp2445
sg82
g1977
sg75
(lp2446
g68
(g89
g70
NtRp2447
(dp2448
g73
(dp2449
g93
g94
ssg82
g2443
sg75
(lp2450
S'SERVER_PORT'
p2451
asbag68
(g89
g70
NtRp2452
(dp2453
g73
(dp2454
g100
g101
ssg82
g2443
sg75
(lp2455
S':'
asbag68
(g89
g70
NtRp2456
(dp2457
g73
(dp2458
sg82
g2443
sg75
(lp2459
g68
(g69
g70
NtRp2460
(dp2461
g73
(dp2462
g81
I3
ssg82
g2456
sg75
(lp2463
g1308
asbasbasbag68
(g84
g70
NtRp2464
(dp2465
g73
(dp2466
sg82
g1977
sg75
(lp2467
g68
(g89
g70
NtRp2468
(dp2469
g73
(dp2470
g93
g94
ssg82
g2464
sg75
(lp2471
S'SERVER_PROTOCOL'
p2472
asbag68
(g89
g70
NtRp2473
(dp2474
g73
(dp2475
g100
g101
ssg82
g2464
sg75
(lp2476
S':'
asbag68
(g89
g70
NtRp2477
(dp2478
g73
(dp2479
sg82
g2464
sg75
(lp2480
g68
(g69
g70
NtRp2481
(dp2482
g73
(dp2483
g81
I3
ssg82
g2477
sg75
(lp2484
g1330
asbasbasbag68
(g84
g70
NtRp2485
(dp2486
g73
(dp2487
sg82
g1977
sg75
(lp2488
g68
(g89
g70
NtRp2489
(dp2490
g73
(dp2491
g93
g94
ssg82
g2485
sg75
(lp2492
S'SERVER_SOFTWARE'
p2493
asbag68
(g89
g70
NtRp2494
(dp2495
g73
(dp2496
g100
g101
ssg82
g2485
sg75
(lp2497
S':'
asbag68
(g89
g70
NtRp2498
(dp2499
g73
(dp2500
sg82
g2485
sg75
(lp2501
g68
(g69
g70
NtRp2502
(dp2503
g73
(dp2504
g81
I3
ssg82
g2498
sg75
(lp2505
g1352
asbasbasbag68
(g84
g70
NtRp2506
(dp2507
g73
(dp2508
sg82
g1977
sg75
(lp2509
g68
(g89
g70
NtRp2510
(dp2511
g73
(dp2512
g93
g94
ssg82
g2506
sg75
(lp2513
S'wsgi.errors'
p2514
asbag68
(g89
g70
NtRp2515
(dp2516
g73
(dp2517
g100
g101
ssg82
g2506
sg75
(lp2518
S':'
asbag68
(g89
g70
NtRp2519
(dp2520
g73
(dp2521
sg82
g2506
sg75
(lp2522
g68
(g69
g70
NtRp2523
(dp2524
g73
(dp2525
g81
I3
ssg82
g2519
sg75
(lp2526
S"<open file '<stderr>', mode 'w' at 0x7f65db6f81e0>"
p2527
asbasbasbag68
(g84
g70
NtRp2528
(dp2529
g73
(dp2530
sg82
g1977
sg75
(lp2531
g68
(g89
g70
NtRp2532
(dp2533
g73
(dp2534
g93
g94
ssg82
g2528
sg75
(lp2535
S'wsgi.file_wrapper'
p2536
asbag68
(g89
g70
NtRp2537
(dp2538
g73
(dp2539
g100
g101
ssg82
g2528
sg75
(lp2540
S':'
asbag68
(g89
g70
NtRp2541
(dp2542
g73
(dp2543
sg82
g2528
sg75
(lp2544
g68
(g69
g70
NtRp2545
(dp2546
g73
(dp2547
g81
I3
ssg82
g2541
sg75
(lp2548
S'<class gluon.rocket.FileWrapper at 0x1cd43b0>'
p2549
asbasbasbag68
(g84
g70
NtRp2550
(dp2551
g73
(dp2552
sg82
g1977
sg75
(lp2553
g68
(g89
g70
NtRp2554
(dp2555
g73
(dp2556
g93
g94
ssg82
g2550
sg75
(lp2557
S'wsgi.input'
p2558
asbag68
(g89
g70
NtRp2559
(dp2560
g73
(dp2561
g100
g101
ssg82
g2550
sg75
(lp2562
S':'
asbag68
(g89
g70
NtRp2563
(dp2564
g73
(dp2565
sg82
g2550
sg75
(lp2566
g68
(g69
g70
NtRp2567
(dp2568
g73
(dp2569
g81
I3
ssg82
g2563
sg75
(lp2570
S"<open file '<fdopen>', mode 'w+b' at 0x2878660>"
p2571
asbasbasbag68
(g84
g70
NtRp2572
(dp2573
g73
(dp2574
sg82
g1977
sg75
(lp2575
g68
(g89
g70
NtRp2576
(dp2577
g73
(dp2578
g93
g94
ssg82
g2572
sg75
(lp2579
S'wsgi.multiprocess'
p2580
asbag68
(g89
g70
NtRp2581
(dp2582
g73
(dp2583
g100
g101
ssg82
g2572
sg75
(lp2584
S':'
asbag68
(g89
g70
NtRp2585
(dp2586
g73
(dp2587
sg82
g2572
sg75
(lp2588
g68
(g69
g70
NtRp2589
(dp2590
g73
(dp2591
g81
I3
ssg82
g2585
sg75
(lp2592
g111
asbasbasbag68
(g84
g70
NtRp2593
(dp2594
g73
(dp2595
sg82
g1977
sg75
(lp2596
g68
(g89
g70
NtRp2597
(dp2598
g73
(dp2599
g93
g94
ssg82
g2593
sg75
(lp2600
S'wsgi.multithread'
p2601
asbag68
(g89
g70
NtRp2602
(dp2603
g73
(dp2604
g100
g101
ssg82
g2593
sg75
(lp2605
S':'
asbag68
(g89
g70
NtRp2606
(dp2607
g73
(dp2608
sg82
g2593
sg75
(lp2609
g68
(g69
g70
NtRp2610
(dp2611
g73
(dp2612
g81
I3
ssg82
g2606
sg75
(lp2613
g1526
asbasbasbag68
(g84
g70
NtRp2614
(dp2615
g73
(dp2616
sg82
g1977
sg75
(lp2617
g68
(g89
g70
NtRp2618
(dp2619
g73
(dp2620
g93
g94
ssg82
g2614
sg75
(lp2621
S'wsgi.run_once'
p2622
asbag68
(g89
g70
NtRp2623
(dp2624
g73
(dp2625
g100
g101
ssg82
g2614
sg75
(lp2626
S':'
asbag68
(g89
g70
NtRp2627
(dp2628
g73
(dp2629
sg82
g2614
sg75
(lp2630
g68
(g69
g70
NtRp2631
(dp2632
g73
(dp2633
g81
I3
ssg82
g2627
sg75
(lp2634
g111
asbasbasbag68
(g84
g70
NtRp2635
(dp2636
g73
(dp2637
sg82
g1977
sg75
(lp2638
g68
(g89
g70
NtRp2639
(dp2640
g73
(dp2641
g93
g94
ssg82
g2635
sg75
(lp2642
S'wsgi.url_scheme'
p2643
asbag68
(g89
g70
NtRp2644
(dp2645
g73
(dp2646
g100
g101
ssg82
g2635
sg75
(lp2647
S':'
asbag68
(g89
g70
NtRp2648
(dp2649
g73
(dp2650
sg82
g2635
sg75
(lp2651
g68
(g69
g70
NtRp2652
(dp2653
g73
(dp2654
g81
I3
ssg82
g2648
sg75
(lp2655
g1569
asbasbasbag68
(g84
g70
NtRp2656
(dp2657
g73
(dp2658
sg82
g1977
sg75
(lp2659
g68
(g89
g70
NtRp2660
(dp2661
g73
(dp2662
g93
g94
ssg82
g2656
sg75
(lp2663
S'wsgi.version'
p2664
asbag68
(g89
g70
NtRp2665
(dp2666
g73
(dp2667
g100
g101
ssg82
g2656
sg75
(lp2668
S':'
asbag68
(g89
g70
NtRp2669
(dp2670
g73
(dp2671
sg82
g2656
sg75
(lp2672
g68
(g69
g70
NtRp2673
(dp2674
g73
(dp2675
g81
I3
ssg82
g2669
sg75
(lp2676
S'1'
asbasbasbasbasbasbasbasbasbasbasbasbasbsS'frames'
p2677
(lp2678
(dp2679
S'file'
p2680
S'/home/marco/proyectos/web2py-trunk/gluon/restricted.py'
p2681
sS'dump'
p2682
(dp2683
S'code'
p2684
S"'#-*- coding: utf-8 -*-\\n# this file is released u...ml()\\n\\n\\nresponse._vars=response._caller(busqueda)\\n'"
p2685
sS'layer'
p2686
S"'/home/marco/proyectos/web2py-trunk/applications/mvstore/controllers/default.py'"
p2687
sS'global compile2'
p2688
S'<function compile2>'
p2689
sS'ccode'
p2690
S'undefined'
p2691
ssS'lnum'
p2692
I191
sS'lines'
p2693
(dp2694
I192
S'        exec ccode in environment'
p2695
sI193
S'    except HTTP:'
p2696
sI194
S'        raise'
p2697
sI195
S'    except Exception:'
p2698
sI186
S"    environment['__file__'] = layer"
p2699
sI187
S'    try:'
p2700
sI188
S'        if type(code) == types.CodeType:'
p2701
sI189
S'            ccode = code'
p2702
sI190
S'        else:'
p2703
sI191
S'            ccode = compile2(code,layer)'
p2704
ssS'call'
p2705
S"(code='#-*- coding: utf-8 -*-\\n# this file is released u...ml()\\n\\n\\nresponse._vars=response._caller(busqueda)\\n', environment={'A': <class 'gluon.html.A'>, 'Auth': <class 'gluon.tools.Auth'>, 'B': <class 'gluon.html.B'>, 'BEAUTIFY': <class 'gluon.html.BEAUTIFY'>, 'BODY': <class 'gluon.html.BODY'>, 'BR': <class 'gluon.html.BR'>, 'BUTTON': <class 'gluon.html.BUTTON'>, 'CENTER': <class 'gluon.html.CENTER'>, 'CLEANUP': <class 'gluon.validators.CLEANUP'>, 'CODE': <class 'gluon.html.CODE'>, ...}, layer='/home/marco/proyectos/web2py-trunk/applications/mvstore/controllers/default.py')"
p2706
sS'func'
p2707
S'restricted'
p2708
sa(dp2709
g2680
S'/home/marco/proyectos/web2py-trunk/gluon/restricted.py'
p2710
sg2682
(dp2711
S'builtincompile'
p2712
S'<built-in function compile>'
p2713
sS'code'
p2714
S"'#-*- coding: utf-8 -*-\\n# this file is released u...ml()\\n\\n\\nresponse._vars=response._caller(busqueda)\\n'"
p2715
sS'code.rstrip'
p2716
S'<built-in method rstrip of str object>'
p2717
sS').replace'
p2718
g2691
sS'layer'
p2719
S"'/home/marco/proyectos/web2py-trunk/applications/mvstore/controllers/default.py'"
p2720
ssg2692
I178
sg2693
(dp2721
I173
S''
sI174
S'def compile2(code,layer):'
p2722
sI175
S'    """'
p2723
sI176
S"    The +'\\n' is necessary else compile fails when code ends in a comment."
p2724
sI177
S'    """'
p2725
sI178
S"    return compile(code.rstrip().replace('\\r\\n','\\n')+'\\n', layer, 'exec')"
p2726
sI179
S''
sI180
S"def restricted(code, environment={}, layer='Unknown'):"
p2727
sI181
S'    """'
p2728
sI182
S'    runs code in environment and returns the output. if an exception occurs'
p2729
ssg2705
S"(code='#-*- coding: utf-8 -*-\\n# this file is released u...ml()\\n\\n\\nresponse._vars=response._caller(busqueda)\\n', layer='/home/marco/proyectos/web2py-trunk/applications/mvstore/controllers/default.py')"
p2730
sg2707
S'compile2'
p2731
sasS'pyver'
p2732
S'Python 2.6.6: /usr/bin/python'
p2733
sS'session'
p2734
g68
(g69
g70
NtRp2735
(dp2736
g73
(dp2737
sg75
(lp2738
g68
(g77
g70
NtRp2739
(dp2740
g73
(dp2741
g81
I5
ssg82
Nsg75
(lp2742
sbasbsS'etype'
p2743
S"<type 'exceptions.SyntaxError'>"
p2744
sS'date'
p2745
S'Sun Jun 19 21:13:51 2011'
p2746
sS'response'
p2747
g68
(g69
g70
NtRp2748
(dp2749
g73
(dp2750
sg75
(lp2751
g68
(g77
g70
NtRp2752
(dp2753
g73
(dp2754
g81
I5
ssg82
Nsg75
(lp2755
g68
(g84
g70
NtRp2756
(dp2757
g73
(dp2758
sg82
g2752
sg75
(lp2759
g68
(g89
g70
NtRp2760
(dp2761
g73
(dp2762
g93
g94
ssg82
g2756
sg75
(lp2763
g166
asbag68
(g89
g70
NtRp2764
(dp2765
g73
(dp2766
g100
g101
ssg82
g2756
sg75
(lp2767
S':'
asbag68
(g89
g70
NtRp2768
(dp2769
g73
(dp2770
sg82
g2756
sg75
(lp2771
g68
(g69
g70
NtRp2772
(dp2773
g73
(dp2774
g81
I5
ssg82
g2768
sg75
(lp2775
S'<cStringIO.StringO object at 0x1e5dd88>'
p2776
asbasbasbag68
(g84
g70
NtRp2777
(dp2778
g73
(dp2779
sg82
g2752
sg75
(lp2780
g68
(g89
g70
NtRp2781
(dp2782
g73
(dp2783
g93
g94
ssg82
g2777
sg75
(lp2784
g232
asbag68
(g89
g70
NtRp2785
(dp2786
g73
(dp2787
g100
g101
ssg82
g2777
sg75
(lp2788
S':'
asbag68
(g89
g70
NtRp2789
(dp2790
g73
(dp2791
sg82
g2777
sg75
(lp2792
g68
(g69
g70
NtRp2793
(dp2794
g73
(dp2795
g81
I5
ssg82
g2789
sg75
(lp2796
g68
(g77
g70
NtRp2797
(dp2798
g73
(dp2799
g81
I4
ssg82
Nsg75
(lp2800
g68
(g84
g70
NtRp2801
(dp2802
g73
(dp2803
sg82
g2797
sg75
(lp2804
g68
(g89
g70
NtRp2805
(dp2806
g73
(dp2807
g93
g94
ssg82
g2801
sg75
(lp2808
S'session_id_mvstore'
p2809
asbag68
(g89
g70
NtRp2810
(dp2811
g73
(dp2812
g100
g101
ssg82
g2801
sg75
(lp2813
S':'
asbag68
(g89
g70
NtRp2814
(dp2815
g73
(dp2816
sg82
g2801
sg75
(lp2817
g68
(g69
g70
NtRp2818
(dp2819
g73
(dp2820
g81
I4
ssg82
g2814
sg75
(lp2821
g68
(g77
g70
NtRp2822
(dp2823
g73
(dp2824
g81
I3
ssg82
Nsg75
(lp2825
g68
(g84
g70
NtRp2826
(dp2827
g73
(dp2828
sg82
g2822
sg75
(lp2829
g68
(g89
g70
NtRp2830
(dp2831
g73
(dp2832
g93
g94
ssg82
g2826
sg75
(lp2833
g282
asbag68
(g89
g70
NtRp2834
(dp2835
g73
(dp2836
g100
g101
ssg82
g2826
sg75
(lp2837
S':'
asbag68
(g89
g70
NtRp2838
(dp2839
g73
(dp2840
sg82
g2826
sg75
(lp2841
g68
(g69
g70
NtRp2842
(dp2843
g73
(dp2844
g81
I3
ssg82
g2838
sg75
(lp2845
S''
asbasbasbag68
(g84
g70
NtRp2846
(dp2847
g73
(dp2848
sg82
g2822
sg75
(lp2849
g68
(g89
g70
NtRp2850
(dp2851
g73
(dp2852
g93
g94
ssg82
g2846
sg75
(lp2853
g303
asbag68
(g89
g70
NtRp2854
(dp2855
g73
(dp2856
g100
g101
ssg82
g2846
sg75
(lp2857
S':'
asbag68
(g89
g70
NtRp2858
(dp2859
g73
(dp2860
sg82
g2846
sg75
(lp2861
g68
(g69
g70
NtRp2862
(dp2863
g73
(dp2864
g81
I3
ssg82
g2858
sg75
(lp2865
S''
asbasbasbag68
(g84
g70
NtRp2866
(dp2867
g73
(dp2868
sg82
g2822
sg75
(lp2869
g68
(g89
g70
NtRp2870
(dp2871
g73
(dp2872
g93
g94
ssg82
g2866
sg75
(lp2873
g324
asbag68
(g89
g70
NtRp2874
(dp2875
g73
(dp2876
g100
g101
ssg82
g2866
sg75
(lp2877
S':'
asbag68
(g89
g70
NtRp2878
(dp2879
g73
(dp2880
sg82
g2866
sg75
(lp2881
g68
(g69
g70
NtRp2882
(dp2883
g73
(dp2884
g81
I3
ssg82
g2878
sg75
(lp2885
S''
asbasbasbag68
(g84
g70
NtRp2886
(dp2887
g73
(dp2888
sg82
g2822
sg75
(lp2889
g68
(g89
g70
NtRp2890
(dp2891
g73
(dp2892
g93
g94
ssg82
g2886
sg75
(lp2893
g345
asbag68
(g89
g70
NtRp2894
(dp2895
g73
(dp2896
g100
g101
ssg82
g2886
sg75
(lp2897
S':'
asbag68
(g89
g70
NtRp2898
(dp2899
g73
(dp2900
sg82
g2886
sg75
(lp2901
g68
(g69
g70
NtRp2902
(dp2903
g73
(dp2904
g81
I3
ssg82
g2898
sg75
(lp2905
S''
asbasbasbag68
(g84
g70
NtRp2906
(dp2907
g73
(dp2908
sg82
g2822
sg75
(lp2909
g68
(g89
g70
NtRp2910
(dp2911
g73
(dp2912
g93
g94
ssg82
g2906
sg75
(lp2913
g366
asbag68
(g89
g70
NtRp2914
(dp2915
g73
(dp2916
g100
g101
ssg82
g2906
sg75
(lp2917
S':'
asbag68
(g89
g70
NtRp2918
(dp2919
g73
(dp2920
sg82
g2906
sg75
(lp2921
g68
(g69
g70
NtRp2922
(dp2923
g73
(dp2924
g81
I3
ssg82
g2918
sg75
(lp2925
S''
asbasbasbag68
(g84
g70
NtRp2926
(dp2927
g73
(dp2928
sg82
g2822
sg75
(lp2929
g68
(g89
g70
NtRp2930
(dp2931
g73
(dp2932
g93
g94
ssg82
g2926
sg75
(lp2933
g387
asbag68
(g89
g70
NtRp2934
(dp2935
g73
(dp2936
g100
g101
ssg82
g2926
sg75
(lp2937
S':'
asbag68
(g89
g70
NtRp2938
(dp2939
g73
(dp2940
sg82
g2926
sg75
(lp2941
g68
(g69
g70
NtRp2942
(dp2943
g73
(dp2944
g81
I3
ssg82
g2938
sg75
(lp2945
S'/'
asbasbasbag68
(g84
g70
NtRp2946
(dp2947
g73
(dp2948
sg82
g2822
sg75
(lp2949
g68
(g89
g70
NtRp2950
(dp2951
g73
(dp2952
g93
g94
ssg82
g2946
sg75
(lp2953
g408
asbag68
(g89
g70
NtRp2954
(dp2955
g73
(dp2956
g100
g101
ssg82
g2946
sg75
(lp2957
S':'
asbag68
(g89
g70
NtRp2958
(dp2959
g73
(dp2960
sg82
g2946
sg75
(lp2961
g68
(g69
g70
NtRp2962
(dp2963
g73
(dp2964
g81
I3
ssg82
g2958
sg75
(lp2965
S''
asbasbasbag68
(g84
g70
NtRp2966
(dp2967
g73
(dp2968
sg82
g2822
sg75
(lp2969
g68
(g89
g70
NtRp2970
(dp2971
g73
(dp2972
g93
g94
ssg82
g2966
sg75
(lp2973
g429
asbag68
(g89
g70
NtRp2974
(dp2975
g73
(dp2976
g100
g101
ssg82
g2966
sg75
(lp2977
S':'
asbag68
(g89
g70
NtRp2978
(dp2979
g73
(dp2980
sg82
g2966
sg75
(lp2981
g68
(g69
g70
NtRp2982
(dp2983
g73
(dp2984
g81
I3
ssg82
g2978
sg75
(lp2985
S''
asbasbasbasbasbasbasbasbasbasbasbag68
(g84
g70
NtRp2986
(dp2987
g73
(dp2988
sg82
g2752
sg75
(lp2989
g68
(g89
g70
NtRp2990
(dp2991
g73
(dp2992
g93
g94
ssg82
g2986
sg75
(lp2993
S'files'
p2994
asbag68
(g89
g70
NtRp2995
(dp2996
g73
(dp2997
g100
g101
ssg82
g2986
sg75
(lp2998
S':'
asbag68
(g89
g70
NtRp2999
(dp3000
g73
(dp3001
sg82
g2986
sg75
(lp3002
g68
(g69
g70
NtRp3003
(dp3004
g73
(dp3005
g81
I5
ssg82
g2999
sg75
(lp3006
g68
(g77
g70
NtRp3007
(dp3008
g73
(dp3009
g81
I4
ssg82
Nsg75
(lp3010
sbasbasbasbag68
(g84
g70
NtRp3011
(dp3012
g73
(dp3013
sg82
g2752
sg75
(lp3014
g68
(g89
g70
NtRp3015
(dp3016
g73
(dp3017
g93
g94
ssg82
g3011
sg75
(lp3018
S'flash'
p3019
asbag68
(g89
g70
NtRp3020
(dp3021
g73
(dp3022
g100
g101
ssg82
g3011
sg75
(lp3023
S':'
asbag68
(g89
g70
NtRp3024
(dp3025
g73
(dp3026
sg82
g3011
sg75
(lp3027
g68
(g69
g70
NtRp3028
(dp3029
g73
(dp3030
g81
I5
ssg82
g3024
sg75
(lp3031
S''
asbasbasbag68
(g84
g70
NtRp3032
(dp3033
g73
(dp3034
sg82
g2752
sg75
(lp3035
g68
(g89
g70
NtRp3036
(dp3037
g73
(dp3038
g93
g94
ssg82
g3032
sg75
(lp3039
S'headers'
p3040
asbag68
(g89
g70
NtRp3041
(dp3042
g73
(dp3043
g100
g101
ssg82
g3032
sg75
(lp3044
S':'
asbag68
(g89
g70
NtRp3045
(dp3046
g73
(dp3047
sg82
g3032
sg75
(lp3048
g68
(g69
g70
NtRp3049
(dp3050
g73
(dp3051
g81
I5
ssg82
g3045
sg75
(lp3052
g68
(g77
g70
NtRp3053
(dp3054
g73
(dp3055
g81
I4
ssg82
Nsg75
(lp3056
g68
(g84
g70
NtRp3057
(dp3058
g73
(dp3059
sg82
g3053
sg75
(lp3060
g68
(g89
g70
NtRp3061
(dp3062
g73
(dp3063
g93
g94
ssg82
g3057
sg75
(lp3064
S'Cache-Control'
p3065
asbag68
(g89
g70
NtRp3066
(dp3067
g73
(dp3068
g100
g101
ssg82
g3057
sg75
(lp3069
S':'
asbag68
(g89
g70
NtRp3070
(dp3071
g73
(dp3072
sg82
g3057
sg75
(lp3073
g68
(g69
g70
NtRp3074
(dp3075
g73
(dp3076
g81
I4
ssg82
g3070
sg75
(lp3077
S'no-store, no-cache, must-revalidate, post-check=0, pre-check=0'
p3078
asbasbasbag68
(g84
g70
NtRp3079
(dp3080
g73
(dp3081
sg82
g3053
sg75
(lp3082
g68
(g89
g70
NtRp3083
(dp3084
g73
(dp3085
g93
g94
ssg82
g3079
sg75
(lp3086
S'Content-Type'
p3087
asbag68
(g89
g70
NtRp3088
(dp3089
g73
(dp3090
g100
g101
ssg82
g3079
sg75
(lp3091
S':'
asbag68
(g89
g70
NtRp3092
(dp3093
g73
(dp3094
sg82
g3079
sg75
(lp3095
g68
(g69
g70
NtRp3096
(dp3097
g73
(dp3098
g81
I4
ssg82
g3092
sg75
(lp3099
S'text/html; charset=utf-8'
p3100
asbasbasbag68
(g84
g70
NtRp3101
(dp3102
g73
(dp3103
sg82
g3053
sg75
(lp3104
g68
(g89
g70
NtRp3105
(dp3106
g73
(dp3107
g93
g94
ssg82
g3101
sg75
(lp3108
S'Expires'
p3109
asbag68
(g89
g70
NtRp3110
(dp3111
g73
(dp3112
g100
g101
ssg82
g3101
sg75
(lp3113
S':'
asbag68
(g89
g70
NtRp3114
(dp3115
g73
(dp3116
sg82
g3101
sg75
(lp3117
g68
(g69
g70
NtRp3118
(dp3119
g73
(dp3120
g81
I4
ssg82
g3114
sg75
(lp3121
S'Mon, 20 Jun 2011 00:13:51 GMT'
p3122
asbasbasbag68
(g84
g70
NtRp3123
(dp3124
g73
(dp3125
sg82
g3053
sg75
(lp3126
g68
(g89
g70
NtRp3127
(dp3128
g73
(dp3129
g93
g94
ssg82
g3123
sg75
(lp3130
S'Pragma'
p3131
asbag68
(g89
g70
NtRp3132
(dp3133
g73
(dp3134
g100
g101
ssg82
g3123
sg75
(lp3135
S':'
asbag68
(g89
g70
NtRp3136
(dp3137
g73
(dp3138
sg82
g3123
sg75
(lp3139
g68
(g69
g70
NtRp3140
(dp3141
g73
(dp3142
g81
I4
ssg82
g3136
sg75
(lp3143
S'no-cache'
p3144
asbasbasbag68
(g84
g70
NtRp3145
(dp3146
g73
(dp3147
sg82
g3053
sg75
(lp3148
g68
(g89
g70
NtRp3149
(dp3150
g73
(dp3151
g93
g94
ssg82
g3145
sg75
(lp3152
S'X-Powered-By'
p3153
asbag68
(g89
g70
NtRp3154
(dp3155
g73
(dp3156
g100
g101
ssg82
g3145
sg75
(lp3157
S':'
asbag68
(g89
g70
NtRp3158
(dp3159
g73
(dp3160
sg82
g3145
sg75
(lp3161
g68
(g69
g70
NtRp3162
(dp3163
g73
(dp3164
g81
I4
ssg82
g3158
sg75
(lp3165
S'web2py'
p3166
asbasbasbasbasbasbasbag68
(g84
g70
NtRp3167
(dp3168
g73
(dp3169
sg82
g2752
sg75
(lp3170
g68
(g89
g70
NtRp3171
(dp3172
g73
(dp3173
g93
g94
ssg82
g3167
sg75
(lp3174
S'menu'
p3175
asbag68
(g89
g70
NtRp3176
(dp3177
g73
(dp3178
g100
g101
ssg82
g3167
sg75
(lp3179
S':'
asbag68
(g89
g70
NtRp3180
(dp3181
g73
(dp3182
sg82
g3167
sg75
(lp3183
g68
(g69
g70
NtRp3184
(dp3185
g73
(dp3186
g81
I5
ssg82
g3180
sg75
(lp3187
g68
(g77
g70
NtRp3188
(dp3189
g73
(dp3190
g81
I4
ssg82
Nsg75
(lp3191
g68
(g84
g70
NtRp3192
(dp3193
g73
(dp3194
sg82
g3188
sg75
(lp3195
g68
(g89
g70
NtRp3196
(dp3197
g73
(dp3198
sg82
g3192
sg75
(lp3199
g68
(g69
g70
NtRp3200
(dp3201
g73
(dp3202
g81
I4
ssg82
g3196
sg75
(lp3203
g68
(g77
g70
NtRp3204
(dp3205
g73
(dp3206
g81
I3
ssg82
Nsg75
(lp3207
g68
(g84
g70
NtRp3208
(dp3209
g73
(dp3210
sg82
g3204
sg75
(lp3211
g68
(g89
g70
NtRp3212
(dp3213
g73
(dp3214
sg82
g3208
sg75
(lp3215
g68
(g69
g70
NtRp3216
(dp3217
g73
(dp3218
g81
I3
ssg82
g3212
sg75
(lp3219
cgluon.languages
lazyT_unpickle
p3220
(S's\x04\x00\x00\x00Home'
tRp3221
asbasbasbag68
(g84
g70
NtRp3222
(dp3223
g73
(dp3224
sg82
g3204
sg75
(lp3225
g68
(g89
g70
NtRp3226
(dp3227
g73
(dp3228
sg82
g3222
sg75
(lp3229
g68
(g69
g70
NtRp3230
(dp3231
g73
(dp3232
g81
I3
ssg82
g3226
sg75
(lp3233
g111
asbasbasbag68
(g84
g70
NtRp3234
(dp3235
g73
(dp3236
sg82
g3204
sg75
(lp3237
g68
(g89
g70
NtRp3238
(dp3239
g73
(dp3240
sg82
g3234
sg75
(lp3241
g68
(g69
g70
NtRp3242
(dp3243
g73
(dp3244
g81
I3
ssg82
g3238
sg75
(lp3245
S'/mvstore/default/index'
p3246
asbasbasbag68
(g84
g70
NtRp3247
(dp3248
g73
(dp3249
sg82
g3204
sg75
(lp3250
g68
(g89
g70
NtRp3251
(dp3252
g73
(dp3253
sg82
g3247
sg75
(lp3254
g68
(g69
g70
NtRp3255
(dp3256
g73
(dp3257
g81
I3
ssg82
g3251
sg75
(lp3258
g68
(g77
g70
NtRp3259
(dp3260
g73
(dp3261
g81
I2
ssg82
Nsg75
(lp3262
sbasbasbasbasbasbasbasbag68
(g84
g70
NtRp3263
(dp3264
g73
(dp3265
sg82
g3188
sg75
(lp3266
g68
(g89
g70
NtRp3267
(dp3268
g73
(dp3269
sg82
g3263
sg75
(lp3270
g68
(g69
g70
NtRp3271
(dp3272
g73
(dp3273
g81
I4
ssg82
g3267
sg75
(lp3274
g68
(g77
g70
NtRp3275
(dp3276
g73
(dp3277
g81
I3
ssg82
Nsg75
(lp3278
g68
(g84
g70
NtRp3279
(dp3280
g73
(dp3281
sg82
g3275
sg75
(lp3282
g68
(g89
g70
NtRp3283
(dp3284
g73
(dp3285
sg82
g3279
sg75
(lp3286
g68
(g69
g70
NtRp3287
(dp3288
g73
(dp3289
g81
I3
ssg82
g3283
sg75
(lp3290
g3220
(S's\x08\x00\x00\x00This App'
tRp3291
asbasbasbag68
(g84
g70
NtRp3292
(dp3293
g73
(dp3294
sg82
g3275
sg75
(lp3295
g68
(g89
g70
NtRp3296
(dp3297
g73
(dp3298
sg82
g3292
sg75
(lp3299
g68
(g69
g70
NtRp3300
(dp3301
g73
(dp3302
g81
I3
ssg82
g3296
sg75
(lp3303
g111
asbasbasbag68
(g84
g70
NtRp3304
(dp3305
g73
(dp3306
sg82
g3275
sg75
(lp3307
g68
(g89
g70
NtRp3308
(dp3309
g73
(dp3310
sg82
g3304
sg75
(lp3311
g68
(g69
g70
NtRp3312
(dp3313
g73
(dp3314
g81
I3
ssg82
g3308
sg75
(lp3315
S'/mvstore/default/index'
p3316
asbasbasbag68
(g84
g70
NtRp3317
(dp3318
g73
(dp3319
sg82
g3275
sg75
(lp3320
g68
(g89
g70
NtRp3321
(dp3322
g73
(dp3323
sg82
g3317
sg75
(lp3324
g68
(g69
g70
NtRp3325
(dp3326
g73
(dp3327
g81
I3
ssg82
g3321
sg75
(lp3328
g68
(g77
g70
NtRp3329
(dp3330
g73
(dp3331
g81
I2
ssg82
Nsg75
(lp3332
g68
(g84
g70
NtRp3333
(dp3334
g73
(dp3335
sg82
g3329
sg75
(lp3336
g68
(g89
g70
NtRp3337
(dp3338
g73
(dp3339
sg82
g3333
sg75
(lp3340
g68
(g69
g70
NtRp3341
(dp3342
g73
(dp3343
g81
I2
ssg82
g3337
sg75
(lp3344
g68
(g77
g70
NtRp3345
(dp3346
g73
(dp3347
g81
I1
ssg82
Nsg75
(lp3348
g68
(g84
g70
NtRp3349
(dp3350
g73
(dp3351
sg82
g3345
sg75
(lp3352
g68
(g89
g70
NtRp3353
(dp3354
g73
(dp3355
sg82
g3349
sg75
(lp3356
g68
(g69
g70
NtRp3357
(dp3358
g73
(dp3359
g81
I1
ssg82
g3353
sg75
(lp3360
g3220
(S's\n\x00\x00\x00Controller'
tRp3361
asbasbasbag68
(g84
g70
NtRp3362
(dp3363
g73
(dp3364
sg82
g3345
sg75
(lp3365
g68
(g89
g70
NtRp3366
(dp3367
g73
(dp3368
sg82
g3362
sg75
(lp3369
g68
(g69
g70
NtRp3370
(dp3371
g73
(dp3372
g81
I1
ssg82
g3366
sg75
(lp3373
I00
asbasbasbag68
(g84
g70
NtRp3374
(dp3375
g73
(dp3376
sg82
g3345
sg75
(lp3377
g68
(g89
g70
NtRp3378
(dp3379
g73
(dp3380
sg82
g3374
sg75
(lp3381
g68
(g69
g70
NtRp3382
(dp3383
g73
(dp3384
g81
I1
ssg82
g3378
sg75
(lp3385
S'/admin/default/edit/mvstore/controllers/default.py'
p3386
asbasbasbasbasbasbasbag68
(g84
g70
NtRp3387
(dp3388
g73
(dp3389
sg82
g3329
sg75
(lp3390
g68
(g89
g70
NtRp3391
(dp3392
g73
(dp3393
sg82
g3387
sg75
(lp3394
g68
(g69
g70
NtRp3395
(dp3396
g73
(dp3397
g81
I2
ssg82
g3391
sg75
(lp3398
g68
(g77
g70
NtRp3399
(dp3400
g73
(dp3401
g81
I1
ssg82
Nsg75
(lp3402
g68
(g84
g70
NtRp3403
(dp3404
g73
(dp3405
sg82
g3399
sg75
(lp3406
g68
(g89
g70
NtRp3407
(dp3408
g73
(dp3409
sg82
g3403
sg75
(lp3410
g68
(g69
g70
NtRp3411
(dp3412
g73
(dp3413
g81
I1
ssg82
g3407
sg75
(lp3414
g3220
(S's\x04\x00\x00\x00View'
tRp3415
asbasbasbag68
(g84
g70
NtRp3416
(dp3417
g73
(dp3418
sg82
g3399
sg75
(lp3419
g68
(g89
g70
NtRp3420
(dp3421
g73
(dp3422
sg82
g3416
sg75
(lp3423
g68
(g69
g70
NtRp3424
(dp3425
g73
(dp3426
g81
I1
ssg82
g3420
sg75
(lp3427
I00
asbasbasbag68
(g84
g70
NtRp3428
(dp3429
g73
(dp3430
sg82
g3399
sg75
(lp3431
g68
(g89
g70
NtRp3432
(dp3433
g73
(dp3434
sg82
g3428
sg75
(lp3435
g68
(g69
g70
NtRp3436
(dp3437
g73
(dp3438
g81
I1
ssg82
g3432
sg75
(lp3439
S'/admin/default/edit/mvstore/views/default/busqueda.html'
p3440
asbasbasbasbasbasbasbag68
(g84
g70
NtRp3441
(dp3442
g73
(dp3443
sg82
g3329
sg75
(lp3444
g68
(g89
g70
NtRp3445
(dp3446
g73
(dp3447
sg82
g3441
sg75
(lp3448
g68
(g69
g70
NtRp3449
(dp3450
g73
(dp3451
g81
I2
ssg82
g3445
sg75
(lp3452
g68
(g77
g70
NtRp3453
(dp3454
g73
(dp3455
g81
I1
ssg82
Nsg75
(lp3456
g68
(g84
g70
NtRp3457
(dp3458
g73
(dp3459
sg82
g3453
sg75
(lp3460
g68
(g89
g70
NtRp3461
(dp3462
g73
(dp3463
sg82
g3457
sg75
(lp3464
g68
(g69
g70
NtRp3465
(dp3466
g73
(dp3467
g81
I1
ssg82
g3461
sg75
(lp3468
g3220
(S's\x06\x00\x00\x00Layout'
tRp3469
asbasbasbag68
(g84
g70
NtRp3470
(dp3471
g73
(dp3472
sg82
g3453
sg75
(lp3473
g68
(g89
g70
NtRp3474
(dp3475
g73
(dp3476
sg82
g3470
sg75
(lp3477
g68
(g69
g70
NtRp3478
(dp3479
g73
(dp3480
g81
I1
ssg82
g3474
sg75
(lp3481
I00
asbasbasbag68
(g84
g70
NtRp3482
(dp3483
g73
(dp3484
sg82
g3453
sg75
(lp3485
g68
(g89
g70
NtRp3486
(dp3487
g73
(dp3488
sg82
g3482
sg75
(lp3489
g68
(g69
g70
NtRp3490
(dp3491
g73
(dp3492
g81
I1
ssg82
g3486
sg75
(lp3493
S'/admin/default/edit/mvstore/views/layout.html'
p3494
asbasbasbasbasbasbasbag68
(g84
g70
NtRp3495
(dp3496
g73
(dp3497
sg82
g3329
sg75
(lp3498
g68
(g89
g70
NtRp3499
(dp3500
g73
(dp3501
sg82
g3495
sg75
(lp3502
g68
(g69
g70
NtRp3503
(dp3504
g73
(dp3505
g81
I2
ssg82
g3499
sg75
(lp3506
g68
(g77
g70
NtRp3507
(dp3508
g73
(dp3509
g81
I1
ssg82
Nsg75
(lp3510
g68
(g84
g70
NtRp3511
(dp3512
g73
(dp3513
sg82
g3507
sg75
(lp3514
g68
(g89
g70
NtRp3515
(dp3516
g73
(dp3517
sg82
g3511
sg75
(lp3518
g68
(g69
g70
NtRp3519
(dp3520
g73
(dp3521
g81
I1
ssg82
g3515
sg75
(lp3522
g3220
(S's\n\x00\x00\x00Stylesheet'
tRp3523
asbasbasbag68
(g84
g70
NtRp3524
(dp3525
g73
(dp3526
sg82
g3507
sg75
(lp3527
g68
(g89
g70
NtRp3528
(dp3529
g73
(dp3530
sg82
g3524
sg75
(lp3531
g68
(g69
g70
NtRp3532
(dp3533
g73
(dp3534
g81
I1
ssg82
g3528
sg75
(lp3535
I00
asbasbasbag68
(g84
g70
NtRp3536
(dp3537
g73
(dp3538
sg82
g3507
sg75
(lp3539
g68
(g89
g70
NtRp3540
(dp3541
g73
(dp3542
sg82
g3536
sg75
(lp3543
g68
(g69
g70
NtRp3544
(dp3545
g73
(dp3546
g81
I1
ssg82
g3540
sg75
(lp3547
S'/admin/default/edit/mvstore/static/base.css'
p3548
asbasbasbasbasbasbasbag68
(g84
g70
NtRp3549
(dp3550
g73
(dp3551
sg82
g3329
sg75
(lp3552
g68
(g89
g70
NtRp3553
(dp3554
g73
(dp3555
sg82
g3549
sg75
(lp3556
g68
(g69
g70
NtRp3557
(dp3558
g73
(dp3559
g81
I2
ssg82
g3553
sg75
(lp3560
g68
(g77
g70
NtRp3561
(dp3562
g73
(dp3563
g81
I1
ssg82
Nsg75
(lp3564
g68
(g84
g70
NtRp3565
(dp3566
g73
(dp3567
sg82
g3561
sg75
(lp3568
g68
(g89
g70
NtRp3569
(dp3570
g73
(dp3571
sg82
g3565
sg75
(lp3572
g68
(g69
g70
NtRp3573
(dp3574
g73
(dp3575
g81
I1
ssg82
g3569
sg75
(lp3576
g3220
(S's\x08\x00\x00\x00DB Model'
tRp3577
asbasbasbag68
(g84
g70
NtRp3578
(dp3579
g73
(dp3580
sg82
g3561
sg75
(lp3581
g68
(g89
g70
NtRp3582
(dp3583
g73
(dp3584
sg82
g3578
sg75
(lp3585
g68
(g69
g70
NtRp3586
(dp3587
g73
(dp3588
g81
I1
ssg82
g3582
sg75
(lp3589
I00
asbasbasbag68
(g84
g70
NtRp3590
(dp3591
g73
(dp3592
sg82
g3561
sg75
(lp3593
g68
(g89
g70
NtRp3594
(dp3595
g73
(dp3596
sg82
g3590
sg75
(lp3597
g68
(g69
g70
NtRp3598
(dp3599
g73
(dp3600
g81
I1
ssg82
g3594
sg75
(lp3601
S'/admin/default/edit/mvstore/models/db.py'
p3602
asbasbasbasbasbasbasbag68
(g84
g70
NtRp3603
(dp3604
g73
(dp3605
sg82
g3329
sg75
(lp3606
g68
(g89
g70
NtRp3607
(dp3608
g73
(dp3609
sg82
g3603
sg75
(lp3610
g68
(g69
g70
NtRp3611
(dp3612
g73
(dp3613
g81
I2
ssg82
g3607
sg75
(lp3614
g68
(g77
g70
NtRp3615
(dp3616
g73
(dp3617
g81
I1
ssg82
Nsg75
(lp3618
g68
(g84
g70
NtRp3619
(dp3620
g73
(dp3621
sg82
g3615
sg75
(lp3622
g68
(g89
g70
NtRp3623
(dp3624
g73
(dp3625
sg82
g3619
sg75
(lp3626
g68
(g69
g70
NtRp3627
(dp3628
g73
(dp3629
g81
I1
ssg82
g3623
sg75
(lp3630
g3220
(S's\n\x00\x00\x00Menu Model'
tRp3631
asbasbasbag68
(g84
g70
NtRp3632
(dp3633
g73
(dp3634
sg82
g3615
sg75
(lp3635
g68
(g89
g70
NtRp3636
(dp3637
g73
(dp3638
sg82
g3632
sg75
(lp3639
g68
(g69
g70
NtRp3640
(dp3641
g73
(dp3642
g81
I1
ssg82
g3636
sg75
(lp3643
I00
asbasbasbag68
(g84
g70
NtRp3644
(dp3645
g73
(dp3646
sg82
g3615
sg75
(lp3647
g68
(g89
g70
NtRp3648
(dp3649
g73
(dp3650
sg82
g3644
sg75
(lp3651
g68
(g69
g70
NtRp3652
(dp3653
g73
(dp3654
g81
I1
ssg82
g3648
sg75
(lp3655
S'/admin/default/edit/mvstore/models/menu.py'
p3656
asbasbasbasbasbasbasbag68
(g84
g70
NtRp3657
(dp3658
g73
(dp3659
sg82
g3329
sg75
(lp3660
g68
(g89
g70
NtRp3661
(dp3662
g73
(dp3663
sg82
g3657
sg75
(lp3664
g68
(g69
g70
NtRp3665
(dp3666
g73
(dp3667
g81
I2
ssg82
g3661
sg75
(lp3668
g68
(g77
g70
NtRp3669
(dp3670
g73
(dp3671
g81
I1
ssg82
Nsg75
(lp3672
g68
(g84
g70
NtRp3673
(dp3674
g73
(dp3675
sg82
g3669
sg75
(lp3676
g68
(g89
g70
NtRp3677
(dp3678
g73
(dp3679
sg82
g3673
sg75
(lp3680
g68
(g69
g70
NtRp3681
(dp3682
g73
(dp3683
g81
I1
ssg82
g3677
sg75
(lp3684
g3220
(S's\x08\x00\x00\x00Database'
tRp3685
asbasbasbag68
(g84
g70
NtRp3686
(dp3687
g73
(dp3688
sg82
g3669
sg75
(lp3689
g68
(g89
g70
NtRp3690
(dp3691
g73
(dp3692
sg82
g3686
sg75
(lp3693
g68
(g69
g70
NtRp3694
(dp3695
g73
(dp3696
g81
I1
ssg82
g3690
sg75
(lp3697
I00
asbasbasbag68
(g84
g70
NtRp3698
(dp3699
g73
(dp3700
sg82
g3669
sg75
(lp3701
g68
(g89
g70
NtRp3702
(dp3703
g73
(dp3704
sg82
g3698
sg75
(lp3705
g68
(g69
g70
NtRp3706
(dp3707
g73
(dp3708
g81
I1
ssg82
g3702
sg75
(lp3709
S'/mvstore/appadmin/index'
p3710
asbasbasbasbasbasbasbag68
(g84
g70
NtRp3711
(dp3712
g73
(dp3713
sg82
g3329
sg75
(lp3714
g68
(g89
g70
NtRp3715
(dp3716
g73
(dp3717
sg82
g3711
sg75
(lp3718
g68
(g69
g70
NtRp3719
(dp3720
g73
(dp3721
g81
I2
ssg82
g3715
sg75
(lp3722
g68
(g77
g70
NtRp3723
(dp3724
g73
(dp3725
g81
I1
ssg82
Nsg75
(lp3726
g68
(g84
g70
NtRp3727
(dp3728
g73
(dp3729
sg82
g3723
sg75
(lp3730
g68
(g89
g70
NtRp3731
(dp3732
g73
(dp3733
sg82
g3727
sg75
(lp3734
g68
(g69
g70
NtRp3735
(dp3736
g73
(dp3737
g81
I1
ssg82
g3731
sg75
(lp3738
g3220
(S's\x06\x00\x00\x00Errors'
tRp3739
asbasbasbag68
(g84
g70
NtRp3740
(dp3741
g73
(dp3742
sg82
g3723
sg75
(lp3743
g68
(g89
g70
NtRp3744
(dp3745
g73
(dp3746
sg82
g3740
sg75
(lp3747
g68
(g69
g70
NtRp3748
(dp3749
g73
(dp3750
g81
I1
ssg82
g3744
sg75
(lp3751
I00
asbasbasbag68
(g84
g70
NtRp3752
(dp3753
g73
(dp3754
sg82
g3723
sg75
(lp3755
g68
(g89
g70
NtRp3756
(dp3757
g73
(dp3758
sg82
g3752
sg75
(lp3759
g68
(g69
g70
NtRp3760
(dp3761
g73
(dp3762
g81
I1
ssg82
g3756
sg75
(lp3763
S'/admin/default/errors/mvstore'
p3764
asbasbasbasbasbasbasbag68
(g84
g70
NtRp3765
(dp3766
g73
(dp3767
sg82
g3329
sg75
(lp3768
g68
(g89
g70
NtRp3769
(dp3770
g73
(dp3771
sg82
g3765
sg75
(lp3772
g68
(g69
g70
NtRp3773
(dp3774
g73
(dp3775
g81
I2
ssg82
g3769
sg75
(lp3776
g68
(g77
g70
NtRp3777
(dp3778
g73
(dp3779
g81
I1
ssg82
Nsg75
(lp3780
g68
(g84
g70
NtRp3781
(dp3782
g73
(dp3783
sg82
g3777
sg75
(lp3784
g68
(g89
g70
NtRp3785
(dp3786
g73
(dp3787
sg82
g3781
sg75
(lp3788
g68
(g69
g70
NtRp3789
(dp3790
g73
(dp3791
g81
I1
ssg82
g3785
sg75
(lp3792
g3220
(S's\x05\x00\x00\x00About'
tRp3793
asbasbasbag68
(g84
g70
NtRp3794
(dp3795
g73
(dp3796
sg82
g3777
sg75
(lp3797
g68
(g89
g70
NtRp3798
(dp3799
g73
(dp3800
sg82
g3794
sg75
(lp3801
g68
(g69
g70
NtRp3802
(dp3803
g73
(dp3804
g81
I1
ssg82
g3798
sg75
(lp3805
I00
asbasbasbag68
(g84
g70
NtRp3806
(dp3807
g73
(dp3808
sg82
g3777
sg75
(lp3809
g68
(g89
g70
NtRp3810
(dp3811
g73
(dp3812
sg82
g3806
sg75
(lp3813
g68
(g69
g70
NtRp3814
(dp3815
g73
(dp3816
g81
I1
ssg82
g3810
sg75
(lp3817
S'/admin/default/about/mvstore'
p3818
asbasbasbasbasbasbasbasbasbasbasbasbasbasbasbag68
(g84
g70
NtRp3819
(dp3820
g73
(dp3821
sg82
g3188
sg75
(lp3822
g68
(g89
g70
NtRp3823
(dp3824
g73
(dp3825
sg82
g3819
sg75
(lp3826
g68
(g69
g70
NtRp3827
(dp3828
g73
(dp3829
g81
I4
ssg82
g3823
sg75
(lp3830
g68
(g77
g70
NtRp3831
(dp3832
g73
(dp3833
g81
I3
ssg82
Nsg75
(lp3834
g68
(g84
g70
NtRp3835
(dp3836
g73
(dp3837
sg82
g3831
sg75
(lp3838
g68
(g89
g70
NtRp3839
(dp3840
g73
(dp3841
sg82
g3835
sg75
(lp3842
g68
(g69
g70
NtRp3843
(dp3844
g73
(dp3845
g81
I3
ssg82
g3839
sg75
(lp3846
g3220
(S's\x12\x00\x00\x00Adding information'
tRp3847
asbasbasbag68
(g84
g70
NtRp3848
(dp3849
g73
(dp3850
sg82
g3831
sg75
(lp3851
g68
(g89
g70
NtRp3852
(dp3853
g73
(dp3854
sg82
g3848
sg75
(lp3855
g68
(g69
g70
NtRp3856
(dp3857
g73
(dp3858
g81
I3
ssg82
g3852
sg75
(lp3859
g111
asbasbasbag68
(g84
g70
NtRp3860
(dp3861
g73
(dp3862
sg82
g3831
sg75
(lp3863
g68
(g89
g70
NtRp3864
(dp3865
g73
(dp3866
sg82
g3860
sg75
(lp3867
g68
(g69
g70
NtRp3868
(dp3869
g73
(dp3870
g81
I3
ssg82
g3864
sg75
(lp3871
S'/mvstore/default/index'
p3872
asbasbasbag68
(g84
g70
NtRp3873
(dp3874
g73
(dp3875
sg82
g3831
sg75
(lp3876
g68
(g89
g70
NtRp3877
(dp3878
g73
(dp3879
sg82
g3873
sg75
(lp3880
g68
(g69
g70
NtRp3881
(dp3882
g73
(dp3883
g81
I3
ssg82
g3877
sg75
(lp3884
g68
(g77
g70
NtRp3885
(dp3886
g73
(dp3887
g81
I2
ssg82
Nsg75
(lp3888
g68
(g84
g70
NtRp3889
(dp3890
g73
(dp3891
sg82
g3885
sg75
(lp3892
g68
(g89
g70
NtRp3893
(dp3894
g73
(dp3895
sg82
g3889
sg75
(lp3896
g68
(g69
g70
NtRp3897
(dp3898
g73
(dp3899
g81
I2
ssg82
g3893
sg75
(lp3900
g68
(g77
g70
NtRp3901
(dp3902
g73
(dp3903
g81
I1
ssg82
Nsg75
(lp3904
g68
(g84
g70
NtRp3905
(dp3906
g73
(dp3907
sg82
g3901
sg75
(lp3908
g68
(g89
g70
NtRp3909
(dp3910
g73
(dp3911
sg82
g3905
sg75
(lp3912
g68
(g69
g70
NtRp3913
(dp3914
g73
(dp3915
g81
I1
ssg82
g3909
sg75
(lp3916
g3220
(S's\t\x00\x00\x00Add Users'
tRp3917
asbasbasbag68
(g84
g70
NtRp3918
(dp3919
g73
(dp3920
sg82
g3901
sg75
(lp3921
g68
(g89
g70
NtRp3922
(dp3923
g73
(dp3924
sg82
g3918
sg75
(lp3925
g68
(g69
g70
NtRp3926
(dp3927
g73
(dp3928
g81
I1
ssg82
g3922
sg75
(lp3929
I00
asbasbasbag68
(g84
g70
NtRp3930
(dp3931
g73
(dp3932
sg82
g3901
sg75
(lp3933
g68
(g89
g70
NtRp3934
(dp3935
g73
(dp3936
sg82
g3930
sg75
(lp3937
g68
(g69
g70
NtRp3938
(dp3939
g73
(dp3940
g81
I1
ssg82
g3934
sg75
(lp3941
S'/mvstore/default/empleados'
p3942
asbasbasbag68
(g84
g70
NtRp3943
(dp3944
g73
(dp3945
sg82
g3901
sg75
(lp3946
g68
(g89
g70
NtRp3947
(dp3948
g73
(dp3949
sg82
g3943
sg75
(lp3950
g68
(g69
g70
NtRp3951
(dp3952
g73
(dp3953
g81
I1
ssg82
g3947
sg75
(lp3954
(lp3955
asbasbasbasbasbasbasbag68
(g84
g70
NtRp3956
(dp3957
g73
(dp3958
sg82
g3885
sg75
(lp3959
g68
(g89
g70
NtRp3960
(dp3961
g73
(dp3962
sg82
g3956
sg75
(lp3963
g68
(g69
g70
NtRp3964
(dp3965
g73
(dp3966
g81
I2
ssg82
g3960
sg75
(lp3967
g68
(g77
g70
NtRp3968
(dp3969
g73
(dp3970
g81
I1
ssg82
Nsg75
(lp3971
g68
(g84
g70
NtRp3972
(dp3973
g73
(dp3974
sg82
g3968
sg75
(lp3975
g68
(g89
g70
NtRp3976
(dp3977
g73
(dp3978
sg82
g3972
sg75
(lp3979
g68
(g69
g70
NtRp3980
(dp3981
g73
(dp3982
g81
I1
ssg82
g3976
sg75
(lp3983
g3220
(S's\x0b\x00\x00\x00Add Clients'
tRp3984
asbasbasbag68
(g84
g70
NtRp3985
(dp3986
g73
(dp3987
sg82
g3968
sg75
(lp3988
g68
(g89
g70
NtRp3989
(dp3990
g73
(dp3991
sg82
g3985
sg75
(lp3992
g68
(g69
g70
NtRp3993
(dp3994
g73
(dp3995
g81
I1
ssg82
g3989
sg75
(lp3996
I00
asbasbasbag68
(g84
g70
NtRp3997
(dp3998
g73
(dp3999
sg82
g3968
sg75
(lp4000
g68
(g89
g70
NtRp4001
(dp4002
g73
(dp4003
sg82
g3997
sg75
(lp4004
g68
(g69
g70
NtRp4005
(dp4006
g73
(dp4007
g81
I1
ssg82
g4001
sg75
(lp4008
S'/mvstore/default/clientes'
p4009
asbasbasbag68
(g84
g70
NtRp4010
(dp4011
g73
(dp4012
sg82
g3968
sg75
(lp4013
g68
(g89
g70
NtRp4014
(dp4015
g73
(dp4016
sg82
g4010
sg75
(lp4017
g68
(g69
g70
NtRp4018
(dp4019
g73
(dp4020
g81
I1
ssg82
g4014
sg75
(lp4021
(lp4022
asbasbasbasbasbasbasbag68
(g84
g70
NtRp4023
(dp4024
g73
(dp4025
sg82
g3885
sg75
(lp4026
g68
(g89
g70
NtRp4027
(dp4028
g73
(dp4029
sg82
g4023
sg75
(lp4030
g68
(g69
g70
NtRp4031
(dp4032
g73
(dp4033
g81
I2
ssg82
g4027
sg75
(lp4034
g68
(g77
g70
NtRp4035
(dp4036
g73
(dp4037
g81
I1
ssg82
Nsg75
(lp4038
g68
(g84
g70
NtRp4039
(dp4040
g73
(dp4041
sg82
g4035
sg75
(lp4042
g68
(g89
g70
NtRp4043
(dp4044
g73
(dp4045
sg82
g4039
sg75
(lp4046
g68
(g69
g70
NtRp4047
(dp4048
g73
(dp4049
g81
I1
ssg82
g4043
sg75
(lp4050
g3220
(S's\t\x00\x00\x00Add Movie'
tRp4051
asbasbasbag68
(g84
g70
NtRp4052
(dp4053
g73
(dp4054
sg82
g4035
sg75
(lp4055
g68
(g89
g70
NtRp4056
(dp4057
g73
(dp4058
sg82
g4052
sg75
(lp4059
g68
(g69
g70
NtRp4060
(dp4061
g73
(dp4062
g81
I1
ssg82
g4056
sg75
(lp4063
I00
asbasbasbag68
(g84
g70
NtRp4064
(dp4065
g73
(dp4066
sg82
g4035
sg75
(lp4067
g68
(g89
g70
NtRp4068
(dp4069
g73
(dp4070
sg82
g4064
sg75
(lp4071
g68
(g69
g70
NtRp4072
(dp4073
g73
(dp4074
g81
I1
ssg82
g4068
sg75
(lp4075
S'/mvstore/default/peliculas'
p4076
asbasbasbag68
(g84
g70
NtRp4077
(dp4078
g73
(dp4079
sg82
g4035
sg75
(lp4080
g68
(g89
g70
NtRp4081
(dp4082
g73
(dp4083
sg82
g4077
sg75
(lp4084
g68
(g69
g70
NtRp4085
(dp4086
g73
(dp4087
g81
I1
ssg82
g4081
sg75
(lp4088
(lp4089
asbasbasbasbasbasbasbag68
(g84
g70
NtRp4090
(dp4091
g73
(dp4092
sg82
g3885
sg75
(lp4093
g68
(g89
g70
NtRp4094
(dp4095
g73
(dp4096
sg82
g4090
sg75
(lp4097
g68
(g69
g70
NtRp4098
(dp4099
g73
(dp4100
g81
I2
ssg82
g4094
sg75
(lp4101
g68
(g77
g70
NtRp4102
(dp4103
g73
(dp4104
g81
I1
ssg82
Nsg75
(lp4105
g68
(g84
g70
NtRp4106
(dp4107
g73
(dp4108
sg82
g4102
sg75
(lp4109
g68
(g89
g70
NtRp4110
(dp4111
g73
(dp4112
sg82
g4106
sg75
(lp4113
g68
(g69
g70
NtRp4114
(dp4115
g73
(dp4116
g81
I1
ssg82
g4110
sg75
(lp4117
g3220
(S's\n\x00\x00\x00Add Rental'
tRp4118
asbasbasbag68
(g84
g70
NtRp4119
(dp4120
g73
(dp4121
sg82
g4102
sg75
(lp4122
g68
(g89
g70
NtRp4123
(dp4124
g73
(dp4125
sg82
g4119
sg75
(lp4126
g68
(g69
g70
NtRp4127
(dp4128
g73
(dp4129
g81
I1
ssg82
g4123
sg75
(lp4130
I00
asbasbasbag68
(g84
g70
NtRp4131
(dp4132
g73
(dp4133
sg82
g4102
sg75
(lp4134
g68
(g89
g70
NtRp4135
(dp4136
g73
(dp4137
sg82
g4131
sg75
(lp4138
g68
(g69
g70
NtRp4139
(dp4140
g73
(dp4141
g81
I1
ssg82
g4135
sg75
(lp4142
S'/mvstore/default/prestamos'
p4143
asbasbasbag68
(g84
g70
NtRp4144
(dp4145
g73
(dp4146
sg82
g4102
sg75
(lp4147
g68
(g89
g70
NtRp4148
(dp4149
g73
(dp4150
sg82
g4144
sg75
(lp4151
g68
(g69
g70
NtRp4152
(dp4153
g73
(dp4154
g81
I1
ssg82
g4148
sg75
(lp4155
(lp4156
asbasbasbasbasbasbasbasbasbasbasbasbasbasbasbag68
(g84
g70
NtRp4157
(dp4158
g73
(dp4159
sg82
g3188
sg75
(lp4160
g68
(g89
g70
NtRp4161
(dp4162
g73
(dp4163
sg82
g4157
sg75
(lp4164
g68
(g69
g70
NtRp4165
(dp4166
g73
(dp4167
g81
I4
ssg82
g4161
sg75
(lp4168
g68
(g77
g70
NtRp4169
(dp4170
g73
(dp4171
g81
I3
ssg82
Nsg75
(lp4172
g68
(g84
g70
NtRp4173
(dp4174
g73
(dp4175
sg82
g4169
sg75
(lp4176
g68
(g89
g70
NtRp4177
(dp4178
g73
(dp4179
sg82
g4173
sg75
(lp4180
g68
(g69
g70
NtRp4181
(dp4182
g73
(dp4183
g81
I3
ssg82
g4177
sg75
(lp4184
g3220
(S's\x16\x00\x00\x00Retreiving information'
tRp4185
asbasbasbag68
(g84
g70
NtRp4186
(dp4187
g73
(dp4188
sg82
g4169
sg75
(lp4189
g68
(g89
g70
NtRp4190
(dp4191
g73
(dp4192
sg82
g4186
sg75
(lp4193
g68
(g69
g70
NtRp4194
(dp4195
g73
(dp4196
g81
I3
ssg82
g4190
sg75
(lp4197
g111
asbasbasbag68
(g84
g70
NtRp4198
(dp4199
g73
(dp4200
sg82
g4169
sg75
(lp4201
g68
(g89
g70
NtRp4202
(dp4203
g73
(dp4204
sg82
g4198
sg75
(lp4205
g68
(g69
g70
NtRp4206
(dp4207
g73
(dp4208
g81
I3
ssg82
g4202
sg75
(lp4209
S'/mvstore/default/index'
p4210
asbasbasbag68
(g84
g70
NtRp4211
(dp4212
g73
(dp4213
sg82
g4169
sg75
(lp4214
g68
(g89
g70
NtRp4215
(dp4216
g73
(dp4217
sg82
g4211
sg75
(lp4218
g68
(g69
g70
NtRp4219
(dp4220
g73
(dp4221
g81
I3
ssg82
g4215
sg75
(lp4222
g68
(g77
g70
NtRp4223
(dp4224
g73
(dp4225
g81
I2
ssg82
Nsg75
(lp4226
g68
(g84
g70
NtRp4227
(dp4228
g73
(dp4229
sg82
g4223
sg75
(lp4230
g68
(g89
g70
NtRp4231
(dp4232
g73
(dp4233
sg82
g4227
sg75
(lp4234
g68
(g69
g70
NtRp4235
(dp4236
g73
(dp4237
g81
I2
ssg82
g4231
sg75
(lp4238
g68
(g77
g70
NtRp4239
(dp4240
g73
(dp4241
g81
I1
ssg82
Nsg75
(lp4242
g68
(g84
g70
NtRp4243
(dp4244
g73
(dp4245
sg82
g4239
sg75
(lp4246
g68
(g89
g70
NtRp4247
(dp4248
g73
(dp4249
sg82
g4243
sg75
(lp4250
g68
(g69
g70
NtRp4251
(dp4252
g73
(dp4253
g81
I1
ssg82
g4247
sg75
(lp4254
g3220
(S's\n\x00\x00\x00List Users'
tRp4255
asbasbasbag68
(g84
g70
NtRp4256
(dp4257
g73
(dp4258
sg82
g4239
sg75
(lp4259
g68
(g89
g70
NtRp4260
(dp4261
g73
(dp4262
sg82
g4256
sg75
(lp4263
g68
(g69
g70
NtRp4264
(dp4265
g73
(dp4266
g81
I1
ssg82
g4260
sg75
(lp4267
I00
asbasbasbag68
(g84
g70
NtRp4268
(dp4269
g73
(dp4270
sg82
g4239
sg75
(lp4271
g68
(g89
g70
NtRp4272
(dp4273
g73
(dp4274
sg82
g4268
sg75
(lp4275
g68
(g69
g70
NtRp4276
(dp4277
g73
(dp4278
g81
I1
ssg82
g4272
sg75
(lp4279
S'/mvstore/default/personal'
p4280
asbasbasbag68
(g84
g70
NtRp4281
(dp4282
g73
(dp4283
sg82
g4239
sg75
(lp4284
g68
(g89
g70
NtRp4285
(dp4286
g73
(dp4287
sg82
g4281
sg75
(lp4288
g68
(g69
g70
NtRp4289
(dp4290
g73
(dp4291
g81
I1
ssg82
g4285
sg75
(lp4292
(lp4293
asbasbasbasbasbasbasbag68
(g84
g70
NtRp4294
(dp4295
g73
(dp4296
sg82
g4223
sg75
(lp4297
g68
(g89
g70
NtRp4298
(dp4299
g73
(dp4300
sg82
g4294
sg75
(lp4301
g68
(g69
g70
NtRp4302
(dp4303
g73
(dp4304
g81
I2
ssg82
g4298
sg75
(lp4305
g68
(g77
g70
NtRp4306
(dp4307
g73
(dp4308
g81
I1
ssg82
Nsg75
(lp4309
g68
(g84
g70
NtRp4310
(dp4311
g73
(dp4312
sg82
g4306
sg75
(lp4313
g68
(g89
g70
NtRp4314
(dp4315
g73
(dp4316
sg82
g4310
sg75
(lp4317
g68
(g69
g70
NtRp4318
(dp4319
g73
(dp4320
g81
I1
ssg82
g4314
sg75
(lp4321
g3220
(S's\x0c\x00\x00\x00List Clients'
tRp4322
asbasbasbag68
(g84
g70
NtRp4323
(dp4324
g73
(dp4325
sg82
g4306
sg75
(lp4326
g68
(g89
g70
NtRp4327
(dp4328
g73
(dp4329
sg82
g4323
sg75
(lp4330
g68
(g69
g70
NtRp4331
(dp4332
g73
(dp4333
g81
I1
ssg82
g4327
sg75
(lp4334
I00
asbasbasbag68
(g84
g70
NtRp4335
(dp4336
g73
(dp4337
sg82
g4306
sg75
(lp4338
g68
(g89
g70
NtRp4339
(dp4340
g73
(dp4341
sg82
g4335
sg75
(lp4342
g68
(g69
g70
NtRp4343
(dp4344
g73
(dp4345
g81
I1
ssg82
g4339
sg75
(lp4346
S'/mvstore/default/clientesall'
p4347
asbasbasbag68
(g84
g70
NtRp4348
(dp4349
g73
(dp4350
sg82
g4306
sg75
(lp4351
g68
(g89
g70
NtRp4352
(dp4353
g73
(dp4354
sg82
g4348
sg75
(lp4355
g68
(g69
g70
NtRp4356
(dp4357
g73
(dp4358
g81
I1
ssg82
g4352
sg75
(lp4359
(lp4360
asbasbasbasbasbasbasbag68
(g84
g70
NtRp4361
(dp4362
g73
(dp4363
sg82
g4223
sg75
(lp4364
g68
(g89
g70
NtRp4365
(dp4366
g73
(dp4367
sg82
g4361
sg75
(lp4368
g68
(g69
g70
NtRp4369
(dp4370
g73
(dp4371
g81
I2
ssg82
g4365
sg75
(lp4372
g68
(g77
g70
NtRp4373
(dp4374
g73
(dp4375
g81
I1
ssg82
Nsg75
(lp4376
g68
(g84
g70
NtRp4377
(dp4378
g73
(dp4379
sg82
g4373
sg75
(lp4380
g68
(g89
g70
NtRp4381
(dp4382
g73
(dp4383
sg82
g4377
sg75
(lp4384
g68
(g69
g70
NtRp4385
(dp4386
g73
(dp4387
g81
I1
ssg82
g4381
sg75
(lp4388
g3220
(S's\x0b\x00\x00\x00List Movies'
tRp4389
asbasbasbag68
(g84
g70
NtRp4390
(dp4391
g73
(dp4392
sg82
g4373
sg75
(lp4393
g68
(g89
g70
NtRp4394
(dp4395
g73
(dp4396
sg82
g4390
sg75
(lp4397
g68
(g69
g70
NtRp4398
(dp4399
g73
(dp4400
g81
I1
ssg82
g4394
sg75
(lp4401
I00
asbasbasbag68
(g84
g70
NtRp4402
(dp4403
g73
(dp4404
sg82
g4373
sg75
(lp4405
g68
(g89
g70
NtRp4406
(dp4407
g73
(dp4408
sg82
g4402
sg75
(lp4409
g68
(g69
g70
NtRp4410
(dp4411
g73
(dp4412
g81
I1
ssg82
g4406
sg75
(lp4413
S'/mvstore/default/peliculasall'
p4414
asbasbasbag68
(g84
g70
NtRp4415
(dp4416
g73
(dp4417
sg82
g4373
sg75
(lp4418
g68
(g89
g70
NtRp4419
(dp4420
g73
(dp4421
sg82
g4415
sg75
(lp4422
g68
(g69
g70
NtRp4423
(dp4424
g73
(dp4425
g81
I1
ssg82
g4419
sg75
(lp4426
(lp4427
asbasbasbasbasbasbasbag68
(g84
g70
NtRp4428
(dp4429
g73
(dp4430
sg82
g4223
sg75
(lp4431
g68
(g89
g70
NtRp4432
(dp4433
g73
(dp4434
sg82
g4428
sg75
(lp4435
g68
(g69
g70
NtRp4436
(dp4437
g73
(dp4438
g81
I2
ssg82
g4432
sg75
(lp4439
g68
(g77
g70
NtRp4440
(dp4441
g73
(dp4442
g81
I1
ssg82
Nsg75
(lp4443
g68
(g84
g70
NtRp4444
(dp4445
g73
(dp4446
sg82
g4440
sg75
(lp4447
g68
(g89
g70
NtRp4448
(dp4449
g73
(dp4450
sg82
g4444
sg75
(lp4451
g68
(g69
g70
NtRp4452
(dp4453
g73
(dp4454
g81
I1
ssg82
g4448
sg75
(lp4455
g3220
(S's\x0c\x00\x00\x00List Rentals'
tRp4456
asbasbasbag68
(g84
g70
NtRp4457
(dp4458
g73
(dp4459
sg82
g4440
sg75
(lp4460
g68
(g89
g70
NtRp4461
(dp4462
g73
(dp4463
sg82
g4457
sg75
(lp4464
g68
(g69
g70
NtRp4465
(dp4466
g73
(dp4467
g81
I1
ssg82
g4461
sg75
(lp4468
I00
asbasbasbag68
(g84
g70
NtRp4469
(dp4470
g73
(dp4471
sg82
g4440
sg75
(lp4472
g68
(g89
g70
NtRp4473
(dp4474
g73
(dp4475
sg82
g4469
sg75
(lp4476
g68
(g69
g70
NtRp4477
(dp4478
g73
(dp4479
g81
I1
ssg82
g4473
sg75
(lp4480
S'/mvstore/default/prestados'
p4481
asbasbasbag68
(g84
g70
NtRp4482
(dp4483
g73
(dp4484
sg82
g4440
sg75
(lp4485
g68
(g89
g70
NtRp4486
(dp4487
g73
(dp4488
sg82
g4482
sg75
(lp4489
g68
(g69
g70
NtRp4490
(dp4491
g73
(dp4492
g81
I1
ssg82
g4486
sg75
(lp4493
(lp4494
asbasbasbasbasbasbasbag68
(g84
g70
NtRp4495
(dp4496
g73
(dp4497
sg82
g4223
sg75
(lp4498
g68
(g89
g70
NtRp4499
(dp4500
g73
(dp4501
sg82
g4495
sg75
(lp4502
g68
(g69
g70
NtRp4503
(dp4504
g73
(dp4505
g81
I2
ssg82
g4499
sg75
(lp4506
g68
(g77
g70
NtRp4507
(dp4508
g73
(dp4509
g81
I1
ssg82
Nsg75
(lp4510
g68
(g84
g70
NtRp4511
(dp4512
g73
(dp4513
sg82
g4507
sg75
(lp4514
g68
(g89
g70
NtRp4515
(dp4516
g73
(dp4517
sg82
g4511
sg75
(lp4518
g68
(g69
g70
NtRp4519
(dp4520
g73
(dp4521
g81
I1
ssg82
g4515
sg75
(lp4522
g3220
(S's\x06\x00\x00\x00Search'
tRp4523
asbasbasbag68
(g84
g70
NtRp4524
(dp4525
g73
(dp4526
sg82
g4507
sg75
(lp4527
g68
(g89
g70
NtRp4528
(dp4529
g73
(dp4530
sg82
g4524
sg75
(lp4531
g68
(g69
g70
NtRp4532
(dp4533
g73
(dp4534
g81
I1
ssg82
g4528
sg75
(lp4535
I00
asbasbasbag68
(g84
g70
NtRp4536
(dp4537
g73
(dp4538
sg82
g4507
sg75
(lp4539
g68
(g89
g70
NtRp4540
(dp4541
g73
(dp4542
sg82
g4536
sg75
(lp4543
g68
(g69
g70
NtRp4544
(dp4545
g73
(dp4546
g81
I1
ssg82
g4540
sg75
(lp4547
S'/mvstore/default/prestamos'
p4548
asbasbasbag68
(g84
g70
NtRp4549
(dp4550
g73
(dp4551
sg82
g4507
sg75
(lp4552
g68
(g89
g70
NtRp4553
(dp4554
g73
(dp4555
sg82
g4549
sg75
(lp4556
g68
(g69
g70
NtRp4557
(dp4558
g73
(dp4559
g81
I1
ssg82
g4553
sg75
(lp4560
(lp4561
asbasbasbasbasbasbasbasbasbasbasbasbasbasbasbag68
(g84
g70
NtRp4562
(dp4563
g73
(dp4564
sg82
g3188
sg75
(lp4565
g68
(g89
g70
NtRp4566
(dp4567
g73
(dp4568
sg82
g4562
sg75
(lp4569
g68
(g69
g70
NtRp4570
(dp4571
g73
(dp4572
g81
I4
ssg82
g4566
sg75
(lp4573
g68
(g77
g70
NtRp4574
(dp4575
g73
(dp4576
g81
I3
ssg82
Nsg75
(lp4577
g68
(g84
g70
NtRp4578
(dp4579
g73
(dp4580
sg82
g4574
sg75
(lp4581
g68
(g89
g70
NtRp4582
(dp4583
g73
(dp4584
sg82
g4578
sg75
(lp4585
g68
(g69
g70
NtRp4586
(dp4587
g73
(dp4588
g81
I3
ssg82
g4582
sg75
(lp4589
g3220
(S's\x15\x00\x00\x00Modifying information'
tRp4590
asbasbasbag68
(g84
g70
NtRp4591
(dp4592
g73
(dp4593
sg82
g4574
sg75
(lp4594
g68
(g89
g70
NtRp4595
(dp4596
g73
(dp4597
sg82
g4591
sg75
(lp4598
g68
(g69
g70
NtRp4599
(dp4600
g73
(dp4601
g81
I3
ssg82
g4595
sg75
(lp4602
g111
asbasbasbag68
(g84
g70
NtRp4603
(dp4604
g73
(dp4605
sg82
g4574
sg75
(lp4606
g68
(g89
g70
NtRp4607
(dp4608
g73
(dp4609
sg82
g4603
sg75
(lp4610
g68
(g69
g70
NtRp4611
(dp4612
g73
(dp4613
g81
I3
ssg82
g4607
sg75
(lp4614
S'/mvstore/default/index'
p4615
asbasbasbag68
(g84
g70
NtRp4616
(dp4617
g73
(dp4618
sg82
g4574
sg75
(lp4619
g68
(g89
g70
NtRp4620
(dp4621
g73
(dp4622
sg82
g4616
sg75
(lp4623
g68
(g69
g70
NtRp4624
(dp4625
g73
(dp4626
g81
I3
ssg82
g4620
sg75
(lp4627
g68
(g77
g70
NtRp4628
(dp4629
g73
(dp4630
g81
I2
ssg82
Nsg75
(lp4631
g68
(g84
g70
NtRp4632
(dp4633
g73
(dp4634
sg82
g4628
sg75
(lp4635
g68
(g89
g70
NtRp4636
(dp4637
g73
(dp4638
sg82
g4632
sg75
(lp4639
g68
(g69
g70
NtRp4640
(dp4641
g73
(dp4642
g81
I2
ssg82
g4636
sg75
(lp4643
g68
(g77
g70
NtRp4644
(dp4645
g73
(dp4646
g81
I1
ssg82
Nsg75
(lp4647
g68
(g84
g70
NtRp4648
(dp4649
g73
(dp4650
sg82
g4644
sg75
(lp4651
g68
(g89
g70
NtRp4652
(dp4653
g73
(dp4654
sg82
g4648
sg75
(lp4655
g68
(g69
g70
NtRp4656
(dp4657
g73
(dp4658
g81
I1
ssg82
g4652
sg75
(lp4659
g3220
(S's\x05\x00\x00\x00Users'
tRp4660
asbasbasbag68
(g84
g70
NtRp4661
(dp4662
g73
(dp4663
sg82
g4644
sg75
(lp4664
g68
(g89
g70
NtRp4665
(dp4666
g73
(dp4667
sg82
g4661
sg75
(lp4668
g68
(g69
g70
NtRp4669
(dp4670
g73
(dp4671
g81
I1
ssg82
g4665
sg75
(lp4672
I00
asbasbasbag68
(g84
g70
NtRp4673
(dp4674
g73
(dp4675
sg82
g4644
sg75
(lp4676
g68
(g89
g70
NtRp4677
(dp4678
g73
(dp4679
sg82
g4673
sg75
(lp4680
g68
(g69
g70
NtRp4681
(dp4682
g73
(dp4683
g81
I1
ssg82
g4677
sg75
(lp4684
S'/mvstore/default/empleados'
p4685
asbasbasbag68
(g84
g70
NtRp4686
(dp4687
g73
(dp4688
sg82
g4644
sg75
(lp4689
g68
(g89
g70
NtRp4690
(dp4691
g73
(dp4692
sg82
g4686
sg75
(lp4693
g68
(g69
g70
NtRp4694
(dp4695
g73
(dp4696
g81
I1
ssg82
g4690
sg75
(lp4697
(lp4698
asbasbasbasbasbasbasbag68
(g84
g70
NtRp4699
(dp4700
g73
(dp4701
sg82
g4628
sg75
(lp4702
g68
(g89
g70
NtRp4703
(dp4704
g73
(dp4705
sg82
g4699
sg75
(lp4706
g68
(g69
g70
NtRp4707
(dp4708
g73
(dp4709
g81
I2
ssg82
g4703
sg75
(lp4710
g68
(g77
g70
NtRp4711
(dp4712
g73
(dp4713
g81
I1
ssg82
Nsg75
(lp4714
g68
(g84
g70
NtRp4715
(dp4716
g73
(dp4717
sg82
g4711
sg75
(lp4718
g68
(g89
g70
NtRp4719
(dp4720
g73
(dp4721
sg82
g4715
sg75
(lp4722
g68
(g69
g70
NtRp4723
(dp4724
g73
(dp4725
g81
I1
ssg82
g4719
sg75
(lp4726
g3220
(S's\x07\x00\x00\x00Clients'
tRp4727
asbasbasbag68
(g84
g70
NtRp4728
(dp4729
g73
(dp4730
sg82
g4711
sg75
(lp4731
g68
(g89
g70
NtRp4732
(dp4733
g73
(dp4734
sg82
g4728
sg75
(lp4735
g68
(g69
g70
NtRp4736
(dp4737
g73
(dp4738
g81
I1
ssg82
g4732
sg75
(lp4739
I00
asbasbasbag68
(g84
g70
NtRp4740
(dp4741
g73
(dp4742
sg82
g4711
sg75
(lp4743
g68
(g89
g70
NtRp4744
(dp4745
g73
(dp4746
sg82
g4740
sg75
(lp4747
g68
(g69
g70
NtRp4748
(dp4749
g73
(dp4750
g81
I1
ssg82
g4744
sg75
(lp4751
S'/mvstore/default/clientes'
p4752
asbasbasbag68
(g84
g70
NtRp4753
(dp4754
g73
(dp4755
sg82
g4711
sg75
(lp4756
g68
(g89
g70
NtRp4757
(dp4758
g73
(dp4759
sg82
g4753
sg75
(lp4760
g68
(g69
g70
NtRp4761
(dp4762
g73
(dp4763
g81
I1
ssg82
g4757
sg75
(lp4764
(lp4765
asbasbasbasbasbasbasbag68
(g84
g70
NtRp4766
(dp4767
g73
(dp4768
sg82
g4628
sg75
(lp4769
g68
(g89
g70
NtRp4770
(dp4771
g73
(dp4772
sg82
g4766
sg75
(lp4773
g68
(g69
g70
NtRp4774
(dp4775
g73
(dp4776
g81
I2
ssg82
g4770
sg75
(lp4777
g68
(g77
g70
NtRp4778
(dp4779
g73
(dp4780
g81
I1
ssg82
Nsg75
(lp4781
g68
(g84
g70
NtRp4782
(dp4783
g73
(dp4784
sg82
g4778
sg75
(lp4785
g68
(g89
g70
NtRp4786
(dp4787
g73
(dp4788
sg82
g4782
sg75
(lp4789
g68
(g69
g70
NtRp4790
(dp4791
g73
(dp4792
g81
I1
ssg82
g4786
sg75
(lp4793
g3220
(S's\x06\x00\x00\x00Movies'
tRp4794
asbasbasbag68
(g84
g70
NtRp4795
(dp4796
g73
(dp4797
sg82
g4778
sg75
(lp4798
g68
(g89
g70
NtRp4799
(dp4800
g73
(dp4801
sg82
g4795
sg75
(lp4802
g68
(g69
g70
NtRp4803
(dp4804
g73
(dp4805
g81
I1
ssg82
g4799
sg75
(lp4806
I00
asbasbasbag68
(g84
g70
NtRp4807
(dp4808
g73
(dp4809
sg82
g4778
sg75
(lp4810
g68
(g89
g70
NtRp4811
(dp4812
g73
(dp4813
sg82
g4807
sg75
(lp4814
g68
(g69
g70
NtRp4815
(dp4816
g73
(dp4817
g81
I1
ssg82
g4811
sg75
(lp4818
S'/mvstore/default/peliculas'
p4819
asbasbasbag68
(g84
g70
NtRp4820
(dp4821
g73
(dp4822
sg82
g4778
sg75
(lp4823
g68
(g89
g70
NtRp4824
(dp4825
g73
(dp4826
sg82
g4820
sg75
(lp4827
g68
(g69
g70
NtRp4828
(dp4829
g73
(dp4830
g81
I1
ssg82
g4824
sg75
(lp4831
(lp4832
asbasbasbasbasbasbasbag68
(g84
g70
NtRp4833
(dp4834
g73
(dp4835
sg82
g4628
sg75
(lp4836
g68
(g89
g70
NtRp4837
(dp4838
g73
(dp4839
sg82
g4833
sg75
(lp4840
g68
(g69
g70
NtRp4841
(dp4842
g73
(dp4843
g81
I2
ssg82
g4837
sg75
(lp4844
g68
(g77
g70
NtRp4845
(dp4846
g73
(dp4847
g81
I1
ssg82
Nsg75
(lp4848
g68
(g84
g70
NtRp4849
(dp4850
g73
(dp4851
sg82
g4845
sg75
(lp4852
g68
(g89
g70
NtRp4853
(dp4854
g73
(dp4855
sg82
g4849
sg75
(lp4856
g68
(g69
g70
NtRp4857
(dp4858
g73
(dp4859
g81
I1
ssg82
g4853
sg75
(lp4860
g3220
(S's\x07\x00\x00\x00Rentals'
tRp4861
asbasbasbag68
(g84
g70
NtRp4862
(dp4863
g73
(dp4864
sg82
g4845
sg75
(lp4865
g68
(g89
g70
NtRp4866
(dp4867
g73
(dp4868
sg82
g4862
sg75
(lp4869
g68
(g69
g70
NtRp4870
(dp4871
g73
(dp4872
g81
I1
ssg82
g4866
sg75
(lp4873
I00
asbasbasbag68
(g84
g70
NtRp4874
(dp4875
g73
(dp4876
sg82
g4845
sg75
(lp4877
g68
(g89
g70
NtRp4878
(dp4879
g73
(dp4880
sg82
g4874
sg75
(lp4881
g68
(g69
g70
NtRp4882
(dp4883
g73
(dp4884
g81
I1
ssg82
g4878
sg75
(lp4885
S'/mvstore/default/prestamos'
p4886
asbasbasbag68
(g84
g70
NtRp4887
(dp4888
g73
(dp4889
sg82
g4845
sg75
(lp4890
g68
(g89
g70
NtRp4891
(dp4892
g73
(dp4893
sg82
g4887
sg75
(lp4894
g68
(g69
g70
NtRp4895
(dp4896
g73
(dp4897
g81
I1
ssg82
g4891
sg75
(lp4898
(lp4899
asbasbasbasbasbasbasbag68
(g84
g70
NtRp4900
(dp4901
g73
(dp4902
sg82
g4628
sg75
(lp4903
g68
(g89
g70
NtRp4904
(dp4905
g73
(dp4906
sg82
g4900
sg75
(lp4907
g68
(g69
g70
NtRp4908
(dp4909
g73
(dp4910
g81
I2
ssg82
g4904
sg75
(lp4911
g68
(g77
g70
NtRp4912
(dp4913
g73
(dp4914
g81
I1
ssg82
Nsg75
(lp4915
g68
(g84
g70
NtRp4916
(dp4917
g73
(dp4918
sg82
g4912
sg75
(lp4919
g68
(g89
g70
NtRp4920
(dp4921
g73
(dp4922
sg82
g4916
sg75
(lp4923
g68
(g69
g70
NtRp4924
(dp4925
g73
(dp4926
g81
I1
ssg82
g4920
sg75
(lp4927
g3220
(S's\x06\x00\x00\x00Search'
tRp4928
asbasbasbag68
(g84
g70
NtRp4929
(dp4930
g73
(dp4931
sg82
g4912
sg75
(lp4932
g68
(g89
g70
NtRp4933
(dp4934
g73
(dp4935
sg82
g4929
sg75
(lp4936
g68
(g69
g70
NtRp4937
(dp4938
g73
(dp4939
g81
I1
ssg82
g4933
sg75
(lp4940
I00
asbasbasbag68
(g84
g70
NtRp4941
(dp4942
g73
(dp4943
sg82
g4912
sg75
(lp4944
g68
(g89
g70
NtRp4945
(dp4946
g73
(dp4947
sg82
g4941
sg75
(lp4948
g68
(g69
g70
NtRp4949
(dp4950
g73
(dp4951
g81
I1
ssg82
g4945
sg75
(lp4952
S'/mvstore/default/prestamos'
p4953
asbasbasbag68
(g84
g70
NtRp4954
(dp4955
g73
(dp4956
sg82
g4912
sg75
(lp4957
g68
(g89
g70
NtRp4958
(dp4959
g73
(dp4960
sg82
g4954
sg75
(lp4961
g68
(g69
g70
NtRp4962
(dp4963
g73
(dp4964
g81
I1
ssg82
g4958
sg75
(lp4965
(lp4966
asbasbasbasbasbasbasbasbasbasbasbasbasbasbasbasbasbasbasbag68
(g84
g70
NtRp4967
(dp4968
g73
(dp4969
sg82
g2752
sg75
(lp4970
g68
(g89
g70
NtRp4971
(dp4972
g73
(dp4973
g93
g94
ssg82
g4967
sg75
(lp4974
S'meta'
p4975
asbag68
(g89
g70
NtRp4976
(dp4977
g73
(dp4978
g100
g101
ssg82
g4967
sg75
(lp4979
S':'
asbag68
(g89
g70
NtRp4980
(dp4981
g73
(dp4982
sg82
g4967
sg75
(lp4983
g68
(g69
g70
NtRp4984
(dp4985
g73
(dp4986
g81
I5
ssg82
g4980
sg75
(lp4987
g68
(g77
g70
NtRp4988
(dp4989
g73
(dp4990
g81
I4
ssg82
Nsg75
(lp4991
g68
(g84
g70
NtRp4992
(dp4993
g73
(dp4994
sg82
g4988
sg75
(lp4995
g68
(g89
g70
NtRp4996
(dp4997
g73
(dp4998
g93
g94
ssg82
g4992
sg75
(lp4999
S'author'
p5000
asbag68
(g89
g70
NtRp5001
(dp5002
g73
(dp5003
g100
g101
ssg82
g4992
sg75
(lp5004
S':'
asbag68
(g89
g70
NtRp5005
(dp5006
g73
(dp5007
sg82
g4992
sg75
(lp5008
g68
(g69
g70
NtRp5009
(dp5010
g73
(dp5011
g81
I4
ssg82
g5005
sg75
(lp5012
S'Marco Mansilla'
p5013
asbasbasbag68
(g84
g70
NtRp5014
(dp5015
g73
(dp5016
sg82
g4988
sg75
(lp5017
g68
(g89
g70
NtRp5018
(dp5019
g73
(dp5020
g93
g94
ssg82
g5014
sg75
(lp5021
S'copyright'
p5022
asbag68
(g89
g70
NtRp5023
(dp5024
g73
(dp5025
g100
g101
ssg82
g5014
sg75
(lp5026
S':'
asbag68
(g89
g70
NtRp5027
(dp5028
g73
(dp5029
sg82
g5014
sg75
(lp5030
g68
(g69
g70
NtRp5031
(dp5032
g73
(dp5033
g81
I4
ssg82
g5027
sg75
(lp5034
S'Copyright 2007-2010'
p5035
asbasbasbag68
(g84
g70
NtRp5036
(dp5037
g73
(dp5038
sg82
g4988
sg75
(lp5039
g68
(g89
g70
NtRp5040
(dp5041
g73
(dp5042
g93
g94
ssg82
g5036
sg75
(lp5043
S'description'
p5044
asbag68
(g89
g70
NtRp5045
(dp5046
g73
(dp5047
g100
g101
ssg82
g5036
sg75
(lp5048
S':'
asbag68
(g89
g70
NtRp5049
(dp5050
g73
(dp5051
sg82
g5036
sg75
(lp5052
g68
(g69
g70
NtRp5053
(dp5054
g73
(dp5055
g81
I4
ssg82
g5049
sg75
(lp5056
S'Free and open source full-stack enterprise framework for agile development of fast, scalable, secure and portable database-driven web-based applications. Written and programmable in Python'
p5057
asbasbasbag68
(g84
g70
NtRp5058
(dp5059
g73
(dp5060
sg82
g4988
sg75
(lp5061
g68
(g89
g70
NtRp5062
(dp5063
g73
(dp5064
g93
g94
ssg82
g5058
sg75
(lp5065
S'generator'
p5066
asbag68
(g89
g70
NtRp5067
(dp5068
g73
(dp5069
g100
g101
ssg82
g5058
sg75
(lp5070
S':'
asbag68
(g89
g70
NtRp5071
(dp5072
g73
(dp5073
sg82
g5058
sg75
(lp5074
g68
(g69
g70
NtRp5075
(dp5076
g73
(dp5077
g81
I4
ssg82
g5071
sg75
(lp5078
S'Web2py Enterprise Framework'
p5079
asbasbasbag68
(g84
g70
NtRp5080
(dp5081
g73
(dp5082
sg82
g4988
sg75
(lp5083
g68
(g89
g70
NtRp5084
(dp5085
g73
(dp5086
g93
g94
ssg82
g5080
sg75
(lp5087
S'keywords'
p5088
asbag68
(g89
g70
NtRp5089
(dp5090
g73
(dp5091
g100
g101
ssg82
g5080
sg75
(lp5092
S':'
asbag68
(g89
g70
NtRp5093
(dp5094
g73
(dp5095
sg82
g5080
sg75
(lp5096
g68
(g69
g70
NtRp5097
(dp5098
g73
(dp5099
g81
I4
ssg82
g5093
sg75
(lp5100
S'web2py, python, framework'
p5101
asbasbasbasbasbasbasbag68
(g84
g70
NtRp5102
(dp5103
g73
(dp5104
sg82
g2752
sg75
(lp5105
g68
(g89
g70
NtRp5106
(dp5107
g73
(dp5108
g93
g94
ssg82
g5102
sg75
(lp5109
S'postprocessing'
p5110
asbag68
(g89
g70
NtRp5111
(dp5112
g73
(dp5113
g100
g101
ssg82
g5102
sg75
(lp5114
S':'
asbag68
(g89
g70
NtRp5115
(dp5116
g73
(dp5117
sg82
g5102
sg75
(lp5118
g68
(g69
g70
NtRp5119
(dp5120
g73
(dp5121
g81
I5
ssg82
g5115
sg75
(lp5122
g68
(g77
g70
NtRp5123
(dp5124
g73
(dp5125
g81
I4
ssg82
Nsg75
(lp5126
sbasbasbasbag68
(g84
g70
NtRp5127
(dp5128
g73
(dp5129
sg82
g2752
sg75
(lp5130
g68
(g89
g70
NtRp5131
(dp5132
g73
(dp5133
g93
g94
ssg82
g5127
sg75
(lp5134
S'session_file'
p5135
asbag68
(g89
g70
NtRp5136
(dp5137
g73
(dp5138
g100
g101
ssg82
g5127
sg75
(lp5139
S':'
asbag68
(g89
g70
NtRp5140
(dp5141
g73
(dp5142
sg82
g5127
sg75
(lp5143
g68
(g69
g70
NtRp5144
(dp5145
g73
(dp5146
g81
I5
ssg82
g5140
sg75
(lp5147
S"<open file '/home/marco/proyectos/web2py-trunk/applications/mvstore/sessions/127.0.0.1-3ec2a4ac-05f5-4854-b4fa-4eb0800a1e72', mode 'rb+' at 0x2878030>"
p5148
asbasbasbag68
(g84
g70
NtRp5149
(dp5150
g73
(dp5151
sg82
g2752
sg75
(lp5152
g68
(g89
g70
NtRp5153
(dp5154
g73
(dp5155
g93
g94
ssg82
g5149
sg75
(lp5156
S'session_filename'
p5157
asbag68
(g89
g70
NtRp5158
(dp5159
g73
(dp5160
g100
g101
ssg82
g5149
sg75
(lp5161
S':'
asbag68
(g89
g70
NtRp5162
(dp5163
g73
(dp5164
sg82
g5149
sg75
(lp5165
g68
(g69
g70
NtRp5166
(dp5167
g73
(dp5168
g81
I5
ssg82
g5162
sg75
(lp5169
S'/home/marco/proyectos/web2py-trunk/applications/mvstore/sessions/127.0.0.1-3ec2a4ac-05f5-4854-b4fa-4eb0800a1e72'
p5170
asbasbasbag68
(g84
g70
NtRp5171
(dp5172
g73
(dp5173
sg82
g2752
sg75
(lp5174
g68
(g89
g70
NtRp5175
(dp5176
g73
(dp5177
g93
g94
ssg82
g5171
sg75
(lp5178
S'session_id'
p5179
asbag68
(g89
g70
NtRp5180
(dp5181
g73
(dp5182
g100
g101
ssg82
g5171
sg75
(lp5183
S':'
asbag68
(g89
g70
NtRp5184
(dp5185
g73
(dp5186
sg82
g5171
sg75
(lp5187
g68
(g69
g70
NtRp5188
(dp5189
g73
(dp5190
g81
I5
ssg82
g5184
sg75
(lp5191
S'127.0.0.1-3ec2a4ac-05f5-4854-b4fa-4eb0800a1e72'
p5192
asbasbasbag68
(g84
g70
NtRp5193
(dp5194
g73
(dp5195
sg82
g2752
sg75
(lp5196
g68
(g89
g70
NtRp5197
(dp5198
g73
(dp5199
g93
g94
ssg82
g5193
sg75
(lp5200
S'session_id_name'
p5201
asbag68
(g89
g70
NtRp5202
(dp5203
g73
(dp5204
g100
g101
ssg82
g5193
sg75
(lp5205
S':'
asbag68
(g89
g70
NtRp5206
(dp5207
g73
(dp5208
sg82
g5193
sg75
(lp5209
g68
(g69
g70
NtRp5210
(dp5211
g73
(dp5212
g81
I5
ssg82
g5206
sg75
(lp5213
g2809
asbasbasbag68
(g84
g70
NtRp5214
(dp5215
g73
(dp5216
sg82
g2752
sg75
(lp5217
g68
(g89
g70
NtRp5218
(dp5219
g73
(dp5220
g93
g94
ssg82
g5214
sg75
(lp5221
S'session_locked'
p5222
asbag68
(g89
g70
NtRp5223
(dp5224
g73
(dp5225
g100
g101
ssg82
g5214
sg75
(lp5226
S':'
asbag68
(g89
g70
NtRp5227
(dp5228
g73
(dp5229
sg82
g5214
sg75
(lp5230
g68
(g69
g70
NtRp5231
(dp5232
g73
(dp5233
g81
I5
ssg82
g5227
sg75
(lp5234
g1526
asbasbasbag68
(g84
g70
NtRp5235
(dp5236
g73
(dp5237
sg82
g2752
sg75
(lp5238
g68
(g89
g70
NtRp5239
(dp5240
g73
(dp5241
g93
g94
ssg82
g5235
sg75
(lp5242
S'session_new'
p5243
asbag68
(g89
g70
NtRp5244
(dp5245
g73
(dp5246
g100
g101
ssg82
g5235
sg75
(lp5247
S':'
asbag68
(g89
g70
NtRp5248
(dp5249
g73
(dp5250
sg82
g5235
sg75
(lp5251
g68
(g69
g70
NtRp5252
(dp5253
g73
(dp5254
g81
I5
ssg82
g5248
sg75
(lp5255
g111
asbasbasbag68
(g84
g70
NtRp5256
(dp5257
g73
(dp5258
sg82
g2752
sg75
(lp5259
g68
(g89
g70
NtRp5260
(dp5261
g73
(dp5262
g93
g94
ssg82
g5256
sg75
(lp5263
S'status'
p5264
asbag68
(g89
g70
NtRp5265
(dp5266
g73
(dp5267
g100
g101
ssg82
g5256
sg75
(lp5268
S':'
asbag68
(g89
g70
NtRp5269
(dp5270
g73
(dp5271
sg82
g5256
sg75
(lp5272
g68
(g69
g70
NtRp5273
(dp5274
g73
(dp5275
g81
I5
ssg82
g5269
sg75
(lp5276
S'200'
p5277
asbasbasbag68
(g84
g70
NtRp5278
(dp5279
g73
(dp5280
sg82
g2752
sg75
(lp5281
g68
(g89
g70
NtRp5282
(dp5283
g73
(dp5284
g93
g94
ssg82
g5278
sg75
(lp5285
S'subtitle'
p5286
asbag68
(g89
g70
NtRp5287
(dp5288
g73
(dp5289
g100
g101
ssg82
g5278
sg75
(lp5290
S':'
asbag68
(g89
g70
NtRp5291
(dp5292
g73
(dp5293
sg82
g5278
sg75
(lp5294
g68
(g69
g70
NtRp5295
(dp5296
g73
(dp5297
g81
I5
ssg82
g5291
sg75
(lp5298
g3220
(S's\r\x00\x00\x00customize me!'
tRp5299
asbasbasbag68
(g84
g70
NtRp5300
(dp5301
g73
(dp5302
sg82
g2752
sg75
(lp5303
g68
(g89
g70
NtRp5304
(dp5305
g73
(dp5306
g93
g94
ssg82
g5300
sg75
(lp5307
S'title'
p5308
asbag68
(g89
g70
NtRp5309
(dp5310
g73
(dp5311
g100
g101
ssg82
g5300
sg75
(lp5312
S':'
asbag68
(g89
g70
NtRp5313
(dp5314
g73
(dp5315
sg82
g5300
sg75
(lp5316
g68
(g69
g70
NtRp5317
(dp5318
g73
(dp5319
g81
I5
ssg82
g5313
sg75
(lp5320
g133
asbasbasbag68
(g84
g70
NtRp5321
(dp5322
g73
(dp5323
sg82
g2752
sg75
(lp5324
g68
(g89
g70
NtRp5325
(dp5326
g73
(dp5327
g93
g94
ssg82
g5321
sg75
(lp5328
g1872
asbag68
(g89
g70
NtRp5329
(dp5330
g73
(dp5331
g100
g101
ssg82
g5321
sg75
(lp5332
S':'
asbag68
(g89
g70
NtRp5333
(dp5334
g73
(dp5335
sg82
g5321
sg75
(lp5336
g68
(g69
g70
NtRp5337
(dp5338
g73
(dp5339
g81
I5
ssg82
g5333
sg75
(lp5340
g1885
asbasbasbag68
(g84
g70
NtRp5341
(dp5342
g73
(dp5343
sg82
g2752
sg75
(lp5344
g68
(g89
g70
NtRp5345
(dp5346
g73
(dp5347
g93
g94
ssg82
g5341
sg75
(lp5348
S'view'
p5349
asbag68
(g89
g70
NtRp5350
(dp5351
g73
(dp5352
g100
g101
ssg82
g5341
sg75
(lp5353
S':'
asbag68
(g89
g70
NtRp5354
(dp5355
g73
(dp5356
sg82
g5341
sg75
(lp5357
g68
(g69
g70
NtRp5358
(dp5359
g73
(dp5360
g81
I5
ssg82
g5354
sg75
(lp5361
S'default/busqueda.html'
p5362
asbasbasbasbasbsS'locals'
p5363
(dp5364
g3
S"'/home/marco/proyectos/web2py-trunk/applications/mvstore/controllers/default.py'"
p5365
sg5
S"'#-*- coding: utf-8 -*-\\n# this file is released u...ml()\\n\\n\\nresponse._vars=response._caller(busqueda)\\n'"
p5366
sssS'traceback'
p5367
S'Traceback (most recent call last):\n  File "/home/marco/proyectos/web2py-trunk/gluon/restricted.py", line 191, in restricted\n    ccode = compile2(code,layer)\n  File "/home/marco/proyectos/web2py-trunk/gluon/restricted.py", line 178, in compile2\n    return compile(code.rstrip().replace(\'\\r\\n\',\'\\n\')+\'\\n\', layer, \'exec\')\n  File "/home/marco/proyectos/web2py-trunk/applications/mvstore/controllers/default.py", line 112\n    target_div=DIV(_id=\'target\'), type(_submit))\nSyntaxError: non-keyword arg after keyword arg\n'
p5368
s.