(dp1
S'output'
p2
S''
sS'layer'
p3
S'/home/marco/proyectos/web2py-trunk/applications/mvstore/controllers/default.py'
p4
sS'code'
p5
S'#-*- coding: utf-8 -*-\n# this file is released under public domain and you can use without limitations\n\n#########################################################################\n## This is a samples controller\n## - index is the default action of any application\n## - user is required for authentication and authorization\n## - download is for downloading files uploaded in the db (does streaming)\n## - call exposes all registered services (none by default)\n#########################################################################\n\ndef index():\n    """\n    example action using the internationalization operator T and flash\n    rendered by views/default/index.html or views/generic.html\n    """\n    return dict(message=T(\'Hello World\'))\n\ndef user():\n    """\n    exposes:\n    http://..../[app]/default/user/login\n    http://..../[app]/default/user/logout\n    http://..../[app]/default/user/register\n    http://..../[app]/default/user/profile\n    http://..../[app]/default/user/retrieve_password\n    http://..../[app]/default/user/change_password\n    use @auth.requires_login()\n        @auth.requires_membership(\'group name\')\n        @auth.requires_permission(\'read\',\'table name\',record_id)\n    to decorate functions that need access control\n    """\n    return dict(form=auth())\n\n\ndef download():\n    """\n    allows downloading of uploaded files\n    http://..../[app]/default/download/[filename]\n    """\n    return response.download(request,db)\n\n\ndef call():\n    """\n    exposes services. for example:\n    http://..../[app]/default/call/jsonrpc\n    decorate with @services.jsonrpc the functions to expose\n    supports xml, json, xmlrpc, jsonrpc, amfrpc, rss, csv\n    """\n    session.forget()\n    return service()\n\ndef empleados():\n    form=crud.create(db.empleados)\n    return dict(form=form)\n\ndef clientes():\n    form=crud.create(db.clientes)\n    return dict(form=form)\n\ndef peliculas():\n    form=crud.create(db.peliculas)\n    return dict(form=form)\n\ndef prestamos():\n    form=crud.create(db.prestamos)\n    return dict(form=form)\n\n\nresponse._vars=response._caller(prestamos)\n'
p6
sS'snapshot'
p7
(dp8
S'exception'
p9
(dp10
S'__hash__'
p11
S"<method-wrapper '__hash__' of exceptions.KeyError object>"
p12
sS'__setattr__'
p13
S"<method-wrapper '__setattr__' of exceptions.KeyError object>"
p14
sS'__reduce_ex__'
p15
S'<built-in method __reduce_ex__ of exceptions.KeyError object>'
p16
sS'__getslice__'
p17
S"<method-wrapper '__getslice__' of exceptions.KeyError object>"
p18
sS'__getitem__'
p19
S"<method-wrapper '__getitem__' of exceptions.KeyError object>"
p20
sS'__setstate__'
p21
S'<built-in method __setstate__ of exceptions.KeyError object>'
p22
sS'args'
p23
S"('first_name',)"
p24
sS'__reduce__'
p25
S'<built-in method __reduce__ of exceptions.KeyError object>'
p26
sS'__str__'
p27
S"<method-wrapper '__str__' of exceptions.KeyError object>"
p28
sS'__format__'
p29
S'<built-in method __format__ of exceptions.KeyError object>'
p30
sS'__getattribute__'
p31
S"<method-wrapper '__getattribute__' of exceptions.KeyError object>"
p32
sS'__class__'
p33
S"<type 'exceptions.KeyError'>"
p34
sS'__unicode__'
p35
S'<built-in method __unicode__ of exceptions.KeyError object>'
p36
sS'__delattr__'
p37
S"<method-wrapper '__delattr__' of exceptions.KeyError object>"
p38
sS'__subclasshook__'
p39
S'<built-in method __subclasshook__ of type object>'
p40
sS'__repr__'
p41
S"<method-wrapper '__repr__' of exceptions.KeyError object>"
p42
sS'__dict__'
p43
S'{}'
p44
sS'__sizeof__'
p45
S'<built-in method __sizeof__ of exceptions.KeyError object>'
p46
sS'__doc__'
p47
S"'Mapping key not found.'"
p48
sS'__init__'
p49
S"<method-wrapper '__init__' of exceptions.KeyError object>"
p50
sS'__new__'
p51
S'<built-in method __new__ of type object>'
p52
ssS'evalue'
p53
S"'first_name'"
p54
sS'request'
p55
ccopy_reg
_reconstructor
p56
(cgluon.html
BEAUTIFY
p57
c__builtin__
object
p58
NtRp59
(dp60
S'attributes'
p61
(dp62
sS'components'
p63
(lp64
g56
(cgluon.html
TABLE
p65
g58
NtRp66
(dp67
g61
(dp68
S'level'
p69
I5
ssS'parent'
p70
Nsg63
(lp71
g56
(cgluon.html
TR
p72
g58
NtRp73
(dp74
g61
(dp75
sg70
g66
sg63
(lp76
g56
(cgluon.html
TD
p77
g58
NtRp78
(dp79
g61
(dp80
S'_style'
p81
S'font-weight:bold;'
p82
ssg70
g73
sg63
(lp83
S'ajax'
p84
asbag56
(g77
g58
NtRp85
(dp86
g61
(dp87
S'_valign'
p88
S'top'
p89
ssg70
g73
sg63
(lp90
S':'
asbag56
(g77
g58
NtRp91
(dp92
g61
(dp93
sg70
g73
sg63
(lp94
g56
(g57
g58
NtRp95
(dp96
g61
(dp97
g69
I5
ssg70
g91
sg63
(lp98
S'False'
p99
asbasbasbag56
(g72
g58
NtRp100
(dp101
g61
(dp102
sg70
g66
sg63
(lp103
g56
(g77
g58
NtRp104
(dp105
g61
(dp106
g81
g82
ssg70
g100
sg63
(lp107
S'application'
p108
asbag56
(g77
g58
NtRp109
(dp110
g61
(dp111
g88
g89
ssg70
g100
sg63
(lp112
S':'
asbag56
(g77
g58
NtRp113
(dp114
g61
(dp115
sg70
g100
sg63
(lp116
g56
(g57
g58
NtRp117
(dp118
g61
(dp119
g69
I5
ssg70
g113
sg63
(lp120
S'mvstore'
p121
asbasbasbag56
(g72
g58
NtRp122
(dp123
g61
(dp124
sg70
g66
sg63
(lp125
g56
(g77
g58
NtRp126
(dp127
g61
(dp128
g81
g82
ssg70
g122
sg63
(lp129
g23
asbag56
(g77
g58
NtRp130
(dp131
g61
(dp132
g88
g89
ssg70
g122
sg63
(lp133
S':'
asbag56
(g77
g58
NtRp134
(dp135
g61
(dp136
sg70
g122
sg63
(lp137
g56
(g57
g58
NtRp138
(dp139
g61
(dp140
g69
I5
ssg70
g134
sg63
(lp141
g56
(g65
g58
NtRp142
(dp143
g61
(dp144
g69
I4
ssg70
Nsg63
(lp145
sbasbasbasbag56
(g72
g58
NtRp146
(dp147
g61
(dp148
sg70
g66
sg63
(lp149
g56
(g77
g58
NtRp150
(dp151
g61
(dp152
g81
g82
ssg70
g146
sg63
(lp153
S'body'
p154
asbag56
(g77
g58
NtRp155
(dp156
g61
(dp157
g88
g89
ssg70
g146
sg63
(lp158
S':'
asbag56
(g77
g58
NtRp159
(dp160
g61
(dp161
sg70
g146
sg63
(lp162
g56
(g57
g58
NtRp163
(dp164
g61
(dp165
g69
I5
ssg70
g159
sg63
(lp166
S"<open file '<fdopen>', mode 'w+b' at 0x2c4eb70>"
p167
asbasbasbag56
(g72
g58
NtRp168
(dp169
g61
(dp170
sg70
g66
sg63
(lp171
g56
(g77
g58
NtRp172
(dp173
g61
(dp174
g81
g82
ssg70
g168
sg63
(lp175
S'client'
p176
asbag56
(g77
g58
NtRp177
(dp178
g61
(dp179
g88
g89
ssg70
g168
sg63
(lp180
S':'
asbag56
(g77
g58
NtRp181
(dp182
g61
(dp183
sg70
g168
sg63
(lp184
g56
(g57
g58
NtRp185
(dp186
g61
(dp187
g69
I5
ssg70
g181
sg63
(lp188
S'127.0.0.1'
p189
asbasbasbag56
(g72
g58
NtRp190
(dp191
g61
(dp192
sg70
g66
sg63
(lp193
g56
(g77
g58
NtRp194
(dp195
g61
(dp196
g81
g82
ssg70
g190
sg63
(lp197
S'controller'
p198
asbag56
(g77
g58
NtRp199
(dp200
g61
(dp201
g88
g89
ssg70
g190
sg63
(lp202
S':'
asbag56
(g77
g58
NtRp203
(dp204
g61
(dp205
sg70
g190
sg63
(lp206
g56
(g57
g58
NtRp207
(dp208
g61
(dp209
g69
I5
ssg70
g203
sg63
(lp210
S'default'
p211
asbasbasbag56
(g72
g58
NtRp212
(dp213
g61
(dp214
sg70
g66
sg63
(lp215
g56
(g77
g58
NtRp216
(dp217
g61
(dp218
g81
g82
ssg70
g212
sg63
(lp219
S'cookies'
p220
asbag56
(g77
g58
NtRp221
(dp222
g61
(dp223
g88
g89
ssg70
g212
sg63
(lp224
S':'
asbag56
(g77
g58
NtRp225
(dp226
g61
(dp227
sg70
g212
sg63
(lp228
g56
(g57
g58
NtRp229
(dp230
g61
(dp231
g69
I5
ssg70
g225
sg63
(lp232
g56
(g65
g58
NtRp233
(dp234
g61
(dp235
g69
I4
ssg70
Nsg63
(lp236
g56
(g72
g58
NtRp237
(dp238
g61
(dp239
sg70
g233
sg63
(lp240
g56
(g77
g58
NtRp241
(dp242
g61
(dp243
g81
g82
ssg70
g237
sg63
(lp244
S'session_id_admin'
p245
asbag56
(g77
g58
NtRp246
(dp247
g61
(dp248
g88
g89
ssg70
g237
sg63
(lp249
S':'
asbag56
(g77
g58
NtRp250
(dp251
g61
(dp252
sg70
g237
sg63
(lp253
g56
(g57
g58
NtRp254
(dp255
g61
(dp256
g69
I4
ssg70
g250
sg63
(lp257
g56
(g65
g58
NtRp258
(dp259
g61
(dp260
g69
I3
ssg70
Nsg63
(lp261
g56
(g72
g58
NtRp262
(dp263
g61
(dp264
sg70
g258
sg63
(lp265
g56
(g77
g58
NtRp266
(dp267
g61
(dp268
g81
g82
ssg70
g262
sg63
(lp269
S'comment'
p270
asbag56
(g77
g58
NtRp271
(dp272
g61
(dp273
g88
g89
ssg70
g262
sg63
(lp274
S':'
asbag56
(g77
g58
NtRp275
(dp276
g61
(dp277
sg70
g262
sg63
(lp278
g56
(g57
g58
NtRp279
(dp280
g61
(dp281
g69
I3
ssg70
g275
sg63
(lp282
S''
asbasbasbag56
(g72
g58
NtRp283
(dp284
g61
(dp285
sg70
g258
sg63
(lp286
g56
(g77
g58
NtRp287
(dp288
g61
(dp289
g81
g82
ssg70
g283
sg63
(lp290
S'domain'
p291
asbag56
(g77
g58
NtRp292
(dp293
g61
(dp294
g88
g89
ssg70
g283
sg63
(lp295
S':'
asbag56
(g77
g58
NtRp296
(dp297
g61
(dp298
sg70
g283
sg63
(lp299
g56
(g57
g58
NtRp300
(dp301
g61
(dp302
g69
I3
ssg70
g296
sg63
(lp303
S''
asbasbasbag56
(g72
g58
NtRp304
(dp305
g61
(dp306
sg70
g258
sg63
(lp307
g56
(g77
g58
NtRp308
(dp309
g61
(dp310
g81
g82
ssg70
g304
sg63
(lp311
S'expires'
p312
asbag56
(g77
g58
NtRp313
(dp314
g61
(dp315
g88
g89
ssg70
g304
sg63
(lp316
S':'
asbag56
(g77
g58
NtRp317
(dp318
g61
(dp319
sg70
g304
sg63
(lp320
g56
(g57
g58
NtRp321
(dp322
g61
(dp323
g69
I3
ssg70
g317
sg63
(lp324
S''
asbasbasbag56
(g72
g58
NtRp325
(dp326
g61
(dp327
sg70
g258
sg63
(lp328
g56
(g77
g58
NtRp329
(dp330
g61
(dp331
g81
g82
ssg70
g325
sg63
(lp332
S'httponly'
p333
asbag56
(g77
g58
NtRp334
(dp335
g61
(dp336
g88
g89
ssg70
g325
sg63
(lp337
S':'
asbag56
(g77
g58
NtRp338
(dp339
g61
(dp340
sg70
g325
sg63
(lp341
g56
(g57
g58
NtRp342
(dp343
g61
(dp344
g69
I3
ssg70
g338
sg63
(lp345
S''
asbasbasbag56
(g72
g58
NtRp346
(dp347
g61
(dp348
sg70
g258
sg63
(lp349
g56
(g77
g58
NtRp350
(dp351
g61
(dp352
g81
g82
ssg70
g346
sg63
(lp353
S'max-age'
p354
asbag56
(g77
g58
NtRp355
(dp356
g61
(dp357
g88
g89
ssg70
g346
sg63
(lp358
S':'
asbag56
(g77
g58
NtRp359
(dp360
g61
(dp361
sg70
g346
sg63
(lp362
g56
(g57
g58
NtRp363
(dp364
g61
(dp365
g69
I3
ssg70
g359
sg63
(lp366
S''
asbasbasbag56
(g72
g58
NtRp367
(dp368
g61
(dp369
sg70
g258
sg63
(lp370
g56
(g77
g58
NtRp371
(dp372
g61
(dp373
g81
g82
ssg70
g367
sg63
(lp374
S'path'
p375
asbag56
(g77
g58
NtRp376
(dp377
g61
(dp378
g88
g89
ssg70
g367
sg63
(lp379
S':'
asbag56
(g77
g58
NtRp380
(dp381
g61
(dp382
sg70
g367
sg63
(lp383
g56
(g57
g58
NtRp384
(dp385
g61
(dp386
g69
I3
ssg70
g380
sg63
(lp387
S''
asbasbasbag56
(g72
g58
NtRp388
(dp389
g61
(dp390
sg70
g258
sg63
(lp391
g56
(g77
g58
NtRp392
(dp393
g61
(dp394
g81
g82
ssg70
g388
sg63
(lp395
S'secure'
p396
asbag56
(g77
g58
NtRp397
(dp398
g61
(dp399
g88
g89
ssg70
g388
sg63
(lp400
S':'
asbag56
(g77
g58
NtRp401
(dp402
g61
(dp403
sg70
g388
sg63
(lp404
g56
(g57
g58
NtRp405
(dp406
g61
(dp407
g69
I3
ssg70
g401
sg63
(lp408
S''
asbasbasbag56
(g72
g58
NtRp409
(dp410
g61
(dp411
sg70
g258
sg63
(lp412
g56
(g77
g58
NtRp413
(dp414
g61
(dp415
g81
g82
ssg70
g409
sg63
(lp416
S'version'
p417
asbag56
(g77
g58
NtRp418
(dp419
g61
(dp420
g88
g89
ssg70
g409
sg63
(lp421
S':'
asbag56
(g77
g58
NtRp422
(dp423
g61
(dp424
sg70
g409
sg63
(lp425
g56
(g57
g58
NtRp426
(dp427
g61
(dp428
g69
I3
ssg70
g422
sg63
(lp429
S''
asbasbasbasbasbasbasbag56
(g72
g58
NtRp430
(dp431
g61
(dp432
sg70
g233
sg63
(lp433
g56
(g77
g58
NtRp434
(dp435
g61
(dp436
g81
g82
ssg70
g430
sg63
(lp437
S'session_id_jornadasdemo'
p438
asbag56
(g77
g58
NtRp439
(dp440
g61
(dp441
g88
g89
ssg70
g430
sg63
(lp442
S':'
asbag56
(g77
g58
NtRp443
(dp444
g61
(dp445
sg70
g430
sg63
(lp446
g56
(g57
g58
NtRp447
(dp448
g61
(dp449
g69
I4
ssg70
g443
sg63
(lp450
g56
(g65
g58
NtRp451
(dp452
g61
(dp453
g69
I3
ssg70
Nsg63
(lp454
g56
(g72
g58
NtRp455
(dp456
g61
(dp457
sg70
g451
sg63
(lp458
g56
(g77
g58
NtRp459
(dp460
g61
(dp461
g81
g82
ssg70
g455
sg63
(lp462
g270
asbag56
(g77
g58
NtRp463
(dp464
g61
(dp465
g88
g89
ssg70
g455
sg63
(lp466
S':'
asbag56
(g77
g58
NtRp467
(dp468
g61
(dp469
sg70
g455
sg63
(lp470
g56
(g57
g58
NtRp471
(dp472
g61
(dp473
g69
I3
ssg70
g467
sg63
(lp474
S''
asbasbasbag56
(g72
g58
NtRp475
(dp476
g61
(dp477
sg70
g451
sg63
(lp478
g56
(g77
g58
NtRp479
(dp480
g61
(dp481
g81
g82
ssg70
g475
sg63
(lp482
g291
asbag56
(g77
g58
NtRp483
(dp484
g61
(dp485
g88
g89
ssg70
g475
sg63
(lp486
S':'
asbag56
(g77
g58
NtRp487
(dp488
g61
(dp489
sg70
g475
sg63
(lp490
g56
(g57
g58
NtRp491
(dp492
g61
(dp493
g69
I3
ssg70
g487
sg63
(lp494
S''
asbasbasbag56
(g72
g58
NtRp495
(dp496
g61
(dp497
sg70
g451
sg63
(lp498
g56
(g77
g58
NtRp499
(dp500
g61
(dp501
g81
g82
ssg70
g495
sg63
(lp502
g312
asbag56
(g77
g58
NtRp503
(dp504
g61
(dp505
g88
g89
ssg70
g495
sg63
(lp506
S':'
asbag56
(g77
g58
NtRp507
(dp508
g61
(dp509
sg70
g495
sg63
(lp510
g56
(g57
g58
NtRp511
(dp512
g61
(dp513
g69
I3
ssg70
g507
sg63
(lp514
S''
asbasbasbag56
(g72
g58
NtRp515
(dp516
g61
(dp517
sg70
g451
sg63
(lp518
g56
(g77
g58
NtRp519
(dp520
g61
(dp521
g81
g82
ssg70
g515
sg63
(lp522
g333
asbag56
(g77
g58
NtRp523
(dp524
g61
(dp525
g88
g89
ssg70
g515
sg63
(lp526
S':'
asbag56
(g77
g58
NtRp527
(dp528
g61
(dp529
sg70
g515
sg63
(lp530
g56
(g57
g58
NtRp531
(dp532
g61
(dp533
g69
I3
ssg70
g527
sg63
(lp534
S''
asbasbasbag56
(g72
g58
NtRp535
(dp536
g61
(dp537
sg70
g451
sg63
(lp538
g56
(g77
g58
NtRp539
(dp540
g61
(dp541
g81
g82
ssg70
g535
sg63
(lp542
g354
asbag56
(g77
g58
NtRp543
(dp544
g61
(dp545
g88
g89
ssg70
g535
sg63
(lp546
S':'
asbag56
(g77
g58
NtRp547
(dp548
g61
(dp549
sg70
g535
sg63
(lp550
g56
(g57
g58
NtRp551
(dp552
g61
(dp553
g69
I3
ssg70
g547
sg63
(lp554
S''
asbasbasbag56
(g72
g58
NtRp555
(dp556
g61
(dp557
sg70
g451
sg63
(lp558
g56
(g77
g58
NtRp559
(dp560
g61
(dp561
g81
g82
ssg70
g555
sg63
(lp562
g375
asbag56
(g77
g58
NtRp563
(dp564
g61
(dp565
g88
g89
ssg70
g555
sg63
(lp566
S':'
asbag56
(g77
g58
NtRp567
(dp568
g61
(dp569
sg70
g555
sg63
(lp570
g56
(g57
g58
NtRp571
(dp572
g61
(dp573
g69
I3
ssg70
g567
sg63
(lp574
S''
asbasbasbag56
(g72
g58
NtRp575
(dp576
g61
(dp577
sg70
g451
sg63
(lp578
g56
(g77
g58
NtRp579
(dp580
g61
(dp581
g81
g82
ssg70
g575
sg63
(lp582
g396
asbag56
(g77
g58
NtRp583
(dp584
g61
(dp585
g88
g89
ssg70
g575
sg63
(lp586
S':'
asbag56
(g77
g58
NtRp587
(dp588
g61
(dp589
sg70
g575
sg63
(lp590
g56
(g57
g58
NtRp591
(dp592
g61
(dp593
g69
I3
ssg70
g587
sg63
(lp594
S''
asbasbasbag56
(g72
g58
NtRp595
(dp596
g61
(dp597
sg70
g451
sg63
(lp598
g56
(g77
g58
NtRp599
(dp600
g61
(dp601
g81
g82
ssg70
g595
sg63
(lp602
g417
asbag56
(g77
g58
NtRp603
(dp604
g61
(dp605
g88
g89
ssg70
g595
sg63
(lp606
S':'
asbag56
(g77
g58
NtRp607
(dp608
g61
(dp609
sg70
g595
sg63
(lp610
g56
(g57
g58
NtRp611
(dp612
g61
(dp613
g69
I3
ssg70
g607
sg63
(lp614
S''
asbasbasbasbasbasbasbag56
(g72
g58
NtRp615
(dp616
g61
(dp617
sg70
g233
sg63
(lp618
g56
(g77
g58
NtRp619
(dp620
g61
(dp621
g81
g82
ssg70
g615
sg63
(lp622
S'session_id_moviestore'
p623
asbag56
(g77
g58
NtRp624
(dp625
g61
(dp626
g88
g89
ssg70
g615
sg63
(lp627
S':'
asbag56
(g77
g58
NtRp628
(dp629
g61
(dp630
sg70
g615
sg63
(lp631
g56
(g57
g58
NtRp632
(dp633
g61
(dp634
g69
I4
ssg70
g628
sg63
(lp635
g56
(g65
g58
NtRp636
(dp637
g61
(dp638
g69
I3
ssg70
Nsg63
(lp639
g56
(g72
g58
NtRp640
(dp641
g61
(dp642
sg70
g636
sg63
(lp643
g56
(g77
g58
NtRp644
(dp645
g61
(dp646
g81
g82
ssg70
g640
sg63
(lp647
g270
asbag56
(g77
g58
NtRp648
(dp649
g61
(dp650
g88
g89
ssg70
g640
sg63
(lp651
S':'
asbag56
(g77
g58
NtRp652
(dp653
g61
(dp654
sg70
g640
sg63
(lp655
g56
(g57
g58
NtRp656
(dp657
g61
(dp658
g69
I3
ssg70
g652
sg63
(lp659
S''
asbasbasbag56
(g72
g58
NtRp660
(dp661
g61
(dp662
sg70
g636
sg63
(lp663
g56
(g77
g58
NtRp664
(dp665
g61
(dp666
g81
g82
ssg70
g660
sg63
(lp667
g291
asbag56
(g77
g58
NtRp668
(dp669
g61
(dp670
g88
g89
ssg70
g660
sg63
(lp671
S':'
asbag56
(g77
g58
NtRp672
(dp673
g61
(dp674
sg70
g660
sg63
(lp675
g56
(g57
g58
NtRp676
(dp677
g61
(dp678
g69
I3
ssg70
g672
sg63
(lp679
S''
asbasbasbag56
(g72
g58
NtRp680
(dp681
g61
(dp682
sg70
g636
sg63
(lp683
g56
(g77
g58
NtRp684
(dp685
g61
(dp686
g81
g82
ssg70
g680
sg63
(lp687
g312
asbag56
(g77
g58
NtRp688
(dp689
g61
(dp690
g88
g89
ssg70
g680
sg63
(lp691
S':'
asbag56
(g77
g58
NtRp692
(dp693
g61
(dp694
sg70
g680
sg63
(lp695
g56
(g57
g58
NtRp696
(dp697
g61
(dp698
g69
I3
ssg70
g692
sg63
(lp699
S''
asbasbasbag56
(g72
g58
NtRp700
(dp701
g61
(dp702
sg70
g636
sg63
(lp703
g56
(g77
g58
NtRp704
(dp705
g61
(dp706
g81
g82
ssg70
g700
sg63
(lp707
g333
asbag56
(g77
g58
NtRp708
(dp709
g61
(dp710
g88
g89
ssg70
g700
sg63
(lp711
S':'
asbag56
(g77
g58
NtRp712
(dp713
g61
(dp714
sg70
g700
sg63
(lp715
g56
(g57
g58
NtRp716
(dp717
g61
(dp718
g69
I3
ssg70
g712
sg63
(lp719
S''
asbasbasbag56
(g72
g58
NtRp720
(dp721
g61
(dp722
sg70
g636
sg63
(lp723
g56
(g77
g58
NtRp724
(dp725
g61
(dp726
g81
g82
ssg70
g720
sg63
(lp727
g354
asbag56
(g77
g58
NtRp728
(dp729
g61
(dp730
g88
g89
ssg70
g720
sg63
(lp731
S':'
asbag56
(g77
g58
NtRp732
(dp733
g61
(dp734
sg70
g720
sg63
(lp735
g56
(g57
g58
NtRp736
(dp737
g61
(dp738
g69
I3
ssg70
g732
sg63
(lp739
S''
asbasbasbag56
(g72
g58
NtRp740
(dp741
g61
(dp742
sg70
g636
sg63
(lp743
g56
(g77
g58
NtRp744
(dp745
g61
(dp746
g81
g82
ssg70
g740
sg63
(lp747
g375
asbag56
(g77
g58
NtRp748
(dp749
g61
(dp750
g88
g89
ssg70
g740
sg63
(lp751
S':'
asbag56
(g77
g58
NtRp752
(dp753
g61
(dp754
sg70
g740
sg63
(lp755
g56
(g57
g58
NtRp756
(dp757
g61
(dp758
g69
I3
ssg70
g752
sg63
(lp759
S''
asbasbasbag56
(g72
g58
NtRp760
(dp761
g61
(dp762
sg70
g636
sg63
(lp763
g56
(g77
g58
NtRp764
(dp765
g61
(dp766
g81
g82
ssg70
g760
sg63
(lp767
g396
asbag56
(g77
g58
NtRp768
(dp769
g61
(dp770
g88
g89
ssg70
g760
sg63
(lp771
S':'
asbag56
(g77
g58
NtRp772
(dp773
g61
(dp774
sg70
g760
sg63
(lp775
g56
(g57
g58
NtRp776
(dp777
g61
(dp778
g69
I3
ssg70
g772
sg63
(lp779
S''
asbasbasbag56
(g72
g58
NtRp780
(dp781
g61
(dp782
sg70
g636
sg63
(lp783
g56
(g77
g58
NtRp784
(dp785
g61
(dp786
g81
g82
ssg70
g780
sg63
(lp787
g417
asbag56
(g77
g58
NtRp788
(dp789
g61
(dp790
g88
g89
ssg70
g780
sg63
(lp791
S':'
asbag56
(g77
g58
NtRp792
(dp793
g61
(dp794
sg70
g780
sg63
(lp795
g56
(g57
g58
NtRp796
(dp797
g61
(dp798
g69
I3
ssg70
g792
sg63
(lp799
S''
asbasbasbasbasbasbasbag56
(g72
g58
NtRp800
(dp801
g61
(dp802
sg70
g233
sg63
(lp803
g56
(g77
g58
NtRp804
(dp805
g61
(dp806
g81
g82
ssg70
g800
sg63
(lp807
S'session_id_mvstore'
p808
asbag56
(g77
g58
NtRp809
(dp810
g61
(dp811
g88
g89
ssg70
g800
sg63
(lp812
S':'
asbag56
(g77
g58
NtRp813
(dp814
g61
(dp815
sg70
g800
sg63
(lp816
g56
(g57
g58
NtRp817
(dp818
g61
(dp819
g69
I4
ssg70
g813
sg63
(lp820
g56
(g65
g58
NtRp821
(dp822
g61
(dp823
g69
I3
ssg70
Nsg63
(lp824
g56
(g72
g58
NtRp825
(dp826
g61
(dp827
sg70
g821
sg63
(lp828
g56
(g77
g58
NtRp829
(dp830
g61
(dp831
g81
g82
ssg70
g825
sg63
(lp832
g270
asbag56
(g77
g58
NtRp833
(dp834
g61
(dp835
g88
g89
ssg70
g825
sg63
(lp836
S':'
asbag56
(g77
g58
NtRp837
(dp838
g61
(dp839
sg70
g825
sg63
(lp840
g56
(g57
g58
NtRp841
(dp842
g61
(dp843
g69
I3
ssg70
g837
sg63
(lp844
S''
asbasbasbag56
(g72
g58
NtRp845
(dp846
g61
(dp847
sg70
g821
sg63
(lp848
g56
(g77
g58
NtRp849
(dp850
g61
(dp851
g81
g82
ssg70
g845
sg63
(lp852
g291
asbag56
(g77
g58
NtRp853
(dp854
g61
(dp855
g88
g89
ssg70
g845
sg63
(lp856
S':'
asbag56
(g77
g58
NtRp857
(dp858
g61
(dp859
sg70
g845
sg63
(lp860
g56
(g57
g58
NtRp861
(dp862
g61
(dp863
g69
I3
ssg70
g857
sg63
(lp864
S''
asbasbasbag56
(g72
g58
NtRp865
(dp866
g61
(dp867
sg70
g821
sg63
(lp868
g56
(g77
g58
NtRp869
(dp870
g61
(dp871
g81
g82
ssg70
g865
sg63
(lp872
g312
asbag56
(g77
g58
NtRp873
(dp874
g61
(dp875
g88
g89
ssg70
g865
sg63
(lp876
S':'
asbag56
(g77
g58
NtRp877
(dp878
g61
(dp879
sg70
g865
sg63
(lp880
g56
(g57
g58
NtRp881
(dp882
g61
(dp883
g69
I3
ssg70
g877
sg63
(lp884
S''
asbasbasbag56
(g72
g58
NtRp885
(dp886
g61
(dp887
sg70
g821
sg63
(lp888
g56
(g77
g58
NtRp889
(dp890
g61
(dp891
g81
g82
ssg70
g885
sg63
(lp892
g333
asbag56
(g77
g58
NtRp893
(dp894
g61
(dp895
g88
g89
ssg70
g885
sg63
(lp896
S':'
asbag56
(g77
g58
NtRp897
(dp898
g61
(dp899
sg70
g885
sg63
(lp900
g56
(g57
g58
NtRp901
(dp902
g61
(dp903
g69
I3
ssg70
g897
sg63
(lp904
S''
asbasbasbag56
(g72
g58
NtRp905
(dp906
g61
(dp907
sg70
g821
sg63
(lp908
g56
(g77
g58
NtRp909
(dp910
g61
(dp911
g81
g82
ssg70
g905
sg63
(lp912
g354
asbag56
(g77
g58
NtRp913
(dp914
g61
(dp915
g88
g89
ssg70
g905
sg63
(lp916
S':'
asbag56
(g77
g58
NtRp917
(dp918
g61
(dp919
sg70
g905
sg63
(lp920
g56
(g57
g58
NtRp921
(dp922
g61
(dp923
g69
I3
ssg70
g917
sg63
(lp924
S''
asbasbasbag56
(g72
g58
NtRp925
(dp926
g61
(dp927
sg70
g821
sg63
(lp928
g56
(g77
g58
NtRp929
(dp930
g61
(dp931
g81
g82
ssg70
g925
sg63
(lp932
g375
asbag56
(g77
g58
NtRp933
(dp934
g61
(dp935
g88
g89
ssg70
g925
sg63
(lp936
S':'
asbag56
(g77
g58
NtRp937
(dp938
g61
(dp939
sg70
g925
sg63
(lp940
g56
(g57
g58
NtRp941
(dp942
g61
(dp943
g69
I3
ssg70
g937
sg63
(lp944
S''
asbasbasbag56
(g72
g58
NtRp945
(dp946
g61
(dp947
sg70
g821
sg63
(lp948
g56
(g77
g58
NtRp949
(dp950
g61
(dp951
g81
g82
ssg70
g945
sg63
(lp952
g396
asbag56
(g77
g58
NtRp953
(dp954
g61
(dp955
g88
g89
ssg70
g945
sg63
(lp956
S':'
asbag56
(g77
g58
NtRp957
(dp958
g61
(dp959
sg70
g945
sg63
(lp960
g56
(g57
g58
NtRp961
(dp962
g61
(dp963
g69
I3
ssg70
g957
sg63
(lp964
S''
asbasbasbag56
(g72
g58
NtRp965
(dp966
g61
(dp967
sg70
g821
sg63
(lp968
g56
(g77
g58
NtRp969
(dp970
g61
(dp971
g81
g82
ssg70
g965
sg63
(lp972
g417
asbag56
(g77
g58
NtRp973
(dp974
g61
(dp975
g88
g89
ssg70
g965
sg63
(lp976
S':'
asbag56
(g77
g58
NtRp977
(dp978
g61
(dp979
sg70
g965
sg63
(lp980
g56
(g57
g58
NtRp981
(dp982
g61
(dp983
g69
I3
ssg70
g977
sg63
(lp984
S''
asbasbasbasbasbasbasbag56
(g72
g58
NtRp985
(dp986
g61
(dp987
sg70
g233
sg63
(lp988
g56
(g77
g58
NtRp989
(dp990
g61
(dp991
g81
g82
ssg70
g985
sg63
(lp992
S'session_id_napp'
p993
asbag56
(g77
g58
NtRp994
(dp995
g61
(dp996
g88
g89
ssg70
g985
sg63
(lp997
S':'
asbag56
(g77
g58
NtRp998
(dp999
g61
(dp1000
sg70
g985
sg63
(lp1001
g56
(g57
g58
NtRp1002
(dp1003
g61
(dp1004
g69
I4
ssg70
g998
sg63
(lp1005
g56
(g65
g58
NtRp1006
(dp1007
g61
(dp1008
g69
I3
ssg70
Nsg63
(lp1009
g56
(g72
g58
NtRp1010
(dp1011
g61
(dp1012
sg70
g1006
sg63
(lp1013
g56
(g77
g58
NtRp1014
(dp1015
g61
(dp1016
g81
g82
ssg70
g1010
sg63
(lp1017
g270
asbag56
(g77
g58
NtRp1018
(dp1019
g61
(dp1020
g88
g89
ssg70
g1010
sg63
(lp1021
S':'
asbag56
(g77
g58
NtRp1022
(dp1023
g61
(dp1024
sg70
g1010
sg63
(lp1025
g56
(g57
g58
NtRp1026
(dp1027
g61
(dp1028
g69
I3
ssg70
g1022
sg63
(lp1029
S''
asbasbasbag56
(g72
g58
NtRp1030
(dp1031
g61
(dp1032
sg70
g1006
sg63
(lp1033
g56
(g77
g58
NtRp1034
(dp1035
g61
(dp1036
g81
g82
ssg70
g1030
sg63
(lp1037
g291
asbag56
(g77
g58
NtRp1038
(dp1039
g61
(dp1040
g88
g89
ssg70
g1030
sg63
(lp1041
S':'
asbag56
(g77
g58
NtRp1042
(dp1043
g61
(dp1044
sg70
g1030
sg63
(lp1045
g56
(g57
g58
NtRp1046
(dp1047
g61
(dp1048
g69
I3
ssg70
g1042
sg63
(lp1049
S''
asbasbasbag56
(g72
g58
NtRp1050
(dp1051
g61
(dp1052
sg70
g1006
sg63
(lp1053
g56
(g77
g58
NtRp1054
(dp1055
g61
(dp1056
g81
g82
ssg70
g1050
sg63
(lp1057
g312
asbag56
(g77
g58
NtRp1058
(dp1059
g61
(dp1060
g88
g89
ssg70
g1050
sg63
(lp1061
S':'
asbag56
(g77
g58
NtRp1062
(dp1063
g61
(dp1064
sg70
g1050
sg63
(lp1065
g56
(g57
g58
NtRp1066
(dp1067
g61
(dp1068
g69
I3
ssg70
g1062
sg63
(lp1069
S''
asbasbasbag56
(g72
g58
NtRp1070
(dp1071
g61
(dp1072
sg70
g1006
sg63
(lp1073
g56
(g77
g58
NtRp1074
(dp1075
g61
(dp1076
g81
g82
ssg70
g1070
sg63
(lp1077
g333
asbag56
(g77
g58
NtRp1078
(dp1079
g61
(dp1080
g88
g89
ssg70
g1070
sg63
(lp1081
S':'
asbag56
(g77
g58
NtRp1082
(dp1083
g61
(dp1084
sg70
g1070
sg63
(lp1085
g56
(g57
g58
NtRp1086
(dp1087
g61
(dp1088
g69
I3
ssg70
g1082
sg63
(lp1089
S''
asbasbasbag56
(g72
g58
NtRp1090
(dp1091
g61
(dp1092
sg70
g1006
sg63
(lp1093
g56
(g77
g58
NtRp1094
(dp1095
g61
(dp1096
g81
g82
ssg70
g1090
sg63
(lp1097
g354
asbag56
(g77
g58
NtRp1098
(dp1099
g61
(dp1100
g88
g89
ssg70
g1090
sg63
(lp1101
S':'
asbag56
(g77
g58
NtRp1102
(dp1103
g61
(dp1104
sg70
g1090
sg63
(lp1105
g56
(g57
g58
NtRp1106
(dp1107
g61
(dp1108
g69
I3
ssg70
g1102
sg63
(lp1109
S''
asbasbasbag56
(g72
g58
NtRp1110
(dp1111
g61
(dp1112
sg70
g1006
sg63
(lp1113
g56
(g77
g58
NtRp1114
(dp1115
g61
(dp1116
g81
g82
ssg70
g1110
sg63
(lp1117
g375
asbag56
(g77
g58
NtRp1118
(dp1119
g61
(dp1120
g88
g89
ssg70
g1110
sg63
(lp1121
S':'
asbag56
(g77
g58
NtRp1122
(dp1123
g61
(dp1124
sg70
g1110
sg63
(lp1125
g56
(g57
g58
NtRp1126
(dp1127
g61
(dp1128
g69
I3
ssg70
g1122
sg63
(lp1129
S''
asbasbasbag56
(g72
g58
NtRp1130
(dp1131
g61
(dp1132
sg70
g1006
sg63
(lp1133
g56
(g77
g58
NtRp1134
(dp1135
g61
(dp1136
g81
g82
ssg70
g1130
sg63
(lp1137
g396
asbag56
(g77
g58
NtRp1138
(dp1139
g61
(dp1140
g88
g89
ssg70
g1130
sg63
(lp1141
S':'
asbag56
(g77
g58
NtRp1142
(dp1143
g61
(dp1144
sg70
g1130
sg63
(lp1145
g56
(g57
g58
NtRp1146
(dp1147
g61
(dp1148
g69
I3
ssg70
g1142
sg63
(lp1149
S''
asbasbasbag56
(g72
g58
NtRp1150
(dp1151
g61
(dp1152
sg70
g1006
sg63
(lp1153
g56
(g77
g58
NtRp1154
(dp1155
g61
(dp1156
g81
g82
ssg70
g1150
sg63
(lp1157
g417
asbag56
(g77
g58
NtRp1158
(dp1159
g61
(dp1160
g88
g89
ssg70
g1150
sg63
(lp1161
S':'
asbag56
(g77
g58
NtRp1162
(dp1163
g61
(dp1164
sg70
g1150
sg63
(lp1165
g56
(g57
g58
NtRp1166
(dp1167
g61
(dp1168
g69
I3
ssg70
g1162
sg63
(lp1169
S''
asbasbasbasbasbasbasbag56
(g72
g58
NtRp1170
(dp1171
g61
(dp1172
sg70
g233
sg63
(lp1173
g56
(g77
g58
NtRp1174
(dp1175
g61
(dp1176
g81
g82
ssg70
g1170
sg63
(lp1177
S'session_id_welcome'
p1178
asbag56
(g77
g58
NtRp1179
(dp1180
g61
(dp1181
g88
g89
ssg70
g1170
sg63
(lp1182
S':'
asbag56
(g77
g58
NtRp1183
(dp1184
g61
(dp1185
sg70
g1170
sg63
(lp1186
g56
(g57
g58
NtRp1187
(dp1188
g61
(dp1189
g69
I4
ssg70
g1183
sg63
(lp1190
g56
(g65
g58
NtRp1191
(dp1192
g61
(dp1193
g69
I3
ssg70
Nsg63
(lp1194
g56
(g72
g58
NtRp1195
(dp1196
g61
(dp1197
sg70
g1191
sg63
(lp1198
g56
(g77
g58
NtRp1199
(dp1200
g61
(dp1201
g81
g82
ssg70
g1195
sg63
(lp1202
g270
asbag56
(g77
g58
NtRp1203
(dp1204
g61
(dp1205
g88
g89
ssg70
g1195
sg63
(lp1206
S':'
asbag56
(g77
g58
NtRp1207
(dp1208
g61
(dp1209
sg70
g1195
sg63
(lp1210
g56
(g57
g58
NtRp1211
(dp1212
g61
(dp1213
g69
I3
ssg70
g1207
sg63
(lp1214
S''
asbasbasbag56
(g72
g58
NtRp1215
(dp1216
g61
(dp1217
sg70
g1191
sg63
(lp1218
g56
(g77
g58
NtRp1219
(dp1220
g61
(dp1221
g81
g82
ssg70
g1215
sg63
(lp1222
g291
asbag56
(g77
g58
NtRp1223
(dp1224
g61
(dp1225
g88
g89
ssg70
g1215
sg63
(lp1226
S':'
asbag56
(g77
g58
NtRp1227
(dp1228
g61
(dp1229
sg70
g1215
sg63
(lp1230
g56
(g57
g58
NtRp1231
(dp1232
g61
(dp1233
g69
I3
ssg70
g1227
sg63
(lp1234
S''
asbasbasbag56
(g72
g58
NtRp1235
(dp1236
g61
(dp1237
sg70
g1191
sg63
(lp1238
g56
(g77
g58
NtRp1239
(dp1240
g61
(dp1241
g81
g82
ssg70
g1235
sg63
(lp1242
g312
asbag56
(g77
g58
NtRp1243
(dp1244
g61
(dp1245
g88
g89
ssg70
g1235
sg63
(lp1246
S':'
asbag56
(g77
g58
NtRp1247
(dp1248
g61
(dp1249
sg70
g1235
sg63
(lp1250
g56
(g57
g58
NtRp1251
(dp1252
g61
(dp1253
g69
I3
ssg70
g1247
sg63
(lp1254
S''
asbasbasbag56
(g72
g58
NtRp1255
(dp1256
g61
(dp1257
sg70
g1191
sg63
(lp1258
g56
(g77
g58
NtRp1259
(dp1260
g61
(dp1261
g81
g82
ssg70
g1255
sg63
(lp1262
g333
asbag56
(g77
g58
NtRp1263
(dp1264
g61
(dp1265
g88
g89
ssg70
g1255
sg63
(lp1266
S':'
asbag56
(g77
g58
NtRp1267
(dp1268
g61
(dp1269
sg70
g1255
sg63
(lp1270
g56
(g57
g58
NtRp1271
(dp1272
g61
(dp1273
g69
I3
ssg70
g1267
sg63
(lp1274
S''
asbasbasbag56
(g72
g58
NtRp1275
(dp1276
g61
(dp1277
sg70
g1191
sg63
(lp1278
g56
(g77
g58
NtRp1279
(dp1280
g61
(dp1281
g81
g82
ssg70
g1275
sg63
(lp1282
g354
asbag56
(g77
g58
NtRp1283
(dp1284
g61
(dp1285
g88
g89
ssg70
g1275
sg63
(lp1286
S':'
asbag56
(g77
g58
NtRp1287
(dp1288
g61
(dp1289
sg70
g1275
sg63
(lp1290
g56
(g57
g58
NtRp1291
(dp1292
g61
(dp1293
g69
I3
ssg70
g1287
sg63
(lp1294
S''
asbasbasbag56
(g72
g58
NtRp1295
(dp1296
g61
(dp1297
sg70
g1191
sg63
(lp1298
g56
(g77
g58
NtRp1299
(dp1300
g61
(dp1301
g81
g82
ssg70
g1295
sg63
(lp1302
g375
asbag56
(g77
g58
NtRp1303
(dp1304
g61
(dp1305
g88
g89
ssg70
g1295
sg63
(lp1306
S':'
asbag56
(g77
g58
NtRp1307
(dp1308
g61
(dp1309
sg70
g1295
sg63
(lp1310
g56
(g57
g58
NtRp1311
(dp1312
g61
(dp1313
g69
I3
ssg70
g1307
sg63
(lp1314
S''
asbasbasbag56
(g72
g58
NtRp1315
(dp1316
g61
(dp1317
sg70
g1191
sg63
(lp1318
g56
(g77
g58
NtRp1319
(dp1320
g61
(dp1321
g81
g82
ssg70
g1315
sg63
(lp1322
g396
asbag56
(g77
g58
NtRp1323
(dp1324
g61
(dp1325
g88
g89
ssg70
g1315
sg63
(lp1326
S':'
asbag56
(g77
g58
NtRp1327
(dp1328
g61
(dp1329
sg70
g1315
sg63
(lp1330
g56
(g57
g58
NtRp1331
(dp1332
g61
(dp1333
g69
I3
ssg70
g1327
sg63
(lp1334
S''
asbasbasbag56
(g72
g58
NtRp1335
(dp1336
g61
(dp1337
sg70
g1191
sg63
(lp1338
g56
(g77
g58
NtRp1339
(dp1340
g61
(dp1341
g81
g82
ssg70
g1335
sg63
(lp1342
g417
asbag56
(g77
g58
NtRp1343
(dp1344
g61
(dp1345
g88
g89
ssg70
g1335
sg63
(lp1346
S':'
asbag56
(g77
g58
NtRp1347
(dp1348
g61
(dp1349
sg70
g1335
sg63
(lp1350
g56
(g57
g58
NtRp1351
(dp1352
g61
(dp1353
g69
I3
ssg70
g1347
sg63
(lp1354
S''
asbasbasbasbasbasbasbasbasbasbasbag56
(g72
g58
NtRp1355
(dp1356
g61
(dp1357
sg70
g66
sg63
(lp1358
g56
(g77
g58
NtRp1359
(dp1360
g61
(dp1361
g81
g82
ssg70
g1355
sg63
(lp1362
S'env'
p1363
asbag56
(g77
g58
NtRp1364
(dp1365
g61
(dp1366
g88
g89
ssg70
g1355
sg63
(lp1367
S':'
asbag56
(g77
g58
NtRp1368
(dp1369
g61
(dp1370
sg70
g1355
sg63
(lp1371
g56
(g57
g58
NtRp1372
(dp1373
g61
(dp1374
g69
I5
ssg70
g1368
sg63
(lp1375
g56
(g65
g58
NtRp1376
(dp1377
g61
(dp1378
g69
I4
ssg70
Nsg63
(lp1379
g56
(g72
g58
NtRp1380
(dp1381
g61
(dp1382
sg70
g1376
sg63
(lp1383
g56
(g77
g58
NtRp1384
(dp1385
g61
(dp1386
g81
g82
ssg70
g1380
sg63
(lp1387
S'app_folders'
p1388
asbag56
(g77
g58
NtRp1389
(dp1390
g61
(dp1391
g88
g89
ssg70
g1380
sg63
(lp1392
S':'
asbag56
(g77
g58
NtRp1393
(dp1394
g61
(dp1395
sg70
g1380
sg63
(lp1396
g56
(g57
g58
NtRp1397
(dp1398
g61
(dp1399
g69
I4
ssg70
g1393
sg63
(lp1400
S"set(['/home/marco/proyectos/web2py-trunk/applications/mvstore/', '/home/marco/proyectos/web2py-trunk/applications/admin/', '/home/marco/proyectos/web2py-trunk/applications/jornadasdemo/', '/home/marco/proyectos/web2py-trunk/applications/welcome/', '/home/marco/proyectos/web2py-trunk/applications/napp/', '/home/marco/proyectos/web2py-trunk/applications/conf2py/', '/home/marco/proyectos/web2py-trunk/applications/moviestore/'])"
p1401
asbasbasbag56
(g72
g58
NtRp1402
(dp1403
g61
(dp1404
sg70
g1376
sg63
(lp1405
g56
(g77
g58
NtRp1406
(dp1407
g61
(dp1408
g81
g82
ssg70
g1402
sg63
(lp1409
S'applications_parent'
p1410
asbag56
(g77
g58
NtRp1411
(dp1412
g61
(dp1413
g88
g89
ssg70
g1402
sg63
(lp1414
S':'
asbag56
(g77
g58
NtRp1415
(dp1416
g61
(dp1417
sg70
g1402
sg63
(lp1418
g56
(g57
g58
NtRp1419
(dp1420
g61
(dp1421
g69
I4
ssg70
g1415
sg63
(lp1422
S'/home/marco/proyectos/web2py-trunk'
p1423
asbasbasbag56
(g72
g58
NtRp1424
(dp1425
g61
(dp1426
sg70
g1376
sg63
(lp1427
g56
(g77
g58
NtRp1428
(dp1429
g61
(dp1430
g81
g82
ssg70
g1424
sg63
(lp1431
S'cmd_args'
p1432
asbag56
(g77
g58
NtRp1433
(dp1434
g61
(dp1435
g88
g89
ssg70
g1424
sg63
(lp1436
S':'
asbag56
(g77
g58
NtRp1437
(dp1438
g61
(dp1439
sg70
g1424
sg63
(lp1440
g56
(g57
g58
NtRp1441
(dp1442
g61
(dp1443
g69
I4
ssg70
g1437
sg63
(lp1444
g56
(g65
g58
NtRp1445
(dp1446
g61
(dp1447
g69
I3
ssg70
Nsg63
(lp1448
sbasbasbasbag56
(g72
g58
NtRp1449
(dp1450
g61
(dp1451
sg70
g1376
sg63
(lp1452
g56
(g77
g58
NtRp1453
(dp1454
g61
(dp1455
g81
g82
ssg70
g1449
sg63
(lp1456
S'cmd_options'
p1457
asbag56
(g77
g58
NtRp1458
(dp1459
g61
(dp1460
g88
g89
ssg70
g1449
sg63
(lp1461
S':'
asbag56
(g77
g58
NtRp1462
(dp1463
g61
(dp1464
sg70
g1449
sg63
(lp1465
g56
(g57
g58
NtRp1466
(dp1467
g61
(dp1468
g69
I4
ssg70
g1462
sg63
(lp1469
S"<Values at 0x1ffcb90: {'verbose': False, 'ip': '127.0.0.1', 'shutdown_timeout': 5, 'taskbar': False, 'port': 8000, 'maxthreads': None, 'softcron': False, 'server_name': 'kiki', 'bpython': False, 'nogui': False, 'nocron': False, 'extcron': False, 'debuglevel': 30, 'test': None, 'folder': '/home/marco/proyectos/web2py-trunk', 'config': '', 'import_models': False, 'winservice': '', 'shell': None, 'run': '', 'log_filename': 'httpserver.log', 'args': [''], 'profiler_filename': None, 'ssl_private_key': '', 'password': '<ask>', 'request_queue_size': 5, 'ssl_certificate': '', 'cronjob': False, 'plain': False, 'quiet': False, 'interfaces': None, 'minthreads': None, 'timeout': 10, 'numthreads': None, 'nobanner': False, 'pid_filename': 'httpserver.pid'}>"
p1470
asbasbasbag56
(g72
g58
NtRp1471
(dp1472
g61
(dp1473
sg70
g1376
sg63
(lp1474
g56
(g77
g58
NtRp1475
(dp1476
g61
(dp1477
g81
g82
ssg70
g1471
sg63
(lp1478
S'content_length'
p1479
asbag56
(g77
g58
NtRp1480
(dp1481
g61
(dp1482
g88
g89
ssg70
g1471
sg63
(lp1483
S':'
asbag56
(g77
g58
NtRp1484
(dp1485
g61
(dp1486
sg70
g1471
sg63
(lp1487
g56
(g57
g58
NtRp1488
(dp1489
g61
(dp1490
g69
I4
ssg70
g1484
sg63
(lp1491
S'843'
p1492
asbasbasbag56
(g72
g58
NtRp1493
(dp1494
g61
(dp1495
sg70
g1376
sg63
(lp1496
g56
(g77
g58
NtRp1497
(dp1498
g61
(dp1499
g81
g82
ssg70
g1493
sg63
(lp1500
S'content_type'
p1501
asbag56
(g77
g58
NtRp1502
(dp1503
g61
(dp1504
g88
g89
ssg70
g1493
sg63
(lp1505
S':'
asbag56
(g77
g58
NtRp1506
(dp1507
g61
(dp1508
sg70
g1493
sg63
(lp1509
g56
(g57
g58
NtRp1510
(dp1511
g61
(dp1512
g69
I4
ssg70
g1506
sg63
(lp1513
S'multipart/form-data; boundary=----WebKitFormBoundaryT7PAYqUKos1QEFPS'
p1514
asbasbasbag56
(g72
g58
NtRp1515
(dp1516
g61
(dp1517
sg70
g1376
sg63
(lp1518
g56
(g77
g58
NtRp1519
(dp1520
g61
(dp1521
g81
g82
ssg70
g1515
sg63
(lp1522
S'db_sessions'
p1523
asbag56
(g77
g58
NtRp1524
(dp1525
g61
(dp1526
g88
g89
ssg70
g1515
sg63
(lp1527
S':'
asbag56
(g77
g58
NtRp1528
(dp1529
g61
(dp1530
sg70
g1515
sg63
(lp1531
g56
(g57
g58
NtRp1532
(dp1533
g61
(dp1534
g69
I4
ssg70
g1528
sg63
(lp1535
S'set([])'
p1536
asbasbasbag56
(g72
g58
NtRp1537
(dp1538
g61
(dp1539
sg70
g1376
sg63
(lp1540
g56
(g77
g58
NtRp1541
(dp1542
g61
(dp1543
g81
g82
ssg70
g1537
sg63
(lp1544
S'debugging'
p1545
asbag56
(g77
g58
NtRp1546
(dp1547
g61
(dp1548
g88
g89
ssg70
g1537
sg63
(lp1549
S':'
asbag56
(g77
g58
NtRp1550
(dp1551
g61
(dp1552
sg70
g1537
sg63
(lp1553
g56
(g57
g58
NtRp1554
(dp1555
g61
(dp1556
g69
I4
ssg70
g1550
sg63
(lp1557
g99
asbasbasbag56
(g72
g58
NtRp1558
(dp1559
g61
(dp1560
sg70
g1376
sg63
(lp1561
g56
(g77
g58
NtRp1562
(dp1563
g61
(dp1564
g81
g82
ssg70
g1558
sg63
(lp1565
S'gluon_parent'
p1566
asbag56
(g77
g58
NtRp1567
(dp1568
g61
(dp1569
g88
g89
ssg70
g1558
sg63
(lp1570
S':'
asbag56
(g77
g58
NtRp1571
(dp1572
g61
(dp1573
sg70
g1558
sg63
(lp1574
g56
(g57
g58
NtRp1575
(dp1576
g61
(dp1577
g69
I4
ssg70
g1571
sg63
(lp1578
S'/home/marco/proyectos/web2py-trunk'
p1579
asbasbasbag56
(g72
g58
NtRp1580
(dp1581
g61
(dp1582
sg70
g1376
sg63
(lp1583
g56
(g77
g58
NtRp1584
(dp1585
g61
(dp1586
g81
g82
ssg70
g1580
sg63
(lp1587
S'http_accept'
p1588
asbag56
(g77
g58
NtRp1589
(dp1590
g61
(dp1591
g88
g89
ssg70
g1580
sg63
(lp1592
S':'
asbag56
(g77
g58
NtRp1593
(dp1594
g61
(dp1595
sg70
g1580
sg63
(lp1596
g56
(g57
g58
NtRp1597
(dp1598
g61
(dp1599
g69
I4
ssg70
g1593
sg63
(lp1600
S'application/xml,application/xhtml+xml,text/html;q=0.9,text/plain;q=0.8,image/png,*/*;q=0.5'
p1601
asbasbasbag56
(g72
g58
NtRp1602
(dp1603
g61
(dp1604
sg70
g1376
sg63
(lp1605
g56
(g77
g58
NtRp1606
(dp1607
g61
(dp1608
g81
g82
ssg70
g1602
sg63
(lp1609
S'http_accept_charset'
p1610
asbag56
(g77
g58
NtRp1611
(dp1612
g61
(dp1613
g88
g89
ssg70
g1602
sg63
(lp1614
S':'
asbag56
(g77
g58
NtRp1615
(dp1616
g61
(dp1617
sg70
g1602
sg63
(lp1618
g56
(g57
g58
NtRp1619
(dp1620
g61
(dp1621
g69
I4
ssg70
g1615
sg63
(lp1622
S'ISO-8859-1,utf-8;q=0.7,*;q=0.3'
p1623
asbasbasbag56
(g72
g58
NtRp1624
(dp1625
g61
(dp1626
sg70
g1376
sg63
(lp1627
g56
(g77
g58
NtRp1628
(dp1629
g61
(dp1630
g81
g82
ssg70
g1624
sg63
(lp1631
S'http_accept_encoding'
p1632
asbag56
(g77
g58
NtRp1633
(dp1634
g61
(dp1635
g88
g89
ssg70
g1624
sg63
(lp1636
S':'
asbag56
(g77
g58
NtRp1637
(dp1638
g61
(dp1639
sg70
g1624
sg63
(lp1640
g56
(g57
g58
NtRp1641
(dp1642
g61
(dp1643
g69
I4
ssg70
g1637
sg63
(lp1644
S'gzip,deflate,sdch'
p1645
asbasbasbag56
(g72
g58
NtRp1646
(dp1647
g61
(dp1648
sg70
g1376
sg63
(lp1649
g56
(g77
g58
NtRp1650
(dp1651
g61
(dp1652
g81
g82
ssg70
g1646
sg63
(lp1653
S'http_accept_language'
p1654
asbag56
(g77
g58
NtRp1655
(dp1656
g61
(dp1657
g88
g89
ssg70
g1646
sg63
(lp1658
S':'
asbag56
(g77
g58
NtRp1659
(dp1660
g61
(dp1661
sg70
g1646
sg63
(lp1662
g56
(g57
g58
NtRp1663
(dp1664
g61
(dp1665
g69
I4
ssg70
g1659
sg63
(lp1666
S'es-419,es;q=0.8'
p1667
asbasbasbag56
(g72
g58
NtRp1668
(dp1669
g61
(dp1670
sg70
g1376
sg63
(lp1671
g56
(g77
g58
NtRp1672
(dp1673
g61
(dp1674
g81
g82
ssg70
g1668
sg63
(lp1675
S'http_cache_control'
p1676
asbag56
(g77
g58
NtRp1677
(dp1678
g61
(dp1679
g88
g89
ssg70
g1668
sg63
(lp1680
S':'
asbag56
(g77
g58
NtRp1681
(dp1682
g61
(dp1683
sg70
g1668
sg63
(lp1684
g56
(g57
g58
NtRp1685
(dp1686
g61
(dp1687
g69
I4
ssg70
g1681
sg63
(lp1688
S'max-age=0'
p1689
asbasbasbag56
(g72
g58
NtRp1690
(dp1691
g61
(dp1692
sg70
g1376
sg63
(lp1693
g56
(g77
g58
NtRp1694
(dp1695
g61
(dp1696
g81
g82
ssg70
g1690
sg63
(lp1697
S'http_connection'
p1698
asbag56
(g77
g58
NtRp1699
(dp1700
g61
(dp1701
g88
g89
ssg70
g1690
sg63
(lp1702
S':'
asbag56
(g77
g58
NtRp1703
(dp1704
g61
(dp1705
sg70
g1690
sg63
(lp1706
g56
(g57
g58
NtRp1707
(dp1708
g61
(dp1709
g69
I4
ssg70
g1703
sg63
(lp1710
S'keep-alive'
p1711
asbasbasbag56
(g72
g58
NtRp1712
(dp1713
g61
(dp1714
sg70
g1376
sg63
(lp1715
g56
(g77
g58
NtRp1716
(dp1717
g61
(dp1718
g81
g82
ssg70
g1712
sg63
(lp1719
S'http_content_length'
p1720
asbag56
(g77
g58
NtRp1721
(dp1722
g61
(dp1723
g88
g89
ssg70
g1712
sg63
(lp1724
S':'
asbag56
(g77
g58
NtRp1725
(dp1726
g61
(dp1727
sg70
g1712
sg63
(lp1728
g56
(g57
g58
NtRp1729
(dp1730
g61
(dp1731
g69
I4
ssg70
g1725
sg63
(lp1732
g1492
asbasbasbag56
(g72
g58
NtRp1733
(dp1734
g61
(dp1735
sg70
g1376
sg63
(lp1736
g56
(g77
g58
NtRp1737
(dp1738
g61
(dp1739
g81
g82
ssg70
g1733
sg63
(lp1740
S'http_content_type'
p1741
asbag56
(g77
g58
NtRp1742
(dp1743
g61
(dp1744
g88
g89
ssg70
g1733
sg63
(lp1745
S':'
asbag56
(g77
g58
NtRp1746
(dp1747
g61
(dp1748
sg70
g1733
sg63
(lp1749
g56
(g57
g58
NtRp1750
(dp1751
g61
(dp1752
g69
I4
ssg70
g1746
sg63
(lp1753
g1514
asbasbasbag56
(g72
g58
NtRp1754
(dp1755
g61
(dp1756
sg70
g1376
sg63
(lp1757
g56
(g77
g58
NtRp1758
(dp1759
g61
(dp1760
g81
g82
ssg70
g1754
sg63
(lp1761
S'http_cookie'
p1762
asbag56
(g77
g58
NtRp1763
(dp1764
g61
(dp1765
g88
g89
ssg70
g1754
sg63
(lp1766
S':'
asbag56
(g77
g58
NtRp1767
(dp1768
g61
(dp1769
sg70
g1754
sg63
(lp1770
g56
(g57
g58
NtRp1771
(dp1772
g61
(dp1773
g69
I4
ssg70
g1767
sg63
(lp1774
S'session_id_welcome=127.0.0.1-42aeeffb-91ad-41cf-a19a-c542b618bc3b; session_id_jornadasdemo=127.0.0.1-c2aedcb7-3cda-4472-95a7-e206025ae0aa; session_id_moviestore=127.0.0.1-b659915f-a893-4edf-9389-3d1d816b6d14; session_id_napp=127.0.0.1-5892b436-4013-46df-be21-176a66b88855; session_id_mvstore=127.0.0.1-0b059b4c-5741-4722-be03-f31fed87a8d7; session_id_admin=127.0.0.1-6d5f70af-c182-4a4b-bb48-a3442921674a'
p1775
asbasbasbag56
(g72
g58
NtRp1776
(dp1777
g61
(dp1778
sg70
g1376
sg63
(lp1779
g56
(g77
g58
NtRp1780
(dp1781
g61
(dp1782
g81
g82
ssg70
g1776
sg63
(lp1783
S'http_host'
p1784
asbag56
(g77
g58
NtRp1785
(dp1786
g61
(dp1787
g88
g89
ssg70
g1776
sg63
(lp1788
S':'
asbag56
(g77
g58
NtRp1789
(dp1790
g61
(dp1791
sg70
g1776
sg63
(lp1792
g56
(g57
g58
NtRp1793
(dp1794
g61
(dp1795
g69
I4
ssg70
g1789
sg63
(lp1796
S'127.0.0.1:8000'
p1797
asbasbasbag56
(g72
g58
NtRp1798
(dp1799
g61
(dp1800
sg70
g1376
sg63
(lp1801
g56
(g77
g58
NtRp1802
(dp1803
g61
(dp1804
g81
g82
ssg70
g1798
sg63
(lp1805
S'http_origin'
p1806
asbag56
(g77
g58
NtRp1807
(dp1808
g61
(dp1809
g88
g89
ssg70
g1798
sg63
(lp1810
S':'
asbag56
(g77
g58
NtRp1811
(dp1812
g61
(dp1813
sg70
g1798
sg63
(lp1814
g56
(g57
g58
NtRp1815
(dp1816
g61
(dp1817
g69
I4
ssg70
g1811
sg63
(lp1818
S'http://127.0.0.1:8000'
p1819
asbasbasbag56
(g72
g58
NtRp1820
(dp1821
g61
(dp1822
sg70
g1376
sg63
(lp1823
g56
(g77
g58
NtRp1824
(dp1825
g61
(dp1826
g81
g82
ssg70
g1820
sg63
(lp1827
S'http_referer'
p1828
asbag56
(g77
g58
NtRp1829
(dp1830
g61
(dp1831
g88
g89
ssg70
g1820
sg63
(lp1832
S':'
asbag56
(g77
g58
NtRp1833
(dp1834
g61
(dp1835
sg70
g1820
sg63
(lp1836
g56
(g57
g58
NtRp1837
(dp1838
g61
(dp1839
g69
I4
ssg70
g1833
sg63
(lp1840
S'http://127.0.0.1:8000/mvstore/default/prestamos'
p1841
asbasbasbag56
(g72
g58
NtRp1842
(dp1843
g61
(dp1844
sg70
g1376
sg63
(lp1845
g56
(g77
g58
NtRp1846
(dp1847
g61
(dp1848
g81
g82
ssg70
g1842
sg63
(lp1849
S'http_user_agent'
p1850
asbag56
(g77
g58
NtRp1851
(dp1852
g61
(dp1853
g88
g89
ssg70
g1842
sg63
(lp1854
S':'
asbag56
(g77
g58
NtRp1855
(dp1856
g61
(dp1857
sg70
g1842
sg63
(lp1858
g56
(g57
g58
NtRp1859
(dp1860
g61
(dp1861
g69
I4
ssg70
g1855
sg63
(lp1862
S'Mozilla/5.0 (X11; Linux x86_64) AppleWebKit/534.24 (KHTML, like Gecko) Chrome/11.0.696.71 Safari/534.24'
p1863
asbasbasbag56
(g72
g58
NtRp1864
(dp1865
g61
(dp1866
sg70
g1376
sg63
(lp1867
g56
(g77
g58
NtRp1868
(dp1869
g61
(dp1870
g81
g82
ssg70
g1864
sg63
(lp1871
S'path_info'
p1872
asbag56
(g77
g58
NtRp1873
(dp1874
g61
(dp1875
g88
g89
ssg70
g1864
sg63
(lp1876
S':'
asbag56
(g77
g58
NtRp1877
(dp1878
g61
(dp1879
sg70
g1864
sg63
(lp1880
g56
(g57
g58
NtRp1881
(dp1882
g61
(dp1883
g69
I4
ssg70
g1877
sg63
(lp1884
S'/mvstore/default/prestamos'
p1885
asbasbasbag56
(g72
g58
NtRp1886
(dp1887
g61
(dp1888
sg70
g1376
sg63
(lp1889
g56
(g77
g58
NtRp1890
(dp1891
g61
(dp1892
g81
g82
ssg70
g1886
sg63
(lp1893
S'query_string'
p1894
asbag56
(g77
g58
NtRp1895
(dp1896
g61
(dp1897
g88
g89
ssg70
g1886
sg63
(lp1898
S':'
asbag56
(g77
g58
NtRp1899
(dp1900
g61
(dp1901
sg70
g1886
sg63
(lp1902
g56
(g57
g58
NtRp1903
(dp1904
g61
(dp1905
g69
I4
ssg70
g1899
sg63
(lp1906
S''
asbasbasbag56
(g72
g58
NtRp1907
(dp1908
g61
(dp1909
sg70
g1376
sg63
(lp1910
g56
(g77
g58
NtRp1911
(dp1912
g61
(dp1913
g81
g82
ssg70
g1907
sg63
(lp1914
S'remote_addr'
p1915
asbag56
(g77
g58
NtRp1916
(dp1917
g61
(dp1918
g88
g89
ssg70
g1907
sg63
(lp1919
S':'
asbag56
(g77
g58
NtRp1920
(dp1921
g61
(dp1922
sg70
g1907
sg63
(lp1923
g56
(g57
g58
NtRp1924
(dp1925
g61
(dp1926
g69
I4
ssg70
g1920
sg63
(lp1927
g189
asbasbasbag56
(g72
g58
NtRp1928
(dp1929
g61
(dp1930
sg70
g1376
sg63
(lp1931
g56
(g77
g58
NtRp1932
(dp1933
g61
(dp1934
g81
g82
ssg70
g1928
sg63
(lp1935
S'remote_port'
p1936
asbag56
(g77
g58
NtRp1937
(dp1938
g61
(dp1939
g88
g89
ssg70
g1928
sg63
(lp1940
S':'
asbag56
(g77
g58
NtRp1941
(dp1942
g61
(dp1943
sg70
g1928
sg63
(lp1944
g56
(g57
g58
NtRp1945
(dp1946
g61
(dp1947
g69
I4
ssg70
g1941
sg63
(lp1948
S'44651'
p1949
asbasbasbag56
(g72
g58
NtRp1950
(dp1951
g61
(dp1952
sg70
g1376
sg63
(lp1953
g56
(g77
g58
NtRp1954
(dp1955
g61
(dp1956
g81
g82
ssg70
g1950
sg63
(lp1957
S'request_method'
p1958
asbag56
(g77
g58
NtRp1959
(dp1960
g61
(dp1961
g88
g89
ssg70
g1950
sg63
(lp1962
S':'
asbag56
(g77
g58
NtRp1963
(dp1964
g61
(dp1965
sg70
g1950
sg63
(lp1966
g56
(g57
g58
NtRp1967
(dp1968
g61
(dp1969
g69
I4
ssg70
g1963
sg63
(lp1970
S'POST'
p1971
asbasbasbag56
(g72
g58
NtRp1972
(dp1973
g61
(dp1974
sg70
g1376
sg63
(lp1975
g56
(g77
g58
NtRp1976
(dp1977
g61
(dp1978
g81
g82
ssg70
g1972
sg63
(lp1979
S'script_name'
p1980
asbag56
(g77
g58
NtRp1981
(dp1982
g61
(dp1983
g88
g89
ssg70
g1972
sg63
(lp1984
S':'
asbag56
(g77
g58
NtRp1985
(dp1986
g61
(dp1987
sg70
g1972
sg63
(lp1988
g56
(g57
g58
NtRp1989
(dp1990
g61
(dp1991
g69
I4
ssg70
g1985
sg63
(lp1992
S''
asbasbasbag56
(g72
g58
NtRp1993
(dp1994
g61
(dp1995
sg70
g1376
sg63
(lp1996
g56
(g77
g58
NtRp1997
(dp1998
g61
(dp1999
g81
g82
ssg70
g1993
sg63
(lp2000
S'server_name'
p2001
asbag56
(g77
g58
NtRp2002
(dp2003
g61
(dp2004
g88
g89
ssg70
g1993
sg63
(lp2005
S':'
asbag56
(g77
g58
NtRp2006
(dp2007
g61
(dp2008
sg70
g1993
sg63
(lp2009
g56
(g57
g58
NtRp2010
(dp2011
g61
(dp2012
g69
I4
ssg70
g2006
sg63
(lp2013
S'kiki'
p2014
asbasbasbag56
(g72
g58
NtRp2015
(dp2016
g61
(dp2017
sg70
g1376
sg63
(lp2018
g56
(g77
g58
NtRp2019
(dp2020
g61
(dp2021
g81
g82
ssg70
g2015
sg63
(lp2022
S'server_port'
p2023
asbag56
(g77
g58
NtRp2024
(dp2025
g61
(dp2026
g88
g89
ssg70
g2015
sg63
(lp2027
S':'
asbag56
(g77
g58
NtRp2028
(dp2029
g61
(dp2030
sg70
g2015
sg63
(lp2031
g56
(g57
g58
NtRp2032
(dp2033
g61
(dp2034
g69
I4
ssg70
g2028
sg63
(lp2035
S'8000'
p2036
asbasbasbag56
(g72
g58
NtRp2037
(dp2038
g61
(dp2039
sg70
g1376
sg63
(lp2040
g56
(g77
g58
NtRp2041
(dp2042
g61
(dp2043
g81
g82
ssg70
g2037
sg63
(lp2044
S'server_protocol'
p2045
asbag56
(g77
g58
NtRp2046
(dp2047
g61
(dp2048
g88
g89
ssg70
g2037
sg63
(lp2049
S':'
asbag56
(g77
g58
NtRp2050
(dp2051
g61
(dp2052
sg70
g2037
sg63
(lp2053
g56
(g57
g58
NtRp2054
(dp2055
g61
(dp2056
g69
I4
ssg70
g2050
sg63
(lp2057
S'HTTP/1.1'
p2058
asbasbasbag56
(g72
g58
NtRp2059
(dp2060
g61
(dp2061
sg70
g1376
sg63
(lp2062
g56
(g77
g58
NtRp2063
(dp2064
g61
(dp2065
g81
g82
ssg70
g2059
sg63
(lp2066
S'server_software'
p2067
asbag56
(g77
g58
NtRp2068
(dp2069
g61
(dp2070
g88
g89
ssg70
g2059
sg63
(lp2071
S':'
asbag56
(g77
g58
NtRp2072
(dp2073
g61
(dp2074
sg70
g2059
sg63
(lp2075
g56
(g57
g58
NtRp2076
(dp2077
g61
(dp2078
g69
I4
ssg70
g2072
sg63
(lp2079
S'Rocket 1.2.2'
p2080
asbasbasbag56
(g72
g58
NtRp2081
(dp2082
g61
(dp2083
sg70
g1376
sg63
(lp2084
g56
(g77
g58
NtRp2085
(dp2086
g61
(dp2087
g81
g82
ssg70
g2081
sg63
(lp2088
S'web2py_crontype'
p2089
asbag56
(g77
g58
NtRp2090
(dp2091
g61
(dp2092
g88
g89
ssg70
g2081
sg63
(lp2093
S':'
asbag56
(g77
g58
NtRp2094
(dp2095
g61
(dp2096
sg70
g2081
sg63
(lp2097
g56
(g57
g58
NtRp2098
(dp2099
g61
(dp2100
g69
I4
ssg70
g2094
sg63
(lp2101
S'hard'
p2102
asbasbasbag56
(g72
g58
NtRp2103
(dp2104
g61
(dp2105
sg70
g1376
sg63
(lp2106
g56
(g77
g58
NtRp2107
(dp2108
g61
(dp2109
g81
g82
ssg70
g2103
sg63
(lp2110
S'web2py_path'
p2111
asbag56
(g77
g58
NtRp2112
(dp2113
g61
(dp2114
g88
g89
ssg70
g2103
sg63
(lp2115
S':'
asbag56
(g77
g58
NtRp2116
(dp2117
g61
(dp2118
sg70
g2103
sg63
(lp2119
g56
(g57
g58
NtRp2120
(dp2121
g61
(dp2122
g69
I4
ssg70
g2116
sg63
(lp2123
g1423
asbasbasbag56
(g72
g58
NtRp2124
(dp2125
g61
(dp2126
sg70
g1376
sg63
(lp2127
g56
(g77
g58
NtRp2128
(dp2129
g61
(dp2130
g81
g82
ssg70
g2124
sg63
(lp2131
S'web2py_version'
p2132
asbag56
(g77
g58
NtRp2133
(dp2134
g61
(dp2135
g88
g89
ssg70
g2124
sg63
(lp2136
S':'
asbag56
(g77
g58
NtRp2137
(dp2138
g61
(dp2139
sg70
g2124
sg63
(lp2140
g56
(g57
g58
NtRp2141
(dp2142
g61
(dp2143
g69
I4
ssg70
g2137
sg63
(lp2144
S'        iersion 1.94.1 (2011-03-17 16:30:58)\n'
p2145
asbasbasbag56
(g72
g58
NtRp2146
(dp2147
g61
(dp2148
sg70
g1376
sg63
(lp2149
g56
(g77
g58
NtRp2150
(dp2151
g61
(dp2152
g81
g82
ssg70
g2146
sg63
(lp2153
S'wsgi_errors'
p2154
asbag56
(g77
g58
NtRp2155
(dp2156
g61
(dp2157
g88
g89
ssg70
g2146
sg63
(lp2158
S':'
asbag56
(g77
g58
NtRp2159
(dp2160
g61
(dp2161
sg70
g2146
sg63
(lp2162
g56
(g57
g58
NtRp2163
(dp2164
g61
(dp2165
g69
I4
ssg70
g2159
sg63
(lp2166
S"<open file '<stderr>', mode 'w' at 0x7f8a1045a1e0>"
p2167
asbasbasbag56
(g72
g58
NtRp2168
(dp2169
g61
(dp2170
sg70
g1376
sg63
(lp2171
g56
(g77
g58
NtRp2172
(dp2173
g61
(dp2174
g81
g82
ssg70
g2168
sg63
(lp2175
S'wsgi_file_wrapper'
p2176
asbag56
(g77
g58
NtRp2177
(dp2178
g61
(dp2179
g88
g89
ssg70
g2168
sg63
(lp2180
S':'
asbag56
(g77
g58
NtRp2181
(dp2182
g61
(dp2183
sg70
g2168
sg63
(lp2184
g56
(g57
g58
NtRp2185
(dp2186
g61
(dp2187
g69
I4
ssg70
g2181
sg63
(lp2188
S'<class gluon.rocket.FileWrapper at 0x1e6f3b0>'
p2189
asbasbasbag56
(g72
g58
NtRp2190
(dp2191
g61
(dp2192
sg70
g1376
sg63
(lp2193
g56
(g77
g58
NtRp2194
(dp2195
g61
(dp2196
g81
g82
ssg70
g2190
sg63
(lp2197
S'wsgi_input'
p2198
asbag56
(g77
g58
NtRp2199
(dp2200
g61
(dp2201
g88
g89
ssg70
g2190
sg63
(lp2202
S':'
asbag56
(g77
g58
NtRp2203
(dp2204
g61
(dp2205
sg70
g2190
sg63
(lp2206
g56
(g57
g58
NtRp2207
(dp2208
g61
(dp2209
g69
I4
ssg70
g2203
sg63
(lp2210
S'<socket._fileobject object at 0x39b8050>'
p2211
asbasbasbag56
(g72
g58
NtRp2212
(dp2213
g61
(dp2214
sg70
g1376
sg63
(lp2215
g56
(g77
g58
NtRp2216
(dp2217
g61
(dp2218
g81
g82
ssg70
g2212
sg63
(lp2219
S'wsgi_multiprocess'
p2220
asbag56
(g77
g58
NtRp2221
(dp2222
g61
(dp2223
g88
g89
ssg70
g2212
sg63
(lp2224
S':'
asbag56
(g77
g58
NtRp2225
(dp2226
g61
(dp2227
sg70
g2212
sg63
(lp2228
g56
(g57
g58
NtRp2229
(dp2230
g61
(dp2231
g69
I4
ssg70
g2225
sg63
(lp2232
g99
asbasbasbag56
(g72
g58
NtRp2233
(dp2234
g61
(dp2235
sg70
g1376
sg63
(lp2236
g56
(g77
g58
NtRp2237
(dp2238
g61
(dp2239
g81
g82
ssg70
g2233
sg63
(lp2240
S'wsgi_multithread'
p2241
asbag56
(g77
g58
NtRp2242
(dp2243
g61
(dp2244
g88
g89
ssg70
g2233
sg63
(lp2245
S':'
asbag56
(g77
g58
NtRp2246
(dp2247
g61
(dp2248
sg70
g2233
sg63
(lp2249
g56
(g57
g58
NtRp2250
(dp2251
g61
(dp2252
g69
I4
ssg70
g2246
sg63
(lp2253
S'True'
p2254
asbasbasbag56
(g72
g58
NtRp2255
(dp2256
g61
(dp2257
sg70
g1376
sg63
(lp2258
g56
(g77
g58
NtRp2259
(dp2260
g61
(dp2261
g81
g82
ssg70
g2255
sg63
(lp2262
S'wsgi_run_once'
p2263
asbag56
(g77
g58
NtRp2264
(dp2265
g61
(dp2266
g88
g89
ssg70
g2255
sg63
(lp2267
S':'
asbag56
(g77
g58
NtRp2268
(dp2269
g61
(dp2270
sg70
g2255
sg63
(lp2271
g56
(g57
g58
NtRp2272
(dp2273
g61
(dp2274
g69
I4
ssg70
g2268
sg63
(lp2275
g99
asbasbasbag56
(g72
g58
NtRp2276
(dp2277
g61
(dp2278
sg70
g1376
sg63
(lp2279
g56
(g77
g58
NtRp2280
(dp2281
g61
(dp2282
g81
g82
ssg70
g2276
sg63
(lp2283
S'wsgi_url_scheme'
p2284
asbag56
(g77
g58
NtRp2285
(dp2286
g61
(dp2287
g88
g89
ssg70
g2276
sg63
(lp2288
S':'
asbag56
(g77
g58
NtRp2289
(dp2290
g61
(dp2291
sg70
g2276
sg63
(lp2292
g56
(g57
g58
NtRp2293
(dp2294
g61
(dp2295
g69
I4
ssg70
g2289
sg63
(lp2296
S'http'
p2297
asbasbasbag56
(g72
g58
NtRp2298
(dp2299
g61
(dp2300
sg70
g1376
sg63
(lp2301
g56
(g77
g58
NtRp2302
(dp2303
g61
(dp2304
g81
g82
ssg70
g2298
sg63
(lp2305
S'wsgi_version'
p2306
asbag56
(g77
g58
NtRp2307
(dp2308
g61
(dp2309
g88
g89
ssg70
g2298
sg63
(lp2310
S':'
asbag56
(g77
g58
NtRp2311
(dp2312
g61
(dp2313
sg70
g2298
sg63
(lp2314
g56
(g57
g58
NtRp2315
(dp2316
g61
(dp2317
g69
I4
ssg70
g2311
sg63
(lp2318
g56
(g65
g58
NtRp2319
(dp2320
g61
(dp2321
g69
I3
ssg70
Nsg63
(lp2322
g56
(g72
g58
NtRp2323
(dp2324
g61
(dp2325
sg70
g2319
sg63
(lp2326
g56
(g77
g58
NtRp2327
(dp2328
g61
(dp2329
sg70
g2323
sg63
(lp2330
g56
(g57
g58
NtRp2331
(dp2332
g61
(dp2333
g69
I3
ssg70
g2327
sg63
(lp2334
S'1'
asbasbasbag56
(g72
g58
NtRp2335
(dp2336
g61
(dp2337
sg70
g2319
sg63
(lp2338
g56
(g77
g58
NtRp2339
(dp2340
g61
(dp2341
sg70
g2335
sg63
(lp2342
g56
(g57
g58
NtRp2343
(dp2344
g61
(dp2345
g69
I3
ssg70
g2339
sg63
(lp2346
S'0'
asbasbasbasbasbasbasbasbasbasbasbag56
(g72
g58
NtRp2347
(dp2348
g61
(dp2349
sg70
g66
sg63
(lp2350
g56
(g77
g58
NtRp2351
(dp2352
g61
(dp2353
g81
g82
ssg70
g2347
sg63
(lp2354
S'extension'
p2355
asbag56
(g77
g58
NtRp2356
(dp2357
g61
(dp2358
g88
g89
ssg70
g2347
sg63
(lp2359
S':'
asbag56
(g77
g58
NtRp2360
(dp2361
g61
(dp2362
sg70
g2347
sg63
(lp2363
g56
(g57
g58
NtRp2364
(dp2365
g61
(dp2366
g69
I5
ssg70
g2360
sg63
(lp2367
S'html'
p2368
asbasbasbag56
(g72
g58
NtRp2369
(dp2370
g61
(dp2371
sg70
g66
sg63
(lp2372
g56
(g77
g58
NtRp2373
(dp2374
g61
(dp2375
g81
g82
ssg70
g2369
sg63
(lp2376
S'folder'
p2377
asbag56
(g77
g58
NtRp2378
(dp2379
g61
(dp2380
g88
g89
ssg70
g2369
sg63
(lp2381
S':'
asbag56
(g77
g58
NtRp2382
(dp2383
g61
(dp2384
sg70
g2369
sg63
(lp2385
g56
(g57
g58
NtRp2386
(dp2387
g61
(dp2388
g69
I5
ssg70
g2382
sg63
(lp2389
S'/home/marco/proyectos/web2py-trunk/applications/mvstore/'
p2390
asbasbasbag56
(g72
g58
NtRp2391
(dp2392
g61
(dp2393
sg70
g66
sg63
(lp2394
g56
(g77
g58
NtRp2395
(dp2396
g61
(dp2397
g81
g82
ssg70
g2391
sg63
(lp2398
S'function'
p2399
asbag56
(g77
g58
NtRp2400
(dp2401
g61
(dp2402
g88
g89
ssg70
g2391
sg63
(lp2403
S':'
asbag56
(g77
g58
NtRp2404
(dp2405
g61
(dp2406
sg70
g2391
sg63
(lp2407
g56
(g57
g58
NtRp2408
(dp2409
g61
(dp2410
g69
I5
ssg70
g2404
sg63
(lp2411
S'prestamos'
p2412
asbasbasbag56
(g72
g58
NtRp2413
(dp2414
g61
(dp2415
sg70
g66
sg63
(lp2416
g56
(g77
g58
NtRp2417
(dp2418
g61
(dp2419
g81
g82
ssg70
g2413
sg63
(lp2420
S'get_vars'
p2421
asbag56
(g77
g58
NtRp2422
(dp2423
g61
(dp2424
g88
g89
ssg70
g2413
sg63
(lp2425
S':'
asbag56
(g77
g58
NtRp2426
(dp2427
g61
(dp2428
sg70
g2413
sg63
(lp2429
g56
(g57
g58
NtRp2430
(dp2431
g61
(dp2432
g69
I5
ssg70
g2426
sg63
(lp2433
g56
(g65
g58
NtRp2434
(dp2435
g61
(dp2436
g69
I4
ssg70
Nsg63
(lp2437
sbasbasbasbag56
(g72
g58
NtRp2438
(dp2439
g61
(dp2440
sg70
g66
sg63
(lp2441
g56
(g77
g58
NtRp2442
(dp2443
g61
(dp2444
g81
g82
ssg70
g2438
sg63
(lp2445
S'is_https'
p2446
asbag56
(g77
g58
NtRp2447
(dp2448
g61
(dp2449
g88
g89
ssg70
g2438
sg63
(lp2450
S':'
asbag56
(g77
g58
NtRp2451
(dp2452
g61
(dp2453
sg70
g2438
sg63
(lp2454
g56
(g57
g58
NtRp2455
(dp2456
g61
(dp2457
g69
I5
ssg70
g2451
sg63
(lp2458
g99
asbasbasbag56
(g72
g58
NtRp2459
(dp2460
g61
(dp2461
sg70
g66
sg63
(lp2462
g56
(g77
g58
NtRp2463
(dp2464
g61
(dp2465
g81
g82
ssg70
g2459
sg63
(lp2466
S'is_local'
p2467
asbag56
(g77
g58
NtRp2468
(dp2469
g61
(dp2470
g88
g89
ssg70
g2459
sg63
(lp2471
S':'
asbag56
(g77
g58
NtRp2472
(dp2473
g61
(dp2474
sg70
g2459
sg63
(lp2475
g56
(g57
g58
NtRp2476
(dp2477
g61
(dp2478
g69
I5
ssg70
g2472
sg63
(lp2479
g2254
asbasbasbag56
(g72
g58
NtRp2480
(dp2481
g61
(dp2482
sg70
g66
sg63
(lp2483
g56
(g77
g58
NtRp2484
(dp2485
g61
(dp2486
g81
g82
ssg70
g2480
sg63
(lp2487
S'is_restful'
p2488
asbag56
(g77
g58
NtRp2489
(dp2490
g61
(dp2491
g88
g89
ssg70
g2480
sg63
(lp2492
S':'
asbag56
(g77
g58
NtRp2493
(dp2494
g61
(dp2495
sg70
g2480
sg63
(lp2496
g56
(g57
g58
NtRp2497
(dp2498
g61
(dp2499
g69
I5
ssg70
g2493
sg63
(lp2500
g99
asbasbasbag56
(g72
g58
NtRp2501
(dp2502
g61
(dp2503
sg70
g66
sg63
(lp2504
g56
(g77
g58
NtRp2505
(dp2506
g61
(dp2507
g81
g82
ssg70
g2501
sg63
(lp2508
S'now'
p2509
asbag56
(g77
g58
NtRp2510
(dp2511
g61
(dp2512
g88
g89
ssg70
g2501
sg63
(lp2513
S':'
asbag56
(g77
g58
NtRp2514
(dp2515
g61
(dp2516
sg70
g2501
sg63
(lp2517
g56
(g57
g58
NtRp2518
(dp2519
g61
(dp2520
g69
I5
ssg70
g2514
sg63
(lp2521
S'datetime.datetime(2011, 6, 18, 0, 54, 36, 52596)'
p2522
asbasbasbag56
(g72
g58
NtRp2523
(dp2524
g61
(dp2525
sg70
g66
sg63
(lp2526
g56
(g77
g58
NtRp2527
(dp2528
g61
(dp2529
g81
g82
ssg70
g2523
sg63
(lp2530
S'post_vars'
p2531
asbag56
(g77
g58
NtRp2532
(dp2533
g61
(dp2534
g88
g89
ssg70
g2523
sg63
(lp2535
S':'
asbag56
(g77
g58
NtRp2536
(dp2537
g61
(dp2538
sg70
g2523
sg63
(lp2539
g56
(g57
g58
NtRp2540
(dp2541
g61
(dp2542
g69
I5
ssg70
g2536
sg63
(lp2543
g56
(g65
g58
NtRp2544
(dp2545
g61
(dp2546
g69
I4
ssg70
Nsg63
(lp2547
g56
(g72
g58
NtRp2548
(dp2549
g61
(dp2550
sg70
g2544
sg63
(lp2551
g56
(g77
g58
NtRp2552
(dp2553
g61
(dp2554
g81
g82
ssg70
g2548
sg63
(lp2555
S'cliente'
p2556
asbag56
(g77
g58
NtRp2557
(dp2558
g61
(dp2559
g88
g89
ssg70
g2548
sg63
(lp2560
S':'
asbag56
(g77
g58
NtRp2561
(dp2562
g61
(dp2563
sg70
g2548
sg63
(lp2564
g56
(g57
g58
NtRp2565
(dp2566
g61
(dp2567
g69
I4
ssg70
g2561
sg63
(lp2568
S''
asbasbasbag56
(g72
g58
NtRp2569
(dp2570
g61
(dp2571
sg70
g2544
sg63
(lp2572
g56
(g77
g58
NtRp2573
(dp2574
g61
(dp2575
g81
g82
ssg70
g2569
sg63
(lp2576
S'devol'
p2577
asbag56
(g77
g58
NtRp2578
(dp2579
g61
(dp2580
g88
g89
ssg70
g2569
sg63
(lp2581
S':'
asbag56
(g77
g58
NtRp2582
(dp2583
g61
(dp2584
sg70
g2569
sg63
(lp2585
g56
(g57
g58
NtRp2586
(dp2587
g61
(dp2588
g69
I4
ssg70
g2582
sg63
(lp2589
S''
asbasbasbag56
(g72
g58
NtRp2590
(dp2591
g61
(dp2592
sg70
g2544
sg63
(lp2593
g56
(g77
g58
NtRp2594
(dp2595
g61
(dp2596
g81
g82
ssg70
g2590
sg63
(lp2597
S'empleado'
p2598
asbag56
(g77
g58
NtRp2599
(dp2600
g61
(dp2601
g88
g89
ssg70
g2590
sg63
(lp2602
S':'
asbag56
(g77
g58
NtRp2603
(dp2604
g61
(dp2605
sg70
g2590
sg63
(lp2606
g56
(g57
g58
NtRp2607
(dp2608
g61
(dp2609
g69
I4
ssg70
g2603
sg63
(lp2610
S''
asbasbasbag56
(g72
g58
NtRp2611
(dp2612
g61
(dp2613
sg70
g2544
sg63
(lp2614
g56
(g77
g58
NtRp2615
(dp2616
g61
(dp2617
g81
g82
ssg70
g2611
sg63
(lp2618
S'fecha'
p2619
asbag56
(g77
g58
NtRp2620
(dp2621
g61
(dp2622
g88
g89
ssg70
g2611
sg63
(lp2623
S':'
asbag56
(g77
g58
NtRp2624
(dp2625
g61
(dp2626
sg70
g2611
sg63
(lp2627
g56
(g57
g58
NtRp2628
(dp2629
g61
(dp2630
g69
I4
ssg70
g2624
sg63
(lp2631
S''
asbasbasbag56
(g72
g58
NtRp2632
(dp2633
g61
(dp2634
sg70
g2544
sg63
(lp2635
g56
(g77
g58
NtRp2636
(dp2637
g61
(dp2638
g81
g82
ssg70
g2632
sg63
(lp2639
S'titulo'
p2640
asbag56
(g77
g58
NtRp2641
(dp2642
g61
(dp2643
g88
g89
ssg70
g2632
sg63
(lp2644
S':'
asbag56
(g77
g58
NtRp2645
(dp2646
g61
(dp2647
sg70
g2632
sg63
(lp2648
g56
(g57
g58
NtRp2649
(dp2650
g61
(dp2651
g69
I4
ssg70
g2645
sg63
(lp2652
S''
asbasbasbasbasbasbasbag56
(g72
g58
NtRp2653
(dp2654
g61
(dp2655
sg70
g66
sg63
(lp2656
g56
(g77
g58
NtRp2657
(dp2658
g61
(dp2659
g81
g82
ssg70
g2653
sg63
(lp2660
S'url'
p2661
asbag56
(g77
g58
NtRp2662
(dp2663
g61
(dp2664
g88
g89
ssg70
g2653
sg63
(lp2665
S':'
asbag56
(g77
g58
NtRp2666
(dp2667
g61
(dp2668
sg70
g2653
sg63
(lp2669
g56
(g57
g58
NtRp2670
(dp2671
g61
(dp2672
g69
I5
ssg70
g2666
sg63
(lp2673
S'/mvstore/default/prestamos'
p2674
asbasbasbag56
(g72
g58
NtRp2675
(dp2676
g61
(dp2677
sg70
g66
sg63
(lp2678
g56
(g77
g58
NtRp2679
(dp2680
g61
(dp2681
g81
g82
ssg70
g2675
sg63
(lp2682
S'uuid'
p2683
asbag56
(g77
g58
NtRp2684
(dp2685
g61
(dp2686
g88
g89
ssg70
g2675
sg63
(lp2687
S':'
asbag56
(g77
g58
NtRp2688
(dp2689
g61
(dp2690
sg70
g2675
sg63
(lp2691
g56
(g57
g58
NtRp2692
(dp2693
g61
(dp2694
g69
I5
ssg70
g2688
sg63
(lp2695
S'mvstore/127.0.0.1.2011-06-18.00-54-36.d9a17e91-9aea-461c-abec-0aaf4f8e0fe3'
p2696
asbasbasbag56
(g72
g58
NtRp2697
(dp2698
g61
(dp2699
sg70
g66
sg63
(lp2700
g56
(g77
g58
NtRp2701
(dp2702
g61
(dp2703
g81
g82
ssg70
g2697
sg63
(lp2704
S'vars'
p2705
asbag56
(g77
g58
NtRp2706
(dp2707
g61
(dp2708
g88
g89
ssg70
g2697
sg63
(lp2709
S':'
asbag56
(g77
g58
NtRp2710
(dp2711
g61
(dp2712
sg70
g2697
sg63
(lp2713
g56
(g57
g58
NtRp2714
(dp2715
g61
(dp2716
g69
I5
ssg70
g2710
sg63
(lp2717
g56
(g65
g58
NtRp2718
(dp2719
g61
(dp2720
g69
I4
ssg70
Nsg63
(lp2721
g56
(g72
g58
NtRp2722
(dp2723
g61
(dp2724
sg70
g2718
sg63
(lp2725
g56
(g77
g58
NtRp2726
(dp2727
g61
(dp2728
g81
g82
ssg70
g2722
sg63
(lp2729
g2556
asbag56
(g77
g58
NtRp2730
(dp2731
g61
(dp2732
g88
g89
ssg70
g2722
sg63
(lp2733
S':'
asbag56
(g77
g58
NtRp2734
(dp2735
g61
(dp2736
sg70
g2722
sg63
(lp2737
g56
(g57
g58
NtRp2738
(dp2739
g61
(dp2740
g69
I4
ssg70
g2734
sg63
(lp2741
S''
asbasbasbag56
(g72
g58
NtRp2742
(dp2743
g61
(dp2744
sg70
g2718
sg63
(lp2745
g56
(g77
g58
NtRp2746
(dp2747
g61
(dp2748
g81
g82
ssg70
g2742
sg63
(lp2749
g2577
asbag56
(g77
g58
NtRp2750
(dp2751
g61
(dp2752
g88
g89
ssg70
g2742
sg63
(lp2753
S':'
asbag56
(g77
g58
NtRp2754
(dp2755
g61
(dp2756
sg70
g2742
sg63
(lp2757
g56
(g57
g58
NtRp2758
(dp2759
g61
(dp2760
g69
I4
ssg70
g2754
sg63
(lp2761
S''
asbasbasbag56
(g72
g58
NtRp2762
(dp2763
g61
(dp2764
sg70
g2718
sg63
(lp2765
g56
(g77
g58
NtRp2766
(dp2767
g61
(dp2768
g81
g82
ssg70
g2762
sg63
(lp2769
g2598
asbag56
(g77
g58
NtRp2770
(dp2771
g61
(dp2772
g88
g89
ssg70
g2762
sg63
(lp2773
S':'
asbag56
(g77
g58
NtRp2774
(dp2775
g61
(dp2776
sg70
g2762
sg63
(lp2777
g56
(g57
g58
NtRp2778
(dp2779
g61
(dp2780
g69
I4
ssg70
g2774
sg63
(lp2781
S''
asbasbasbag56
(g72
g58
NtRp2782
(dp2783
g61
(dp2784
sg70
g2718
sg63
(lp2785
g56
(g77
g58
NtRp2786
(dp2787
g61
(dp2788
g81
g82
ssg70
g2782
sg63
(lp2789
g2619
asbag56
(g77
g58
NtRp2790
(dp2791
g61
(dp2792
g88
g89
ssg70
g2782
sg63
(lp2793
S':'
asbag56
(g77
g58
NtRp2794
(dp2795
g61
(dp2796
sg70
g2782
sg63
(lp2797
g56
(g57
g58
NtRp2798
(dp2799
g61
(dp2800
g69
I4
ssg70
g2794
sg63
(lp2801
S''
asbasbasbag56
(g72
g58
NtRp2802
(dp2803
g61
(dp2804
sg70
g2718
sg63
(lp2805
g56
(g77
g58
NtRp2806
(dp2807
g61
(dp2808
g81
g82
ssg70
g2802
sg63
(lp2809
g2640
asbag56
(g77
g58
NtRp2810
(dp2811
g61
(dp2812
g88
g89
ssg70
g2802
sg63
(lp2813
S':'
asbag56
(g77
g58
NtRp2814
(dp2815
g61
(dp2816
sg70
g2802
sg63
(lp2817
g56
(g57
g58
NtRp2818
(dp2819
g61
(dp2820
g69
I4
ssg70
g2814
sg63
(lp2821
S''
asbasbasbasbasbasbasbag56
(g72
g58
NtRp2822
(dp2823
g61
(dp2824
sg70
g66
sg63
(lp2825
g56
(g77
g58
NtRp2826
(dp2827
g61
(dp2828
g81
g82
ssg70
g2822
sg63
(lp2829
S'wsgi'
p2830
asbag56
(g77
g58
NtRp2831
(dp2832
g61
(dp2833
g88
g89
ssg70
g2822
sg63
(lp2834
S':'
asbag56
(g77
g58
NtRp2835
(dp2836
g61
(dp2837
sg70
g2822
sg63
(lp2838
g56
(g57
g58
NtRp2839
(dp2840
g61
(dp2841
g69
I5
ssg70
g2835
sg63
(lp2842
g56
(g65
g58
NtRp2843
(dp2844
g61
(dp2845
g69
I4
ssg70
Nsg63
(lp2846
g56
(g72
g58
NtRp2847
(dp2848
g61
(dp2849
sg70
g2843
sg63
(lp2850
g56
(g77
g58
NtRp2851
(dp2852
g61
(dp2853
g81
g82
ssg70
g2847
sg63
(lp2854
S'environ'
p2855
asbag56
(g77
g58
NtRp2856
(dp2857
g61
(dp2858
g88
g89
ssg70
g2847
sg63
(lp2859
S':'
asbag56
(g77
g58
NtRp2860
(dp2861
g61
(dp2862
sg70
g2847
sg63
(lp2863
g56
(g57
g58
NtRp2864
(dp2865
g61
(dp2866
g69
I4
ssg70
g2860
sg63
(lp2867
g56
(g65
g58
NtRp2868
(dp2869
g61
(dp2870
g69
I3
ssg70
Nsg63
(lp2871
g56
(g72
g58
NtRp2872
(dp2873
g61
(dp2874
sg70
g2868
sg63
(lp2875
g56
(g77
g58
NtRp2876
(dp2877
g61
(dp2878
g81
g82
ssg70
g2872
sg63
(lp2879
S'CONTENT_LENGTH'
p2880
asbag56
(g77
g58
NtRp2881
(dp2882
g61
(dp2883
g88
g89
ssg70
g2872
sg63
(lp2884
S':'
asbag56
(g77
g58
NtRp2885
(dp2886
g61
(dp2887
sg70
g2872
sg63
(lp2888
g56
(g57
g58
NtRp2889
(dp2890
g61
(dp2891
g69
I3
ssg70
g2885
sg63
(lp2892
g1492
asbasbasbag56
(g72
g58
NtRp2893
(dp2894
g61
(dp2895
sg70
g2868
sg63
(lp2896
g56
(g77
g58
NtRp2897
(dp2898
g61
(dp2899
g81
g82
ssg70
g2893
sg63
(lp2900
S'CONTENT_TYPE'
p2901
asbag56
(g77
g58
NtRp2902
(dp2903
g61
(dp2904
g88
g89
ssg70
g2893
sg63
(lp2905
S':'
asbag56
(g77
g58
NtRp2906
(dp2907
g61
(dp2908
sg70
g2893
sg63
(lp2909
g56
(g57
g58
NtRp2910
(dp2911
g61
(dp2912
g69
I3
ssg70
g2906
sg63
(lp2913
g1514
asbasbasbag56
(g72
g58
NtRp2914
(dp2915
g61
(dp2916
sg70
g2868
sg63
(lp2917
g56
(g77
g58
NtRp2918
(dp2919
g61
(dp2920
g81
g82
ssg70
g2914
sg63
(lp2921
S'HTTP_ACCEPT'
p2922
asbag56
(g77
g58
NtRp2923
(dp2924
g61
(dp2925
g88
g89
ssg70
g2914
sg63
(lp2926
S':'
asbag56
(g77
g58
NtRp2927
(dp2928
g61
(dp2929
sg70
g2914
sg63
(lp2930
g56
(g57
g58
NtRp2931
(dp2932
g61
(dp2933
g69
I3
ssg70
g2927
sg63
(lp2934
g1601
asbasbasbag56
(g72
g58
NtRp2935
(dp2936
g61
(dp2937
sg70
g2868
sg63
(lp2938
g56
(g77
g58
NtRp2939
(dp2940
g61
(dp2941
g81
g82
ssg70
g2935
sg63
(lp2942
S'HTTP_ACCEPT_CHARSET'
p2943
asbag56
(g77
g58
NtRp2944
(dp2945
g61
(dp2946
g88
g89
ssg70
g2935
sg63
(lp2947
S':'
asbag56
(g77
g58
NtRp2948
(dp2949
g61
(dp2950
sg70
g2935
sg63
(lp2951
g56
(g57
g58
NtRp2952
(dp2953
g61
(dp2954
g69
I3
ssg70
g2948
sg63
(lp2955
g1623
asbasbasbag56
(g72
g58
NtRp2956
(dp2957
g61
(dp2958
sg70
g2868
sg63
(lp2959
g56
(g77
g58
NtRp2960
(dp2961
g61
(dp2962
g81
g82
ssg70
g2956
sg63
(lp2963
S'HTTP_ACCEPT_ENCODING'
p2964
asbag56
(g77
g58
NtRp2965
(dp2966
g61
(dp2967
g88
g89
ssg70
g2956
sg63
(lp2968
S':'
asbag56
(g77
g58
NtRp2969
(dp2970
g61
(dp2971
sg70
g2956
sg63
(lp2972
g56
(g57
g58
NtRp2973
(dp2974
g61
(dp2975
g69
I3
ssg70
g2969
sg63
(lp2976
g1645
asbasbasbag56
(g72
g58
NtRp2977
(dp2978
g61
(dp2979
sg70
g2868
sg63
(lp2980
g56
(g77
g58
NtRp2981
(dp2982
g61
(dp2983
g81
g82
ssg70
g2977
sg63
(lp2984
S'HTTP_ACCEPT_LANGUAGE'
p2985
asbag56
(g77
g58
NtRp2986
(dp2987
g61
(dp2988
g88
g89
ssg70
g2977
sg63
(lp2989
S':'
asbag56
(g77
g58
NtRp2990
(dp2991
g61
(dp2992
sg70
g2977
sg63
(lp2993
g56
(g57
g58
NtRp2994
(dp2995
g61
(dp2996
g69
I3
ssg70
g2990
sg63
(lp2997
g1667
asbasbasbag56
(g72
g58
NtRp2998
(dp2999
g61
(dp3000
sg70
g2868
sg63
(lp3001
g56
(g77
g58
NtRp3002
(dp3003
g61
(dp3004
g81
g82
ssg70
g2998
sg63
(lp3005
S'HTTP_CACHE_CONTROL'
p3006
asbag56
(g77
g58
NtRp3007
(dp3008
g61
(dp3009
g88
g89
ssg70
g2998
sg63
(lp3010
S':'
asbag56
(g77
g58
NtRp3011
(dp3012
g61
(dp3013
sg70
g2998
sg63
(lp3014
g56
(g57
g58
NtRp3015
(dp3016
g61
(dp3017
g69
I3
ssg70
g3011
sg63
(lp3018
g1689
asbasbasbag56
(g72
g58
NtRp3019
(dp3020
g61
(dp3021
sg70
g2868
sg63
(lp3022
g56
(g77
g58
NtRp3023
(dp3024
g61
(dp3025
g81
g82
ssg70
g3019
sg63
(lp3026
S'HTTP_CONNECTION'
p3027
asbag56
(g77
g58
NtRp3028
(dp3029
g61
(dp3030
g88
g89
ssg70
g3019
sg63
(lp3031
S':'
asbag56
(g77
g58
NtRp3032
(dp3033
g61
(dp3034
sg70
g3019
sg63
(lp3035
g56
(g57
g58
NtRp3036
(dp3037
g61
(dp3038
g69
I3
ssg70
g3032
sg63
(lp3039
g1711
asbasbasbag56
(g72
g58
NtRp3040
(dp3041
g61
(dp3042
sg70
g2868
sg63
(lp3043
g56
(g77
g58
NtRp3044
(dp3045
g61
(dp3046
g81
g82
ssg70
g3040
sg63
(lp3047
S'HTTP_CONTENT_LENGTH'
p3048
asbag56
(g77
g58
NtRp3049
(dp3050
g61
(dp3051
g88
g89
ssg70
g3040
sg63
(lp3052
S':'
asbag56
(g77
g58
NtRp3053
(dp3054
g61
(dp3055
sg70
g3040
sg63
(lp3056
g56
(g57
g58
NtRp3057
(dp3058
g61
(dp3059
g69
I3
ssg70
g3053
sg63
(lp3060
g1492
asbasbasbag56
(g72
g58
NtRp3061
(dp3062
g61
(dp3063
sg70
g2868
sg63
(lp3064
g56
(g77
g58
NtRp3065
(dp3066
g61
(dp3067
g81
g82
ssg70
g3061
sg63
(lp3068
S'HTTP_CONTENT_TYPE'
p3069
asbag56
(g77
g58
NtRp3070
(dp3071
g61
(dp3072
g88
g89
ssg70
g3061
sg63
(lp3073
S':'
asbag56
(g77
g58
NtRp3074
(dp3075
g61
(dp3076
sg70
g3061
sg63
(lp3077
g56
(g57
g58
NtRp3078
(dp3079
g61
(dp3080
g69
I3
ssg70
g3074
sg63
(lp3081
g1514
asbasbasbag56
(g72
g58
NtRp3082
(dp3083
g61
(dp3084
sg70
g2868
sg63
(lp3085
g56
(g77
g58
NtRp3086
(dp3087
g61
(dp3088
g81
g82
ssg70
g3082
sg63
(lp3089
S'HTTP_COOKIE'
p3090
asbag56
(g77
g58
NtRp3091
(dp3092
g61
(dp3093
g88
g89
ssg70
g3082
sg63
(lp3094
S':'
asbag56
(g77
g58
NtRp3095
(dp3096
g61
(dp3097
sg70
g3082
sg63
(lp3098
g56
(g57
g58
NtRp3099
(dp3100
g61
(dp3101
g69
I3
ssg70
g3095
sg63
(lp3102
g1775
asbasbasbag56
(g72
g58
NtRp3103
(dp3104
g61
(dp3105
sg70
g2868
sg63
(lp3106
g56
(g77
g58
NtRp3107
(dp3108
g61
(dp3109
g81
g82
ssg70
g3103
sg63
(lp3110
S'HTTP_HOST'
p3111
asbag56
(g77
g58
NtRp3112
(dp3113
g61
(dp3114
g88
g89
ssg70
g3103
sg63
(lp3115
S':'
asbag56
(g77
g58
NtRp3116
(dp3117
g61
(dp3118
sg70
g3103
sg63
(lp3119
g56
(g57
g58
NtRp3120
(dp3121
g61
(dp3122
g69
I3
ssg70
g3116
sg63
(lp3123
g1797
asbasbasbag56
(g72
g58
NtRp3124
(dp3125
g61
(dp3126
sg70
g2868
sg63
(lp3127
g56
(g77
g58
NtRp3128
(dp3129
g61
(dp3130
g81
g82
ssg70
g3124
sg63
(lp3131
S'HTTP_ORIGIN'
p3132
asbag56
(g77
g58
NtRp3133
(dp3134
g61
(dp3135
g88
g89
ssg70
g3124
sg63
(lp3136
S':'
asbag56
(g77
g58
NtRp3137
(dp3138
g61
(dp3139
sg70
g3124
sg63
(lp3140
g56
(g57
g58
NtRp3141
(dp3142
g61
(dp3143
g69
I3
ssg70
g3137
sg63
(lp3144
g1819
asbasbasbag56
(g72
g58
NtRp3145
(dp3146
g61
(dp3147
sg70
g2868
sg63
(lp3148
g56
(g77
g58
NtRp3149
(dp3150
g61
(dp3151
g81
g82
ssg70
g3145
sg63
(lp3152
S'HTTP_REFERER'
p3153
asbag56
(g77
g58
NtRp3154
(dp3155
g61
(dp3156
g88
g89
ssg70
g3145
sg63
(lp3157
S':'
asbag56
(g77
g58
NtRp3158
(dp3159
g61
(dp3160
sg70
g3145
sg63
(lp3161
g56
(g57
g58
NtRp3162
(dp3163
g61
(dp3164
g69
I3
ssg70
g3158
sg63
(lp3165
g1841
asbasbasbag56
(g72
g58
NtRp3166
(dp3167
g61
(dp3168
sg70
g2868
sg63
(lp3169
g56
(g77
g58
NtRp3170
(dp3171
g61
(dp3172
g81
g82
ssg70
g3166
sg63
(lp3173
S'HTTP_USER_AGENT'
p3174
asbag56
(g77
g58
NtRp3175
(dp3176
g61
(dp3177
g88
g89
ssg70
g3166
sg63
(lp3178
S':'
asbag56
(g77
g58
NtRp3179
(dp3180
g61
(dp3181
sg70
g3166
sg63
(lp3182
g56
(g57
g58
NtRp3183
(dp3184
g61
(dp3185
g69
I3
ssg70
g3179
sg63
(lp3186
g1863
asbasbasbag56
(g72
g58
NtRp3187
(dp3188
g61
(dp3189
sg70
g2868
sg63
(lp3190
g56
(g77
g58
NtRp3191
(dp3192
g61
(dp3193
g81
g82
ssg70
g3187
sg63
(lp3194
S'PATH_INFO'
p3195
asbag56
(g77
g58
NtRp3196
(dp3197
g61
(dp3198
g88
g89
ssg70
g3187
sg63
(lp3199
S':'
asbag56
(g77
g58
NtRp3200
(dp3201
g61
(dp3202
sg70
g3187
sg63
(lp3203
g56
(g57
g58
NtRp3204
(dp3205
g61
(dp3206
g69
I3
ssg70
g3200
sg63
(lp3207
g1885
asbasbasbag56
(g72
g58
NtRp3208
(dp3209
g61
(dp3210
sg70
g2868
sg63
(lp3211
g56
(g77
g58
NtRp3212
(dp3213
g61
(dp3214
g81
g82
ssg70
g3208
sg63
(lp3215
S'QUERY_STRING'
p3216
asbag56
(g77
g58
NtRp3217
(dp3218
g61
(dp3219
g88
g89
ssg70
g3208
sg63
(lp3220
S':'
asbag56
(g77
g58
NtRp3221
(dp3222
g61
(dp3223
sg70
g3208
sg63
(lp3224
g56
(g57
g58
NtRp3225
(dp3226
g61
(dp3227
g69
I3
ssg70
g3221
sg63
(lp3228
S''
asbasbasbag56
(g72
g58
NtRp3229
(dp3230
g61
(dp3231
sg70
g2868
sg63
(lp3232
g56
(g77
g58
NtRp3233
(dp3234
g61
(dp3235
g81
g82
ssg70
g3229
sg63
(lp3236
S'REMOTE_ADDR'
p3237
asbag56
(g77
g58
NtRp3238
(dp3239
g61
(dp3240
g88
g89
ssg70
g3229
sg63
(lp3241
S':'
asbag56
(g77
g58
NtRp3242
(dp3243
g61
(dp3244
sg70
g3229
sg63
(lp3245
g56
(g57
g58
NtRp3246
(dp3247
g61
(dp3248
g69
I3
ssg70
g3242
sg63
(lp3249
g189
asbasbasbag56
(g72
g58
NtRp3250
(dp3251
g61
(dp3252
sg70
g2868
sg63
(lp3253
g56
(g77
g58
NtRp3254
(dp3255
g61
(dp3256
g81
g82
ssg70
g3250
sg63
(lp3257
S'REMOTE_PORT'
p3258
asbag56
(g77
g58
NtRp3259
(dp3260
g61
(dp3261
g88
g89
ssg70
g3250
sg63
(lp3262
S':'
asbag56
(g77
g58
NtRp3263
(dp3264
g61
(dp3265
sg70
g3250
sg63
(lp3266
g56
(g57
g58
NtRp3267
(dp3268
g61
(dp3269
g69
I3
ssg70
g3263
sg63
(lp3270
g1949
asbasbasbag56
(g72
g58
NtRp3271
(dp3272
g61
(dp3273
sg70
g2868
sg63
(lp3274
g56
(g77
g58
NtRp3275
(dp3276
g61
(dp3277
g81
g82
ssg70
g3271
sg63
(lp3278
S'REQUEST_METHOD'
p3279
asbag56
(g77
g58
NtRp3280
(dp3281
g61
(dp3282
g88
g89
ssg70
g3271
sg63
(lp3283
S':'
asbag56
(g77
g58
NtRp3284
(dp3285
g61
(dp3286
sg70
g3271
sg63
(lp3287
g56
(g57
g58
NtRp3288
(dp3289
g61
(dp3290
g69
I3
ssg70
g3284
sg63
(lp3291
g1971
asbasbasbag56
(g72
g58
NtRp3292
(dp3293
g61
(dp3294
sg70
g2868
sg63
(lp3295
g56
(g77
g58
NtRp3296
(dp3297
g61
(dp3298
g81
g82
ssg70
g3292
sg63
(lp3299
S'SCRIPT_NAME'
p3300
asbag56
(g77
g58
NtRp3301
(dp3302
g61
(dp3303
g88
g89
ssg70
g3292
sg63
(lp3304
S':'
asbag56
(g77
g58
NtRp3305
(dp3306
g61
(dp3307
sg70
g3292
sg63
(lp3308
g56
(g57
g58
NtRp3309
(dp3310
g61
(dp3311
g69
I3
ssg70
g3305
sg63
(lp3312
S''
asbasbasbag56
(g72
g58
NtRp3313
(dp3314
g61
(dp3315
sg70
g2868
sg63
(lp3316
g56
(g77
g58
NtRp3317
(dp3318
g61
(dp3319
g81
g82
ssg70
g3313
sg63
(lp3320
S'SERVER_NAME'
p3321
asbag56
(g77
g58
NtRp3322
(dp3323
g61
(dp3324
g88
g89
ssg70
g3313
sg63
(lp3325
S':'
asbag56
(g77
g58
NtRp3326
(dp3327
g61
(dp3328
sg70
g3313
sg63
(lp3329
g56
(g57
g58
NtRp3330
(dp3331
g61
(dp3332
g69
I3
ssg70
g3326
sg63
(lp3333
g2014
asbasbasbag56
(g72
g58
NtRp3334
(dp3335
g61
(dp3336
sg70
g2868
sg63
(lp3337
g56
(g77
g58
NtRp3338
(dp3339
g61
(dp3340
g81
g82
ssg70
g3334
sg63
(lp3341
S'SERVER_PORT'
p3342
asbag56
(g77
g58
NtRp3343
(dp3344
g61
(dp3345
g88
g89
ssg70
g3334
sg63
(lp3346
S':'
asbag56
(g77
g58
NtRp3347
(dp3348
g61
(dp3349
sg70
g3334
sg63
(lp3350
g56
(g57
g58
NtRp3351
(dp3352
g61
(dp3353
g69
I3
ssg70
g3347
sg63
(lp3354
g2036
asbasbasbag56
(g72
g58
NtRp3355
(dp3356
g61
(dp3357
sg70
g2868
sg63
(lp3358
g56
(g77
g58
NtRp3359
(dp3360
g61
(dp3361
g81
g82
ssg70
g3355
sg63
(lp3362
S'SERVER_PROTOCOL'
p3363
asbag56
(g77
g58
NtRp3364
(dp3365
g61
(dp3366
g88
g89
ssg70
g3355
sg63
(lp3367
S':'
asbag56
(g77
g58
NtRp3368
(dp3369
g61
(dp3370
sg70
g3355
sg63
(lp3371
g56
(g57
g58
NtRp3372
(dp3373
g61
(dp3374
g69
I3
ssg70
g3368
sg63
(lp3375
g2058
asbasbasbag56
(g72
g58
NtRp3376
(dp3377
g61
(dp3378
sg70
g2868
sg63
(lp3379
g56
(g77
g58
NtRp3380
(dp3381
g61
(dp3382
g81
g82
ssg70
g3376
sg63
(lp3383
S'SERVER_SOFTWARE'
p3384
asbag56
(g77
g58
NtRp3385
(dp3386
g61
(dp3387
g88
g89
ssg70
g3376
sg63
(lp3388
S':'
asbag56
(g77
g58
NtRp3389
(dp3390
g61
(dp3391
sg70
g3376
sg63
(lp3392
g56
(g57
g58
NtRp3393
(dp3394
g61
(dp3395
g69
I3
ssg70
g3389
sg63
(lp3396
g2080
asbasbasbag56
(g72
g58
NtRp3397
(dp3398
g61
(dp3399
sg70
g2868
sg63
(lp3400
g56
(g77
g58
NtRp3401
(dp3402
g61
(dp3403
g81
g82
ssg70
g3397
sg63
(lp3404
S'wsgi.errors'
p3405
asbag56
(g77
g58
NtRp3406
(dp3407
g61
(dp3408
g88
g89
ssg70
g3397
sg63
(lp3409
S':'
asbag56
(g77
g58
NtRp3410
(dp3411
g61
(dp3412
sg70
g3397
sg63
(lp3413
g56
(g57
g58
NtRp3414
(dp3415
g61
(dp3416
g69
I3
ssg70
g3410
sg63
(lp3417
S"<open file '<stderr>', mode 'w' at 0x7f8a1045a1e0>"
p3418
asbasbasbag56
(g72
g58
NtRp3419
(dp3420
g61
(dp3421
sg70
g2868
sg63
(lp3422
g56
(g77
g58
NtRp3423
(dp3424
g61
(dp3425
g81
g82
ssg70
g3419
sg63
(lp3426
S'wsgi.file_wrapper'
p3427
asbag56
(g77
g58
NtRp3428
(dp3429
g61
(dp3430
g88
g89
ssg70
g3419
sg63
(lp3431
S':'
asbag56
(g77
g58
NtRp3432
(dp3433
g61
(dp3434
sg70
g3419
sg63
(lp3435
g56
(g57
g58
NtRp3436
(dp3437
g61
(dp3438
g69
I3
ssg70
g3432
sg63
(lp3439
S'<class gluon.rocket.FileWrapper at 0x1e6f3b0>'
p3440
asbasbasbag56
(g72
g58
NtRp3441
(dp3442
g61
(dp3443
sg70
g2868
sg63
(lp3444
g56
(g77
g58
NtRp3445
(dp3446
g61
(dp3447
g81
g82
ssg70
g3441
sg63
(lp3448
S'wsgi.input'
p3449
asbag56
(g77
g58
NtRp3450
(dp3451
g61
(dp3452
g88
g89
ssg70
g3441
sg63
(lp3453
S':'
asbag56
(g77
g58
NtRp3454
(dp3455
g61
(dp3456
sg70
g3441
sg63
(lp3457
g56
(g57
g58
NtRp3458
(dp3459
g61
(dp3460
g69
I3
ssg70
g3454
sg63
(lp3461
S"<open file '<fdopen>', mode 'w+b' at 0x2c4eb70>"
p3462
asbasbasbag56
(g72
g58
NtRp3463
(dp3464
g61
(dp3465
sg70
g2868
sg63
(lp3466
g56
(g77
g58
NtRp3467
(dp3468
g61
(dp3469
g81
g82
ssg70
g3463
sg63
(lp3470
S'wsgi.multiprocess'
p3471
asbag56
(g77
g58
NtRp3472
(dp3473
g61
(dp3474
g88
g89
ssg70
g3463
sg63
(lp3475
S':'
asbag56
(g77
g58
NtRp3476
(dp3477
g61
(dp3478
sg70
g3463
sg63
(lp3479
g56
(g57
g58
NtRp3480
(dp3481
g61
(dp3482
g69
I3
ssg70
g3476
sg63
(lp3483
g99
asbasbasbag56
(g72
g58
NtRp3484
(dp3485
g61
(dp3486
sg70
g2868
sg63
(lp3487
g56
(g77
g58
NtRp3488
(dp3489
g61
(dp3490
g81
g82
ssg70
g3484
sg63
(lp3491
S'wsgi.multithread'
p3492
asbag56
(g77
g58
NtRp3493
(dp3494
g61
(dp3495
g88
g89
ssg70
g3484
sg63
(lp3496
S':'
asbag56
(g77
g58
NtRp3497
(dp3498
g61
(dp3499
sg70
g3484
sg63
(lp3500
g56
(g57
g58
NtRp3501
(dp3502
g61
(dp3503
g69
I3
ssg70
g3497
sg63
(lp3504
g2254
asbasbasbag56
(g72
g58
NtRp3505
(dp3506
g61
(dp3507
sg70
g2868
sg63
(lp3508
g56
(g77
g58
NtRp3509
(dp3510
g61
(dp3511
g81
g82
ssg70
g3505
sg63
(lp3512
S'wsgi.run_once'
p3513
asbag56
(g77
g58
NtRp3514
(dp3515
g61
(dp3516
g88
g89
ssg70
g3505
sg63
(lp3517
S':'
asbag56
(g77
g58
NtRp3518
(dp3519
g61
(dp3520
sg70
g3505
sg63
(lp3521
g56
(g57
g58
NtRp3522
(dp3523
g61
(dp3524
g69
I3
ssg70
g3518
sg63
(lp3525
g99
asbasbasbag56
(g72
g58
NtRp3526
(dp3527
g61
(dp3528
sg70
g2868
sg63
(lp3529
g56
(g77
g58
NtRp3530
(dp3531
g61
(dp3532
g81
g82
ssg70
g3526
sg63
(lp3533
S'wsgi.url_scheme'
p3534
asbag56
(g77
g58
NtRp3535
(dp3536
g61
(dp3537
g88
g89
ssg70
g3526
sg63
(lp3538
S':'
asbag56
(g77
g58
NtRp3539
(dp3540
g61
(dp3541
sg70
g3526
sg63
(lp3542
g56
(g57
g58
NtRp3543
(dp3544
g61
(dp3545
g69
I3
ssg70
g3539
sg63
(lp3546
g2297
asbasbasbag56
(g72
g58
NtRp3547
(dp3548
g61
(dp3549
sg70
g2868
sg63
(lp3550
g56
(g77
g58
NtRp3551
(dp3552
g61
(dp3553
g81
g82
ssg70
g3547
sg63
(lp3554
S'wsgi.version'
p3555
asbag56
(g77
g58
NtRp3556
(dp3557
g61
(dp3558
g88
g89
ssg70
g3547
sg63
(lp3559
S':'
asbag56
(g77
g58
NtRp3560
(dp3561
g61
(dp3562
sg70
g3547
sg63
(lp3563
g56
(g57
g58
NtRp3564
(dp3565
g61
(dp3566
g69
I3
ssg70
g3560
sg63
(lp3567
S'1'
asbasbasbasbasbasbasbasbasbasbasbasbasbsS'frames'
p3568
(lp3569
(dp3570
S'file'
p3571
S'/home/marco/proyectos/web2py-trunk/gluon/restricted.py'
p3572
sS'dump'
p3573
(dp3574
S'environment'
p3575
S"{'A': <class 'gluon.html.A'>, 'Auth': <class 'gluon.tools.Auth'>, 'B': <class 'gluon.html.B'>, 'BEAUTIFY': <class 'gluon.html.BEAUTIFY'>, 'BODY': <class 'gluon.html.BODY'>, 'BR': <class 'gluon.html.BR'>, 'BUTTON': <class 'gluon.html.BUTTON'>, 'CENTER': <class 'gluon.html.CENTER'>, 'CLEANUP': <class 'gluon.validators.CLEANUP'>, 'CODE': <class 'gluon.html.CODE'>, ...}"
p3576
sS'ccode'
p3577
S'<code object <module> at 0x3558d50, file "/home/...cations/mvstore/controllers/default.py", line 12>'
p3578
ssS'lnum'
p3579
I192
sS'lines'
p3580
(dp3581
I192
S'        exec ccode in environment'
p3582
sI193
S'    except HTTP:'
p3583
sI194
S'        raise'
p3584
sI195
S'    except Exception:'
p3585
sI196
S'        # XXX Show exception in Wing IDE if running in debugger'
p3586
sI187
S'    try:'
p3587
sI188
S'        if type(code) == types.CodeType:'
p3588
sI189
S'            ccode = code'
p3589
sI190
S'        else:'
p3590
sI191
S'            ccode = compile2(code,layer)'
p3591
ssS'call'
p3592
S"(code='#-*- coding: utf-8 -*-\\n# this file is released u...rm)\\n\\n\\nresponse._vars=response._caller(prestamos)\\n', environment={'A': <class 'gluon.html.A'>, 'Auth': <class 'gluon.tools.Auth'>, 'B': <class 'gluon.html.B'>, 'BEAUTIFY': <class 'gluon.html.BEAUTIFY'>, 'BODY': <class 'gluon.html.BODY'>, 'BR': <class 'gluon.html.BR'>, 'BUTTON': <class 'gluon.html.BUTTON'>, 'CENTER': <class 'gluon.html.CENTER'>, 'CLEANUP': <class 'gluon.validators.CLEANUP'>, 'CODE': <class 'gluon.html.CODE'>, ...}, layer='/home/marco/proyectos/web2py-trunk/applications/mvstore/controllers/default.py')"
p3593
sS'func'
p3594
S'restricted'
p3595
sa(dp3596
g3571
S'/home/marco/proyectos/web2py-trunk/applications/mvstore/controllers/default.py'
p3597
sg3573
(dp3598
sg3579
I71
sg3580
(dp3599
I64
S'    return dict(form=form)'
p3600
sI65
S''
sI66
S'def prestamos():'
p3601
sI67
S'    form=crud.create(db.prestamos)'
p3602
sI68
S'    return dict(form=form)'
p3603
sI69
S''
sI60
S'    return dict(form=form)'
p3604
sI61
S''
sI62
S'def peliculas():'
p3605
sI63
S'    form=crud.create(db.peliculas)'
p3606
ssg3592
S'()'
p3607
sg3594
S'<module>'
p3608
sa(dp3609
g3571
S'/home/marco/proyectos/web2py-trunk/gluon/globals.py'
p3610
sg3573
(dp3611
S'self'
p3612
S'undefined'
p3613
sS'f'
S'<function prestamos>'
p3614
ssg3579
I137
sg3580
(dp3615
I132
S"        self.flash = ''           # used by the default view layout"
p3616
sI133
S'        self.meta = Storage()     # used by web2py_ajax.html'
p3617
sI134
S'        self.menu = []            # used by the default view layout'
p3618
sI135
S'        self.files = []           # used by web2py_ajax.html'
p3619
sI136
S'        self._vars = None'
p3620
sI137
S'        self._caller = lambda f: f()'
p3621
sI138
S'        self._view_environment = None'
p3622
sI139
S'        self._custom_commit = None'
p3623
sI140
S'        self._custom_rollback = None'
p3624
sI141
S''
ssg3592
S'(f=<function prestamos>)'
p3625
sg3594
S'<lambda>'
p3626
sa(dp3627
g3571
S'/home/marco/proyectos/web2py-trunk/applications/mvstore/controllers/default.py'
p3628
sg3573
(dp3629
S'global crud'
p3630
S'<gluon.tools.Crud object>'
p3631
sS'crud.create'
p3632
S'<bound method Crud.create of <gluon.tools.Crud object>>'
p3633
sS'global db'
p3634
S"<DAL {'auth_event': <Table {'origin': <gluon.dal..., 'id': <gluon.dal.Field object at 0x3cab510>}>}>"
p3635
sS'form'
p3636
g3613
sS'db.prestamos'
p3637
S"<Table {'mora': <gluon.dal.Field object at 0x36e...y-trunk/applications/mvstore/databases/sql.log'}>"
p3638
ssg3579
I67
sg3580
(dp3639
I64
S'    return dict(form=form)'
p3640
sI65
S''
sI66
S'def prestamos():'
p3641
sI67
S'    form=crud.create(db.prestamos)'
p3642
sI68
S'    return dict(form=form)'
p3643
sI69
S''
sI60
S'    return dict(form=form)'
p3644
sI61
S''
sI62
S'def peliculas():'
p3645
sI63
S'    form=crud.create(db.peliculas)'
p3646
ssg3592
S'()'
p3647
sg3594
S'prestamos'
p3648
sa(dp3649
g3571
S'/home/marco/proyectos/web2py-trunk/gluon/tools.py'
p3650
sg3573
(dp3651
S'formname'
p3652
S'<function <lambda>>'
p3653
ssg3579
I3120
sg3580
(dp3654
I3115
S'            onvalidation=onvalidation,'
p3655
sI3116
S'            onaccept=onaccept,'
p3656
sI3117
S'            log=log,'
p3657
sI3118
S'            message=message,'
p3658
sI3119
S'            deletable=False,'
p3659
sI3120
S'            formname=formname,'
p3660
sI3121
S'            )'
p3661
sI3122
S''
sI3123
S'    def read(self, table, record):'
p3662
sI3124
S'        if not (isinstance(table, self.db.Table) or table in self.db.tables) \\'
p3663
ssg3592
S"(self=<gluon.tools.Crud object>, table=<Table {'mora': <gluon.dal.Field object at 0x36e...y-trunk/applications/mvstore/databases/sql.log'}>, next=None, onvalidation=<Storage {}>, onaccept=<Storage {}>, log='Record %(id)s created', message='Record Created', formname=<function <lambda>>)"
p3664
sg3594
S'create'
p3665
sa(dp3666
g3571
S'/home/marco/proyectos/web2py-trunk/gluon/tools.py'
p3667
sg3573
(dp3668
S'formstyle'
p3669
g3613
sS'self'
p3670
S'<gluon.tools.Crud object>'
p3671
sS'self.settings'
p3672
S"<Storage {'showid': False, 'delete_onaccept': <S...ble': True, 'create_onvalidation': <Storage {}>}>"
p3673
sS'self.settings.formstyle'
p3674
S"'table3cols'"
p3675
ssg3579
I3032
sg3580
(dp3676
I3027
S'            showid=self.settings.showid,'
p3677
sI3028
S'            submit_button=self.messages.submit_button,'
p3678
sI3029
S'            delete_label=self.messages.delete_label,'
p3679
sI3030
S'            deletable=deletable,'
p3680
sI3031
S'            upload=self.settings.download_url,'
p3681
sI3032
S'            formstyle=self.settings.formstyle'
p3682
sI3033
S'            )'
p3683
sI3034
S'        self.accepted = False'
p3684
sI3035
S'        self.deleted = False'
p3685
sI3036
S'        captcha = self.settings.update_captcha or \\'
p3686
ssg3592
S"(self=<gluon.tools.Crud object>, table=<Table {'mora': <gluon.dal.Field object at 0x36e...y-trunk/applications/mvstore/databases/sql.log'}>, record=None, next=None, onvalidation=<Storage {}>, onaccept=<Storage {}>, ondelete=<Storage {}>, log='Record %(id)s created', message='Record Created', deletable=False, formname=<function <lambda>>)"
p3687
sg3594
S'update'
p3688
sa(dp3689
g3571
S'/home/marco/proyectos/web2py-trunk/gluon/sqlhtml.py'
p3690
sg3573
(dp3691
S'default'
p3692
S'None'
p3693
sS'self.widgets.options.widget'
p3694
S'<function widget>'
p3695
sS'self'
p3696
S'<gluon.sqlhtml.SQLFORM object>'
p3697
sS'inp'
p3698
S'<gluon.html.INPUT object>'
p3699
sS'self.widgets'
p3700
S"<Storage {'multiple': <class 'gluon.sqlhtml.Mult...ss 'gluon.sqlhtml.OptionsWidget'>, 'blob': None}>"
p3701
sS'field'
p3702
S'<gluon.dal.Field object>'
p3703
sS'self.widgets.options'
p3704
S"<class 'gluon.sqlhtml.OptionsWidget'>"
p3705
ssg3579
I817
sg3580
(dp3706
I812
S"                    inpval = 'checked'"
p3707
sI813
S'                else:'
p3708
sI814
S"                    inpval = ''"
p3709
sI815
S'            elif OptionsWidget.has_options(field):'
p3710
sI816
S'                if not field.requires.multiple:'
p3711
sI817
S'                    inp = self.widgets.options.widget(field, default)'
p3712
sI818
S'                else:'
p3713
sI819
S'                    inp = self.widgets.multiple.widget(field, default)'
p3714
sI820
S'                if fieldname in keepopts:'
p3715
sI821
S"                    inpval = TAG[''](*inp.components)"
p3716
ssg3592
S"(self=<gluon.sqlhtml.SQLFORM object>, table=<Table {'mora': <gluon.dal.Field object at 0x36e...y-trunk/applications/mvstore/databases/sql.log'}>, record=None, deletable=False, linkto=None, upload='/mvstore/default/download', fields=['id', 'titulo', 'cliente', 'empleado', 'fecha', 'devol', 'costo', 'mora'], labels=None, col3={}, submit_button='Submit', delete_label='Check to delete:', showid=False, readonly=False, comments=True, keepopts=[], ignore_rw=False, record_id=None, formstyle='table3cols', buttons=['submit'], **attributes={'hidden': {'_next': None}})"
p3717
sg3594
g49
sa(dp3718
g3571
S'/home/marco/proyectos/web2py-trunk/gluon/sqlhtml.py'
p3719
sg3573
(dp3720
S'].options'
p3721
g3613
sS'requires'
p3722
S'[<gluon.validators.IS_IN_DB object>]'
p3723
sS'options'
p3724
g3613
ssg3579
I206
sg3580
(dp3725
I201
S'        requires = field.requires'
p3726
sI202
S'        if not isinstance(requires, (list, tuple)):'
p3727
sI203
S'            requires = [requires]'
p3728
sI204
S'        if requires:'
p3729
sI205
S"            if hasattr(requires[0], 'options'):"
p3730
sI206
S'                options = requires[0].options()'
p3731
sI207
S'            else:'
p3732
sI208
S"                raise SyntaxError, 'widget cannot determine options of %s' \\"
p3733
sI209
S'                    % field'
p3734
sI210
S'        opts = [OPTION(v, _value=k) for (k, v) in options]'
p3735
ssg3592
S'(field=<gluon.dal.Field object>, value=None, **attributes={})'
p3736
sg3594
S'widget'
p3737
sa(dp3738
g3571
S'/home/marco/proyectos/web2py-trunk/gluon/validators.py'
p3739
sg3573
(dp3740
S'self'
p3741
S'<gluon.validators.IS_IN_DB object>'
p3742
sS'self.build_set'
p3743
S'<bound method IS_IN_DB.build_set of <gluon.validators.IS_IN_DB object>>'
p3744
ssg3579
I438
sg3580
(dp3745
I433
S'            self.labels = [self.label % dict(r) for r in records]'
p3746
sI434
S'        else:'
p3747
sI435
S'            self.labels = [self.label(r) for r in records]'
p3748
sI436
S''
sI437
S'    def options(self):'
p3749
sI438
S'        self.build_set()'
p3750
sI439
S'        items = [(k, self.labels[i]) for (i, k) in enumerate(self.theset)]'
p3751
sI440
S'        if self.sort:'
p3752
sI441
S'            items.sort(options_sorter)'
p3753
sI442
S'        if self.zero != None and not self.multiple:'
p3754
ssg3592
S'(self=<gluon.validators.IS_IN_DB object>)'
p3755
sg3594
S'options'
p3756
sa(dp3757
g3571
S'/home/marco/proyectos/web2py-trunk/gluon/validators.py'
p3758
sg3573
(dp3759
S'self.dbset'
p3760
S'<gluon.dal.Set object>'
p3761
sS'fields'
p3762
g3613
sS'self'
p3763
S'<gluon.validators.IS_IN_DB object>'
p3764
sS'self.ktable'
p3765
S"'clientes'"
p3766
sS'self.fields'
p3767
S"['first_name', 'last_name', 'id']"
p3768
sS'self.dbset.db'
p3769
S"<DAL {'auth_event': <Table {'origin': <gluon.dal..., 'id': <gluon.dal.Field object at 0x3cab510>}>}>"
p3770
sS'k'
S"'first_name'"
p3771
ssg3579
I421
sg3580
(dp3772
I416
S''
sI417
S'    def build_set(self):'
p3773
sI418
S"        if self.fields == 'all':"
p3774
sI419
S'            fields = [f for f in self.dbset.db[self.ktable]]'
p3775
sI420
S'        else:'
p3776
sI421
S'            fields = [self.dbset.db[self.ktable][k] for k in self.fields]'
p3777
sI422
S"        if self.dbset.db._dbname != 'gae':"
p3778
sI423
S'            orderby = self.orderby or reduce(lambda a,b:a|b,fields)'
p3779
sI424
S'            groupby = self.groupby'
p3780
sI425
S'            dd = dict(orderby=orderby, groupby=groupby, cache=self.cache)'
p3781
ssg3592
S'(self=<gluon.validators.IS_IN_DB object>)'
p3782
sg3594
S'build_set'
p3783
sa(dp3784
g3571
S'/home/marco/proyectos/web2py-trunk/gluon/dal.py'
p3785
sg3573
(dp3786
S'builtinstr'
p3787
S"<type 'str'>"
p3788
sS'self'
p3789
S"<Table {'foto': <gluon.dal.Field object at 0x3ce...cumento': <gluon.dal.Field object at 0x3561310>}>"
p3790
sS'dict.__getitem__'
p3791
S"<method '__getitem__' of 'dict' objects>"
p3792
sS'key'
p3793
S"'first_name'"
p3794
sS'builtindict'
p3795
S"<type 'dict'>"
p3796
ssg3579
I4592
sg3580
(dp3797
I4587
S'                return rows[0]'
p3798
sI4588
S'            return None'
p3799
sI4589
S'        elif str(key).isdigit():'
p3800
sI4590
S'            return self._db(self._id == key).select(limitby=(0,1)).first()'
p3801
sI4591
S'        elif key:'
p3802
sI4592
S'            return dict.__getitem__(self, str(key))'
p3803
sI4593
S''
sI4594
S'    def __call__(self, key=DEFAULT, **kwargs):'
p3804
sI4595
S'        if key!=DEFAULT:'
p3805
sI4596
S'            if isinstance(key, Query):'
p3806
ssg3592
S"(self=<Table {'foto': <gluon.dal.Field object at 0x3ce...cumento': <gluon.dal.Field object at 0x3561310>}>, key='first_name')"
p3807
sg3594
g19
sasS'pyver'
p3808
S'Python 2.6.6: /usr/bin/python'
p3809
sS'session'
p3810
g56
(g57
g58
NtRp3811
(dp3812
g61
(dp3813
sg63
(lp3814
g56
(g65
g58
NtRp3815
(dp3816
g61
(dp3817
g69
I5
ssg70
Nsg63
(lp3818
sbasbsS'etype'
p3819
S"<type 'exceptions.KeyError'>"
p3820
sS'date'
p3821
S'Sat Jun 18 00:54:36 2011'
p3822
sS'response'
p3823
g56
(g57
g58
NtRp3824
(dp3825
g61
(dp3826
sg63
(lp3827
g56
(g65
g58
NtRp3828
(dp3829
g61
(dp3830
g69
I5
ssg70
Nsg63
(lp3831
g56
(g72
g58
NtRp3832
(dp3833
g61
(dp3834
sg70
g3828
sg63
(lp3835
g56
(g77
g58
NtRp3836
(dp3837
g61
(dp3838
g81
g82
ssg70
g3832
sg63
(lp3839
g154
asbag56
(g77
g58
NtRp3840
(dp3841
g61
(dp3842
g88
g89
ssg70
g3832
sg63
(lp3843
S':'
asbag56
(g77
g58
NtRp3844
(dp3845
g61
(dp3846
sg70
g3832
sg63
(lp3847
g56
(g57
g58
NtRp3848
(dp3849
g61
(dp3850
g69
I5
ssg70
g3844
sg63
(lp3851
S'<cStringIO.StringO object at 0x27fc730>'
p3852
asbasbasbag56
(g72
g58
NtRp3853
(dp3854
g61
(dp3855
sg70
g3828
sg63
(lp3856
g56
(g77
g58
NtRp3857
(dp3858
g61
(dp3859
g81
g82
ssg70
g3853
sg63
(lp3860
g220
asbag56
(g77
g58
NtRp3861
(dp3862
g61
(dp3863
g88
g89
ssg70
g3853
sg63
(lp3864
S':'
asbag56
(g77
g58
NtRp3865
(dp3866
g61
(dp3867
sg70
g3853
sg63
(lp3868
g56
(g57
g58
NtRp3869
(dp3870
g61
(dp3871
g69
I5
ssg70
g3865
sg63
(lp3872
g56
(g65
g58
NtRp3873
(dp3874
g61
(dp3875
g69
I4
ssg70
Nsg63
(lp3876
g56
(g72
g58
NtRp3877
(dp3878
g61
(dp3879
sg70
g3873
sg63
(lp3880
g56
(g77
g58
NtRp3881
(dp3882
g61
(dp3883
g81
g82
ssg70
g3877
sg63
(lp3884
S'session_id_mvstore'
p3885
asbag56
(g77
g58
NtRp3886
(dp3887
g61
(dp3888
g88
g89
ssg70
g3877
sg63
(lp3889
S':'
asbag56
(g77
g58
NtRp3890
(dp3891
g61
(dp3892
sg70
g3877
sg63
(lp3893
g56
(g57
g58
NtRp3894
(dp3895
g61
(dp3896
g69
I4
ssg70
g3890
sg63
(lp3897
g56
(g65
g58
NtRp3898
(dp3899
g61
(dp3900
g69
I3
ssg70
Nsg63
(lp3901
g56
(g72
g58
NtRp3902
(dp3903
g61
(dp3904
sg70
g3898
sg63
(lp3905
g56
(g77
g58
NtRp3906
(dp3907
g61
(dp3908
g81
g82
ssg70
g3902
sg63
(lp3909
g270
asbag56
(g77
g58
NtRp3910
(dp3911
g61
(dp3912
g88
g89
ssg70
g3902
sg63
(lp3913
S':'
asbag56
(g77
g58
NtRp3914
(dp3915
g61
(dp3916
sg70
g3902
sg63
(lp3917
g56
(g57
g58
NtRp3918
(dp3919
g61
(dp3920
g69
I3
ssg70
g3914
sg63
(lp3921
S''
asbasbasbag56
(g72
g58
NtRp3922
(dp3923
g61
(dp3924
sg70
g3898
sg63
(lp3925
g56
(g77
g58
NtRp3926
(dp3927
g61
(dp3928
g81
g82
ssg70
g3922
sg63
(lp3929
g291
asbag56
(g77
g58
NtRp3930
(dp3931
g61
(dp3932
g88
g89
ssg70
g3922
sg63
(lp3933
S':'
asbag56
(g77
g58
NtRp3934
(dp3935
g61
(dp3936
sg70
g3922
sg63
(lp3937
g56
(g57
g58
NtRp3938
(dp3939
g61
(dp3940
g69
I3
ssg70
g3934
sg63
(lp3941
S''
asbasbasbag56
(g72
g58
NtRp3942
(dp3943
g61
(dp3944
sg70
g3898
sg63
(lp3945
g56
(g77
g58
NtRp3946
(dp3947
g61
(dp3948
g81
g82
ssg70
g3942
sg63
(lp3949
g312
asbag56
(g77
g58
NtRp3950
(dp3951
g61
(dp3952
g88
g89
ssg70
g3942
sg63
(lp3953
S':'
asbag56
(g77
g58
NtRp3954
(dp3955
g61
(dp3956
sg70
g3942
sg63
(lp3957
g56
(g57
g58
NtRp3958
(dp3959
g61
(dp3960
g69
I3
ssg70
g3954
sg63
(lp3961
S''
asbasbasbag56
(g72
g58
NtRp3962
(dp3963
g61
(dp3964
sg70
g3898
sg63
(lp3965
g56
(g77
g58
NtRp3966
(dp3967
g61
(dp3968
g81
g82
ssg70
g3962
sg63
(lp3969
g333
asbag56
(g77
g58
NtRp3970
(dp3971
g61
(dp3972
g88
g89
ssg70
g3962
sg63
(lp3973
S':'
asbag56
(g77
g58
NtRp3974
(dp3975
g61
(dp3976
sg70
g3962
sg63
(lp3977
g56
(g57
g58
NtRp3978
(dp3979
g61
(dp3980
g69
I3
ssg70
g3974
sg63
(lp3981
S''
asbasbasbag56
(g72
g58
NtRp3982
(dp3983
g61
(dp3984
sg70
g3898
sg63
(lp3985
g56
(g77
g58
NtRp3986
(dp3987
g61
(dp3988
g81
g82
ssg70
g3982
sg63
(lp3989
g354
asbag56
(g77
g58
NtRp3990
(dp3991
g61
(dp3992
g88
g89
ssg70
g3982
sg63
(lp3993
S':'
asbag56
(g77
g58
NtRp3994
(dp3995
g61
(dp3996
sg70
g3982
sg63
(lp3997
g56
(g57
g58
NtRp3998
(dp3999
g61
(dp4000
g69
I3
ssg70
g3994
sg63
(lp4001
S''
asbasbasbag56
(g72
g58
NtRp4002
(dp4003
g61
(dp4004
sg70
g3898
sg63
(lp4005
g56
(g77
g58
NtRp4006
(dp4007
g61
(dp4008
g81
g82
ssg70
g4002
sg63
(lp4009
g375
asbag56
(g77
g58
NtRp4010
(dp4011
g61
(dp4012
g88
g89
ssg70
g4002
sg63
(lp4013
S':'
asbag56
(g77
g58
NtRp4014
(dp4015
g61
(dp4016
sg70
g4002
sg63
(lp4017
g56
(g57
g58
NtRp4018
(dp4019
g61
(dp4020
g69
I3
ssg70
g4014
sg63
(lp4021
S'/'
asbasbasbag56
(g72
g58
NtRp4022
(dp4023
g61
(dp4024
sg70
g3898
sg63
(lp4025
g56
(g77
g58
NtRp4026
(dp4027
g61
(dp4028
g81
g82
ssg70
g4022
sg63
(lp4029
g396
asbag56
(g77
g58
NtRp4030
(dp4031
g61
(dp4032
g88
g89
ssg70
g4022
sg63
(lp4033
S':'
asbag56
(g77
g58
NtRp4034
(dp4035
g61
(dp4036
sg70
g4022
sg63
(lp4037
g56
(g57
g58
NtRp4038
(dp4039
g61
(dp4040
g69
I3
ssg70
g4034
sg63
(lp4041
S''
asbasbasbag56
(g72
g58
NtRp4042
(dp4043
g61
(dp4044
sg70
g3898
sg63
(lp4045
g56
(g77
g58
NtRp4046
(dp4047
g61
(dp4048
g81
g82
ssg70
g4042
sg63
(lp4049
g417
asbag56
(g77
g58
NtRp4050
(dp4051
g61
(dp4052
g88
g89
ssg70
g4042
sg63
(lp4053
S':'
asbag56
(g77
g58
NtRp4054
(dp4055
g61
(dp4056
sg70
g4042
sg63
(lp4057
g56
(g57
g58
NtRp4058
(dp4059
g61
(dp4060
g69
I3
ssg70
g4054
sg63
(lp4061
S''
asbasbasbasbasbasbasbasbasbasbasbag56
(g72
g58
NtRp4062
(dp4063
g61
(dp4064
sg70
g3828
sg63
(lp4065
g56
(g77
g58
NtRp4066
(dp4067
g61
(dp4068
g81
g82
ssg70
g4062
sg63
(lp4069
S'files'
p4070
asbag56
(g77
g58
NtRp4071
(dp4072
g61
(dp4073
g88
g89
ssg70
g4062
sg63
(lp4074
S':'
asbag56
(g77
g58
NtRp4075
(dp4076
g61
(dp4077
sg70
g4062
sg63
(lp4078
g56
(g57
g58
NtRp4079
(dp4080
g61
(dp4081
g69
I5
ssg70
g4075
sg63
(lp4082
g56
(g65
g58
NtRp4083
(dp4084
g61
(dp4085
g69
I4
ssg70
Nsg63
(lp4086
sbasbasbasbag56
(g72
g58
NtRp4087
(dp4088
g61
(dp4089
sg70
g3828
sg63
(lp4090
g56
(g77
g58
NtRp4091
(dp4092
g61
(dp4093
g81
g82
ssg70
g4087
sg63
(lp4094
S'flash'
p4095
asbag56
(g77
g58
NtRp4096
(dp4097
g61
(dp4098
g88
g89
ssg70
g4087
sg63
(lp4099
S':'
asbag56
(g77
g58
NtRp4100
(dp4101
g61
(dp4102
sg70
g4087
sg63
(lp4103
g56
(g57
g58
NtRp4104
(dp4105
g61
(dp4106
g69
I5
ssg70
g4100
sg63
(lp4107
S''
asbasbasbag56
(g72
g58
NtRp4108
(dp4109
g61
(dp4110
sg70
g3828
sg63
(lp4111
g56
(g77
g58
NtRp4112
(dp4113
g61
(dp4114
g81
g82
ssg70
g4108
sg63
(lp4115
S'headers'
p4116
asbag56
(g77
g58
NtRp4117
(dp4118
g61
(dp4119
g88
g89
ssg70
g4108
sg63
(lp4120
S':'
asbag56
(g77
g58
NtRp4121
(dp4122
g61
(dp4123
sg70
g4108
sg63
(lp4124
g56
(g57
g58
NtRp4125
(dp4126
g61
(dp4127
g69
I5
ssg70
g4121
sg63
(lp4128
g56
(g65
g58
NtRp4129
(dp4130
g61
(dp4131
g69
I4
ssg70
Nsg63
(lp4132
g56
(g72
g58
NtRp4133
(dp4134
g61
(dp4135
sg70
g4129
sg63
(lp4136
g56
(g77
g58
NtRp4137
(dp4138
g61
(dp4139
g81
g82
ssg70
g4133
sg63
(lp4140
S'Cache-Control'
p4141
asbag56
(g77
g58
NtRp4142
(dp4143
g61
(dp4144
g88
g89
ssg70
g4133
sg63
(lp4145
S':'
asbag56
(g77
g58
NtRp4146
(dp4147
g61
(dp4148
sg70
g4133
sg63
(lp4149
g56
(g57
g58
NtRp4150
(dp4151
g61
(dp4152
g69
I4
ssg70
g4146
sg63
(lp4153
S'no-store, no-cache, must-revalidate, post-check=0, pre-check=0'
p4154
asbasbasbag56
(g72
g58
NtRp4155
(dp4156
g61
(dp4157
sg70
g4129
sg63
(lp4158
g56
(g77
g58
NtRp4159
(dp4160
g61
(dp4161
g81
g82
ssg70
g4155
sg63
(lp4162
S'Content-Type'
p4163
asbag56
(g77
g58
NtRp4164
(dp4165
g61
(dp4166
g88
g89
ssg70
g4155
sg63
(lp4167
S':'
asbag56
(g77
g58
NtRp4168
(dp4169
g61
(dp4170
sg70
g4155
sg63
(lp4171
g56
(g57
g58
NtRp4172
(dp4173
g61
(dp4174
g69
I4
ssg70
g4168
sg63
(lp4175
S'text/html; charset=utf-8'
p4176
asbasbasbag56
(g72
g58
NtRp4177
(dp4178
g61
(dp4179
sg70
g4129
sg63
(lp4180
g56
(g77
g58
NtRp4181
(dp4182
g61
(dp4183
g81
g82
ssg70
g4177
sg63
(lp4184
S'Expires'
p4185
asbag56
(g77
g58
NtRp4186
(dp4187
g61
(dp4188
g88
g89
ssg70
g4177
sg63
(lp4189
S':'
asbag56
(g77
g58
NtRp4190
(dp4191
g61
(dp4192
sg70
g4177
sg63
(lp4193
g56
(g57
g58
NtRp4194
(dp4195
g61
(dp4196
g69
I4
ssg70
g4190
sg63
(lp4197
S'Sat, 18 Jun 2011 03:54:36 GMT'
p4198
asbasbasbag56
(g72
g58
NtRp4199
(dp4200
g61
(dp4201
sg70
g4129
sg63
(lp4202
g56
(g77
g58
NtRp4203
(dp4204
g61
(dp4205
g81
g82
ssg70
g4199
sg63
(lp4206
S'Pragma'
p4207
asbag56
(g77
g58
NtRp4208
(dp4209
g61
(dp4210
g88
g89
ssg70
g4199
sg63
(lp4211
S':'
asbag56
(g77
g58
NtRp4212
(dp4213
g61
(dp4214
sg70
g4199
sg63
(lp4215
g56
(g57
g58
NtRp4216
(dp4217
g61
(dp4218
g69
I4
ssg70
g4212
sg63
(lp4219
S'no-cache'
p4220
asbasbasbag56
(g72
g58
NtRp4221
(dp4222
g61
(dp4223
sg70
g4129
sg63
(lp4224
g56
(g77
g58
NtRp4225
(dp4226
g61
(dp4227
g81
g82
ssg70
g4221
sg63
(lp4228
S'X-Powered-By'
p4229
asbag56
(g77
g58
NtRp4230
(dp4231
g61
(dp4232
g88
g89
ssg70
g4221
sg63
(lp4233
S':'
asbag56
(g77
g58
NtRp4234
(dp4235
g61
(dp4236
sg70
g4221
sg63
(lp4237
g56
(g57
g58
NtRp4238
(dp4239
g61
(dp4240
g69
I4
ssg70
g4234
sg63
(lp4241
S'web2py'
p4242
asbasbasbasbasbasbasbag56
(g72
g58
NtRp4243
(dp4244
g61
(dp4245
sg70
g3828
sg63
(lp4246
g56
(g77
g58
NtRp4247
(dp4248
g61
(dp4249
g81
g82
ssg70
g4243
sg63
(lp4250
S'menu'
p4251
asbag56
(g77
g58
NtRp4252
(dp4253
g61
(dp4254
g88
g89
ssg70
g4243
sg63
(lp4255
S':'
asbag56
(g77
g58
NtRp4256
(dp4257
g61
(dp4258
sg70
g4243
sg63
(lp4259
g56
(g57
g58
NtRp4260
(dp4261
g61
(dp4262
g69
I5
ssg70
g4256
sg63
(lp4263
g56
(g65
g58
NtRp4264
(dp4265
g61
(dp4266
g69
I4
ssg70
Nsg63
(lp4267
g56
(g72
g58
NtRp4268
(dp4269
g61
(dp4270
sg70
g4264
sg63
(lp4271
g56
(g77
g58
NtRp4272
(dp4273
g61
(dp4274
sg70
g4268
sg63
(lp4275
g56
(g57
g58
NtRp4276
(dp4277
g61
(dp4278
g69
I4
ssg70
g4272
sg63
(lp4279
g56
(g65
g58
NtRp4280
(dp4281
g61
(dp4282
g69
I3
ssg70
Nsg63
(lp4283
g56
(g72
g58
NtRp4284
(dp4285
g61
(dp4286
sg70
g4280
sg63
(lp4287
g56
(g77
g58
NtRp4288
(dp4289
g61
(dp4290
sg70
g4284
sg63
(lp4291
g56
(g57
g58
NtRp4292
(dp4293
g61
(dp4294
g69
I3
ssg70
g4288
sg63
(lp4295
cgluon.languages
lazyT_unpickle
p4296
(S's\x04\x00\x00\x00Home'
tRp4297
asbasbasbag56
(g72
g58
NtRp4298
(dp4299
g61
(dp4300
sg70
g4280
sg63
(lp4301
g56
(g77
g58
NtRp4302
(dp4303
g61
(dp4304
sg70
g4298
sg63
(lp4305
g56
(g57
g58
NtRp4306
(dp4307
g61
(dp4308
g69
I3
ssg70
g4302
sg63
(lp4309
g99
asbasbasbag56
(g72
g58
NtRp4310
(dp4311
g61
(dp4312
sg70
g4280
sg63
(lp4313
g56
(g77
g58
NtRp4314
(dp4315
g61
(dp4316
sg70
g4310
sg63
(lp4317
g56
(g57
g58
NtRp4318
(dp4319
g61
(dp4320
g69
I3
ssg70
g4314
sg63
(lp4321
S'/mvstore/default/index'
p4322
asbasbasbag56
(g72
g58
NtRp4323
(dp4324
g61
(dp4325
sg70
g4280
sg63
(lp4326
g56
(g77
g58
NtRp4327
(dp4328
g61
(dp4329
sg70
g4323
sg63
(lp4330
g56
(g57
g58
NtRp4331
(dp4332
g61
(dp4333
g69
I3
ssg70
g4327
sg63
(lp4334
g56
(g65
g58
NtRp4335
(dp4336
g61
(dp4337
g69
I2
ssg70
Nsg63
(lp4338
sbasbasbasbasbasbasbasbag56
(g72
g58
NtRp4339
(dp4340
g61
(dp4341
sg70
g4264
sg63
(lp4342
g56
(g77
g58
NtRp4343
(dp4344
g61
(dp4345
sg70
g4339
sg63
(lp4346
g56
(g57
g58
NtRp4347
(dp4348
g61
(dp4349
g69
I4
ssg70
g4343
sg63
(lp4350
g56
(g65
g58
NtRp4351
(dp4352
g61
(dp4353
g69
I3
ssg70
Nsg63
(lp4354
g56
(g72
g58
NtRp4355
(dp4356
g61
(dp4357
sg70
g4351
sg63
(lp4358
g56
(g77
g58
NtRp4359
(dp4360
g61
(dp4361
sg70
g4355
sg63
(lp4362
g56
(g57
g58
NtRp4363
(dp4364
g61
(dp4365
g69
I3
ssg70
g4359
sg63
(lp4366
g4296
(S's\x08\x00\x00\x00This App'
tRp4367
asbasbasbag56
(g72
g58
NtRp4368
(dp4369
g61
(dp4370
sg70
g4351
sg63
(lp4371
g56
(g77
g58
NtRp4372
(dp4373
g61
(dp4374
sg70
g4368
sg63
(lp4375
g56
(g57
g58
NtRp4376
(dp4377
g61
(dp4378
g69
I3
ssg70
g4372
sg63
(lp4379
g99
asbasbasbag56
(g72
g58
NtRp4380
(dp4381
g61
(dp4382
sg70
g4351
sg63
(lp4383
g56
(g77
g58
NtRp4384
(dp4385
g61
(dp4386
sg70
g4380
sg63
(lp4387
g56
(g57
g58
NtRp4388
(dp4389
g61
(dp4390
g69
I3
ssg70
g4384
sg63
(lp4391
S'/admin/default/design/mvstore'
p4392
asbasbasbag56
(g72
g58
NtRp4393
(dp4394
g61
(dp4395
sg70
g4351
sg63
(lp4396
g56
(g77
g58
NtRp4397
(dp4398
g61
(dp4399
sg70
g4393
sg63
(lp4400
g56
(g57
g58
NtRp4401
(dp4402
g61
(dp4403
g69
I3
ssg70
g4397
sg63
(lp4404
g56
(g65
g58
NtRp4405
(dp4406
g61
(dp4407
g69
I2
ssg70
Nsg63
(lp4408
g56
(g72
g58
NtRp4409
(dp4410
g61
(dp4411
sg70
g4405
sg63
(lp4412
g56
(g77
g58
NtRp4413
(dp4414
g61
(dp4415
sg70
g4409
sg63
(lp4416
g56
(g57
g58
NtRp4417
(dp4418
g61
(dp4419
g69
I2
ssg70
g4413
sg63
(lp4420
g56
(g65
g58
NtRp4421
(dp4422
g61
(dp4423
g69
I1
ssg70
Nsg63
(lp4424
g56
(g72
g58
NtRp4425
(dp4426
g61
(dp4427
sg70
g4421
sg63
(lp4428
g56
(g77
g58
NtRp4429
(dp4430
g61
(dp4431
sg70
g4425
sg63
(lp4432
g56
(g57
g58
NtRp4433
(dp4434
g61
(dp4435
g69
I1
ssg70
g4429
sg63
(lp4436
g4296
(S's\n\x00\x00\x00Controller'
tRp4437
asbasbasbag56
(g72
g58
NtRp4438
(dp4439
g61
(dp4440
sg70
g4421
sg63
(lp4441
g56
(g77
g58
NtRp4442
(dp4443
g61
(dp4444
sg70
g4438
sg63
(lp4445
g56
(g57
g58
NtRp4446
(dp4447
g61
(dp4448
g69
I1
ssg70
g4442
sg63
(lp4449
I00
asbasbasbag56
(g72
g58
NtRp4450
(dp4451
g61
(dp4452
sg70
g4421
sg63
(lp4453
g56
(g77
g58
NtRp4454
(dp4455
g61
(dp4456
sg70
g4450
sg63
(lp4457
g56
(g57
g58
NtRp4458
(dp4459
g61
(dp4460
g69
I1
ssg70
g4454
sg63
(lp4461
S'/admin/default/edit/mvstore/controllers/default.py'
p4462
asbasbasbasbasbasbasbag56
(g72
g58
NtRp4463
(dp4464
g61
(dp4465
sg70
g4405
sg63
(lp4466
g56
(g77
g58
NtRp4467
(dp4468
g61
(dp4469
sg70
g4463
sg63
(lp4470
g56
(g57
g58
NtRp4471
(dp4472
g61
(dp4473
g69
I2
ssg70
g4467
sg63
(lp4474
g56
(g65
g58
NtRp4475
(dp4476
g61
(dp4477
g69
I1
ssg70
Nsg63
(lp4478
g56
(g72
g58
NtRp4479
(dp4480
g61
(dp4481
sg70
g4475
sg63
(lp4482
g56
(g77
g58
NtRp4483
(dp4484
g61
(dp4485
sg70
g4479
sg63
(lp4486
g56
(g57
g58
NtRp4487
(dp4488
g61
(dp4489
g69
I1
ssg70
g4483
sg63
(lp4490
g4296
(S's\x04\x00\x00\x00View'
tRp4491
asbasbasbag56
(g72
g58
NtRp4492
(dp4493
g61
(dp4494
sg70
g4475
sg63
(lp4495
g56
(g77
g58
NtRp4496
(dp4497
g61
(dp4498
sg70
g4492
sg63
(lp4499
g56
(g57
g58
NtRp4500
(dp4501
g61
(dp4502
g69
I1
ssg70
g4496
sg63
(lp4503
I00
asbasbasbag56
(g72
g58
NtRp4504
(dp4505
g61
(dp4506
sg70
g4475
sg63
(lp4507
g56
(g77
g58
NtRp4508
(dp4509
g61
(dp4510
sg70
g4504
sg63
(lp4511
g56
(g57
g58
NtRp4512
(dp4513
g61
(dp4514
g69
I1
ssg70
g4508
sg63
(lp4515
S'/admin/default/edit/mvstore/views/default/prestamos.html'
p4516
asbasbasbasbasbasbasbag56
(g72
g58
NtRp4517
(dp4518
g61
(dp4519
sg70
g4405
sg63
(lp4520
g56
(g77
g58
NtRp4521
(dp4522
g61
(dp4523
sg70
g4517
sg63
(lp4524
g56
(g57
g58
NtRp4525
(dp4526
g61
(dp4527
g69
I2
ssg70
g4521
sg63
(lp4528
g56
(g65
g58
NtRp4529
(dp4530
g61
(dp4531
g69
I1
ssg70
Nsg63
(lp4532
g56
(g72
g58
NtRp4533
(dp4534
g61
(dp4535
sg70
g4529
sg63
(lp4536
g56
(g77
g58
NtRp4537
(dp4538
g61
(dp4539
sg70
g4533
sg63
(lp4540
g56
(g57
g58
NtRp4541
(dp4542
g61
(dp4543
g69
I1
ssg70
g4537
sg63
(lp4544
g4296
(S's\x06\x00\x00\x00Layout'
tRp4545
asbasbasbag56
(g72
g58
NtRp4546
(dp4547
g61
(dp4548
sg70
g4529
sg63
(lp4549
g56
(g77
g58
NtRp4550
(dp4551
g61
(dp4552
sg70
g4546
sg63
(lp4553
g56
(g57
g58
NtRp4554
(dp4555
g61
(dp4556
g69
I1
ssg70
g4550
sg63
(lp4557
I00
asbasbasbag56
(g72
g58
NtRp4558
(dp4559
g61
(dp4560
sg70
g4529
sg63
(lp4561
g56
(g77
g58
NtRp4562
(dp4563
g61
(dp4564
sg70
g4558
sg63
(lp4565
g56
(g57
g58
NtRp4566
(dp4567
g61
(dp4568
g69
I1
ssg70
g4562
sg63
(lp4569
S'/admin/default/edit/mvstore/views/layout.html'
p4570
asbasbasbasbasbasbasbag56
(g72
g58
NtRp4571
(dp4572
g61
(dp4573
sg70
g4405
sg63
(lp4574
g56
(g77
g58
NtRp4575
(dp4576
g61
(dp4577
sg70
g4571
sg63
(lp4578
g56
(g57
g58
NtRp4579
(dp4580
g61
(dp4581
g69
I2
ssg70
g4575
sg63
(lp4582
g56
(g65
g58
NtRp4583
(dp4584
g61
(dp4585
g69
I1
ssg70
Nsg63
(lp4586
g56
(g72
g58
NtRp4587
(dp4588
g61
(dp4589
sg70
g4583
sg63
(lp4590
g56
(g77
g58
NtRp4591
(dp4592
g61
(dp4593
sg70
g4587
sg63
(lp4594
g56
(g57
g58
NtRp4595
(dp4596
g61
(dp4597
g69
I1
ssg70
g4591
sg63
(lp4598
g4296
(S's\n\x00\x00\x00Stylesheet'
tRp4599
asbasbasbag56
(g72
g58
NtRp4600
(dp4601
g61
(dp4602
sg70
g4583
sg63
(lp4603
g56
(g77
g58
NtRp4604
(dp4605
g61
(dp4606
sg70
g4600
sg63
(lp4607
g56
(g57
g58
NtRp4608
(dp4609
g61
(dp4610
g69
I1
ssg70
g4604
sg63
(lp4611
I00
asbasbasbag56
(g72
g58
NtRp4612
(dp4613
g61
(dp4614
sg70
g4583
sg63
(lp4615
g56
(g77
g58
NtRp4616
(dp4617
g61
(dp4618
sg70
g4612
sg63
(lp4619
g56
(g57
g58
NtRp4620
(dp4621
g61
(dp4622
g69
I1
ssg70
g4616
sg63
(lp4623
S'/admin/default/edit/mvstore/static/base.css'
p4624
asbasbasbasbasbasbasbag56
(g72
g58
NtRp4625
(dp4626
g61
(dp4627
sg70
g4405
sg63
(lp4628
g56
(g77
g58
NtRp4629
(dp4630
g61
(dp4631
sg70
g4625
sg63
(lp4632
g56
(g57
g58
NtRp4633
(dp4634
g61
(dp4635
g69
I2
ssg70
g4629
sg63
(lp4636
g56
(g65
g58
NtRp4637
(dp4638
g61
(dp4639
g69
I1
ssg70
Nsg63
(lp4640
g56
(g72
g58
NtRp4641
(dp4642
g61
(dp4643
sg70
g4637
sg63
(lp4644
g56
(g77
g58
NtRp4645
(dp4646
g61
(dp4647
sg70
g4641
sg63
(lp4648
g56
(g57
g58
NtRp4649
(dp4650
g61
(dp4651
g69
I1
ssg70
g4645
sg63
(lp4652
g4296
(S's\x08\x00\x00\x00DB Model'
tRp4653
asbasbasbag56
(g72
g58
NtRp4654
(dp4655
g61
(dp4656
sg70
g4637
sg63
(lp4657
g56
(g77
g58
NtRp4658
(dp4659
g61
(dp4660
sg70
g4654
sg63
(lp4661
g56
(g57
g58
NtRp4662
(dp4663
g61
(dp4664
g69
I1
ssg70
g4658
sg63
(lp4665
I00
asbasbasbag56
(g72
g58
NtRp4666
(dp4667
g61
(dp4668
sg70
g4637
sg63
(lp4669
g56
(g77
g58
NtRp4670
(dp4671
g61
(dp4672
sg70
g4666
sg63
(lp4673
g56
(g57
g58
NtRp4674
(dp4675
g61
(dp4676
g69
I1
ssg70
g4670
sg63
(lp4677
S'/admin/default/edit/mvstore/models/db.py'
p4678
asbasbasbasbasbasbasbag56
(g72
g58
NtRp4679
(dp4680
g61
(dp4681
sg70
g4405
sg63
(lp4682
g56
(g77
g58
NtRp4683
(dp4684
g61
(dp4685
sg70
g4679
sg63
(lp4686
g56
(g57
g58
NtRp4687
(dp4688
g61
(dp4689
g69
I2
ssg70
g4683
sg63
(lp4690
g56
(g65
g58
NtRp4691
(dp4692
g61
(dp4693
g69
I1
ssg70
Nsg63
(lp4694
g56
(g72
g58
NtRp4695
(dp4696
g61
(dp4697
sg70
g4691
sg63
(lp4698
g56
(g77
g58
NtRp4699
(dp4700
g61
(dp4701
sg70
g4695
sg63
(lp4702
g56
(g57
g58
NtRp4703
(dp4704
g61
(dp4705
g69
I1
ssg70
g4699
sg63
(lp4706
g4296
(S's\n\x00\x00\x00Menu Model'
tRp4707
asbasbasbag56
(g72
g58
NtRp4708
(dp4709
g61
(dp4710
sg70
g4691
sg63
(lp4711
g56
(g77
g58
NtRp4712
(dp4713
g61
(dp4714
sg70
g4708
sg63
(lp4715
g56
(g57
g58
NtRp4716
(dp4717
g61
(dp4718
g69
I1
ssg70
g4712
sg63
(lp4719
I00
asbasbasbag56
(g72
g58
NtRp4720
(dp4721
g61
(dp4722
sg70
g4691
sg63
(lp4723
g56
(g77
g58
NtRp4724
(dp4725
g61
(dp4726
sg70
g4720
sg63
(lp4727
g56
(g57
g58
NtRp4728
(dp4729
g61
(dp4730
g69
I1
ssg70
g4724
sg63
(lp4731
S'/admin/default/edit/mvstore/models/menu.py'
p4732
asbasbasbasbasbasbasbag56
(g72
g58
NtRp4733
(dp4734
g61
(dp4735
sg70
g4405
sg63
(lp4736
g56
(g77
g58
NtRp4737
(dp4738
g61
(dp4739
sg70
g4733
sg63
(lp4740
g56
(g57
g58
NtRp4741
(dp4742
g61
(dp4743
g69
I2
ssg70
g4737
sg63
(lp4744
g56
(g65
g58
NtRp4745
(dp4746
g61
(dp4747
g69
I1
ssg70
Nsg63
(lp4748
g56
(g72
g58
NtRp4749
(dp4750
g61
(dp4751
sg70
g4745
sg63
(lp4752
g56
(g77
g58
NtRp4753
(dp4754
g61
(dp4755
sg70
g4749
sg63
(lp4756
g56
(g57
g58
NtRp4757
(dp4758
g61
(dp4759
g69
I1
ssg70
g4753
sg63
(lp4760
g4296
(S's\x08\x00\x00\x00Database'
tRp4761
asbasbasbag56
(g72
g58
NtRp4762
(dp4763
g61
(dp4764
sg70
g4745
sg63
(lp4765
g56
(g77
g58
NtRp4766
(dp4767
g61
(dp4768
sg70
g4762
sg63
(lp4769
g56
(g57
g58
NtRp4770
(dp4771
g61
(dp4772
g69
I1
ssg70
g4766
sg63
(lp4773
I00
asbasbasbag56
(g72
g58
NtRp4774
(dp4775
g61
(dp4776
sg70
g4745
sg63
(lp4777
g56
(g77
g58
NtRp4778
(dp4779
g61
(dp4780
sg70
g4774
sg63
(lp4781
g56
(g57
g58
NtRp4782
(dp4783
g61
(dp4784
g69
I1
ssg70
g4778
sg63
(lp4785
S'/mvstore/appadmin/index'
p4786
asbasbasbasbasbasbasbag56
(g72
g58
NtRp4787
(dp4788
g61
(dp4789
sg70
g4405
sg63
(lp4790
g56
(g77
g58
NtRp4791
(dp4792
g61
(dp4793
sg70
g4787
sg63
(lp4794
g56
(g57
g58
NtRp4795
(dp4796
g61
(dp4797
g69
I2
ssg70
g4791
sg63
(lp4798
g56
(g65
g58
NtRp4799
(dp4800
g61
(dp4801
g69
I1
ssg70
Nsg63
(lp4802
g56
(g72
g58
NtRp4803
(dp4804
g61
(dp4805
sg70
g4799
sg63
(lp4806
g56
(g77
g58
NtRp4807
(dp4808
g61
(dp4809
sg70
g4803
sg63
(lp4810
g56
(g57
g58
NtRp4811
(dp4812
g61
(dp4813
g69
I1
ssg70
g4807
sg63
(lp4814
g4296
(S's\x06\x00\x00\x00Errors'
tRp4815
asbasbasbag56
(g72
g58
NtRp4816
(dp4817
g61
(dp4818
sg70
g4799
sg63
(lp4819
g56
(g77
g58
NtRp4820
(dp4821
g61
(dp4822
sg70
g4816
sg63
(lp4823
g56
(g57
g58
NtRp4824
(dp4825
g61
(dp4826
g69
I1
ssg70
g4820
sg63
(lp4827
I00
asbasbasbag56
(g72
g58
NtRp4828
(dp4829
g61
(dp4830
sg70
g4799
sg63
(lp4831
g56
(g77
g58
NtRp4832
(dp4833
g61
(dp4834
sg70
g4828
sg63
(lp4835
g56
(g57
g58
NtRp4836
(dp4837
g61
(dp4838
g69
I1
ssg70
g4832
sg63
(lp4839
S'/admin/default/errors/mvstore'
p4840
asbasbasbasbasbasbasbag56
(g72
g58
NtRp4841
(dp4842
g61
(dp4843
sg70
g4405
sg63
(lp4844
g56
(g77
g58
NtRp4845
(dp4846
g61
(dp4847
sg70
g4841
sg63
(lp4848
g56
(g57
g58
NtRp4849
(dp4850
g61
(dp4851
g69
I2
ssg70
g4845
sg63
(lp4852
g56
(g65
g58
NtRp4853
(dp4854
g61
(dp4855
g69
I1
ssg70
Nsg63
(lp4856
g56
(g72
g58
NtRp4857
(dp4858
g61
(dp4859
sg70
g4853
sg63
(lp4860
g56
(g77
g58
NtRp4861
(dp4862
g61
(dp4863
sg70
g4857
sg63
(lp4864
g56
(g57
g58
NtRp4865
(dp4866
g61
(dp4867
g69
I1
ssg70
g4861
sg63
(lp4868
g4296
(S's\x05\x00\x00\x00About'
tRp4869
asbasbasbag56
(g72
g58
NtRp4870
(dp4871
g61
(dp4872
sg70
g4853
sg63
(lp4873
g56
(g77
g58
NtRp4874
(dp4875
g61
(dp4876
sg70
g4870
sg63
(lp4877
g56
(g57
g58
NtRp4878
(dp4879
g61
(dp4880
g69
I1
ssg70
g4874
sg63
(lp4881
I00
asbasbasbag56
(g72
g58
NtRp4882
(dp4883
g61
(dp4884
sg70
g4853
sg63
(lp4885
g56
(g77
g58
NtRp4886
(dp4887
g61
(dp4888
sg70
g4882
sg63
(lp4889
g56
(g57
g58
NtRp4890
(dp4891
g61
(dp4892
g69
I1
ssg70
g4886
sg63
(lp4893
S'/admin/default/about/mvstore'
p4894
asbasbasbasbasbasbasbasbasbasbasbasbasbasbasbag56
(g72
g58
NtRp4895
(dp4896
g61
(dp4897
sg70
g4264
sg63
(lp4898
g56
(g77
g58
NtRp4899
(dp4900
g61
(dp4901
sg70
g4895
sg63
(lp4902
g56
(g57
g58
NtRp4903
(dp4904
g61
(dp4905
g69
I4
ssg70
g4899
sg63
(lp4906
g56
(g65
g58
NtRp4907
(dp4908
g61
(dp4909
g69
I3
ssg70
Nsg63
(lp4910
g56
(g72
g58
NtRp4911
(dp4912
g61
(dp4913
sg70
g4907
sg63
(lp4914
g56
(g77
g58
NtRp4915
(dp4916
g61
(dp4917
sg70
g4911
sg63
(lp4918
g56
(g57
g58
NtRp4919
(dp4920
g61
(dp4921
g69
I3
ssg70
g4915
sg63
(lp4922
g4296
(S's\t\x00\x00\x00Resources'
tRp4923
asbasbasbag56
(g72
g58
NtRp4924
(dp4925
g61
(dp4926
sg70
g4907
sg63
(lp4927
g56
(g77
g58
NtRp4928
(dp4929
g61
(dp4930
sg70
g4924
sg63
(lp4931
g56
(g57
g58
NtRp4932
(dp4933
g61
(dp4934
g69
I3
ssg70
g4928
sg63
(lp4935
g99
asbasbasbag56
(g72
g58
NtRp4936
(dp4937
g61
(dp4938
sg70
g4907
sg63
(lp4939
g56
(g77
g58
NtRp4940
(dp4941
g61
(dp4942
sg70
g4936
sg63
(lp4943
g56
(g57
g58
NtRp4944
(dp4945
g61
(dp4946
g69
I3
ssg70
g4940
sg63
(lp4947
S'None'
p4948
asbasbasbag56
(g72
g58
NtRp4949
(dp4950
g61
(dp4951
sg70
g4907
sg63
(lp4952
g56
(g77
g58
NtRp4953
(dp4954
g61
(dp4955
sg70
g4949
sg63
(lp4956
g56
(g57
g58
NtRp4957
(dp4958
g61
(dp4959
g69
I3
ssg70
g4953
sg63
(lp4960
g56
(g65
g58
NtRp4961
(dp4962
g61
(dp4963
g69
I2
ssg70
Nsg63
(lp4964
g56
(g72
g58
NtRp4965
(dp4966
g61
(dp4967
sg70
g4961
sg63
(lp4968
g56
(g77
g58
NtRp4969
(dp4970
g61
(dp4971
sg70
g4965
sg63
(lp4972
g56
(g57
g58
NtRp4973
(dp4974
g61
(dp4975
g69
I2
ssg70
g4969
sg63
(lp4976
g56
(g65
g58
NtRp4977
(dp4978
g61
(dp4979
g69
I1
ssg70
Nsg63
(lp4980
g56
(g72
g58
NtRp4981
(dp4982
g61
(dp4983
sg70
g4977
sg63
(lp4984
g56
(g77
g58
NtRp4985
(dp4986
g61
(dp4987
sg70
g4981
sg63
(lp4988
g56
(g57
g58
NtRp4989
(dp4990
g61
(dp4991
g69
I1
ssg70
g4985
sg63
(lp4992
g4296
(S's\r\x00\x00\x00Documentation'
tRp4993
asbasbasbag56
(g72
g58
NtRp4994
(dp4995
g61
(dp4996
sg70
g4977
sg63
(lp4997
g56
(g77
g58
NtRp4998
(dp4999
g61
(dp5000
sg70
g4994
sg63
(lp5001
g56
(g57
g58
NtRp5002
(dp5003
g61
(dp5004
g69
I1
ssg70
g4998
sg63
(lp5005
I00
asbasbasbag56
(g72
g58
NtRp5006
(dp5007
g61
(dp5008
sg70
g4977
sg63
(lp5009
g56
(g77
g58
NtRp5010
(dp5011
g61
(dp5012
sg70
g5006
sg63
(lp5013
g56
(g57
g58
NtRp5014
(dp5015
g61
(dp5016
g69
I1
ssg70
g5010
sg63
(lp5017
S'http://www.web2py.com/book'
p5018
asbasbasbag56
(g72
g58
NtRp5019
(dp5020
g61
(dp5021
sg70
g4977
sg63
(lp5022
g56
(g77
g58
NtRp5023
(dp5024
g61
(dp5025
sg70
g5019
sg63
(lp5026
g56
(g57
g58
NtRp5027
(dp5028
g61
(dp5029
g69
I1
ssg70
g5023
sg63
(lp5030
(lp5031
(g4296
(S's\x07\x00\x00\x00Preface'
tRp5032
I00
S'http://www.web2py.com/book/default/chapter/00'
tp5033
a(g4296
(S's\x0c\x00\x00\x00Introduction'
tRp5034
I00
S'http://www.web2py.com/book/default/chapter/01'
tp5035
a(g4296
(S's\x06\x00\x00\x00Python'
tRp5036
I00
S'http://www.web2py.com/book/default/chapter/02'
tp5037
a(g4296
(S's\x08\x00\x00\x00Overview'
tRp5038
I00
S'http://www.web2py.com/book/default/chapter/03'
tp5039
a(g4296
(S's\x08\x00\x00\x00The Core'
tRp5040
I00
S'http://www.web2py.com/book/default/chapter/04'
tp5041
a(g4296
(S's\t\x00\x00\x00The Views'
tRp5042
I00
S'http://www.web2py.com/book/default/chapter/05'
tp5043
a(g4296
(S's\x08\x00\x00\x00Database'
tRp5044
I00
S'http://www.web2py.com/book/default/chapter/06'
tp5045
a(g4296
(S's\x14\x00\x00\x00Forms and Validators'
tRp5046
I00
S'http://www.web2py.com/book/default/chapter/07'
tp5047
a(g4296
(S's\x0e\x00\x00\x00Access Control'
tRp5048
I00
S'http://www.web2py.com/book/default/chapter/08'
tp5049
a(g4296
(S's\x08\x00\x00\x00Services'
tRp5050
I00
S'http://www.web2py.com/book/default/chapter/09'
tp5051
a(g4296
(S's\x0c\x00\x00\x00Ajax Recipes'
tRp5052
I00
S'http://www.web2py.com/book/default/chapter/10'
tp5053
a(g4296
(S's\x12\x00\x00\x00Deployment Recipes'
tRp5054
I00
S'http://www.web2py.com/book/default/chapter/11'
tp5055
a(g4296
(S's\r\x00\x00\x00Other Recipes'
tRp5056
I00
S'http://www.web2py.com/book/default/chapter/12'
tp5057
a(g4296
(S's\r\x00\x00\x00Buy this book'
tRp5058
I00
S'http://stores.lulu.com/web2py'
tp5059
aasbasbasbasbasbasbasbag56
(g72
g58
NtRp5060
(dp5061
g61
(dp5062
sg70
g4961
sg63
(lp5063
g56
(g77
g58
NtRp5064
(dp5065
g61
(dp5066
sg70
g5060
sg63
(lp5067
g56
(g57
g58
NtRp5068
(dp5069
g61
(dp5070
g69
I2
ssg70
g5064
sg63
(lp5071
g56
(g65
g58
NtRp5072
(dp5073
g61
(dp5074
g69
I1
ssg70
Nsg63
(lp5075
g56
(g72
g58
NtRp5076
(dp5077
g61
(dp5078
sg70
g5072
sg63
(lp5079
g56
(g77
g58
NtRp5080
(dp5081
g61
(dp5082
sg70
g5076
sg63
(lp5083
g56
(g57
g58
NtRp5084
(dp5085
g61
(dp5086
g69
I1
ssg70
g5080
sg63
(lp5087
g4296
(S's\t\x00\x00\x00Community'
tRp5088
asbasbasbag56
(g72
g58
NtRp5089
(dp5090
g61
(dp5091
sg70
g5072
sg63
(lp5092
g56
(g77
g58
NtRp5093
(dp5094
g61
(dp5095
sg70
g5089
sg63
(lp5096
g56
(g57
g58
NtRp5097
(dp5098
g61
(dp5099
g69
I1
ssg70
g5093
sg63
(lp5100
I00
asbasbasbag56
(g72
g58
NtRp5101
(dp5102
g61
(dp5103
sg70
g5072
sg63
(lp5104
g56
(g77
g58
NtRp5105
(dp5106
g61
(dp5107
sg70
g5101
sg63
(lp5108
g56
(g57
g58
NtRp5109
(dp5110
g61
(dp5111
g69
I1
ssg70
g5105
sg63
(lp5112
Nasbasbasbag56
(g72
g58
NtRp5113
(dp5114
g61
(dp5115
sg70
g5072
sg63
(lp5116
g56
(g77
g58
NtRp5117
(dp5118
g61
(dp5119
sg70
g5113
sg63
(lp5120
g56
(g57
g58
NtRp5121
(dp5122
g61
(dp5123
g69
I1
ssg70
g5117
sg63
(lp5124
(lp5125
(g4296
(S's\x06\x00\x00\x00Groups'
tRp5126
I00
S'http://www.web2py.com/examples/default/usergroups'
tp5127
a(g4296
(S's\x07\x00\x00\x00Twitter'
tRp5128
I00
S'http://twitter.com/web2py'
tp5129
a(g4296
(S's\t\x00\x00\x00Live chat'
tRp5130
I00
S'http://mibbit.com/?channel=%23web2py&server=irc.mibbit.net'
tp5131
a(g4296
(S's\n\x00\x00\x00User Voice'
tRp5132
I00
S'http://web2py.uservoice.com/'
tp5133
aasbasbasbasbasbasbasbag56
(g72
g58
NtRp5134
(dp5135
g61
(dp5136
sg70
g4961
sg63
(lp5137
g56
(g77
g58
NtRp5138
(dp5139
g61
(dp5140
sg70
g5134
sg63
(lp5141
g56
(g57
g58
NtRp5142
(dp5143
g61
(dp5144
g69
I2
ssg70
g5138
sg63
(lp5145
g56
(g65
g58
NtRp5146
(dp5147
g61
(dp5148
g69
I1
ssg70
Nsg63
(lp5149
g56
(g72
g58
NtRp5150
(dp5151
g61
(dp5152
sg70
g5146
sg63
(lp5153
g56
(g77
g58
NtRp5154
(dp5155
g61
(dp5156
sg70
g5150
sg63
(lp5157
g56
(g57
g58
NtRp5158
(dp5159
g61
(dp5160
g69
I1
ssg70
g5154
sg63
(lp5161
g4296
(S's\x06\x00\x00\x00Web2py'
tRp5162
asbasbasbag56
(g72
g58
NtRp5163
(dp5164
g61
(dp5165
sg70
g5146
sg63
(lp5166
g56
(g77
g58
NtRp5167
(dp5168
g61
(dp5169
sg70
g5163
sg63
(lp5170
g56
(g57
g58
NtRp5171
(dp5172
g61
(dp5173
g69
I1
ssg70
g5167
sg63
(lp5174
I00
asbasbasbag56
(g72
g58
NtRp5175
(dp5176
g61
(dp5177
sg70
g5146
sg63
(lp5178
g56
(g77
g58
NtRp5179
(dp5180
g61
(dp5181
sg70
g5175
sg63
(lp5182
g56
(g57
g58
NtRp5183
(dp5184
g61
(dp5185
g69
I1
ssg70
g5179
sg63
(lp5186
S'http://www.web2py.com'
p5187
asbasbasbag56
(g72
g58
NtRp5188
(dp5189
g61
(dp5190
sg70
g5146
sg63
(lp5191
g56
(g77
g58
NtRp5192
(dp5193
g61
(dp5194
sg70
g5188
sg63
(lp5195
g56
(g57
g58
NtRp5196
(dp5197
g61
(dp5198
g69
I1
ssg70
g5192
sg63
(lp5199
(lp5200
(g4296
(S's\x08\x00\x00\x00Download'
tRp5201
I00
S'http://www.web2py.com/examples/default/download'
tp5202
a(g4296
(S's\x07\x00\x00\x00Support'
tRp5203
I00
S'http://www.web2py.com/examples/default/support'
tp5204
a(g4296
(S's\x0e\x00\x00\x00Quick Examples'
tRp5205
I00
S'http://web2py.com/examples/default/examples'
tp5206
a(g4296
(S's\x03\x00\x00\x00FAQ'
tRp5207
I00
S'http://web2py.com/AlterEgo'
tp5208
a(g4296
(S's\x11\x00\x00\x00Free Applications'
tRp5209
I00
S'http://web2py.com/appliances'
tp5210
a(g4296
(S's\x07\x00\x00\x00Plugins'
tRp5211
I00
S'http://web2py.com/plugins'
tp5212
a(g4296
(S's\x07\x00\x00\x00Recipes'
tRp5213
I00
S'http://web2pyslices.com/'
tp5214
a(g4296
(S's\x04\x00\x00\x00Demo'
tRp5215
I00
S'http://web2py.com/demo_admin'
tp5216
a(g4296
(S's\x08\x00\x00\x00Semantic'
tRp5217
I00
S'http://web2py.com/semantic'
tp5218
a(g4296
(S's\x07\x00\x00\x00Layouts'
tRp5219
I00
S'http://web2py.com/layouts'
tp5220
a(g4296
(S's\x06\x00\x00\x00Videos'
tRp5221
I00
S'http://www.web2py.com/examples/default/videos/'
tp5222
aasbasbasbasbasbasbasbasbasbasbasbasbasbasbasbasbasbasbasbag56
(g72
g58
NtRp5223
(dp5224
g61
(dp5225
sg70
g3828
sg63
(lp5226
g56
(g77
g58
NtRp5227
(dp5228
g61
(dp5229
g81
g82
ssg70
g5223
sg63
(lp5230
S'meta'
p5231
asbag56
(g77
g58
NtRp5232
(dp5233
g61
(dp5234
g88
g89
ssg70
g5223
sg63
(lp5235
S':'
asbag56
(g77
g58
NtRp5236
(dp5237
g61
(dp5238
sg70
g5223
sg63
(lp5239
g56
(g57
g58
NtRp5240
(dp5241
g61
(dp5242
g69
I5
ssg70
g5236
sg63
(lp5243
g56
(g65
g58
NtRp5244
(dp5245
g61
(dp5246
g69
I4
ssg70
Nsg63
(lp5247
g56
(g72
g58
NtRp5248
(dp5249
g61
(dp5250
sg70
g5244
sg63
(lp5251
g56
(g77
g58
NtRp5252
(dp5253
g61
(dp5254
g81
g82
ssg70
g5248
sg63
(lp5255
S'author'
p5256
asbag56
(g77
g58
NtRp5257
(dp5258
g61
(dp5259
g88
g89
ssg70
g5248
sg63
(lp5260
S':'
asbag56
(g77
g58
NtRp5261
(dp5262
g61
(dp5263
sg70
g5248
sg63
(lp5264
g56
(g57
g58
NtRp5265
(dp5266
g61
(dp5267
g69
I4
ssg70
g5261
sg63
(lp5268
S'you'
p5269
asbasbasbag56
(g72
g58
NtRp5270
(dp5271
g61
(dp5272
sg70
g5244
sg63
(lp5273
g56
(g77
g58
NtRp5274
(dp5275
g61
(dp5276
g81
g82
ssg70
g5270
sg63
(lp5277
S'copyright'
p5278
asbag56
(g77
g58
NtRp5279
(dp5280
g61
(dp5281
g88
g89
ssg70
g5270
sg63
(lp5282
S':'
asbag56
(g77
g58
NtRp5283
(dp5284
g61
(dp5285
sg70
g5270
sg63
(lp5286
g56
(g57
g58
NtRp5287
(dp5288
g61
(dp5289
g69
I4
ssg70
g5283
sg63
(lp5290
S'Copyright 2007-2010'
p5291
asbasbasbag56
(g72
g58
NtRp5292
(dp5293
g61
(dp5294
sg70
g5244
sg63
(lp5295
g56
(g77
g58
NtRp5296
(dp5297
g61
(dp5298
g81
g82
ssg70
g5292
sg63
(lp5299
S'description'
p5300
asbag56
(g77
g58
NtRp5301
(dp5302
g61
(dp5303
g88
g89
ssg70
g5292
sg63
(lp5304
S':'
asbag56
(g77
g58
NtRp5305
(dp5306
g61
(dp5307
sg70
g5292
sg63
(lp5308
g56
(g57
g58
NtRp5309
(dp5310
g61
(dp5311
g69
I4
ssg70
g5305
sg63
(lp5312
S'Free and open source full-stack enterprise framework for agile development of fast, scalable, secure and portable database-driven web-based applications. Written and programmable in Python'
p5313
asbasbasbag56
(g72
g58
NtRp5314
(dp5315
g61
(dp5316
sg70
g5244
sg63
(lp5317
g56
(g77
g58
NtRp5318
(dp5319
g61
(dp5320
g81
g82
ssg70
g5314
sg63
(lp5321
S'generator'
p5322
asbag56
(g77
g58
NtRp5323
(dp5324
g61
(dp5325
g88
g89
ssg70
g5314
sg63
(lp5326
S':'
asbag56
(g77
g58
NtRp5327
(dp5328
g61
(dp5329
sg70
g5314
sg63
(lp5330
g56
(g57
g58
NtRp5331
(dp5332
g61
(dp5333
g69
I4
ssg70
g5327
sg63
(lp5334
S'Web2py Enterprise Framework'
p5335
asbasbasbag56
(g72
g58
NtRp5336
(dp5337
g61
(dp5338
sg70
g5244
sg63
(lp5339
g56
(g77
g58
NtRp5340
(dp5341
g61
(dp5342
g81
g82
ssg70
g5336
sg63
(lp5343
S'keywords'
p5344
asbag56
(g77
g58
NtRp5345
(dp5346
g61
(dp5347
g88
g89
ssg70
g5336
sg63
(lp5348
S':'
asbag56
(g77
g58
NtRp5349
(dp5350
g61
(dp5351
sg70
g5336
sg63
(lp5352
g56
(g57
g58
NtRp5353
(dp5354
g61
(dp5355
g69
I4
ssg70
g5349
sg63
(lp5356
S'web2py, python, framework'
p5357
asbasbasbasbasbasbasbag56
(g72
g58
NtRp5358
(dp5359
g61
(dp5360
sg70
g3828
sg63
(lp5361
g56
(g77
g58
NtRp5362
(dp5363
g61
(dp5364
g81
g82
ssg70
g5358
sg63
(lp5365
S'postprocessing'
p5366
asbag56
(g77
g58
NtRp5367
(dp5368
g61
(dp5369
g88
g89
ssg70
g5358
sg63
(lp5370
S':'
asbag56
(g77
g58
NtRp5371
(dp5372
g61
(dp5373
sg70
g5358
sg63
(lp5374
g56
(g57
g58
NtRp5375
(dp5376
g61
(dp5377
g69
I5
ssg70
g5371
sg63
(lp5378
g56
(g65
g58
NtRp5379
(dp5380
g61
(dp5381
g69
I4
ssg70
Nsg63
(lp5382
sbasbasbasbag56
(g72
g58
NtRp5383
(dp5384
g61
(dp5385
sg70
g3828
sg63
(lp5386
g56
(g77
g58
NtRp5387
(dp5388
g61
(dp5389
g81
g82
ssg70
g5383
sg63
(lp5390
S'session_file'
p5391
asbag56
(g77
g58
NtRp5392
(dp5393
g61
(dp5394
g88
g89
ssg70
g5383
sg63
(lp5395
S':'
asbag56
(g77
g58
NtRp5396
(dp5397
g61
(dp5398
sg70
g5383
sg63
(lp5399
g56
(g57
g58
NtRp5400
(dp5401
g61
(dp5402
g69
I5
ssg70
g5396
sg63
(lp5403
S"<open file '/home/marco/proyectos/web2py-trunk/applications/mvstore/sessions/127.0.0.1-0b059b4c-5741-4722-be03-f31fed87a8d7', mode 'rb+' at 0x2c4eae0>"
p5404
asbasbasbag56
(g72
g58
NtRp5405
(dp5406
g61
(dp5407
sg70
g3828
sg63
(lp5408
g56
(g77
g58
NtRp5409
(dp5410
g61
(dp5411
g81
g82
ssg70
g5405
sg63
(lp5412
S'session_filename'
p5413
asbag56
(g77
g58
NtRp5414
(dp5415
g61
(dp5416
g88
g89
ssg70
g5405
sg63
(lp5417
S':'
asbag56
(g77
g58
NtRp5418
(dp5419
g61
(dp5420
sg70
g5405
sg63
(lp5421
g56
(g57
g58
NtRp5422
(dp5423
g61
(dp5424
g69
I5
ssg70
g5418
sg63
(lp5425
S'/home/marco/proyectos/web2py-trunk/applications/mvstore/sessions/127.0.0.1-0b059b4c-5741-4722-be03-f31fed87a8d7'
p5426
asbasbasbag56
(g72
g58
NtRp5427
(dp5428
g61
(dp5429
sg70
g3828
sg63
(lp5430
g56
(g77
g58
NtRp5431
(dp5432
g61
(dp5433
g81
g82
ssg70
g5427
sg63
(lp5434
S'session_id'
p5435
asbag56
(g77
g58
NtRp5436
(dp5437
g61
(dp5438
g88
g89
ssg70
g5427
sg63
(lp5439
S':'
asbag56
(g77
g58
NtRp5440
(dp5441
g61
(dp5442
sg70
g5427
sg63
(lp5443
g56
(g57
g58
NtRp5444
(dp5445
g61
(dp5446
g69
I5
ssg70
g5440
sg63
(lp5447
S'127.0.0.1-0b059b4c-5741-4722-be03-f31fed87a8d7'
p5448
asbasbasbag56
(g72
g58
NtRp5449
(dp5450
g61
(dp5451
sg70
g3828
sg63
(lp5452
g56
(g77
g58
NtRp5453
(dp5454
g61
(dp5455
g81
g82
ssg70
g5449
sg63
(lp5456
S'session_id_name'
p5457
asbag56
(g77
g58
NtRp5458
(dp5459
g61
(dp5460
g88
g89
ssg70
g5449
sg63
(lp5461
S':'
asbag56
(g77
g58
NtRp5462
(dp5463
g61
(dp5464
sg70
g5449
sg63
(lp5465
g56
(g57
g58
NtRp5466
(dp5467
g61
(dp5468
g69
I5
ssg70
g5462
sg63
(lp5469
g3885
asbasbasbag56
(g72
g58
NtRp5470
(dp5471
g61
(dp5472
sg70
g3828
sg63
(lp5473
g56
(g77
g58
NtRp5474
(dp5475
g61
(dp5476
g81
g82
ssg70
g5470
sg63
(lp5477
S'session_locked'
p5478
asbag56
(g77
g58
NtRp5479
(dp5480
g61
(dp5481
g88
g89
ssg70
g5470
sg63
(lp5482
S':'
asbag56
(g77
g58
NtRp5483
(dp5484
g61
(dp5485
sg70
g5470
sg63
(lp5486
g56
(g57
g58
NtRp5487
(dp5488
g61
(dp5489
g69
I5
ssg70
g5483
sg63
(lp5490
g2254
asbasbasbag56
(g72
g58
NtRp5491
(dp5492
g61
(dp5493
sg70
g3828
sg63
(lp5494
g56
(g77
g58
NtRp5495
(dp5496
g61
(dp5497
g81
g82
ssg70
g5491
sg63
(lp5498
S'session_new'
p5499
asbag56
(g77
g58
NtRp5500
(dp5501
g61
(dp5502
g88
g89
ssg70
g5491
sg63
(lp5503
S':'
asbag56
(g77
g58
NtRp5504
(dp5505
g61
(dp5506
sg70
g5491
sg63
(lp5507
g56
(g57
g58
NtRp5508
(dp5509
g61
(dp5510
g69
I5
ssg70
g5504
sg63
(lp5511
g99
asbasbasbag56
(g72
g58
NtRp5512
(dp5513
g61
(dp5514
sg70
g3828
sg63
(lp5515
g56
(g77
g58
NtRp5516
(dp5517
g61
(dp5518
g81
g82
ssg70
g5512
sg63
(lp5519
S'status'
p5520
asbag56
(g77
g58
NtRp5521
(dp5522
g61
(dp5523
g88
g89
ssg70
g5512
sg63
(lp5524
S':'
asbag56
(g77
g58
NtRp5525
(dp5526
g61
(dp5527
sg70
g5512
sg63
(lp5528
g56
(g57
g58
NtRp5529
(dp5530
g61
(dp5531
g69
I5
ssg70
g5525
sg63
(lp5532
S'200'
p5533
asbasbasbag56
(g72
g58
NtRp5534
(dp5535
g61
(dp5536
sg70
g3828
sg63
(lp5537
g56
(g77
g58
NtRp5538
(dp5539
g61
(dp5540
g81
g82
ssg70
g5534
sg63
(lp5541
S'subtitle'
p5542
asbag56
(g77
g58
NtRp5543
(dp5544
g61
(dp5545
g88
g89
ssg70
g5534
sg63
(lp5546
S':'
asbag56
(g77
g58
NtRp5547
(dp5548
g61
(dp5549
sg70
g5534
sg63
(lp5550
g56
(g57
g58
NtRp5551
(dp5552
g61
(dp5553
g69
I5
ssg70
g5547
sg63
(lp5554
g4296
(S's\r\x00\x00\x00customize me!'
tRp5555
asbasbasbag56
(g72
g58
NtRp5556
(dp5557
g61
(dp5558
sg70
g3828
sg63
(lp5559
g56
(g77
g58
NtRp5560
(dp5561
g61
(dp5562
g81
g82
ssg70
g5556
sg63
(lp5563
S'title'
p5564
asbag56
(g77
g58
NtRp5565
(dp5566
g61
(dp5567
g88
g89
ssg70
g5556
sg63
(lp5568
S':'
asbag56
(g77
g58
NtRp5569
(dp5570
g61
(dp5571
sg70
g5556
sg63
(lp5572
g56
(g57
g58
NtRp5573
(dp5574
g61
(dp5575
g69
I5
ssg70
g5569
sg63
(lp5576
g121
asbasbasbag56
(g72
g58
NtRp5577
(dp5578
g61
(dp5579
sg70
g3828
sg63
(lp5580
g56
(g77
g58
NtRp5581
(dp5582
g61
(dp5583
g81
g82
ssg70
g5577
sg63
(lp5584
g2683
asbag56
(g77
g58
NtRp5585
(dp5586
g61
(dp5587
g88
g89
ssg70
g5577
sg63
(lp5588
S':'
asbag56
(g77
g58
NtRp5589
(dp5590
g61
(dp5591
sg70
g5577
sg63
(lp5592
g56
(g57
g58
NtRp5593
(dp5594
g61
(dp5595
g69
I5
ssg70
g5589
sg63
(lp5596
g2696
asbasbasbag56
(g72
g58
NtRp5597
(dp5598
g61
(dp5599
sg70
g3828
sg63
(lp5600
g56
(g77
g58
NtRp5601
(dp5602
g61
(dp5603
g81
g82
ssg70
g5597
sg63
(lp5604
S'view'
p5605
asbag56
(g77
g58
NtRp5606
(dp5607
g61
(dp5608
g88
g89
ssg70
g5597
sg63
(lp5609
S':'
asbag56
(g77
g58
NtRp5610
(dp5611
g61
(dp5612
sg70
g5597
sg63
(lp5613
g56
(g57
g58
NtRp5614
(dp5615
g61
(dp5616
g69
I5
ssg70
g5610
sg63
(lp5617
S'default/prestamos.html'
p5618
asbasbasbasbasbsS'locals'
p5619
(dp5620
S'self'
p5621
S"<Table {'foto': <gluon.dal.Field object at 0x3ce...cumento': <gluon.dal.Field object at 0x3561310>}>"
p5622
sS'key'
p5623
S"'first_name'"
p5624
sssS'traceback'
p5625
S'Traceback (most recent call last):\n  File "/home/marco/proyectos/web2py-trunk/gluon/restricted.py", line 192, in restricted\n    exec ccode in environment\n  File "/home/marco/proyectos/web2py-trunk/applications/mvstore/controllers/default.py", line 71, in <module>\n  File "/home/marco/proyectos/web2py-trunk/gluon/globals.py", line 137, in <lambda>\n    self._caller = lambda f: f()\n  File "/home/marco/proyectos/web2py-trunk/applications/mvstore/controllers/default.py", line 67, in prestamos\n    form=crud.create(db.prestamos)\n  File "/home/marco/proyectos/web2py-trunk/gluon/tools.py", line 3120, in create\n    formname=formname,\n  File "/home/marco/proyectos/web2py-trunk/gluon/tools.py", line 3032, in update\n    formstyle=self.settings.formstyle\n  File "/home/marco/proyectos/web2py-trunk/gluon/sqlhtml.py", line 817, in __init__\n    inp = self.widgets.options.widget(field, default)\n  File "/home/marco/proyectos/web2py-trunk/gluon/sqlhtml.py", line 206, in widget\n    options = requires[0].options()\n  File "/home/marco/proyectos/web2py-trunk/gluon/validators.py", line 438, in options\n    self.build_set()\n  File "/home/marco/proyectos/web2py-trunk/gluon/validators.py", line 421, in build_set\n    fields = [self.dbset.db[self.ktable][k] for k in self.fields]\n  File "/home/marco/proyectos/web2py-trunk/gluon/dal.py", line 4592, in __getitem__\n    return dict.__getitem__(self, str(key))\nKeyError: \'first_name\'\n'
p5626
s.