(dp1
S'output'
p2
S''
sS'layer'
p3
S'/home/marco/proyectos/web2py-trunk/applications/mvstore/views/default/empleados.html'
p4
sS'code'
p5
S'response.write(\'<!DOCTYPE html>\\n<html lang="\', escape=False)\nresponse.write(T.accepted_language or \'en\')\nresponse.write(\'" class="no-js"><!-- no-js need it for modernzr -->\\n  <head>\\n    \\n    <meta charset="utf-8" />\\t  \\t\\n    <!-- www.phpied.com/conditional-comments-block-downloads/ -->\\n    <!--[if IE]><![endif]-->    \\n    <!-- Always force latest IE rendering engine \\n\\t (even in intranet) & Chrome Frame \\n\\t Remove this if you use the .htaccess -->\\n    <meta http-equiv="X-UA-Compatible" content="IE=edge,chrome=1">\\n    \\n    <title>\', escape=False)\nresponse.write(response.title or request.application)\nresponse.write(\'</title>\\n    \\n    <!-- http://dev.w3.org/html5/markup/meta.name.html -->\\n    <meta name="application-name" content="\', escape=False)\nresponse.write(request.application)\nresponse.write(\'" />\\t\\n    \\n    <!-- Speaking of Google, don\\\'t forget to set your site up: \\n\\t http://google.com/webmasters -->\\n    <meta name="google-site-verification" content="" />\\n    \\n    <!--  Mobile Viewport Fix\\n\\t  j.mp/mobileviewport & davidbcalhoun.com/2010/viewport-metatag \\n\\t  device-width: Occupy full width of the screen in its current orientation\\n\\t  initial-scale = 1.0 retains dimensions instead of zooming out if page height > device height\\n\\t  maximum-scale = 1.0 retains dimensions instead of zooming in if page width < device width\\n      -->\\n    <meta name="viewport" content="width=device-width; initial-scale=1.0; maximum-scale=1.0;">\\n    \\n    <!-- Place favicon.ico and apple-touch-icon.png in the root of your domain and delete these references -->\\n    <link rel="shortcut icon" href="\', escape=False)\nresponse.write(URL(\'static\',\'favicon.ico\'))\nresponse.write(\'" type="image/x-icon">\\n    <link rel="apple-touch-icon" href="\', escape=False)\nresponse.write(URL(\'static\',\'favicon.png\'))\nresponse.write(\'">\\n\\n    <!-- For the less-enabled mobile browsers like Opera Mini -->\\n    <link rel="stylesheet" media="handheld" href="\', escape=False)\nresponse.write(URL(\'static\',\'css/handheld.css\'))\nresponse.write(\'">\\n    \\n    <!-- All JavaScript at the bottom, except for Modernizr which enables HTML5 elements & feature detects -->\\n    <script src="\', escape=False)\nresponse.write(URL(\'static\',\'js/modernizr-1.7.min.js\'))\nresponse.write(\'"></script>\\n    \\n    \', escape=False)\n#------  require CSS and JS files for this page (read info in base.css) ------\nresponse.write(\'\\n    \', escape=False)\nresponse.files.append(URL(\'static\',\'css/base.css\'))\nresponse.write(\'\\n    \', escape=False)\nresponse.files.append(URL(\'static\',\'css/superfish.css\'))\nresponse.write(\'\\n    \', escape=False)\nresponse.files.append(URL(\'static\',\'js/superfish.js\'))\nresponse.write(\'\\n    \', escape=False)\n#------ include web2py specific js code (jquery, calendar, form stuff) ------\nresponse.write(\'\\n    \', escape=False)\nresponse.files.insert(0,URL(\'static\',\'js/jquery.js\'))\nresponse.files.insert(1,URL(\'static\',\'css/calendar.css\'))\nresponse.files.insert(2,URL(\'static\',\'js/calendar.js\'))\nfor _item in response.meta or []:\n    response.write(\'\\n     <meta name="\', escape=False)\n    response.write(_item)\n    response.write(\'" content="\', escape=False)\n    response.write(response.meta[_item])\n    response.write(\'" />\', escape=False)\n    pass\nfor _k,_file in enumerate(response.files or []):\n    if _file in response.files[:_k]:\n        continue\n    _file0=_file.lower().split(\'?\')[0]\n    if _file0.endswith(\'.css\'):\n        response.write(\'\\n     <link href="\', escape=False)\n        response.write(_file)\n        response.write(\'" rel="stylesheet" type="text/css" />\', escape=False)\n    elif _file0.endswith(\'.js\'):\n        response.write(\'\\n     <script src="\', escape=False)\n        response.write(_file)\n        response.write(\'" type="text/javascript"></script>\', escape=False)\n        pass\n    pass\nresponse.write(\'\\n  \\n<script type="text/javascript"><!--\\nfunction popup(url) {\\n  newwindow=window.open(url,\\\'name\\\',\\\'height=400,width=600\\\');\\n  if (window.focus) newwindow.focus();\\n  return false;\\n}\\nfunction collapse(id) { jQuery(\\\'#\\\'+id).slideToggle(); }\\nfunction fade(id,value) { if(value>0) jQuery(\\\'#\\\'+id).hide().fadeIn(\\\'slow\\\'); else jQuery(\\\'#\\\'+id).show().fadeOut(\\\'slow\\\'); }\\nfunction ajax(u,s,t) {\\n    query = \\\'\\\';\\n    if (typeof s == "string") {\\n        d = jQuery(s).serialize();\\n        if(d){ query = d; }\\n    } else {\\n        pcs = [];\\n        for(i=0; i<s.length; i++) {\\n            q = jQuery("[name="+s[i]+"]").serialize();\\n            if(q){pcs.push(q);}\\n        }\\n        if (pcs.length>0){query = pcs.join("&");}\\n    }\\n    jQuery.ajax({type: "POST", url: u, data: query, success: function(msg) { if(t) { if(t==\\\':eval\\\') eval(msg); else jQuery("#" + t).html(msg); } } }); \\n}\\n\\nString.prototype.reverse = function () { return this.split(\\\'\\\').reverse().join(\\\'\\\');};\\nfunction web2py_ajax_init() {\\n  jQuery(\\\'.hidden\\\').hide();\\n  jQuery(\\\'.error\\\').hide().slideDown(\\\'slow\\\');\\n  jQuery(\\\'.flash\\\').click(function() { jQuery(this).fadeOut(\\\'slow\\\'); return false; });\\n  // jQuery(\\\'input[type=submit]\\\').click(function(){var t=jQuery(this);t.hide();t.after(\\\'<input class="submit_disabled" disabled="disabled" type="submit" name="\\\'+t.attr("name")+\\\'_dummy" value="\\\'+t.val()+\\\'">\\\')});\\n  jQuery(\\\'input.integer\\\').live(\\\'keyup\\\', function(){this.value=this.value.reverse().replace(/[^0-9\\\\-]|\\\\-(?=.)/g,\\\'\\\').reverse();});\\n  jQuery(\\\'input.double,input.decimal\\\').live(\\\'keyup\\\', function(){this.value=this.value.reverse().replace(/[^0-9\\\\-\\\\.]|[\\\\-](?=.)|[\\\\.](?=[0-9]*[\\\\.])/g,\\\'\\\').reverse();});\\n  jQuery("input[type=\\\'checkbox\\\'].delete").live(\\\'click\\\', function(){ if(this.checked) if(!confirm("\', escape=False)\nresponse.write(T(\'Sure you want to delete this object?\'))\nresponse.write(\'")) this.checked=false; });\\n  try {jQuery("input.date").live(\\\'focus\\\',function() {Calendar.setup({\\n     inputField:this, ifFormat:"\', escape=False)\nresponse.write(T(\'%Y-%m-%d\'))\nresponse.write(\'", showsTime:false\\n  }); }); } catch(e) {};\\n  try { jQuery("input.datetime").live(\\\'focus\\\', function() {Calendar.setup({\\n     inputField:this, ifFormat:"\', escape=False)\nresponse.write(T(\'%Y-%m-%d %H:%M:%S\'))\nresponse.write(\'", showsTime: true,timeFormat: "24"\\n  }); }); } catch(e) {};\\n\\n  jQuery("input.time").live(\\\'focus\\\', function() { var el = jQuery(this); \\n          if (!el.hasClass(\\\'hasTimeEntry\\\')) try { el.timeEntry(); } catch(e) {}; \\n  });\\n};\\n\\njQuery(document).ready(function() {   \\n   var flash = jQuery(\\\'.flash\\\');\\n   flash.hide();\\n   if(flash.html()) flash.slideDown();\\n   web2py_ajax_init();\\n});\\nfunction web2py_trap_form(action,target) {\\n   jQuery(\\\'#\\\'+target+\\\' form\\\').each(function(i){\\n      var form=jQuery(this);\\n      if(!form.hasClass(\\\'no_trap\\\'))\\n        form.submit(function(obj){\\n         jQuery(\\\'.flash\\\').hide().html(\\\'\\\');\\n         web2py_ajax_page(\\\'post\\\',action,form.serialize(),target);\\n         return false;\\n      });\\n   });\\n}\\nfunction web2py_ajax_page(method,action,data,target) {\\n  jQuery.ajax({\\\'type\\\':method,\\\'url\\\':action,\\\'data\\\':data,\\n    \\\'beforeSend\\\':function(xhr) {\\n      xhr.setRequestHeader(\\\'web2py-component-location\\\',document.location);\\n      xhr.setRequestHeader(\\\'web2py-component-element\\\',target);},\\n    \\\'complete\\\':function(xhr,text){\\n      var html=xhr.responseText;\\n      var content=xhr.getResponseHeader(\\\'web2py-component-content\\\'); \\n      var command=xhr.getResponseHeader(\\\'web2py-component-command\\\');\\n      var flash=xhr.getResponseHeader(\\\'web2py-component-flash\\\');\\n      var t = jQuery(\\\'#\\\'+target);\\n      if(content==\\\'prepend\\\') t.prepend(html); \\n      else if(content==\\\'append\\\') t.append(html);\\n      else if(content!=\\\'hide\\\') t.html(html);  \\n      web2py_trap_form(action,target);\\n      web2py_ajax_init();      \\n      if(command) eval(command);\\n      if(flash) jQuery(\\\'.flash\\\').html(flash).slideDown();\\n      }\\n    });\\n}\\nfunction web2py_component(action,target) {\\n  jQuery(document).ready(function(){ web2py_ajax_page(\\\'get\\\',action,null,target); });\\n}\\nfunction web2py_comet(url,onmessage,onopen,onclose) {\\n  if ("WebSocket" in window) {\\n    var ws = new WebSocket(url);\\n    ws.onopen = onopen?onopen:(function(){});\\n    ws.onmessage = onmessage;\\n    ws.onclose = onclose?onclose:(function(){});\\n    return true; // supported\\n  } else return false; // not supported\\n}\\n//--></script>\\n\', escape=False)\nresponse.write(\'\\n\\n    \', escape=False)\n#using sidebars need to know what sidebar you want to use\n#prior of using it, because of static width size of content, you can use\n#left_sidebar, right_sidebar, both or none (False left and right)\nleft_sidebar_enabled = globals().get(\'left_sidebar_enabled\',False)\nright_sidebar_enabled = globals().get(\'right_sidebar_enabled\',False)\nif left_sidebar_enabled and right_sidebar_enabled: width_content=\'63%\'\nelif left_sidebar_enabled != right_sidebar_enabled: width_content=\'740px\'\nelse: width_content=\'100%\'\nif left_sidebar_enabled: left_sidebar_style = \'style="display: block;"\'\nelse: left_sidebar_style = \'style="display: none;"\'\nif right_sidebar_enabled: right_sidebar_style = \'style="display: block;"\'\nelse: right_sidebar_style = \'style="display: none;"\'\nstyle_content = \'style="width: %s"\' % width_content\nresponse.write(\'\\n  </head>\\n  \\n  <!-- paulirish.com/2008/conditional-stylesheets-vs-css-hacks-answer-neither/ -->\\t\\n  <!--[if lt IE 7 ]> <body class="ie6"> <![endif]-->\\n  <!--[if IE 7 ]>    <body class="ie7"> <![endif]-->\\n  <!--[if IE 8 ]>    <body class="ie8"> <![endif]-->\\n  <!--[if IE 9 ]>    <body class="ie9"> <![endif]-->\\n  <!--[if (gt IE 9)|!(IE)]><!--> <body> <!--<![endif]-->\\n    \\n    <div class="flash">\', escape=False)\nresponse.write(response.flash or \'\')\nresponse.write(\'</div> <!-- notification div -->\\n    \\n    <div id="container">\\t      \\t\\t      \\t\\n      \\n      <div id="wrapper">\\t\\t\\n\\t\\n\\t<div id="header"> <!-- header and login nav -->\\n\\t  \', escape=False)\nresponse.write(\' <!-- this is default header -->\\n\\t  \', escape=False)\ntry:\n    response.write(auth.navbar(action=URL(\'default\',\'user\')))\nexcept:pass\nresponse.write(\'\\t\\t          \\n\\t  <h1><span id="appname">\', escape=False)\nresponse.write(request.application.capitalize())\nresponse.write(\'</span>App</h1>\\n\\t  <div style="clear: both;"></div><!-- Clear the divs -->\\n\\t  \', escape=False)\nresponse.write(\'\\t\\t\\t\\t  \\t\\t\\t\\t\\t  \\n\\t</div><!-- header  -->\\n\\t\\n\\t<div id="statusbar"><!-- statusbar is menu zone -->\\n\\t  \', escape=False)\nresponse.write(\' <!-- this is default statusbar -->\\n\\t  \', escape=False)\n#------ superfish menu ------\nresponse.write(\'\\n\\t  \', escape=False)\nresponse.write(MENU(response.menu,_class=\'sf-menu\'))\nresponse.write(\'\\n\\t  <script type="text/javascript">\\n\\t    jQuery(document).ready(function(){\\n\\t    jQuery(\\\'ul.sf-menu\\\').superfish();});\\n\\t  </script>\\n\\t  <div style="clear: both;"></div><!-- Clear the divs -->\\t\\n\\t  \', escape=False)\nresponse.write(\'\\t\\t\\t\\t\\n\\t</div><!-- statusbar -->\\n\\t\\n\\t<div id="page"> <!-- Here my central body -->\\t  \\n\\n\\t  \', escape=False)\nif left_sidebar_enabled:\n    response.write(\'\\n          <div id="left_sidebar" \', escape=False)\n    response.write(XML(left_sidebar_style))\n    response.write(\' >\\n            <div style="padding: 4px;">\\n\\t      \', escape=False)\n    response.write(\'Content Left Sidebar\', escape=False)\n    response.write(\'\\t\\t  \\n            </div>\\n          </div><!-- left_sidebar -->\\n\\t  \', escape=False)\n    pass\nresponse.write(\'\\n\\n\\t  <!-- content -->\\n\\t  <div id="content" \', escape=False)\nresponse.write(XML(style_content))\nresponse.write(\' >\\n\\t    \', escape=False)\nresponse.write(\'\\n<h1>This is the default/empleados.html template</h1>\\n\', escape=False)\nresponse.write(BEAUTIFY(response._vars))\nresponse.write(\'\\n\', escape=False)\nresponse.write(\'\\t\\n\\t  </div>\\n\\t  <!-- content -->\\n\\n\\t  \', escape=False)\nif right_sidebar_enabled:\n    response.write(\'\\n          <div id="right_sidebar" \', escape=False)\n    response.write(XML(right_sidebar_style))\n    response.write(\' >\\n            <div style="padding: 4px;">\\n              \', escape=False)\n    response.write(\'Content Right Sidebar\', escape=False)\n    response.write(\'\\n            </div>\\n\\t  </div><!-- right_sidebar -->\\n          \', escape=False)\n    pass\nresponse.write(\'\\n\\n\\n\\t  <div style="clear: both;"></div><!-- Clear the divs -->\\n\\t  \\n\\t</div><!-- page -->\\t\\t\\t\\t\\t\\t\\t\\n\\t\\n\\t<div id="footer">\\n\\t  \', escape=False)\nresponse.write(\' <!-- this is default footer -->\\n\\t  <a href="http://www.web2py.com/" style="float: left; padding-right: 6px;">\\n\\t    <img src="\', escape=False)\nresponse.write(URL(\'static\',\'images/poweredby.png\'))\nresponse.write(\'"/>\\n\\t  </a>\\n\\t  \', escape=False)\nresponse.write(T(\'Copyright\'))\nresponse.write(\' &#169; 2010\\t\\t\\t\\t\\n\\t  <div style="clear: both;"></div><!-- Clear the divs -->\\n\\t  \', escape=False)\nresponse.write(\'\\n\\n\\t</div><!-- footer -->\\t\\t\\t\\n      </div><!-- wrapper -->\\n    </div><!-- container -->\\t\\t\\n    \\n    <!--[if lt IE 7 ]>\\n\\t<script src="\', escape=False)\nresponse.write(URL(\'static\',\'js/dd_belatedpng.js\'))\nresponse.write(\'"></script>\\n\\t<script> DD_belatedPNG.fix(\\\'img, .png_bg\\\'); //fix any <img> or .png_bg background-images </script>\\n\\t<![endif]-->\\n    \\n    <!-- asynchronous google analytics: mathiasbynens.be/notes/async-analytics-snippet \\n\\t change the UA-XXXXX-X to be your site\\\'s ID -->\\n    <!--   \\n\\t   <script>\\n\\t     var _gaq = [[\\\'_setAccount\\\', \\\'UA-XXXXX-X\\\'], [\\\'_trackPageview\\\']];\\n\\t     (function(d, t) {\\n\\t     var g = d.createElement(t),\\n\\t     s = d.getElementsByTagName(t)[0];\\n\\t     g.async = true;\\n\\t     g.src = \\\'//www.google-analytics.com/ga.js\\\';\\n\\t     s.parentNode.insertBefore(g, s);\\n\\t     })(document, \\\'script\\\');\\n\\t   </script>\\n\\t   -->    \\n  </body>\\n</html>\\n\', escape=False)'
p6
sS'snapshot'
p7
(dp8
S'exception'
p9
(dp10
S'__hash__'
p11
S"<method-wrapper '__hash__' of exceptions.TypeError object>"
p12
sS'__setattr__'
p13
S"<method-wrapper '__setattr__' of exceptions.TypeError object>"
p14
sS'__reduce_ex__'
p15
S'<built-in method __reduce_ex__ of exceptions.TypeError object>'
p16
sS'__getslice__'
p17
S"<method-wrapper '__getslice__' of exceptions.TypeError object>"
p18
sS'__getitem__'
p19
S"<method-wrapper '__getitem__' of exceptions.TypeError object>"
p20
sS'__setstate__'
p21
S'<built-in method __setstate__ of exceptions.TypeError object>'
p22
sS'args'
p23
S'("\'bool\' object is unsubscriptable",)'
p24
sS'__reduce__'
p25
S'<built-in method __reduce__ of exceptions.TypeError object>'
p26
sS'__str__'
p27
S"<method-wrapper '__str__' of exceptions.TypeError object>"
p28
sS'__format__'
p29
S'<built-in method __format__ of exceptions.TypeError object>'
p30
sS'__getattribute__'
p31
S"<method-wrapper '__getattribute__' of exceptions.TypeError object>"
p32
sS'__class__'
p33
S"<type 'exceptions.TypeError'>"
p34
sS'__unicode__'
p35
S'<built-in method __unicode__ of exceptions.TypeError object>'
p36
sS'__delattr__'
p37
S"<method-wrapper '__delattr__' of exceptions.TypeError object>"
p38
sS'__subclasshook__'
p39
S'<built-in method __subclasshook__ of type object>'
p40
sS'__repr__'
p41
S"<method-wrapper '__repr__' of exceptions.TypeError object>"
p42
sS'__dict__'
p43
S'{}'
p44
sS'__sizeof__'
p45
S'<built-in method __sizeof__ of exceptions.TypeError object>'
p46
sS'__doc__'
p47
S"'Inappropriate argument type.'"
p48
sS'__init__'
p49
S"<method-wrapper '__init__' of exceptions.TypeError object>"
p50
sS'__new__'
p51
S'<built-in method __new__ of type object>'
p52
ssS'evalue'
p53
S"'bool' object is unsubscriptable"
p54
sS'request'
p55
ccopy_reg
_reconstructor
p56
(cgluon.html
BEAUTIFY
p57
c__builtin__
object
p58
NtRp59
(dp60
S'attributes'
p61
(dp62
sS'components'
p63
(lp64
g56
(cgluon.html
TABLE
p65
g58
NtRp66
(dp67
g61
(dp68
S'level'
p69
I5
ssS'parent'
p70
Nsg63
(lp71
g56
(cgluon.html
TR
p72
g58
NtRp73
(dp74
g61
(dp75
sg70
g66
sg63
(lp76
g56
(cgluon.html
TD
p77
g58
NtRp78
(dp79
g61
(dp80
S'_style'
p81
S'font-weight:bold;'
p82
ssg70
g73
sg63
(lp83
S'ajax'
p84
asbag56
(g77
g58
NtRp85
(dp86
g61
(dp87
S'_valign'
p88
S'top'
p89
ssg70
g73
sg63
(lp90
S':'
asbag56
(g77
g58
NtRp91
(dp92
g61
(dp93
sg70
g73
sg63
(lp94
g56
(g57
g58
NtRp95
(dp96
g61
(dp97
g69
I5
ssg70
g91
sg63
(lp98
S'False'
p99
asbasbasbag56
(g72
g58
NtRp100
(dp101
g61
(dp102
sg70
g66
sg63
(lp103
g56
(g77
g58
NtRp104
(dp105
g61
(dp106
g81
g82
ssg70
g100
sg63
(lp107
S'application'
p108
asbag56
(g77
g58
NtRp109
(dp110
g61
(dp111
g88
g89
ssg70
g100
sg63
(lp112
S':'
asbag56
(g77
g58
NtRp113
(dp114
g61
(dp115
sg70
g100
sg63
(lp116
g56
(g57
g58
NtRp117
(dp118
g61
(dp119
g69
I5
ssg70
g113
sg63
(lp120
S'mvstore'
p121
asbasbasbag56
(g72
g58
NtRp122
(dp123
g61
(dp124
sg70
g66
sg63
(lp125
g56
(g77
g58
NtRp126
(dp127
g61
(dp128
g81
g82
ssg70
g122
sg63
(lp129
g23
asbag56
(g77
g58
NtRp130
(dp131
g61
(dp132
g88
g89
ssg70
g122
sg63
(lp133
S':'
asbag56
(g77
g58
NtRp134
(dp135
g61
(dp136
sg70
g122
sg63
(lp137
g56
(g57
g58
NtRp138
(dp139
g61
(dp140
g69
I5
ssg70
g134
sg63
(lp141
g56
(g65
g58
NtRp142
(dp143
g61
(dp144
g69
I4
ssg70
Nsg63
(lp145
sbasbasbasbag56
(g72
g58
NtRp146
(dp147
g61
(dp148
sg70
g66
sg63
(lp149
g56
(g77
g58
NtRp150
(dp151
g61
(dp152
g81
g82
ssg70
g146
sg63
(lp153
S'body'
p154
asbag56
(g77
g58
NtRp155
(dp156
g61
(dp157
g88
g89
ssg70
g146
sg63
(lp158
S':'
asbag56
(g77
g58
NtRp159
(dp160
g61
(dp161
sg70
g146
sg63
(lp162
g56
(g57
g58
NtRp163
(dp164
g61
(dp165
g69
I5
ssg70
g159
sg63
(lp166
S'<cStringIO.StringO object at 0x2aa50a0>'
p167
asbasbasbag56
(g72
g58
NtRp168
(dp169
g61
(dp170
sg70
g66
sg63
(lp171
g56
(g77
g58
NtRp172
(dp173
g61
(dp174
g81
g82
ssg70
g168
sg63
(lp175
S'client'
p176
asbag56
(g77
g58
NtRp177
(dp178
g61
(dp179
g88
g89
ssg70
g168
sg63
(lp180
S':'
asbag56
(g77
g58
NtRp181
(dp182
g61
(dp183
sg70
g168
sg63
(lp184
g56
(g57
g58
NtRp185
(dp186
g61
(dp187
g69
I5
ssg70
g181
sg63
(lp188
S'127.0.0.1'
p189
asbasbasbag56
(g72
g58
NtRp190
(dp191
g61
(dp192
sg70
g66
sg63
(lp193
g56
(g77
g58
NtRp194
(dp195
g61
(dp196
g81
g82
ssg70
g190
sg63
(lp197
S'controller'
p198
asbag56
(g77
g58
NtRp199
(dp200
g61
(dp201
g88
g89
ssg70
g190
sg63
(lp202
S':'
asbag56
(g77
g58
NtRp203
(dp204
g61
(dp205
sg70
g190
sg63
(lp206
g56
(g57
g58
NtRp207
(dp208
g61
(dp209
g69
I5
ssg70
g203
sg63
(lp210
S'default'
p211
asbasbasbag56
(g72
g58
NtRp212
(dp213
g61
(dp214
sg70
g66
sg63
(lp215
g56
(g77
g58
NtRp216
(dp217
g61
(dp218
g81
g82
ssg70
g212
sg63
(lp219
S'cookies'
p220
asbag56
(g77
g58
NtRp221
(dp222
g61
(dp223
g88
g89
ssg70
g212
sg63
(lp224
S':'
asbag56
(g77
g58
NtRp225
(dp226
g61
(dp227
sg70
g212
sg63
(lp228
g56
(g57
g58
NtRp229
(dp230
g61
(dp231
g69
I5
ssg70
g225
sg63
(lp232
g56
(g65
g58
NtRp233
(dp234
g61
(dp235
g69
I4
ssg70
Nsg63
(lp236
g56
(g72
g58
NtRp237
(dp238
g61
(dp239
sg70
g233
sg63
(lp240
g56
(g77
g58
NtRp241
(dp242
g61
(dp243
g81
g82
ssg70
g237
sg63
(lp244
S'session_id_admin'
p245
asbag56
(g77
g58
NtRp246
(dp247
g61
(dp248
g88
g89
ssg70
g237
sg63
(lp249
S':'
asbag56
(g77
g58
NtRp250
(dp251
g61
(dp252
sg70
g237
sg63
(lp253
g56
(g57
g58
NtRp254
(dp255
g61
(dp256
g69
I4
ssg70
g250
sg63
(lp257
g56
(g65
g58
NtRp258
(dp259
g61
(dp260
g69
I3
ssg70
Nsg63
(lp261
g56
(g72
g58
NtRp262
(dp263
g61
(dp264
sg70
g258
sg63
(lp265
g56
(g77
g58
NtRp266
(dp267
g61
(dp268
g81
g82
ssg70
g262
sg63
(lp269
S'comment'
p270
asbag56
(g77
g58
NtRp271
(dp272
g61
(dp273
g88
g89
ssg70
g262
sg63
(lp274
S':'
asbag56
(g77
g58
NtRp275
(dp276
g61
(dp277
sg70
g262
sg63
(lp278
g56
(g57
g58
NtRp279
(dp280
g61
(dp281
g69
I3
ssg70
g275
sg63
(lp282
S''
asbasbasbag56
(g72
g58
NtRp283
(dp284
g61
(dp285
sg70
g258
sg63
(lp286
g56
(g77
g58
NtRp287
(dp288
g61
(dp289
g81
g82
ssg70
g283
sg63
(lp290
S'domain'
p291
asbag56
(g77
g58
NtRp292
(dp293
g61
(dp294
g88
g89
ssg70
g283
sg63
(lp295
S':'
asbag56
(g77
g58
NtRp296
(dp297
g61
(dp298
sg70
g283
sg63
(lp299
g56
(g57
g58
NtRp300
(dp301
g61
(dp302
g69
I3
ssg70
g296
sg63
(lp303
S''
asbasbasbag56
(g72
g58
NtRp304
(dp305
g61
(dp306
sg70
g258
sg63
(lp307
g56
(g77
g58
NtRp308
(dp309
g61
(dp310
g81
g82
ssg70
g304
sg63
(lp311
S'expires'
p312
asbag56
(g77
g58
NtRp313
(dp314
g61
(dp315
g88
g89
ssg70
g304
sg63
(lp316
S':'
asbag56
(g77
g58
NtRp317
(dp318
g61
(dp319
sg70
g304
sg63
(lp320
g56
(g57
g58
NtRp321
(dp322
g61
(dp323
g69
I3
ssg70
g317
sg63
(lp324
S''
asbasbasbag56
(g72
g58
NtRp325
(dp326
g61
(dp327
sg70
g258
sg63
(lp328
g56
(g77
g58
NtRp329
(dp330
g61
(dp331
g81
g82
ssg70
g325
sg63
(lp332
S'httponly'
p333
asbag56
(g77
g58
NtRp334
(dp335
g61
(dp336
g88
g89
ssg70
g325
sg63
(lp337
S':'
asbag56
(g77
g58
NtRp338
(dp339
g61
(dp340
sg70
g325
sg63
(lp341
g56
(g57
g58
NtRp342
(dp343
g61
(dp344
g69
I3
ssg70
g338
sg63
(lp345
S''
asbasbasbag56
(g72
g58
NtRp346
(dp347
g61
(dp348
sg70
g258
sg63
(lp349
g56
(g77
g58
NtRp350
(dp351
g61
(dp352
g81
g82
ssg70
g346
sg63
(lp353
S'max-age'
p354
asbag56
(g77
g58
NtRp355
(dp356
g61
(dp357
g88
g89
ssg70
g346
sg63
(lp358
S':'
asbag56
(g77
g58
NtRp359
(dp360
g61
(dp361
sg70
g346
sg63
(lp362
g56
(g57
g58
NtRp363
(dp364
g61
(dp365
g69
I3
ssg70
g359
sg63
(lp366
S''
asbasbasbag56
(g72
g58
NtRp367
(dp368
g61
(dp369
sg70
g258
sg63
(lp370
g56
(g77
g58
NtRp371
(dp372
g61
(dp373
g81
g82
ssg70
g367
sg63
(lp374
S'path'
p375
asbag56
(g77
g58
NtRp376
(dp377
g61
(dp378
g88
g89
ssg70
g367
sg63
(lp379
S':'
asbag56
(g77
g58
NtRp380
(dp381
g61
(dp382
sg70
g367
sg63
(lp383
g56
(g57
g58
NtRp384
(dp385
g61
(dp386
g69
I3
ssg70
g380
sg63
(lp387
S''
asbasbasbag56
(g72
g58
NtRp388
(dp389
g61
(dp390
sg70
g258
sg63
(lp391
g56
(g77
g58
NtRp392
(dp393
g61
(dp394
g81
g82
ssg70
g388
sg63
(lp395
S'secure'
p396
asbag56
(g77
g58
NtRp397
(dp398
g61
(dp399
g88
g89
ssg70
g388
sg63
(lp400
S':'
asbag56
(g77
g58
NtRp401
(dp402
g61
(dp403
sg70
g388
sg63
(lp404
g56
(g57
g58
NtRp405
(dp406
g61
(dp407
g69
I3
ssg70
g401
sg63
(lp408
S''
asbasbasbag56
(g72
g58
NtRp409
(dp410
g61
(dp411
sg70
g258
sg63
(lp412
g56
(g77
g58
NtRp413
(dp414
g61
(dp415
g81
g82
ssg70
g409
sg63
(lp416
S'version'
p417
asbag56
(g77
g58
NtRp418
(dp419
g61
(dp420
g88
g89
ssg70
g409
sg63
(lp421
S':'
asbag56
(g77
g58
NtRp422
(dp423
g61
(dp424
sg70
g409
sg63
(lp425
g56
(g57
g58
NtRp426
(dp427
g61
(dp428
g69
I3
ssg70
g422
sg63
(lp429
S''
asbasbasbasbasbasbasbag56
(g72
g58
NtRp430
(dp431
g61
(dp432
sg70
g233
sg63
(lp433
g56
(g77
g58
NtRp434
(dp435
g61
(dp436
g81
g82
ssg70
g430
sg63
(lp437
S'session_id_mvstore'
p438
asbag56
(g77
g58
NtRp439
(dp440
g61
(dp441
g88
g89
ssg70
g430
sg63
(lp442
S':'
asbag56
(g77
g58
NtRp443
(dp444
g61
(dp445
sg70
g430
sg63
(lp446
g56
(g57
g58
NtRp447
(dp448
g61
(dp449
g69
I4
ssg70
g443
sg63
(lp450
g56
(g65
g58
NtRp451
(dp452
g61
(dp453
g69
I3
ssg70
Nsg63
(lp454
g56
(g72
g58
NtRp455
(dp456
g61
(dp457
sg70
g451
sg63
(lp458
g56
(g77
g58
NtRp459
(dp460
g61
(dp461
g81
g82
ssg70
g455
sg63
(lp462
g270
asbag56
(g77
g58
NtRp463
(dp464
g61
(dp465
g88
g89
ssg70
g455
sg63
(lp466
S':'
asbag56
(g77
g58
NtRp467
(dp468
g61
(dp469
sg70
g455
sg63
(lp470
g56
(g57
g58
NtRp471
(dp472
g61
(dp473
g69
I3
ssg70
g467
sg63
(lp474
S''
asbasbasbag56
(g72
g58
NtRp475
(dp476
g61
(dp477
sg70
g451
sg63
(lp478
g56
(g77
g58
NtRp479
(dp480
g61
(dp481
g81
g82
ssg70
g475
sg63
(lp482
g291
asbag56
(g77
g58
NtRp483
(dp484
g61
(dp485
g88
g89
ssg70
g475
sg63
(lp486
S':'
asbag56
(g77
g58
NtRp487
(dp488
g61
(dp489
sg70
g475
sg63
(lp490
g56
(g57
g58
NtRp491
(dp492
g61
(dp493
g69
I3
ssg70
g487
sg63
(lp494
S''
asbasbasbag56
(g72
g58
NtRp495
(dp496
g61
(dp497
sg70
g451
sg63
(lp498
g56
(g77
g58
NtRp499
(dp500
g61
(dp501
g81
g82
ssg70
g495
sg63
(lp502
g312
asbag56
(g77
g58
NtRp503
(dp504
g61
(dp505
g88
g89
ssg70
g495
sg63
(lp506
S':'
asbag56
(g77
g58
NtRp507
(dp508
g61
(dp509
sg70
g495
sg63
(lp510
g56
(g57
g58
NtRp511
(dp512
g61
(dp513
g69
I3
ssg70
g507
sg63
(lp514
S''
asbasbasbag56
(g72
g58
NtRp515
(dp516
g61
(dp517
sg70
g451
sg63
(lp518
g56
(g77
g58
NtRp519
(dp520
g61
(dp521
g81
g82
ssg70
g515
sg63
(lp522
g333
asbag56
(g77
g58
NtRp523
(dp524
g61
(dp525
g88
g89
ssg70
g515
sg63
(lp526
S':'
asbag56
(g77
g58
NtRp527
(dp528
g61
(dp529
sg70
g515
sg63
(lp530
g56
(g57
g58
NtRp531
(dp532
g61
(dp533
g69
I3
ssg70
g527
sg63
(lp534
S''
asbasbasbag56
(g72
g58
NtRp535
(dp536
g61
(dp537
sg70
g451
sg63
(lp538
g56
(g77
g58
NtRp539
(dp540
g61
(dp541
g81
g82
ssg70
g535
sg63
(lp542
g354
asbag56
(g77
g58
NtRp543
(dp544
g61
(dp545
g88
g89
ssg70
g535
sg63
(lp546
S':'
asbag56
(g77
g58
NtRp547
(dp548
g61
(dp549
sg70
g535
sg63
(lp550
g56
(g57
g58
NtRp551
(dp552
g61
(dp553
g69
I3
ssg70
g547
sg63
(lp554
S''
asbasbasbag56
(g72
g58
NtRp555
(dp556
g61
(dp557
sg70
g451
sg63
(lp558
g56
(g77
g58
NtRp559
(dp560
g61
(dp561
g81
g82
ssg70
g555
sg63
(lp562
g375
asbag56
(g77
g58
NtRp563
(dp564
g61
(dp565
g88
g89
ssg70
g555
sg63
(lp566
S':'
asbag56
(g77
g58
NtRp567
(dp568
g61
(dp569
sg70
g555
sg63
(lp570
g56
(g57
g58
NtRp571
(dp572
g61
(dp573
g69
I3
ssg70
g567
sg63
(lp574
S''
asbasbasbag56
(g72
g58
NtRp575
(dp576
g61
(dp577
sg70
g451
sg63
(lp578
g56
(g77
g58
NtRp579
(dp580
g61
(dp581
g81
g82
ssg70
g575
sg63
(lp582
g396
asbag56
(g77
g58
NtRp583
(dp584
g61
(dp585
g88
g89
ssg70
g575
sg63
(lp586
S':'
asbag56
(g77
g58
NtRp587
(dp588
g61
(dp589
sg70
g575
sg63
(lp590
g56
(g57
g58
NtRp591
(dp592
g61
(dp593
g69
I3
ssg70
g587
sg63
(lp594
S''
asbasbasbag56
(g72
g58
NtRp595
(dp596
g61
(dp597
sg70
g451
sg63
(lp598
g56
(g77
g58
NtRp599
(dp600
g61
(dp601
g81
g82
ssg70
g595
sg63
(lp602
g417
asbag56
(g77
g58
NtRp603
(dp604
g61
(dp605
g88
g89
ssg70
g595
sg63
(lp606
S':'
asbag56
(g77
g58
NtRp607
(dp608
g61
(dp609
sg70
g595
sg63
(lp610
g56
(g57
g58
NtRp611
(dp612
g61
(dp613
g69
I3
ssg70
g607
sg63
(lp614
S''
asbasbasbasbasbasbasbag56
(g72
g58
NtRp615
(dp616
g61
(dp617
sg70
g233
sg63
(lp618
g56
(g77
g58
NtRp619
(dp620
g61
(dp621
g81
g82
ssg70
g615
sg63
(lp622
S'session_id_welcome'
p623
asbag56
(g77
g58
NtRp624
(dp625
g61
(dp626
g88
g89
ssg70
g615
sg63
(lp627
S':'
asbag56
(g77
g58
NtRp628
(dp629
g61
(dp630
sg70
g615
sg63
(lp631
g56
(g57
g58
NtRp632
(dp633
g61
(dp634
g69
I4
ssg70
g628
sg63
(lp635
g56
(g65
g58
NtRp636
(dp637
g61
(dp638
g69
I3
ssg70
Nsg63
(lp639
g56
(g72
g58
NtRp640
(dp641
g61
(dp642
sg70
g636
sg63
(lp643
g56
(g77
g58
NtRp644
(dp645
g61
(dp646
g81
g82
ssg70
g640
sg63
(lp647
g270
asbag56
(g77
g58
NtRp648
(dp649
g61
(dp650
g88
g89
ssg70
g640
sg63
(lp651
S':'
asbag56
(g77
g58
NtRp652
(dp653
g61
(dp654
sg70
g640
sg63
(lp655
g56
(g57
g58
NtRp656
(dp657
g61
(dp658
g69
I3
ssg70
g652
sg63
(lp659
S''
asbasbasbag56
(g72
g58
NtRp660
(dp661
g61
(dp662
sg70
g636
sg63
(lp663
g56
(g77
g58
NtRp664
(dp665
g61
(dp666
g81
g82
ssg70
g660
sg63
(lp667
g291
asbag56
(g77
g58
NtRp668
(dp669
g61
(dp670
g88
g89
ssg70
g660
sg63
(lp671
S':'
asbag56
(g77
g58
NtRp672
(dp673
g61
(dp674
sg70
g660
sg63
(lp675
g56
(g57
g58
NtRp676
(dp677
g61
(dp678
g69
I3
ssg70
g672
sg63
(lp679
S''
asbasbasbag56
(g72
g58
NtRp680
(dp681
g61
(dp682
sg70
g636
sg63
(lp683
g56
(g77
g58
NtRp684
(dp685
g61
(dp686
g81
g82
ssg70
g680
sg63
(lp687
g312
asbag56
(g77
g58
NtRp688
(dp689
g61
(dp690
g88
g89
ssg70
g680
sg63
(lp691
S':'
asbag56
(g77
g58
NtRp692
(dp693
g61
(dp694
sg70
g680
sg63
(lp695
g56
(g57
g58
NtRp696
(dp697
g61
(dp698
g69
I3
ssg70
g692
sg63
(lp699
S''
asbasbasbag56
(g72
g58
NtRp700
(dp701
g61
(dp702
sg70
g636
sg63
(lp703
g56
(g77
g58
NtRp704
(dp705
g61
(dp706
g81
g82
ssg70
g700
sg63
(lp707
g333
asbag56
(g77
g58
NtRp708
(dp709
g61
(dp710
g88
g89
ssg70
g700
sg63
(lp711
S':'
asbag56
(g77
g58
NtRp712
(dp713
g61
(dp714
sg70
g700
sg63
(lp715
g56
(g57
g58
NtRp716
(dp717
g61
(dp718
g69
I3
ssg70
g712
sg63
(lp719
S''
asbasbasbag56
(g72
g58
NtRp720
(dp721
g61
(dp722
sg70
g636
sg63
(lp723
g56
(g77
g58
NtRp724
(dp725
g61
(dp726
g81
g82
ssg70
g720
sg63
(lp727
g354
asbag56
(g77
g58
NtRp728
(dp729
g61
(dp730
g88
g89
ssg70
g720
sg63
(lp731
S':'
asbag56
(g77
g58
NtRp732
(dp733
g61
(dp734
sg70
g720
sg63
(lp735
g56
(g57
g58
NtRp736
(dp737
g61
(dp738
g69
I3
ssg70
g732
sg63
(lp739
S''
asbasbasbag56
(g72
g58
NtRp740
(dp741
g61
(dp742
sg70
g636
sg63
(lp743
g56
(g77
g58
NtRp744
(dp745
g61
(dp746
g81
g82
ssg70
g740
sg63
(lp747
g375
asbag56
(g77
g58
NtRp748
(dp749
g61
(dp750
g88
g89
ssg70
g740
sg63
(lp751
S':'
asbag56
(g77
g58
NtRp752
(dp753
g61
(dp754
sg70
g740
sg63
(lp755
g56
(g57
g58
NtRp756
(dp757
g61
(dp758
g69
I3
ssg70
g752
sg63
(lp759
S''
asbasbasbag56
(g72
g58
NtRp760
(dp761
g61
(dp762
sg70
g636
sg63
(lp763
g56
(g77
g58
NtRp764
(dp765
g61
(dp766
g81
g82
ssg70
g760
sg63
(lp767
g396
asbag56
(g77
g58
NtRp768
(dp769
g61
(dp770
g88
g89
ssg70
g760
sg63
(lp771
S':'
asbag56
(g77
g58
NtRp772
(dp773
g61
(dp774
sg70
g760
sg63
(lp775
g56
(g57
g58
NtRp776
(dp777
g61
(dp778
g69
I3
ssg70
g772
sg63
(lp779
S''
asbasbasbag56
(g72
g58
NtRp780
(dp781
g61
(dp782
sg70
g636
sg63
(lp783
g56
(g77
g58
NtRp784
(dp785
g61
(dp786
g81
g82
ssg70
g780
sg63
(lp787
g417
asbag56
(g77
g58
NtRp788
(dp789
g61
(dp790
g88
g89
ssg70
g780
sg63
(lp791
S':'
asbag56
(g77
g58
NtRp792
(dp793
g61
(dp794
sg70
g780
sg63
(lp795
g56
(g57
g58
NtRp796
(dp797
g61
(dp798
g69
I3
ssg70
g792
sg63
(lp799
S''
asbasbasbasbasbasbasbasbasbasbasbag56
(g72
g58
NtRp800
(dp801
g61
(dp802
sg70
g66
sg63
(lp803
g56
(g77
g58
NtRp804
(dp805
g61
(dp806
g81
g82
ssg70
g800
sg63
(lp807
S'env'
p808
asbag56
(g77
g58
NtRp809
(dp810
g61
(dp811
g88
g89
ssg70
g800
sg63
(lp812
S':'
asbag56
(g77
g58
NtRp813
(dp814
g61
(dp815
sg70
g800
sg63
(lp816
g56
(g57
g58
NtRp817
(dp818
g61
(dp819
g69
I5
ssg70
g813
sg63
(lp820
g56
(g65
g58
NtRp821
(dp822
g61
(dp823
g69
I4
ssg70
Nsg63
(lp824
g56
(g72
g58
NtRp825
(dp826
g61
(dp827
sg70
g821
sg63
(lp828
g56
(g77
g58
NtRp829
(dp830
g61
(dp831
g81
g82
ssg70
g825
sg63
(lp832
S'app_folders'
p833
asbag56
(g77
g58
NtRp834
(dp835
g61
(dp836
g88
g89
ssg70
g825
sg63
(lp837
S':'
asbag56
(g77
g58
NtRp838
(dp839
g61
(dp840
sg70
g825
sg63
(lp841
g56
(g57
g58
NtRp842
(dp843
g61
(dp844
g69
I4
ssg70
g838
sg63
(lp845
S"set(['/home/marco/proyectos/web2py-trunk/applications/mvstore/', '/home/marco/proyectos/web2py-trunk/applications/admin/', '/home/marco/proyectos/web2py-trunk/applications/welcome/'])"
p846
asbasbasbag56
(g72
g58
NtRp847
(dp848
g61
(dp849
sg70
g821
sg63
(lp850
g56
(g77
g58
NtRp851
(dp852
g61
(dp853
g81
g82
ssg70
g847
sg63
(lp854
S'applications_parent'
p855
asbag56
(g77
g58
NtRp856
(dp857
g61
(dp858
g88
g89
ssg70
g847
sg63
(lp859
S':'
asbag56
(g77
g58
NtRp860
(dp861
g61
(dp862
sg70
g847
sg63
(lp863
g56
(g57
g58
NtRp864
(dp865
g61
(dp866
g69
I4
ssg70
g860
sg63
(lp867
S'/home/marco/proyectos/web2py-trunk'
p868
asbasbasbag56
(g72
g58
NtRp869
(dp870
g61
(dp871
sg70
g821
sg63
(lp872
g56
(g77
g58
NtRp873
(dp874
g61
(dp875
g81
g82
ssg70
g869
sg63
(lp876
S'cmd_args'
p877
asbag56
(g77
g58
NtRp878
(dp879
g61
(dp880
g88
g89
ssg70
g869
sg63
(lp881
S':'
asbag56
(g77
g58
NtRp882
(dp883
g61
(dp884
sg70
g869
sg63
(lp885
g56
(g57
g58
NtRp886
(dp887
g61
(dp888
g69
I4
ssg70
g882
sg63
(lp889
g56
(g65
g58
NtRp890
(dp891
g61
(dp892
g69
I3
ssg70
Nsg63
(lp893
sbasbasbasbag56
(g72
g58
NtRp894
(dp895
g61
(dp896
sg70
g821
sg63
(lp897
g56
(g77
g58
NtRp898
(dp899
g61
(dp900
g81
g82
ssg70
g894
sg63
(lp901
S'cmd_options'
p902
asbag56
(g77
g58
NtRp903
(dp904
g61
(dp905
g88
g89
ssg70
g894
sg63
(lp906
S':'
asbag56
(g77
g58
NtRp907
(dp908
g61
(dp909
sg70
g894
sg63
(lp910
g56
(g57
g58
NtRp911
(dp912
g61
(dp913
g69
I4
ssg70
g907
sg63
(lp914
S"<Values at 0x1af5b90: {'verbose': False, 'ip': '127.0.0.1', 'shutdown_timeout': 5, 'taskbar': False, 'port': 8000, 'maxthreads': None, 'softcron': False, 'server_name': 'kiki', 'bpython': False, 'nogui': False, 'nocron': False, 'extcron': False, 'debuglevel': 30, 'test': None, 'folder': '/home/marco/proyectos/web2py-trunk', 'config': '', 'import_models': False, 'winservice': '', 'shell': None, 'run': '', 'log_filename': 'httpserver.log', 'args': [''], 'profiler_filename': None, 'ssl_private_key': '', 'password': 'asd', 'request_queue_size': 5, 'ssl_certificate': '', 'cronjob': False, 'plain': False, 'quiet': False, 'interfaces': None, 'minthreads': None, 'timeout': 10, 'numthreads': None, 'nobanner': False, 'pid_filename': 'httpserver.pid'}>"
p915
asbasbasbag56
(g72
g58
NtRp916
(dp917
g61
(dp918
sg70
g821
sg63
(lp919
g56
(g77
g58
NtRp920
(dp921
g61
(dp922
g81
g82
ssg70
g916
sg63
(lp923
S'db_sessions'
p924
asbag56
(g77
g58
NtRp925
(dp926
g61
(dp927
g88
g89
ssg70
g916
sg63
(lp928
S':'
asbag56
(g77
g58
NtRp929
(dp930
g61
(dp931
sg70
g916
sg63
(lp932
g56
(g57
g58
NtRp933
(dp934
g61
(dp935
g69
I4
ssg70
g929
sg63
(lp936
S'set([])'
p937
asbasbasbag56
(g72
g58
NtRp938
(dp939
g61
(dp940
sg70
g821
sg63
(lp941
g56
(g77
g58
NtRp942
(dp943
g61
(dp944
g81
g82
ssg70
g938
sg63
(lp945
S'debugging'
p946
asbag56
(g77
g58
NtRp947
(dp948
g61
(dp949
g88
g89
ssg70
g938
sg63
(lp950
S':'
asbag56
(g77
g58
NtRp951
(dp952
g61
(dp953
sg70
g938
sg63
(lp954
g56
(g57
g58
NtRp955
(dp956
g61
(dp957
g69
I4
ssg70
g951
sg63
(lp958
g99
asbasbasbag56
(g72
g58
NtRp959
(dp960
g61
(dp961
sg70
g821
sg63
(lp962
g56
(g77
g58
NtRp963
(dp964
g61
(dp965
g81
g82
ssg70
g959
sg63
(lp966
S'gluon_parent'
p967
asbag56
(g77
g58
NtRp968
(dp969
g61
(dp970
g88
g89
ssg70
g959
sg63
(lp971
S':'
asbag56
(g77
g58
NtRp972
(dp973
g61
(dp974
sg70
g959
sg63
(lp975
g56
(g57
g58
NtRp976
(dp977
g61
(dp978
g69
I4
ssg70
g972
sg63
(lp979
S'/home/marco/proyectos/web2py-trunk'
p980
asbasbasbag56
(g72
g58
NtRp981
(dp982
g61
(dp983
sg70
g821
sg63
(lp984
g56
(g77
g58
NtRp985
(dp986
g61
(dp987
g81
g82
ssg70
g981
sg63
(lp988
S'http_accept'
p989
asbag56
(g77
g58
NtRp990
(dp991
g61
(dp992
g88
g89
ssg70
g981
sg63
(lp993
S':'
asbag56
(g77
g58
NtRp994
(dp995
g61
(dp996
sg70
g981
sg63
(lp997
g56
(g57
g58
NtRp998
(dp999
g61
(dp1000
g69
I4
ssg70
g994
sg63
(lp1001
S'application/xml,application/xhtml+xml,text/html;q=0.9,text/plain;q=0.8,image/png,*/*;q=0.5'
p1002
asbasbasbag56
(g72
g58
NtRp1003
(dp1004
g61
(dp1005
sg70
g821
sg63
(lp1006
g56
(g77
g58
NtRp1007
(dp1008
g61
(dp1009
g81
g82
ssg70
g1003
sg63
(lp1010
S'http_accept_charset'
p1011
asbag56
(g77
g58
NtRp1012
(dp1013
g61
(dp1014
g88
g89
ssg70
g1003
sg63
(lp1015
S':'
asbag56
(g77
g58
NtRp1016
(dp1017
g61
(dp1018
sg70
g1003
sg63
(lp1019
g56
(g57
g58
NtRp1020
(dp1021
g61
(dp1022
g69
I4
ssg70
g1016
sg63
(lp1023
S'ISO-8859-1,utf-8;q=0.7,*;q=0.3'
p1024
asbasbasbag56
(g72
g58
NtRp1025
(dp1026
g61
(dp1027
sg70
g821
sg63
(lp1028
g56
(g77
g58
NtRp1029
(dp1030
g61
(dp1031
g81
g82
ssg70
g1025
sg63
(lp1032
S'http_accept_encoding'
p1033
asbag56
(g77
g58
NtRp1034
(dp1035
g61
(dp1036
g88
g89
ssg70
g1025
sg63
(lp1037
S':'
asbag56
(g77
g58
NtRp1038
(dp1039
g61
(dp1040
sg70
g1025
sg63
(lp1041
g56
(g57
g58
NtRp1042
(dp1043
g61
(dp1044
g69
I4
ssg70
g1038
sg63
(lp1045
S'gzip,deflate,sdch'
p1046
asbasbasbag56
(g72
g58
NtRp1047
(dp1048
g61
(dp1049
sg70
g821
sg63
(lp1050
g56
(g77
g58
NtRp1051
(dp1052
g61
(dp1053
g81
g82
ssg70
g1047
sg63
(lp1054
S'http_accept_language'
p1055
asbag56
(g77
g58
NtRp1056
(dp1057
g61
(dp1058
g88
g89
ssg70
g1047
sg63
(lp1059
S':'
asbag56
(g77
g58
NtRp1060
(dp1061
g61
(dp1062
sg70
g1047
sg63
(lp1063
g56
(g57
g58
NtRp1064
(dp1065
g61
(dp1066
g69
I4
ssg70
g1060
sg63
(lp1067
S'es,en-US;q=0.8,en;q=0.6'
p1068
asbasbasbag56
(g72
g58
NtRp1069
(dp1070
g61
(dp1071
sg70
g821
sg63
(lp1072
g56
(g77
g58
NtRp1073
(dp1074
g61
(dp1075
g81
g82
ssg70
g1069
sg63
(lp1076
S'http_connection'
p1077
asbag56
(g77
g58
NtRp1078
(dp1079
g61
(dp1080
g88
g89
ssg70
g1069
sg63
(lp1081
S':'
asbag56
(g77
g58
NtRp1082
(dp1083
g61
(dp1084
sg70
g1069
sg63
(lp1085
g56
(g57
g58
NtRp1086
(dp1087
g61
(dp1088
g69
I4
ssg70
g1082
sg63
(lp1089
S'keep-alive'
p1090
asbasbasbag56
(g72
g58
NtRp1091
(dp1092
g61
(dp1093
sg70
g821
sg63
(lp1094
g56
(g77
g58
NtRp1095
(dp1096
g61
(dp1097
g81
g82
ssg70
g1091
sg63
(lp1098
S'http_cookie'
p1099
asbag56
(g77
g58
NtRp1100
(dp1101
g61
(dp1102
g88
g89
ssg70
g1091
sg63
(lp1103
S':'
asbag56
(g77
g58
NtRp1104
(dp1105
g61
(dp1106
sg70
g1091
sg63
(lp1107
g56
(g57
g58
NtRp1108
(dp1109
g61
(dp1110
g69
I4
ssg70
g1104
sg63
(lp1111
S'session_id_welcome=127.0.0.1-0653ef3e-3e2a-4c9a-a2ad-dc6c0f6d5d3b; session_id_mvstore=127.0.0.1-50654ecb-cdf9-4d07-aebd-7df319d2e714; session_id_admin=127.0.0.1-f645f06f-266f-4e4d-b2e0-7d73420d32e3'
p1112
asbasbasbag56
(g72
g58
NtRp1113
(dp1114
g61
(dp1115
sg70
g821
sg63
(lp1116
g56
(g77
g58
NtRp1117
(dp1118
g61
(dp1119
g81
g82
ssg70
g1113
sg63
(lp1120
S'http_host'
p1121
asbag56
(g77
g58
NtRp1122
(dp1123
g61
(dp1124
g88
g89
ssg70
g1113
sg63
(lp1125
S':'
asbag56
(g77
g58
NtRp1126
(dp1127
g61
(dp1128
sg70
g1113
sg63
(lp1129
g56
(g57
g58
NtRp1130
(dp1131
g61
(dp1132
g69
I4
ssg70
g1126
sg63
(lp1133
S'127.0.0.1:8000'
p1134
asbasbasbag56
(g72
g58
NtRp1135
(dp1136
g61
(dp1137
sg70
g821
sg63
(lp1138
g56
(g77
g58
NtRp1139
(dp1140
g61
(dp1141
g81
g82
ssg70
g1135
sg63
(lp1142
S'http_referer'
p1143
asbag56
(g77
g58
NtRp1144
(dp1145
g61
(dp1146
g88
g89
ssg70
g1135
sg63
(lp1147
S':'
asbag56
(g77
g58
NtRp1148
(dp1149
g61
(dp1150
sg70
g1135
sg63
(lp1151
g56
(g57
g58
NtRp1152
(dp1153
g61
(dp1154
g69
I4
ssg70
g1148
sg63
(lp1155
S'http://127.0.0.1:8000/admin/default/design/mvstore'
p1156
asbasbasbag56
(g72
g58
NtRp1157
(dp1158
g61
(dp1159
sg70
g821
sg63
(lp1160
g56
(g77
g58
NtRp1161
(dp1162
g61
(dp1163
g81
g82
ssg70
g1157
sg63
(lp1164
S'http_user_agent'
p1165
asbag56
(g77
g58
NtRp1166
(dp1167
g61
(dp1168
g88
g89
ssg70
g1157
sg63
(lp1169
S':'
asbag56
(g77
g58
NtRp1170
(dp1171
g61
(dp1172
sg70
g1157
sg63
(lp1173
g56
(g57
g58
NtRp1174
(dp1175
g61
(dp1176
g69
I4
ssg70
g1170
sg63
(lp1177
S'Mozilla/5.0 (X11; U; Linux x86_64; en-US) AppleWebKit/534.16 (KHTML, like Gecko) Chrome/10.0.648.205 Safari/534.16'
p1178
asbasbasbag56
(g72
g58
NtRp1179
(dp1180
g61
(dp1181
sg70
g821
sg63
(lp1182
g56
(g77
g58
NtRp1183
(dp1184
g61
(dp1185
g81
g82
ssg70
g1179
sg63
(lp1186
S'path_info'
p1187
asbag56
(g77
g58
NtRp1188
(dp1189
g61
(dp1190
g88
g89
ssg70
g1179
sg63
(lp1191
S':'
asbag56
(g77
g58
NtRp1192
(dp1193
g61
(dp1194
sg70
g1179
sg63
(lp1195
g56
(g57
g58
NtRp1196
(dp1197
g61
(dp1198
g69
I4
ssg70
g1192
sg63
(lp1199
S'/mvstore/default/empleados'
p1200
asbasbasbag56
(g72
g58
NtRp1201
(dp1202
g61
(dp1203
sg70
g821
sg63
(lp1204
g56
(g77
g58
NtRp1205
(dp1206
g61
(dp1207
g81
g82
ssg70
g1201
sg63
(lp1208
S'query_string'
p1209
asbag56
(g77
g58
NtRp1210
(dp1211
g61
(dp1212
g88
g89
ssg70
g1201
sg63
(lp1213
S':'
asbag56
(g77
g58
NtRp1214
(dp1215
g61
(dp1216
sg70
g1201
sg63
(lp1217
g56
(g57
g58
NtRp1218
(dp1219
g61
(dp1220
g69
I4
ssg70
g1214
sg63
(lp1221
S''
asbasbasbag56
(g72
g58
NtRp1222
(dp1223
g61
(dp1224
sg70
g821
sg63
(lp1225
g56
(g77
g58
NtRp1226
(dp1227
g61
(dp1228
g81
g82
ssg70
g1222
sg63
(lp1229
S'remote_addr'
p1230
asbag56
(g77
g58
NtRp1231
(dp1232
g61
(dp1233
g88
g89
ssg70
g1222
sg63
(lp1234
S':'
asbag56
(g77
g58
NtRp1235
(dp1236
g61
(dp1237
sg70
g1222
sg63
(lp1238
g56
(g57
g58
NtRp1239
(dp1240
g61
(dp1241
g69
I4
ssg70
g1235
sg63
(lp1242
g189
asbasbasbag56
(g72
g58
NtRp1243
(dp1244
g61
(dp1245
sg70
g821
sg63
(lp1246
g56
(g77
g58
NtRp1247
(dp1248
g61
(dp1249
g81
g82
ssg70
g1243
sg63
(lp1250
S'remote_port'
p1251
asbag56
(g77
g58
NtRp1252
(dp1253
g61
(dp1254
g88
g89
ssg70
g1243
sg63
(lp1255
S':'
asbag56
(g77
g58
NtRp1256
(dp1257
g61
(dp1258
sg70
g1243
sg63
(lp1259
g56
(g57
g58
NtRp1260
(dp1261
g61
(dp1262
g69
I4
ssg70
g1256
sg63
(lp1263
S'36824'
p1264
asbasbasbag56
(g72
g58
NtRp1265
(dp1266
g61
(dp1267
sg70
g821
sg63
(lp1268
g56
(g77
g58
NtRp1269
(dp1270
g61
(dp1271
g81
g82
ssg70
g1265
sg63
(lp1272
S'request_method'
p1273
asbag56
(g77
g58
NtRp1274
(dp1275
g61
(dp1276
g88
g89
ssg70
g1265
sg63
(lp1277
S':'
asbag56
(g77
g58
NtRp1278
(dp1279
g61
(dp1280
sg70
g1265
sg63
(lp1281
g56
(g57
g58
NtRp1282
(dp1283
g61
(dp1284
g69
I4
ssg70
g1278
sg63
(lp1285
S'GET'
p1286
asbasbasbag56
(g72
g58
NtRp1287
(dp1288
g61
(dp1289
sg70
g821
sg63
(lp1290
g56
(g77
g58
NtRp1291
(dp1292
g61
(dp1293
g81
g82
ssg70
g1287
sg63
(lp1294
S'script_name'
p1295
asbag56
(g77
g58
NtRp1296
(dp1297
g61
(dp1298
g88
g89
ssg70
g1287
sg63
(lp1299
S':'
asbag56
(g77
g58
NtRp1300
(dp1301
g61
(dp1302
sg70
g1287
sg63
(lp1303
g56
(g57
g58
NtRp1304
(dp1305
g61
(dp1306
g69
I4
ssg70
g1300
sg63
(lp1307
S''
asbasbasbag56
(g72
g58
NtRp1308
(dp1309
g61
(dp1310
sg70
g821
sg63
(lp1311
g56
(g77
g58
NtRp1312
(dp1313
g61
(dp1314
g81
g82
ssg70
g1308
sg63
(lp1315
S'server_name'
p1316
asbag56
(g77
g58
NtRp1317
(dp1318
g61
(dp1319
g88
g89
ssg70
g1308
sg63
(lp1320
S':'
asbag56
(g77
g58
NtRp1321
(dp1322
g61
(dp1323
sg70
g1308
sg63
(lp1324
g56
(g57
g58
NtRp1325
(dp1326
g61
(dp1327
g69
I4
ssg70
g1321
sg63
(lp1328
S'kiki'
p1329
asbasbasbag56
(g72
g58
NtRp1330
(dp1331
g61
(dp1332
sg70
g821
sg63
(lp1333
g56
(g77
g58
NtRp1334
(dp1335
g61
(dp1336
g81
g82
ssg70
g1330
sg63
(lp1337
S'server_port'
p1338
asbag56
(g77
g58
NtRp1339
(dp1340
g61
(dp1341
g88
g89
ssg70
g1330
sg63
(lp1342
S':'
asbag56
(g77
g58
NtRp1343
(dp1344
g61
(dp1345
sg70
g1330
sg63
(lp1346
g56
(g57
g58
NtRp1347
(dp1348
g61
(dp1349
g69
I4
ssg70
g1343
sg63
(lp1350
S'8000'
p1351
asbasbasbag56
(g72
g58
NtRp1352
(dp1353
g61
(dp1354
sg70
g821
sg63
(lp1355
g56
(g77
g58
NtRp1356
(dp1357
g61
(dp1358
g81
g82
ssg70
g1352
sg63
(lp1359
S'server_protocol'
p1360
asbag56
(g77
g58
NtRp1361
(dp1362
g61
(dp1363
g88
g89
ssg70
g1352
sg63
(lp1364
S':'
asbag56
(g77
g58
NtRp1365
(dp1366
g61
(dp1367
sg70
g1352
sg63
(lp1368
g56
(g57
g58
NtRp1369
(dp1370
g61
(dp1371
g69
I4
ssg70
g1365
sg63
(lp1372
S'HTTP/1.1'
p1373
asbasbasbag56
(g72
g58
NtRp1374
(dp1375
g61
(dp1376
sg70
g821
sg63
(lp1377
g56
(g77
g58
NtRp1378
(dp1379
g61
(dp1380
g81
g82
ssg70
g1374
sg63
(lp1381
S'server_software'
p1382
asbag56
(g77
g58
NtRp1383
(dp1384
g61
(dp1385
g88
g89
ssg70
g1374
sg63
(lp1386
S':'
asbag56
(g77
g58
NtRp1387
(dp1388
g61
(dp1389
sg70
g1374
sg63
(lp1390
g56
(g57
g58
NtRp1391
(dp1392
g61
(dp1393
g69
I4
ssg70
g1387
sg63
(lp1394
S'Rocket 1.2.2'
p1395
asbasbasbag56
(g72
g58
NtRp1396
(dp1397
g61
(dp1398
sg70
g821
sg63
(lp1399
g56
(g77
g58
NtRp1400
(dp1401
g61
(dp1402
g81
g82
ssg70
g1396
sg63
(lp1403
S'web2py_crontype'
p1404
asbag56
(g77
g58
NtRp1405
(dp1406
g61
(dp1407
g88
g89
ssg70
g1396
sg63
(lp1408
S':'
asbag56
(g77
g58
NtRp1409
(dp1410
g61
(dp1411
sg70
g1396
sg63
(lp1412
g56
(g57
g58
NtRp1413
(dp1414
g61
(dp1415
g69
I4
ssg70
g1409
sg63
(lp1416
S'hard'
p1417
asbasbasbag56
(g72
g58
NtRp1418
(dp1419
g61
(dp1420
sg70
g821
sg63
(lp1421
g56
(g77
g58
NtRp1422
(dp1423
g61
(dp1424
g81
g82
ssg70
g1418
sg63
(lp1425
S'web2py_path'
p1426
asbag56
(g77
g58
NtRp1427
(dp1428
g61
(dp1429
g88
g89
ssg70
g1418
sg63
(lp1430
S':'
asbag56
(g77
g58
NtRp1431
(dp1432
g61
(dp1433
sg70
g1418
sg63
(lp1434
g56
(g57
g58
NtRp1435
(dp1436
g61
(dp1437
g69
I4
ssg70
g1431
sg63
(lp1438
g868
asbasbasbag56
(g72
g58
NtRp1439
(dp1440
g61
(dp1441
sg70
g821
sg63
(lp1442
g56
(g77
g58
NtRp1443
(dp1444
g61
(dp1445
g81
g82
ssg70
g1439
sg63
(lp1446
S'web2py_version'
p1447
asbag56
(g77
g58
NtRp1448
(dp1449
g61
(dp1450
g88
g89
ssg70
g1439
sg63
(lp1451
S':'
asbag56
(g77
g58
NtRp1452
(dp1453
g61
(dp1454
sg70
g1439
sg63
(lp1455
g56
(g57
g58
NtRp1456
(dp1457
g61
(dp1458
g69
I4
ssg70
g1452
sg63
(lp1459
S'        iersion 1.94.1 (2011-03-17 16:30:58)\n'
p1460
asbasbasbag56
(g72
g58
NtRp1461
(dp1462
g61
(dp1463
sg70
g821
sg63
(lp1464
g56
(g77
g58
NtRp1465
(dp1466
g61
(dp1467
g81
g82
ssg70
g1461
sg63
(lp1468
S'wsgi_errors'
p1469
asbag56
(g77
g58
NtRp1470
(dp1471
g61
(dp1472
g88
g89
ssg70
g1461
sg63
(lp1473
S':'
asbag56
(g77
g58
NtRp1474
(dp1475
g61
(dp1476
sg70
g1461
sg63
(lp1477
g56
(g57
g58
NtRp1478
(dp1479
g61
(dp1480
g69
I4
ssg70
g1474
sg63
(lp1481
S"<open file '<stderr>', mode 'w' at 0x7fd2753531e0>"
p1482
asbasbasbag56
(g72
g58
NtRp1483
(dp1484
g61
(dp1485
sg70
g821
sg63
(lp1486
g56
(g77
g58
NtRp1487
(dp1488
g61
(dp1489
g81
g82
ssg70
g1483
sg63
(lp1490
S'wsgi_file_wrapper'
p1491
asbag56
(g77
g58
NtRp1492
(dp1493
g61
(dp1494
g88
g89
ssg70
g1483
sg63
(lp1495
S':'
asbag56
(g77
g58
NtRp1496
(dp1497
g61
(dp1498
sg70
g1483
sg63
(lp1499
g56
(g57
g58
NtRp1500
(dp1501
g61
(dp1502
g69
I4
ssg70
g1496
sg63
(lp1503
S'<class gluon.rocket.FileWrapper at 0x19683b0>'
p1504
asbasbasbag56
(g72
g58
NtRp1505
(dp1506
g61
(dp1507
sg70
g821
sg63
(lp1508
g56
(g77
g58
NtRp1509
(dp1510
g61
(dp1511
g81
g82
ssg70
g1505
sg63
(lp1512
S'wsgi_input'
p1513
asbag56
(g77
g58
NtRp1514
(dp1515
g61
(dp1516
g88
g89
ssg70
g1505
sg63
(lp1517
S':'
asbag56
(g77
g58
NtRp1518
(dp1519
g61
(dp1520
sg70
g1505
sg63
(lp1521
g56
(g57
g58
NtRp1522
(dp1523
g61
(dp1524
g69
I4
ssg70
g1518
sg63
(lp1525
S'<socket._fileobject object at 0x1c8ced0>'
p1526
asbasbasbag56
(g72
g58
NtRp1527
(dp1528
g61
(dp1529
sg70
g821
sg63
(lp1530
g56
(g77
g58
NtRp1531
(dp1532
g61
(dp1533
g81
g82
ssg70
g1527
sg63
(lp1534
S'wsgi_multiprocess'
p1535
asbag56
(g77
g58
NtRp1536
(dp1537
g61
(dp1538
g88
g89
ssg70
g1527
sg63
(lp1539
S':'
asbag56
(g77
g58
NtRp1540
(dp1541
g61
(dp1542
sg70
g1527
sg63
(lp1543
g56
(g57
g58
NtRp1544
(dp1545
g61
(dp1546
g69
I4
ssg70
g1540
sg63
(lp1547
g99
asbasbasbag56
(g72
g58
NtRp1548
(dp1549
g61
(dp1550
sg70
g821
sg63
(lp1551
g56
(g77
g58
NtRp1552
(dp1553
g61
(dp1554
g81
g82
ssg70
g1548
sg63
(lp1555
S'wsgi_multithread'
p1556
asbag56
(g77
g58
NtRp1557
(dp1558
g61
(dp1559
g88
g89
ssg70
g1548
sg63
(lp1560
S':'
asbag56
(g77
g58
NtRp1561
(dp1562
g61
(dp1563
sg70
g1548
sg63
(lp1564
g56
(g57
g58
NtRp1565
(dp1566
g61
(dp1567
g69
I4
ssg70
g1561
sg63
(lp1568
S'True'
p1569
asbasbasbag56
(g72
g58
NtRp1570
(dp1571
g61
(dp1572
sg70
g821
sg63
(lp1573
g56
(g77
g58
NtRp1574
(dp1575
g61
(dp1576
g81
g82
ssg70
g1570
sg63
(lp1577
S'wsgi_run_once'
p1578
asbag56
(g77
g58
NtRp1579
(dp1580
g61
(dp1581
g88
g89
ssg70
g1570
sg63
(lp1582
S':'
asbag56
(g77
g58
NtRp1583
(dp1584
g61
(dp1585
sg70
g1570
sg63
(lp1586
g56
(g57
g58
NtRp1587
(dp1588
g61
(dp1589
g69
I4
ssg70
g1583
sg63
(lp1590
g99
asbasbasbag56
(g72
g58
NtRp1591
(dp1592
g61
(dp1593
sg70
g821
sg63
(lp1594
g56
(g77
g58
NtRp1595
(dp1596
g61
(dp1597
g81
g82
ssg70
g1591
sg63
(lp1598
S'wsgi_url_scheme'
p1599
asbag56
(g77
g58
NtRp1600
(dp1601
g61
(dp1602
g88
g89
ssg70
g1591
sg63
(lp1603
S':'
asbag56
(g77
g58
NtRp1604
(dp1605
g61
(dp1606
sg70
g1591
sg63
(lp1607
g56
(g57
g58
NtRp1608
(dp1609
g61
(dp1610
g69
I4
ssg70
g1604
sg63
(lp1611
S'http'
p1612
asbasbasbag56
(g72
g58
NtRp1613
(dp1614
g61
(dp1615
sg70
g821
sg63
(lp1616
g56
(g77
g58
NtRp1617
(dp1618
g61
(dp1619
g81
g82
ssg70
g1613
sg63
(lp1620
S'wsgi_version'
p1621
asbag56
(g77
g58
NtRp1622
(dp1623
g61
(dp1624
g88
g89
ssg70
g1613
sg63
(lp1625
S':'
asbag56
(g77
g58
NtRp1626
(dp1627
g61
(dp1628
sg70
g1613
sg63
(lp1629
g56
(g57
g58
NtRp1630
(dp1631
g61
(dp1632
g69
I4
ssg70
g1626
sg63
(lp1633
g56
(g65
g58
NtRp1634
(dp1635
g61
(dp1636
g69
I3
ssg70
Nsg63
(lp1637
g56
(g72
g58
NtRp1638
(dp1639
g61
(dp1640
sg70
g1634
sg63
(lp1641
g56
(g77
g58
NtRp1642
(dp1643
g61
(dp1644
sg70
g1638
sg63
(lp1645
g56
(g57
g58
NtRp1646
(dp1647
g61
(dp1648
g69
I3
ssg70
g1642
sg63
(lp1649
S'1'
asbasbasbag56
(g72
g58
NtRp1650
(dp1651
g61
(dp1652
sg70
g1634
sg63
(lp1653
g56
(g77
g58
NtRp1654
(dp1655
g61
(dp1656
sg70
g1650
sg63
(lp1657
g56
(g57
g58
NtRp1658
(dp1659
g61
(dp1660
g69
I3
ssg70
g1654
sg63
(lp1661
S'0'
asbasbasbasbasbasbasbasbasbasbasbag56
(g72
g58
NtRp1662
(dp1663
g61
(dp1664
sg70
g66
sg63
(lp1665
g56
(g77
g58
NtRp1666
(dp1667
g61
(dp1668
g81
g82
ssg70
g1662
sg63
(lp1669
S'extension'
p1670
asbag56
(g77
g58
NtRp1671
(dp1672
g61
(dp1673
g88
g89
ssg70
g1662
sg63
(lp1674
S':'
asbag56
(g77
g58
NtRp1675
(dp1676
g61
(dp1677
sg70
g1662
sg63
(lp1678
g56
(g57
g58
NtRp1679
(dp1680
g61
(dp1681
g69
I5
ssg70
g1675
sg63
(lp1682
S'html'
p1683
asbasbasbag56
(g72
g58
NtRp1684
(dp1685
g61
(dp1686
sg70
g66
sg63
(lp1687
g56
(g77
g58
NtRp1688
(dp1689
g61
(dp1690
g81
g82
ssg70
g1684
sg63
(lp1691
S'folder'
p1692
asbag56
(g77
g58
NtRp1693
(dp1694
g61
(dp1695
g88
g89
ssg70
g1684
sg63
(lp1696
S':'
asbag56
(g77
g58
NtRp1697
(dp1698
g61
(dp1699
sg70
g1684
sg63
(lp1700
g56
(g57
g58
NtRp1701
(dp1702
g61
(dp1703
g69
I5
ssg70
g1697
sg63
(lp1704
S'/home/marco/proyectos/web2py-trunk/applications/mvstore/'
p1705
asbasbasbag56
(g72
g58
NtRp1706
(dp1707
g61
(dp1708
sg70
g66
sg63
(lp1709
g56
(g77
g58
NtRp1710
(dp1711
g61
(dp1712
g81
g82
ssg70
g1706
sg63
(lp1713
S'function'
p1714
asbag56
(g77
g58
NtRp1715
(dp1716
g61
(dp1717
g88
g89
ssg70
g1706
sg63
(lp1718
S':'
asbag56
(g77
g58
NtRp1719
(dp1720
g61
(dp1721
sg70
g1706
sg63
(lp1722
g56
(g57
g58
NtRp1723
(dp1724
g61
(dp1725
g69
I5
ssg70
g1719
sg63
(lp1726
S'empleados'
p1727
asbasbasbag56
(g72
g58
NtRp1728
(dp1729
g61
(dp1730
sg70
g66
sg63
(lp1731
g56
(g77
g58
NtRp1732
(dp1733
g61
(dp1734
g81
g82
ssg70
g1728
sg63
(lp1735
S'get_vars'
p1736
asbag56
(g77
g58
NtRp1737
(dp1738
g61
(dp1739
g88
g89
ssg70
g1728
sg63
(lp1740
S':'
asbag56
(g77
g58
NtRp1741
(dp1742
g61
(dp1743
sg70
g1728
sg63
(lp1744
g56
(g57
g58
NtRp1745
(dp1746
g61
(dp1747
g69
I5
ssg70
g1741
sg63
(lp1748
g56
(g65
g58
NtRp1749
(dp1750
g61
(dp1751
g69
I4
ssg70
Nsg63
(lp1752
sbasbasbasbag56
(g72
g58
NtRp1753
(dp1754
g61
(dp1755
sg70
g66
sg63
(lp1756
g56
(g77
g58
NtRp1757
(dp1758
g61
(dp1759
g81
g82
ssg70
g1753
sg63
(lp1760
S'is_https'
p1761
asbag56
(g77
g58
NtRp1762
(dp1763
g61
(dp1764
g88
g89
ssg70
g1753
sg63
(lp1765
S':'
asbag56
(g77
g58
NtRp1766
(dp1767
g61
(dp1768
sg70
g1753
sg63
(lp1769
g56
(g57
g58
NtRp1770
(dp1771
g61
(dp1772
g69
I5
ssg70
g1766
sg63
(lp1773
g99
asbasbasbag56
(g72
g58
NtRp1774
(dp1775
g61
(dp1776
sg70
g66
sg63
(lp1777
g56
(g77
g58
NtRp1778
(dp1779
g61
(dp1780
g81
g82
ssg70
g1774
sg63
(lp1781
S'is_local'
p1782
asbag56
(g77
g58
NtRp1783
(dp1784
g61
(dp1785
g88
g89
ssg70
g1774
sg63
(lp1786
S':'
asbag56
(g77
g58
NtRp1787
(dp1788
g61
(dp1789
sg70
g1774
sg63
(lp1790
g56
(g57
g58
NtRp1791
(dp1792
g61
(dp1793
g69
I5
ssg70
g1787
sg63
(lp1794
g1569
asbasbasbag56
(g72
g58
NtRp1795
(dp1796
g61
(dp1797
sg70
g66
sg63
(lp1798
g56
(g77
g58
NtRp1799
(dp1800
g61
(dp1801
g81
g82
ssg70
g1795
sg63
(lp1802
S'is_restful'
p1803
asbag56
(g77
g58
NtRp1804
(dp1805
g61
(dp1806
g88
g89
ssg70
g1795
sg63
(lp1807
S':'
asbag56
(g77
g58
NtRp1808
(dp1809
g61
(dp1810
sg70
g1795
sg63
(lp1811
g56
(g57
g58
NtRp1812
(dp1813
g61
(dp1814
g69
I5
ssg70
g1808
sg63
(lp1815
g99
asbasbasbag56
(g72
g58
NtRp1816
(dp1817
g61
(dp1818
sg70
g66
sg63
(lp1819
g56
(g77
g58
NtRp1820
(dp1821
g61
(dp1822
g81
g82
ssg70
g1816
sg63
(lp1823
S'now'
p1824
asbag56
(g77
g58
NtRp1825
(dp1826
g61
(dp1827
g88
g89
ssg70
g1816
sg63
(lp1828
S':'
asbag56
(g77
g58
NtRp1829
(dp1830
g61
(dp1831
sg70
g1816
sg63
(lp1832
g56
(g57
g58
NtRp1833
(dp1834
g61
(dp1835
g69
I5
ssg70
g1829
sg63
(lp1836
S'datetime.datetime(2011, 6, 19, 0, 4, 41, 203651)'
p1837
asbasbasbag56
(g72
g58
NtRp1838
(dp1839
g61
(dp1840
sg70
g66
sg63
(lp1841
g56
(g77
g58
NtRp1842
(dp1843
g61
(dp1844
g81
g82
ssg70
g1838
sg63
(lp1845
S'post_vars'
p1846
asbag56
(g77
g58
NtRp1847
(dp1848
g61
(dp1849
g88
g89
ssg70
g1838
sg63
(lp1850
S':'
asbag56
(g77
g58
NtRp1851
(dp1852
g61
(dp1853
sg70
g1838
sg63
(lp1854
g56
(g57
g58
NtRp1855
(dp1856
g61
(dp1857
g69
I5
ssg70
g1851
sg63
(lp1858
g56
(g65
g58
NtRp1859
(dp1860
g61
(dp1861
g69
I4
ssg70
Nsg63
(lp1862
sbasbasbasbag56
(g72
g58
NtRp1863
(dp1864
g61
(dp1865
sg70
g66
sg63
(lp1866
g56
(g77
g58
NtRp1867
(dp1868
g61
(dp1869
g81
g82
ssg70
g1863
sg63
(lp1870
S'url'
p1871
asbag56
(g77
g58
NtRp1872
(dp1873
g61
(dp1874
g88
g89
ssg70
g1863
sg63
(lp1875
S':'
asbag56
(g77
g58
NtRp1876
(dp1877
g61
(dp1878
sg70
g1863
sg63
(lp1879
g56
(g57
g58
NtRp1880
(dp1881
g61
(dp1882
g69
I5
ssg70
g1876
sg63
(lp1883
S'/mvstore/default/empleados'
p1884
asbasbasbag56
(g72
g58
NtRp1885
(dp1886
g61
(dp1887
sg70
g66
sg63
(lp1888
g56
(g77
g58
NtRp1889
(dp1890
g61
(dp1891
g81
g82
ssg70
g1885
sg63
(lp1892
S'uuid'
p1893
asbag56
(g77
g58
NtRp1894
(dp1895
g61
(dp1896
g88
g89
ssg70
g1885
sg63
(lp1897
S':'
asbag56
(g77
g58
NtRp1898
(dp1899
g61
(dp1900
sg70
g1885
sg63
(lp1901
g56
(g57
g58
NtRp1902
(dp1903
g61
(dp1904
g69
I5
ssg70
g1898
sg63
(lp1905
S'mvstore/127.0.0.1.2011-06-19.00-04-41.fb23fd41-80b6-4a57-a96a-48ca46663bb6'
p1906
asbasbasbag56
(g72
g58
NtRp1907
(dp1908
g61
(dp1909
sg70
g66
sg63
(lp1910
g56
(g77
g58
NtRp1911
(dp1912
g61
(dp1913
g81
g82
ssg70
g1907
sg63
(lp1914
S'vars'
p1915
asbag56
(g77
g58
NtRp1916
(dp1917
g61
(dp1918
g88
g89
ssg70
g1907
sg63
(lp1919
S':'
asbag56
(g77
g58
NtRp1920
(dp1921
g61
(dp1922
sg70
g1907
sg63
(lp1923
g56
(g57
g58
NtRp1924
(dp1925
g61
(dp1926
g69
I5
ssg70
g1920
sg63
(lp1927
g56
(g65
g58
NtRp1928
(dp1929
g61
(dp1930
g69
I4
ssg70
Nsg63
(lp1931
sbasbasbasbag56
(g72
g58
NtRp1932
(dp1933
g61
(dp1934
sg70
g66
sg63
(lp1935
g56
(g77
g58
NtRp1936
(dp1937
g61
(dp1938
g81
g82
ssg70
g1932
sg63
(lp1939
S'wsgi'
p1940
asbag56
(g77
g58
NtRp1941
(dp1942
g61
(dp1943
g88
g89
ssg70
g1932
sg63
(lp1944
S':'
asbag56
(g77
g58
NtRp1945
(dp1946
g61
(dp1947
sg70
g1932
sg63
(lp1948
g56
(g57
g58
NtRp1949
(dp1950
g61
(dp1951
g69
I5
ssg70
g1945
sg63
(lp1952
g56
(g65
g58
NtRp1953
(dp1954
g61
(dp1955
g69
I4
ssg70
Nsg63
(lp1956
g56
(g72
g58
NtRp1957
(dp1958
g61
(dp1959
sg70
g1953
sg63
(lp1960
g56
(g77
g58
NtRp1961
(dp1962
g61
(dp1963
g81
g82
ssg70
g1957
sg63
(lp1964
S'environ'
p1965
asbag56
(g77
g58
NtRp1966
(dp1967
g61
(dp1968
g88
g89
ssg70
g1957
sg63
(lp1969
S':'
asbag56
(g77
g58
NtRp1970
(dp1971
g61
(dp1972
sg70
g1957
sg63
(lp1973
g56
(g57
g58
NtRp1974
(dp1975
g61
(dp1976
g69
I4
ssg70
g1970
sg63
(lp1977
g56
(g65
g58
NtRp1978
(dp1979
g61
(dp1980
g69
I3
ssg70
Nsg63
(lp1981
g56
(g72
g58
NtRp1982
(dp1983
g61
(dp1984
sg70
g1978
sg63
(lp1985
g56
(g77
g58
NtRp1986
(dp1987
g61
(dp1988
g81
g82
ssg70
g1982
sg63
(lp1989
S'HTTP_ACCEPT'
p1990
asbag56
(g77
g58
NtRp1991
(dp1992
g61
(dp1993
g88
g89
ssg70
g1982
sg63
(lp1994
S':'
asbag56
(g77
g58
NtRp1995
(dp1996
g61
(dp1997
sg70
g1982
sg63
(lp1998
g56
(g57
g58
NtRp1999
(dp2000
g61
(dp2001
g69
I3
ssg70
g1995
sg63
(lp2002
g1002
asbasbasbag56
(g72
g58
NtRp2003
(dp2004
g61
(dp2005
sg70
g1978
sg63
(lp2006
g56
(g77
g58
NtRp2007
(dp2008
g61
(dp2009
g81
g82
ssg70
g2003
sg63
(lp2010
S'HTTP_ACCEPT_CHARSET'
p2011
asbag56
(g77
g58
NtRp2012
(dp2013
g61
(dp2014
g88
g89
ssg70
g2003
sg63
(lp2015
S':'
asbag56
(g77
g58
NtRp2016
(dp2017
g61
(dp2018
sg70
g2003
sg63
(lp2019
g56
(g57
g58
NtRp2020
(dp2021
g61
(dp2022
g69
I3
ssg70
g2016
sg63
(lp2023
g1024
asbasbasbag56
(g72
g58
NtRp2024
(dp2025
g61
(dp2026
sg70
g1978
sg63
(lp2027
g56
(g77
g58
NtRp2028
(dp2029
g61
(dp2030
g81
g82
ssg70
g2024
sg63
(lp2031
S'HTTP_ACCEPT_ENCODING'
p2032
asbag56
(g77
g58
NtRp2033
(dp2034
g61
(dp2035
g88
g89
ssg70
g2024
sg63
(lp2036
S':'
asbag56
(g77
g58
NtRp2037
(dp2038
g61
(dp2039
sg70
g2024
sg63
(lp2040
g56
(g57
g58
NtRp2041
(dp2042
g61
(dp2043
g69
I3
ssg70
g2037
sg63
(lp2044
g1046
asbasbasbag56
(g72
g58
NtRp2045
(dp2046
g61
(dp2047
sg70
g1978
sg63
(lp2048
g56
(g77
g58
NtRp2049
(dp2050
g61
(dp2051
g81
g82
ssg70
g2045
sg63
(lp2052
S'HTTP_ACCEPT_LANGUAGE'
p2053
asbag56
(g77
g58
NtRp2054
(dp2055
g61
(dp2056
g88
g89
ssg70
g2045
sg63
(lp2057
S':'
asbag56
(g77
g58
NtRp2058
(dp2059
g61
(dp2060
sg70
g2045
sg63
(lp2061
g56
(g57
g58
NtRp2062
(dp2063
g61
(dp2064
g69
I3
ssg70
g2058
sg63
(lp2065
g1068
asbasbasbag56
(g72
g58
NtRp2066
(dp2067
g61
(dp2068
sg70
g1978
sg63
(lp2069
g56
(g77
g58
NtRp2070
(dp2071
g61
(dp2072
g81
g82
ssg70
g2066
sg63
(lp2073
S'HTTP_CONNECTION'
p2074
asbag56
(g77
g58
NtRp2075
(dp2076
g61
(dp2077
g88
g89
ssg70
g2066
sg63
(lp2078
S':'
asbag56
(g77
g58
NtRp2079
(dp2080
g61
(dp2081
sg70
g2066
sg63
(lp2082
g56
(g57
g58
NtRp2083
(dp2084
g61
(dp2085
g69
I3
ssg70
g2079
sg63
(lp2086
g1090
asbasbasbag56
(g72
g58
NtRp2087
(dp2088
g61
(dp2089
sg70
g1978
sg63
(lp2090
g56
(g77
g58
NtRp2091
(dp2092
g61
(dp2093
g81
g82
ssg70
g2087
sg63
(lp2094
S'HTTP_COOKIE'
p2095
asbag56
(g77
g58
NtRp2096
(dp2097
g61
(dp2098
g88
g89
ssg70
g2087
sg63
(lp2099
S':'
asbag56
(g77
g58
NtRp2100
(dp2101
g61
(dp2102
sg70
g2087
sg63
(lp2103
g56
(g57
g58
NtRp2104
(dp2105
g61
(dp2106
g69
I3
ssg70
g2100
sg63
(lp2107
g1112
asbasbasbag56
(g72
g58
NtRp2108
(dp2109
g61
(dp2110
sg70
g1978
sg63
(lp2111
g56
(g77
g58
NtRp2112
(dp2113
g61
(dp2114
g81
g82
ssg70
g2108
sg63
(lp2115
S'HTTP_HOST'
p2116
asbag56
(g77
g58
NtRp2117
(dp2118
g61
(dp2119
g88
g89
ssg70
g2108
sg63
(lp2120
S':'
asbag56
(g77
g58
NtRp2121
(dp2122
g61
(dp2123
sg70
g2108
sg63
(lp2124
g56
(g57
g58
NtRp2125
(dp2126
g61
(dp2127
g69
I3
ssg70
g2121
sg63
(lp2128
g1134
asbasbasbag56
(g72
g58
NtRp2129
(dp2130
g61
(dp2131
sg70
g1978
sg63
(lp2132
g56
(g77
g58
NtRp2133
(dp2134
g61
(dp2135
g81
g82
ssg70
g2129
sg63
(lp2136
S'HTTP_REFERER'
p2137
asbag56
(g77
g58
NtRp2138
(dp2139
g61
(dp2140
g88
g89
ssg70
g2129
sg63
(lp2141
S':'
asbag56
(g77
g58
NtRp2142
(dp2143
g61
(dp2144
sg70
g2129
sg63
(lp2145
g56
(g57
g58
NtRp2146
(dp2147
g61
(dp2148
g69
I3
ssg70
g2142
sg63
(lp2149
g1156
asbasbasbag56
(g72
g58
NtRp2150
(dp2151
g61
(dp2152
sg70
g1978
sg63
(lp2153
g56
(g77
g58
NtRp2154
(dp2155
g61
(dp2156
g81
g82
ssg70
g2150
sg63
(lp2157
S'HTTP_USER_AGENT'
p2158
asbag56
(g77
g58
NtRp2159
(dp2160
g61
(dp2161
g88
g89
ssg70
g2150
sg63
(lp2162
S':'
asbag56
(g77
g58
NtRp2163
(dp2164
g61
(dp2165
sg70
g2150
sg63
(lp2166
g56
(g57
g58
NtRp2167
(dp2168
g61
(dp2169
g69
I3
ssg70
g2163
sg63
(lp2170
g1178
asbasbasbag56
(g72
g58
NtRp2171
(dp2172
g61
(dp2173
sg70
g1978
sg63
(lp2174
g56
(g77
g58
NtRp2175
(dp2176
g61
(dp2177
g81
g82
ssg70
g2171
sg63
(lp2178
S'PATH_INFO'
p2179
asbag56
(g77
g58
NtRp2180
(dp2181
g61
(dp2182
g88
g89
ssg70
g2171
sg63
(lp2183
S':'
asbag56
(g77
g58
NtRp2184
(dp2185
g61
(dp2186
sg70
g2171
sg63
(lp2187
g56
(g57
g58
NtRp2188
(dp2189
g61
(dp2190
g69
I3
ssg70
g2184
sg63
(lp2191
g1200
asbasbasbag56
(g72
g58
NtRp2192
(dp2193
g61
(dp2194
sg70
g1978
sg63
(lp2195
g56
(g77
g58
NtRp2196
(dp2197
g61
(dp2198
g81
g82
ssg70
g2192
sg63
(lp2199
S'QUERY_STRING'
p2200
asbag56
(g77
g58
NtRp2201
(dp2202
g61
(dp2203
g88
g89
ssg70
g2192
sg63
(lp2204
S':'
asbag56
(g77
g58
NtRp2205
(dp2206
g61
(dp2207
sg70
g2192
sg63
(lp2208
g56
(g57
g58
NtRp2209
(dp2210
g61
(dp2211
g69
I3
ssg70
g2205
sg63
(lp2212
S''
asbasbasbag56
(g72
g58
NtRp2213
(dp2214
g61
(dp2215
sg70
g1978
sg63
(lp2216
g56
(g77
g58
NtRp2217
(dp2218
g61
(dp2219
g81
g82
ssg70
g2213
sg63
(lp2220
S'REMOTE_ADDR'
p2221
asbag56
(g77
g58
NtRp2222
(dp2223
g61
(dp2224
g88
g89
ssg70
g2213
sg63
(lp2225
S':'
asbag56
(g77
g58
NtRp2226
(dp2227
g61
(dp2228
sg70
g2213
sg63
(lp2229
g56
(g57
g58
NtRp2230
(dp2231
g61
(dp2232
g69
I3
ssg70
g2226
sg63
(lp2233
g189
asbasbasbag56
(g72
g58
NtRp2234
(dp2235
g61
(dp2236
sg70
g1978
sg63
(lp2237
g56
(g77
g58
NtRp2238
(dp2239
g61
(dp2240
g81
g82
ssg70
g2234
sg63
(lp2241
S'REMOTE_PORT'
p2242
asbag56
(g77
g58
NtRp2243
(dp2244
g61
(dp2245
g88
g89
ssg70
g2234
sg63
(lp2246
S':'
asbag56
(g77
g58
NtRp2247
(dp2248
g61
(dp2249
sg70
g2234
sg63
(lp2250
g56
(g57
g58
NtRp2251
(dp2252
g61
(dp2253
g69
I3
ssg70
g2247
sg63
(lp2254
g1264
asbasbasbag56
(g72
g58
NtRp2255
(dp2256
g61
(dp2257
sg70
g1978
sg63
(lp2258
g56
(g77
g58
NtRp2259
(dp2260
g61
(dp2261
g81
g82
ssg70
g2255
sg63
(lp2262
S'REQUEST_METHOD'
p2263
asbag56
(g77
g58
NtRp2264
(dp2265
g61
(dp2266
g88
g89
ssg70
g2255
sg63
(lp2267
S':'
asbag56
(g77
g58
NtRp2268
(dp2269
g61
(dp2270
sg70
g2255
sg63
(lp2271
g56
(g57
g58
NtRp2272
(dp2273
g61
(dp2274
g69
I3
ssg70
g2268
sg63
(lp2275
g1286
asbasbasbag56
(g72
g58
NtRp2276
(dp2277
g61
(dp2278
sg70
g1978
sg63
(lp2279
g56
(g77
g58
NtRp2280
(dp2281
g61
(dp2282
g81
g82
ssg70
g2276
sg63
(lp2283
S'SCRIPT_NAME'
p2284
asbag56
(g77
g58
NtRp2285
(dp2286
g61
(dp2287
g88
g89
ssg70
g2276
sg63
(lp2288
S':'
asbag56
(g77
g58
NtRp2289
(dp2290
g61
(dp2291
sg70
g2276
sg63
(lp2292
g56
(g57
g58
NtRp2293
(dp2294
g61
(dp2295
g69
I3
ssg70
g2289
sg63
(lp2296
S''
asbasbasbag56
(g72
g58
NtRp2297
(dp2298
g61
(dp2299
sg70
g1978
sg63
(lp2300
g56
(g77
g58
NtRp2301
(dp2302
g61
(dp2303
g81
g82
ssg70
g2297
sg63
(lp2304
S'SERVER_NAME'
p2305
asbag56
(g77
g58
NtRp2306
(dp2307
g61
(dp2308
g88
g89
ssg70
g2297
sg63
(lp2309
S':'
asbag56
(g77
g58
NtRp2310
(dp2311
g61
(dp2312
sg70
g2297
sg63
(lp2313
g56
(g57
g58
NtRp2314
(dp2315
g61
(dp2316
g69
I3
ssg70
g2310
sg63
(lp2317
g1329
asbasbasbag56
(g72
g58
NtRp2318
(dp2319
g61
(dp2320
sg70
g1978
sg63
(lp2321
g56
(g77
g58
NtRp2322
(dp2323
g61
(dp2324
g81
g82
ssg70
g2318
sg63
(lp2325
S'SERVER_PORT'
p2326
asbag56
(g77
g58
NtRp2327
(dp2328
g61
(dp2329
g88
g89
ssg70
g2318
sg63
(lp2330
S':'
asbag56
(g77
g58
NtRp2331
(dp2332
g61
(dp2333
sg70
g2318
sg63
(lp2334
g56
(g57
g58
NtRp2335
(dp2336
g61
(dp2337
g69
I3
ssg70
g2331
sg63
(lp2338
g1351
asbasbasbag56
(g72
g58
NtRp2339
(dp2340
g61
(dp2341
sg70
g1978
sg63
(lp2342
g56
(g77
g58
NtRp2343
(dp2344
g61
(dp2345
g81
g82
ssg70
g2339
sg63
(lp2346
S'SERVER_PROTOCOL'
p2347
asbag56
(g77
g58
NtRp2348
(dp2349
g61
(dp2350
g88
g89
ssg70
g2339
sg63
(lp2351
S':'
asbag56
(g77
g58
NtRp2352
(dp2353
g61
(dp2354
sg70
g2339
sg63
(lp2355
g56
(g57
g58
NtRp2356
(dp2357
g61
(dp2358
g69
I3
ssg70
g2352
sg63
(lp2359
g1373
asbasbasbag56
(g72
g58
NtRp2360
(dp2361
g61
(dp2362
sg70
g1978
sg63
(lp2363
g56
(g77
g58
NtRp2364
(dp2365
g61
(dp2366
g81
g82
ssg70
g2360
sg63
(lp2367
S'SERVER_SOFTWARE'
p2368
asbag56
(g77
g58
NtRp2369
(dp2370
g61
(dp2371
g88
g89
ssg70
g2360
sg63
(lp2372
S':'
asbag56
(g77
g58
NtRp2373
(dp2374
g61
(dp2375
sg70
g2360
sg63
(lp2376
g56
(g57
g58
NtRp2377
(dp2378
g61
(dp2379
g69
I3
ssg70
g2373
sg63
(lp2380
g1395
asbasbasbag56
(g72
g58
NtRp2381
(dp2382
g61
(dp2383
sg70
g1978
sg63
(lp2384
g56
(g77
g58
NtRp2385
(dp2386
g61
(dp2387
g81
g82
ssg70
g2381
sg63
(lp2388
S'wsgi.errors'
p2389
asbag56
(g77
g58
NtRp2390
(dp2391
g61
(dp2392
g88
g89
ssg70
g2381
sg63
(lp2393
S':'
asbag56
(g77
g58
NtRp2394
(dp2395
g61
(dp2396
sg70
g2381
sg63
(lp2397
g56
(g57
g58
NtRp2398
(dp2399
g61
(dp2400
g69
I3
ssg70
g2394
sg63
(lp2401
S"<open file '<stderr>', mode 'w' at 0x7fd2753531e0>"
p2402
asbasbasbag56
(g72
g58
NtRp2403
(dp2404
g61
(dp2405
sg70
g1978
sg63
(lp2406
g56
(g77
g58
NtRp2407
(dp2408
g61
(dp2409
g81
g82
ssg70
g2403
sg63
(lp2410
S'wsgi.file_wrapper'
p2411
asbag56
(g77
g58
NtRp2412
(dp2413
g61
(dp2414
g88
g89
ssg70
g2403
sg63
(lp2415
S':'
asbag56
(g77
g58
NtRp2416
(dp2417
g61
(dp2418
sg70
g2403
sg63
(lp2419
g56
(g57
g58
NtRp2420
(dp2421
g61
(dp2422
g69
I3
ssg70
g2416
sg63
(lp2423
S'<class gluon.rocket.FileWrapper at 0x19683b0>'
p2424
asbasbasbag56
(g72
g58
NtRp2425
(dp2426
g61
(dp2427
sg70
g1978
sg63
(lp2428
g56
(g77
g58
NtRp2429
(dp2430
g61
(dp2431
g81
g82
ssg70
g2425
sg63
(lp2432
S'wsgi.input'
p2433
asbag56
(g77
g58
NtRp2434
(dp2435
g61
(dp2436
g88
g89
ssg70
g2425
sg63
(lp2437
S':'
asbag56
(g77
g58
NtRp2438
(dp2439
g61
(dp2440
sg70
g2425
sg63
(lp2441
g56
(g57
g58
NtRp2442
(dp2443
g61
(dp2444
g69
I3
ssg70
g2438
sg63
(lp2445
S'<cStringIO.StringO object at 0x2aa50a0>'
p2446
asbasbasbag56
(g72
g58
NtRp2447
(dp2448
g61
(dp2449
sg70
g1978
sg63
(lp2450
g56
(g77
g58
NtRp2451
(dp2452
g61
(dp2453
g81
g82
ssg70
g2447
sg63
(lp2454
S'wsgi.multiprocess'
p2455
asbag56
(g77
g58
NtRp2456
(dp2457
g61
(dp2458
g88
g89
ssg70
g2447
sg63
(lp2459
S':'
asbag56
(g77
g58
NtRp2460
(dp2461
g61
(dp2462
sg70
g2447
sg63
(lp2463
g56
(g57
g58
NtRp2464
(dp2465
g61
(dp2466
g69
I3
ssg70
g2460
sg63
(lp2467
g99
asbasbasbag56
(g72
g58
NtRp2468
(dp2469
g61
(dp2470
sg70
g1978
sg63
(lp2471
g56
(g77
g58
NtRp2472
(dp2473
g61
(dp2474
g81
g82
ssg70
g2468
sg63
(lp2475
S'wsgi.multithread'
p2476
asbag56
(g77
g58
NtRp2477
(dp2478
g61
(dp2479
g88
g89
ssg70
g2468
sg63
(lp2480
S':'
asbag56
(g77
g58
NtRp2481
(dp2482
g61
(dp2483
sg70
g2468
sg63
(lp2484
g56
(g57
g58
NtRp2485
(dp2486
g61
(dp2487
g69
I3
ssg70
g2481
sg63
(lp2488
g1569
asbasbasbag56
(g72
g58
NtRp2489
(dp2490
g61
(dp2491
sg70
g1978
sg63
(lp2492
g56
(g77
g58
NtRp2493
(dp2494
g61
(dp2495
g81
g82
ssg70
g2489
sg63
(lp2496
S'wsgi.run_once'
p2497
asbag56
(g77
g58
NtRp2498
(dp2499
g61
(dp2500
g88
g89
ssg70
g2489
sg63
(lp2501
S':'
asbag56
(g77
g58
NtRp2502
(dp2503
g61
(dp2504
sg70
g2489
sg63
(lp2505
g56
(g57
g58
NtRp2506
(dp2507
g61
(dp2508
g69
I3
ssg70
g2502
sg63
(lp2509
g99
asbasbasbag56
(g72
g58
NtRp2510
(dp2511
g61
(dp2512
sg70
g1978
sg63
(lp2513
g56
(g77
g58
NtRp2514
(dp2515
g61
(dp2516
g81
g82
ssg70
g2510
sg63
(lp2517
S'wsgi.url_scheme'
p2518
asbag56
(g77
g58
NtRp2519
(dp2520
g61
(dp2521
g88
g89
ssg70
g2510
sg63
(lp2522
S':'
asbag56
(g77
g58
NtRp2523
(dp2524
g61
(dp2525
sg70
g2510
sg63
(lp2526
g56
(g57
g58
NtRp2527
(dp2528
g61
(dp2529
g69
I3
ssg70
g2523
sg63
(lp2530
g1612
asbasbasbag56
(g72
g58
NtRp2531
(dp2532
g61
(dp2533
sg70
g1978
sg63
(lp2534
g56
(g77
g58
NtRp2535
(dp2536
g61
(dp2537
g81
g82
ssg70
g2531
sg63
(lp2538
S'wsgi.version'
p2539
asbag56
(g77
g58
NtRp2540
(dp2541
g61
(dp2542
g88
g89
ssg70
g2531
sg63
(lp2543
S':'
asbag56
(g77
g58
NtRp2544
(dp2545
g61
(dp2546
sg70
g2531
sg63
(lp2547
g56
(g57
g58
NtRp2548
(dp2549
g61
(dp2550
g69
I3
ssg70
g2544
sg63
(lp2551
S'1'
asbasbasbasbasbasbasbasbasbasbasbasbasbsS'frames'
p2552
(lp2553
(dp2554
S'file'
p2555
S'/home/marco/proyectos/web2py-trunk/gluon/restricted.py'
p2556
sS'dump'
p2557
(dp2558
S'environment'
p2559
S"{'A': <class 'gluon.html.A'>, 'Auth': <class 'gluon.tools.Auth'>, 'B': <class 'gluon.html.B'>, 'BEAUTIFY': <class 'gluon.html.BEAUTIFY'>, 'BODY': <class 'gluon.html.BODY'>, 'BR': <class 'gluon.html.BR'>, 'BUTTON': <class 'gluon.html.BUTTON'>, 'CENTER': <class 'gluon.html.CENTER'>, 'CLEANUP': <class 'gluon.validators.CLEANUP'>, 'CODE': <class 'gluon.html.CODE'>, ...}"
p2560
sS'ccode'
p2561
S'<code object <module> at 0x27a0b70, file "/home/...ns/mvstore/views/default/empleados.html", line 1>'
p2562
ssS'lnum'
p2563
I192
sS'lines'
p2564
(dp2565
I192
S'        exec ccode in environment'
p2566
sI193
S'    except HTTP:'
p2567
sI194
S'        raise'
p2568
sI195
S'    except Exception:'
p2569
sI196
S'        # XXX Show exception in Wing IDE if running in debugger'
p2570
sI187
S'    try:'
p2571
sI188
S'        if type(code) == types.CodeType:'
p2572
sI189
S'            ccode = code'
p2573
sI190
S'        else:'
p2574
sI191
S'            ccode = compile2(code,layer)'
p2575
ssS'call'
p2576
S'(code=\'response.write(\\\'<!DOCTYPE html>\\\\n<html lang="\\\', ...t   -->    \\\\n  </body>\\\\n</html>\\\\n\\\', escape=False)\', environment={\'A\': <class \'gluon.html.A\'>, \'Auth\': <class \'gluon.tools.Auth\'>, \'B\': <class \'gluon.html.B\'>, \'BEAUTIFY\': <class \'gluon.html.BEAUTIFY\'>, \'BODY\': <class \'gluon.html.BODY\'>, \'BR\': <class \'gluon.html.BR\'>, \'BUTTON\': <class \'gluon.html.BUTTON\'>, \'CENTER\': <class \'gluon.html.CENTER\'>, \'CLEANUP\': <class \'gluon.validators.CLEANUP\'>, \'CODE\': <class \'gluon.html.CODE\'>, ...}, layer=\'/home/marco/proyectos/web2py-trunk/applications/mvstore/views/default/empleados.html\')'
p2577
sS'func'
p2578
S'restricted'
p2579
sa(dp2580
g2555
S'/home/marco/proyectos/web2py-trunk/applications/mvstore/views/default/empleados.html'
p2581
sg2557
(dp2582
sg2563
I85
sg2564
(dp2583
I76
S"    response.write(auth.navbar(action=URL('default','user')))"
p2584
sI77
S'except:pass'
p2585
sI78
S'response.write(\'\\t\\t          \\n\\t  <h1><span id="appname">\', escape=False)'
p2586
sI79
S'response.write(request.application.capitalize())'
p2587
sI80
S'response.write(\'</span>App</h1>\\n\\t  <div style="clear: both;"></div><!-- Clear the divs -->\\n\\t  \', escape=False)'
p2588
sI81
S'response.write(\'\\t\\t\\t\\t  \\t\\t\\t\\t\\t  \\n\\t</div><!-- header  -->\\n\\t\\n\\t<div id="statusbar"><!-- statusbar is menu zone -->\\n\\t  \', escape=False)'
p2589
sI82
S"response.write(' <!-- this is default statusbar -->\\n\\t  ', escape=False)"
p2590
sI83
S'#------ superfish menu ------'
p2591
sI84
S"response.write('\\n\\t  ', escape=False)"
p2592
sI85
S"response.write(MENU(response.menu,_class='sf-menu'))"
p2593
sI86
S'response.write(\'\\n\\t  <script type="text/javascript">\\n\\t    jQuery(document).ready(function(){\\n\\t    jQuery(\\\'ul.sf-menu\\\').superfish();});\\n\\t  </script>\\n\\t  <div style="clear: both;"></div><!-- Clear the divs -->\\t\\n\\t  \', escape=False)'
p2594
sI87
S'response.write(\'\\t\\t\\t\\t\\n\\t</div><!-- statusbar -->\\n\\t\\n\\t<div id="page"> <!-- Here my central body -->\\t  \\n\\n\\t  \', escape=False)'
p2595
sI88
S'if left_sidebar_enabled:'
p2596
sI89
S'    response.write(\'\\n          <div id="left_sidebar" \', escape=False)'
p2597
sI90
S'    response.write(XML(left_sidebar_style))'
p2598
sI91
S'    response.write(\' >\\n            <div style="padding: 4px;">\\n\\t      \', escape=False)'
p2599
sI92
S"    response.write('Content Left Sidebar', escape=False)"
p2600
sI93
S"    response.write('\\t\\t  \\n            </div>\\n          </div><!-- left_sidebar -->\\n\\t  ', escape=False)"
p2601
sI94
S'    pass'
p2602
sI95
S'response.write(\'\\n\\n\\t  <!-- content -->\\n\\t  <div id="content" \', escape=False)'
p2603
ssg2576
S'()'
p2604
sg2578
S'<module>'
p2605
sa(dp2606
g2555
S'/home/marco/proyectos/web2py-trunk/gluon/globals.py'
p2607
sg2557
(dp2608
S'self.body.write'
p2609
S'<built-in method write of cStringIO.StringO object>'
p2610
sS'self.body'
p2611
S'<cStringIO.StringO object>'
p2612
sS'self'
p2613
S"<Storage {'body': <cStringIO.StringO object at 0...at 0x2776e60>, 'view': 'default/empleados.html'}>"
p2614
sS'global xmlescape'
p2615
S'<function xmlescape>'
p2616
sS'data'
p2617
S'<gluon.html.MENU object>'
p2618
ssg2563
I146
sg2564
(dp2619
I141
S''
sI142
S'    def write(self, data, escape=True):'
p2620
sI143
S'        if not escape:'
p2621
sI144
S'            self.body.write(str(data))'
p2622
sI145
S'        else:'
p2623
sI146
S'            self.body.write(xmlescape(data))'
p2624
sI147
S''
sI148
S'    def render(self, *a, **b):'
p2625
sI149
S'        from compileapp import run_view_in'
p2626
sI150
S'        if len(a) > 2:'
p2627
ssg2576
S"(self=<Storage {'body': <cStringIO.StringO object at 0...at 0x2776e60>, 'view': 'default/empleados.html'}>, data=<gluon.html.MENU object>, escape=True)"
p2628
sg2578
S'write'
p2629
sa(dp2630
g2555
S'/home/marco/proyectos/web2py-trunk/gluon/html.py'
p2631
sg2557
(dp2632
S'data'
p2633
S'<gluon.html.MENU object>'
p2634
sS'data.xml'
p2635
S'<bound method MENU.xml of <gluon.html.MENU object>>'
p2636
ssg2563
I111
sg2564
(dp2637
I106
S'    :param quote: optional (default False)'
p2638
sI107
S'    """'
p2639
sI108
S''
sI109
S'    # first try the xml function'
p2640
sI110
S"    if hasattr(data,'xml') and callable(data.xml):"
p2641
sI111
S'        return data.xml()'
p2642
sI112
S''
sI113
S'    # otherwise, make it a string'
p2643
sI114
S'    if not isinstance(data, (str, unicode)):'
p2644
sI115
S'        data = str(data)'
p2645
ssg2576
S'(data=<gluon.html.MENU object>, quote=True)'
p2646
sg2578
S'xmlescape'
p2647
sa(dp2648
g2555
S'/home/marco/proyectos/web2py-trunk/gluon/html.py'
p2649
sg2557
(dp2650
S'self.serialize'
p2651
S'<bound method MENU.serialize of <gluon.html.MENU object>>'
p2652
sS').xml'
p2653
S'undefined'
p2654
sS'self'
p2655
S'<gluon.html.MENU object>'
p2656
sS'self.data'
p2657
S"[(<lazyT 'Home'>, False, '/mvstore/default/index', []), (<lazyT 'This App'>, False, '/admin/default/design/mvstore', [(<lazyT 'Controller'>, False, '/admin/default/edit/mvstore/controllers/default.py'), (<lazyT 'View'>, False, '/admin/default/edit/mvstore/views/default/empleados.html'), (<lazyT 'Layout'>, False, '/admin/default/edit/mvstore/views/layout.html'), (<lazyT 'Stylesheet'>, False, '/admin/default/edit/mvstore/static/base.css'), (<lazyT 'DB Model'>, False, '/admin/default/edit/mvstore/models/db.py'), (<lazyT 'Menu Model'>, False, '/admin/default/edit/mvstore/models/menu.py'), (<lazyT 'Database'>, False, '/mvstore/appadmin/index'), (<lazyT 'Errors'>, False, '/admin/default/errors/mvstore'), (<lazyT 'About'>, False, '/admin/default/about/mvstore')]), 'ABM', False, None, [(<lazyT 'Add user'>, False, '/mvstore/default/empleados', [])], (<lazyT 'Resources'>, False, None, [(<lazyT 'Documentation'>, False, 'http://www.web2py.com/book', [(<lazyT 'Preface'>, False, 'http://www.web2py.com/book/default/chapter/00'), (<lazyT 'Introduction'>, False, 'http://www.web2py.com/book/default/chapter/01'), (<lazyT 'Python'>, False, 'http://www.web2py.com/book/default/chapter/02'), (<lazyT 'Overview'>, False, 'http://www.web2py.com/book/default/chapter/03'), (<lazyT 'The Core'>, False, 'http://www.web2py.com/book/default/chapter/04'), (<lazyT 'The Views'>, False, 'http://www.web2py.com/book/default/chapter/05'), (<lazyT 'Database'>, False, 'http://www.web2py.com/book/default/chapter/06'), (<lazyT 'Forms and Validators'>, False, 'http://www.web2py.com/book/default/chapter/07'), (<lazyT 'Access Control'>, False, 'http://www.web2py.com/book/default/chapter/08'), (<lazyT 'Services'>, False, 'http://www.web2py.com/book/default/chapter/09'), (<lazyT 'Ajax Recipes'>, False, 'http://www.web2py.com/book/default/chapter/10'), (<lazyT 'Deployment Recipes'>, False, 'http://www.web2py.com/book/default/chapter/11'), (<lazyT 'Other Recipes'>, False, 'http://www.web2py.com/book/default/chapter/12'), (<lazyT 'Buy this book'>, False, 'http://stores.lulu.com/web2py')]), (<lazyT 'Community'>, False, None, [(<lazyT 'Groups'>, False, 'http://www.web2py.com/examples/default/usergroups'), (<lazyT 'Twitter'>, False, 'http://twitter.com/web2py'), (<lazyT 'Live chat'>, False, 'http://mibbit.com/?channel=%23web2py&server=irc.mibbit.net'), (<lazyT 'User Voice'>, False, 'http://web2py.uservoice.com/')]), (<lazyT 'Web2py'>, False, 'http://www.web2py.com', [(<lazyT 'Download'>, False, 'http://www.web2py.com/examples/default/download'), (<lazyT 'Support'>, False, 'http://www.web2py.com/examples/default/support'), (<lazyT 'Quick Examples'>, False, 'http://web2py.com/examples/default/examples'), (<lazyT 'FAQ'>, False, 'http://web2py.com/AlterEgo'), (<lazyT 'Free Applications'>, False, 'http://web2py.com/appliances'), (<lazyT 'Plugins'>, False, 'http://web2py.com/plugins'), (<lazyT 'Recipes'>, False, 'http://web2pyslices.com/'), (<lazyT 'Demo'>, False, 'http://web2py.com/demo_admin'), (<lazyT 'Semantic'>, False, 'http://web2py.com/semantic'), (<lazyT 'Layouts'>, False, 'http://web2py.com/layouts'), (<lazyT 'Videos'>, False, 'http://www.web2py.com/examples/default/videos/')])])]"
p2658
ssg2563
I1927
sg2564
(dp2659
I1922
S"                    li['_class'] = self['li_active']"
p2660
sI1923
S'            ul.append(li)'
p2661
sI1924
S'        return ul'
p2662
sI1925
S''
sI1926
S'    def xml(self):'
p2663
sI1927
S'        return self.serialize(self.data, 0).xml()'
p2664
sI1928
S''
sI1929
S''
sI1930
S'def embed64('
p2665
sI1931
S'    filename = None,'
p2666
ssg2576
S'(self=<gluon.html.MENU object>)'
p2667
sg2578
S'xml'
p2668
sa(dp2669
g2555
S'/home/marco/proyectos/web2py-trunk/gluon/html.py'
p2670
sg2557
(dp2671
S'active'
p2672
S"'B'"
p2673
sS'item'
p2674
g99
sS'link'
p2675
S"'M'"
p2676
sS'name'
p2677
S"'A'"
p2678
ssg2563
I1905
sg2564
(dp2679
I1900
S'        if level == 0:'
p2680
sI1901
S'            ul = UL(**self.attributes)'
p2681
sI1902
S'        else:'
p2682
sI1903
S"            ul = UL(_class=self['ul_class'])"
p2683
sI1904
S'        for item in data:'
p2684
sI1905
S'            (name, active, link) = item[:3]'
p2685
sI1906
S'            if isinstance(link,DIV):'
p2686
sI1907
S'                li = LI(link)'
p2687
sI1908
S"            elif 'no_link_url' in self.attributes and self['no_link_url']==link:"
p2688
sI1909
S'                li = LI(DIV(name))'
p2689
ssg2576
S"(self=<gluon.html.MENU object>, data=[(<lazyT 'Home'>, False, '/mvstore/default/index', []), (<lazyT 'This App'>, False, '/admin/default/design/mvstore', [(<lazyT 'Controller'>, False, '/admin/default/edit/mvstore/controllers/default.py'), (<lazyT 'View'>, False, '/admin/default/edit/mvstore/views/default/empleados.html'), (<lazyT 'Layout'>, False, '/admin/default/edit/mvstore/views/layout.html'), (<lazyT 'Stylesheet'>, False, '/admin/default/edit/mvstore/static/base.css'), (<lazyT 'DB Model'>, False, '/admin/default/edit/mvstore/models/db.py'), (<lazyT 'Menu Model'>, False, '/admin/default/edit/mvstore/models/menu.py'), (<lazyT 'Database'>, False, '/mvstore/appadmin/index'), (<lazyT 'Errors'>, False, '/admin/default/errors/mvstore'), (<lazyT 'About'>, False, '/admin/default/about/mvstore')]), 'ABM', False, None, [(<lazyT 'Add user'>, False, '/mvstore/default/empleados', [])], (<lazyT 'Resources'>, False, None, [(<lazyT 'Documentation'>, False, 'http://www.web2py.com/book', [(<lazyT 'Preface'>, False, 'http://www.web2py.com/book/default/chapter/00'), (<lazyT 'Introduction'>, False, 'http://www.web2py.com/book/default/chapter/01'), (<lazyT 'Python'>, False, 'http://www.web2py.com/book/default/chapter/02'), (<lazyT 'Overview'>, False, 'http://www.web2py.com/book/default/chapter/03'), (<lazyT 'The Core'>, False, 'http://www.web2py.com/book/default/chapter/04'), (<lazyT 'The Views'>, False, 'http://www.web2py.com/book/default/chapter/05'), (<lazyT 'Database'>, False, 'http://www.web2py.com/book/default/chapter/06'), (<lazyT 'Forms and Validators'>, False, 'http://www.web2py.com/book/default/chapter/07'), (<lazyT 'Access Control'>, False, 'http://www.web2py.com/book/default/chapter/08'), (<lazyT 'Services'>, False, 'http://www.web2py.com/book/default/chapter/09'), (<lazyT 'Ajax Recipes'>, False, 'http://www.web2py.com/book/default/chapter/10'), (<lazyT 'Deployment Recipes'>, False, 'http://www.web2py.com/book/default/chapter/11'), (<lazyT 'Other Recipes'>, False, 'http://www.web2py.com/book/default/chapter/12'), (<lazyT 'Buy this book'>, False, 'http://stores.lulu.com/web2py')]), (<lazyT 'Community'>, False, None, [(<lazyT 'Groups'>, False, 'http://www.web2py.com/examples/default/usergroups'), (<lazyT 'Twitter'>, False, 'http://twitter.com/web2py'), (<lazyT 'Live chat'>, False, 'http://mibbit.com/?channel=%23web2py&server=irc.mibbit.net'), (<lazyT 'User Voice'>, False, 'http://web2py.uservoice.com/')]), (<lazyT 'Web2py'>, False, 'http://www.web2py.com', [(<lazyT 'Download'>, False, 'http://www.web2py.com/examples/default/download'), (<lazyT 'Support'>, False, 'http://www.web2py.com/examples/default/support'), (<lazyT 'Quick Examples'>, False, 'http://web2py.com/examples/default/examples'), (<lazyT 'FAQ'>, False, 'http://web2py.com/AlterEgo'), (<lazyT 'Free Applications'>, False, 'http://web2py.com/appliances'), (<lazyT 'Plugins'>, False, 'http://web2py.com/plugins'), (<lazyT 'Recipes'>, False, 'http://web2pyslices.com/'), (<lazyT 'Demo'>, False, 'http://web2py.com/demo_admin'), (<lazyT 'Semantic'>, False, 'http://web2py.com/semantic'), (<lazyT 'Layouts'>, False, 'http://web2py.com/layouts'), (<lazyT 'Videos'>, False, 'http://www.web2py.com/examples/default/videos/')])])], level=0)"
p2690
sg2578
S'serialize'
p2691
sasS'pyver'
p2692
S'Python 2.6.6: /usr/bin/python'
p2693
sS'session'
p2694
g56
(g57
g58
NtRp2695
(dp2696
g61
(dp2697
sg63
(lp2698
g56
(g65
g58
NtRp2699
(dp2700
g61
(dp2701
g69
I5
ssg70
Nsg63
(lp2702
sbasbsS'etype'
p2703
S"<type 'exceptions.TypeError'>"
p2704
sS'date'
p2705
S'Sun Jun 19 00:04:41 2011'
p2706
sS'response'
p2707
g56
(g57
g58
NtRp2708
(dp2709
g61
(dp2710
sg63
(lp2711
g56
(g65
g58
NtRp2712
(dp2713
g61
(dp2714
g69
I5
ssg70
Nsg63
(lp2715
g56
(g72
g58
NtRp2716
(dp2717
g61
(dp2718
sg70
g2712
sg63
(lp2719
g56
(g77
g58
NtRp2720
(dp2721
g61
(dp2722
g81
g82
ssg70
g2716
sg63
(lp2723
g154
asbag56
(g77
g58
NtRp2724
(dp2725
g61
(dp2726
g88
g89
ssg70
g2716
sg63
(lp2727
S':'
asbag56
(g77
g58
NtRp2728
(dp2729
g61
(dp2730
sg70
g2716
sg63
(lp2731
g56
(g57
g58
NtRp2732
(dp2733
g61
(dp2734
g69
I5
ssg70
g2728
sg63
(lp2735
S'<cStringIO.StringO object at 0x234bb20>'
p2736
asbasbasbag56
(g72
g58
NtRp2737
(dp2738
g61
(dp2739
sg70
g2712
sg63
(lp2740
g56
(g77
g58
NtRp2741
(dp2742
g61
(dp2743
g81
g82
ssg70
g2737
sg63
(lp2744
g220
asbag56
(g77
g58
NtRp2745
(dp2746
g61
(dp2747
g88
g89
ssg70
g2737
sg63
(lp2748
S':'
asbag56
(g77
g58
NtRp2749
(dp2750
g61
(dp2751
sg70
g2737
sg63
(lp2752
g56
(g57
g58
NtRp2753
(dp2754
g61
(dp2755
g69
I5
ssg70
g2749
sg63
(lp2756
g56
(g65
g58
NtRp2757
(dp2758
g61
(dp2759
g69
I4
ssg70
Nsg63
(lp2760
g56
(g72
g58
NtRp2761
(dp2762
g61
(dp2763
sg70
g2757
sg63
(lp2764
g56
(g77
g58
NtRp2765
(dp2766
g61
(dp2767
g81
g82
ssg70
g2761
sg63
(lp2768
S'session_id_mvstore'
p2769
asbag56
(g77
g58
NtRp2770
(dp2771
g61
(dp2772
g88
g89
ssg70
g2761
sg63
(lp2773
S':'
asbag56
(g77
g58
NtRp2774
(dp2775
g61
(dp2776
sg70
g2761
sg63
(lp2777
g56
(g57
g58
NtRp2778
(dp2779
g61
(dp2780
g69
I4
ssg70
g2774
sg63
(lp2781
g56
(g65
g58
NtRp2782
(dp2783
g61
(dp2784
g69
I3
ssg70
Nsg63
(lp2785
g56
(g72
g58
NtRp2786
(dp2787
g61
(dp2788
sg70
g2782
sg63
(lp2789
g56
(g77
g58
NtRp2790
(dp2791
g61
(dp2792
g81
g82
ssg70
g2786
sg63
(lp2793
g270
asbag56
(g77
g58
NtRp2794
(dp2795
g61
(dp2796
g88
g89
ssg70
g2786
sg63
(lp2797
S':'
asbag56
(g77
g58
NtRp2798
(dp2799
g61
(dp2800
sg70
g2786
sg63
(lp2801
g56
(g57
g58
NtRp2802
(dp2803
g61
(dp2804
g69
I3
ssg70
g2798
sg63
(lp2805
S''
asbasbasbag56
(g72
g58
NtRp2806
(dp2807
g61
(dp2808
sg70
g2782
sg63
(lp2809
g56
(g77
g58
NtRp2810
(dp2811
g61
(dp2812
g81
g82
ssg70
g2806
sg63
(lp2813
g291
asbag56
(g77
g58
NtRp2814
(dp2815
g61
(dp2816
g88
g89
ssg70
g2806
sg63
(lp2817
S':'
asbag56
(g77
g58
NtRp2818
(dp2819
g61
(dp2820
sg70
g2806
sg63
(lp2821
g56
(g57
g58
NtRp2822
(dp2823
g61
(dp2824
g69
I3
ssg70
g2818
sg63
(lp2825
S''
asbasbasbag56
(g72
g58
NtRp2826
(dp2827
g61
(dp2828
sg70
g2782
sg63
(lp2829
g56
(g77
g58
NtRp2830
(dp2831
g61
(dp2832
g81
g82
ssg70
g2826
sg63
(lp2833
g312
asbag56
(g77
g58
NtRp2834
(dp2835
g61
(dp2836
g88
g89
ssg70
g2826
sg63
(lp2837
S':'
asbag56
(g77
g58
NtRp2838
(dp2839
g61
(dp2840
sg70
g2826
sg63
(lp2841
g56
(g57
g58
NtRp2842
(dp2843
g61
(dp2844
g69
I3
ssg70
g2838
sg63
(lp2845
S''
asbasbasbag56
(g72
g58
NtRp2846
(dp2847
g61
(dp2848
sg70
g2782
sg63
(lp2849
g56
(g77
g58
NtRp2850
(dp2851
g61
(dp2852
g81
g82
ssg70
g2846
sg63
(lp2853
g333
asbag56
(g77
g58
NtRp2854
(dp2855
g61
(dp2856
g88
g89
ssg70
g2846
sg63
(lp2857
S':'
asbag56
(g77
g58
NtRp2858
(dp2859
g61
(dp2860
sg70
g2846
sg63
(lp2861
g56
(g57
g58
NtRp2862
(dp2863
g61
(dp2864
g69
I3
ssg70
g2858
sg63
(lp2865
S''
asbasbasbag56
(g72
g58
NtRp2866
(dp2867
g61
(dp2868
sg70
g2782
sg63
(lp2869
g56
(g77
g58
NtRp2870
(dp2871
g61
(dp2872
g81
g82
ssg70
g2866
sg63
(lp2873
g354
asbag56
(g77
g58
NtRp2874
(dp2875
g61
(dp2876
g88
g89
ssg70
g2866
sg63
(lp2877
S':'
asbag56
(g77
g58
NtRp2878
(dp2879
g61
(dp2880
sg70
g2866
sg63
(lp2881
g56
(g57
g58
NtRp2882
(dp2883
g61
(dp2884
g69
I3
ssg70
g2878
sg63
(lp2885
S''
asbasbasbag56
(g72
g58
NtRp2886
(dp2887
g61
(dp2888
sg70
g2782
sg63
(lp2889
g56
(g77
g58
NtRp2890
(dp2891
g61
(dp2892
g81
g82
ssg70
g2886
sg63
(lp2893
g375
asbag56
(g77
g58
NtRp2894
(dp2895
g61
(dp2896
g88
g89
ssg70
g2886
sg63
(lp2897
S':'
asbag56
(g77
g58
NtRp2898
(dp2899
g61
(dp2900
sg70
g2886
sg63
(lp2901
g56
(g57
g58
NtRp2902
(dp2903
g61
(dp2904
g69
I3
ssg70
g2898
sg63
(lp2905
S'/'
asbasbasbag56
(g72
g58
NtRp2906
(dp2907
g61
(dp2908
sg70
g2782
sg63
(lp2909
g56
(g77
g58
NtRp2910
(dp2911
g61
(dp2912
g81
g82
ssg70
g2906
sg63
(lp2913
g396
asbag56
(g77
g58
NtRp2914
(dp2915
g61
(dp2916
g88
g89
ssg70
g2906
sg63
(lp2917
S':'
asbag56
(g77
g58
NtRp2918
(dp2919
g61
(dp2920
sg70
g2906
sg63
(lp2921
g56
(g57
g58
NtRp2922
(dp2923
g61
(dp2924
g69
I3
ssg70
g2918
sg63
(lp2925
S''
asbasbasbag56
(g72
g58
NtRp2926
(dp2927
g61
(dp2928
sg70
g2782
sg63
(lp2929
g56
(g77
g58
NtRp2930
(dp2931
g61
(dp2932
g81
g82
ssg70
g2926
sg63
(lp2933
g417
asbag56
(g77
g58
NtRp2934
(dp2935
g61
(dp2936
g88
g89
ssg70
g2926
sg63
(lp2937
S':'
asbag56
(g77
g58
NtRp2938
(dp2939
g61
(dp2940
sg70
g2926
sg63
(lp2941
g56
(g57
g58
NtRp2942
(dp2943
g61
(dp2944
g69
I3
ssg70
g2938
sg63
(lp2945
S''
asbasbasbasbasbasbasbasbasbasbasbag56
(g72
g58
NtRp2946
(dp2947
g61
(dp2948
sg70
g2712
sg63
(lp2949
g56
(g77
g58
NtRp2950
(dp2951
g61
(dp2952
g81
g82
ssg70
g2946
sg63
(lp2953
S'files'
p2954
asbag56
(g77
g58
NtRp2955
(dp2956
g61
(dp2957
g88
g89
ssg70
g2946
sg63
(lp2958
S':'
asbag56
(g77
g58
NtRp2959
(dp2960
g61
(dp2961
sg70
g2946
sg63
(lp2962
g56
(g57
g58
NtRp2963
(dp2964
g61
(dp2965
g69
I5
ssg70
g2959
sg63
(lp2966
g56
(g65
g58
NtRp2967
(dp2968
g61
(dp2969
g69
I4
ssg70
Nsg63
(lp2970
g56
(g72
g58
NtRp2971
(dp2972
g61
(dp2973
sg70
g2967
sg63
(lp2974
g56
(g77
g58
NtRp2975
(dp2976
g61
(dp2977
sg70
g2971
sg63
(lp2978
g56
(g57
g58
NtRp2979
(dp2980
g61
(dp2981
g69
I4
ssg70
g2975
sg63
(lp2982
S'/mvstore/static/js/jquery.js'
p2983
asbasbasbag56
(g72
g58
NtRp2984
(dp2985
g61
(dp2986
sg70
g2967
sg63
(lp2987
g56
(g77
g58
NtRp2988
(dp2989
g61
(dp2990
sg70
g2984
sg63
(lp2991
g56
(g57
g58
NtRp2992
(dp2993
g61
(dp2994
g69
I4
ssg70
g2988
sg63
(lp2995
S'/mvstore/static/css/calendar.css'
p2996
asbasbasbag56
(g72
g58
NtRp2997
(dp2998
g61
(dp2999
sg70
g2967
sg63
(lp3000
g56
(g77
g58
NtRp3001
(dp3002
g61
(dp3003
sg70
g2997
sg63
(lp3004
g56
(g57
g58
NtRp3005
(dp3006
g61
(dp3007
g69
I4
ssg70
g3001
sg63
(lp3008
S'/mvstore/static/js/calendar.js'
p3009
asbasbasbag56
(g72
g58
NtRp3010
(dp3011
g61
(dp3012
sg70
g2967
sg63
(lp3013
g56
(g77
g58
NtRp3014
(dp3015
g61
(dp3016
sg70
g3010
sg63
(lp3017
g56
(g57
g58
NtRp3018
(dp3019
g61
(dp3020
g69
I4
ssg70
g3014
sg63
(lp3021
S'/mvstore/static/css/base.css'
p3022
asbasbasbag56
(g72
g58
NtRp3023
(dp3024
g61
(dp3025
sg70
g2967
sg63
(lp3026
g56
(g77
g58
NtRp3027
(dp3028
g61
(dp3029
sg70
g3023
sg63
(lp3030
g56
(g57
g58
NtRp3031
(dp3032
g61
(dp3033
g69
I4
ssg70
g3027
sg63
(lp3034
S'/mvstore/static/css/superfish.css'
p3035
asbasbasbag56
(g72
g58
NtRp3036
(dp3037
g61
(dp3038
sg70
g2967
sg63
(lp3039
g56
(g77
g58
NtRp3040
(dp3041
g61
(dp3042
sg70
g3036
sg63
(lp3043
g56
(g57
g58
NtRp3044
(dp3045
g61
(dp3046
g69
I4
ssg70
g3040
sg63
(lp3047
S'/mvstore/static/js/superfish.js'
p3048
asbasbasbasbasbasbasbag56
(g72
g58
NtRp3049
(dp3050
g61
(dp3051
sg70
g2712
sg63
(lp3052
g56
(g77
g58
NtRp3053
(dp3054
g61
(dp3055
g81
g82
ssg70
g3049
sg63
(lp3056
S'flash'
p3057
asbag56
(g77
g58
NtRp3058
(dp3059
g61
(dp3060
g88
g89
ssg70
g3049
sg63
(lp3061
S':'
asbag56
(g77
g58
NtRp3062
(dp3063
g61
(dp3064
sg70
g3049
sg63
(lp3065
g56
(g57
g58
NtRp3066
(dp3067
g61
(dp3068
g69
I5
ssg70
g3062
sg63
(lp3069
S''
asbasbasbag56
(g72
g58
NtRp3070
(dp3071
g61
(dp3072
sg70
g2712
sg63
(lp3073
g56
(g77
g58
NtRp3074
(dp3075
g61
(dp3076
g81
g82
ssg70
g3070
sg63
(lp3077
S'headers'
p3078
asbag56
(g77
g58
NtRp3079
(dp3080
g61
(dp3081
g88
g89
ssg70
g3070
sg63
(lp3082
S':'
asbag56
(g77
g58
NtRp3083
(dp3084
g61
(dp3085
sg70
g3070
sg63
(lp3086
g56
(g57
g58
NtRp3087
(dp3088
g61
(dp3089
g69
I5
ssg70
g3083
sg63
(lp3090
g56
(g65
g58
NtRp3091
(dp3092
g61
(dp3093
g69
I4
ssg70
Nsg63
(lp3094
g56
(g72
g58
NtRp3095
(dp3096
g61
(dp3097
sg70
g3091
sg63
(lp3098
g56
(g77
g58
NtRp3099
(dp3100
g61
(dp3101
g81
g82
ssg70
g3095
sg63
(lp3102
S'Cache-Control'
p3103
asbag56
(g77
g58
NtRp3104
(dp3105
g61
(dp3106
g88
g89
ssg70
g3095
sg63
(lp3107
S':'
asbag56
(g77
g58
NtRp3108
(dp3109
g61
(dp3110
sg70
g3095
sg63
(lp3111
g56
(g57
g58
NtRp3112
(dp3113
g61
(dp3114
g69
I4
ssg70
g3108
sg63
(lp3115
S'no-store, no-cache, must-revalidate, post-check=0, pre-check=0'
p3116
asbasbasbag56
(g72
g58
NtRp3117
(dp3118
g61
(dp3119
sg70
g3091
sg63
(lp3120
g56
(g77
g58
NtRp3121
(dp3122
g61
(dp3123
g81
g82
ssg70
g3117
sg63
(lp3124
S'Content-Type'
p3125
asbag56
(g77
g58
NtRp3126
(dp3127
g61
(dp3128
g88
g89
ssg70
g3117
sg63
(lp3129
S':'
asbag56
(g77
g58
NtRp3130
(dp3131
g61
(dp3132
sg70
g3117
sg63
(lp3133
g56
(g57
g58
NtRp3134
(dp3135
g61
(dp3136
g69
I4
ssg70
g3130
sg63
(lp3137
S'text/html; charset=utf-8'
p3138
asbasbasbag56
(g72
g58
NtRp3139
(dp3140
g61
(dp3141
sg70
g3091
sg63
(lp3142
g56
(g77
g58
NtRp3143
(dp3144
g61
(dp3145
g81
g82
ssg70
g3139
sg63
(lp3146
S'Expires'
p3147
asbag56
(g77
g58
NtRp3148
(dp3149
g61
(dp3150
g88
g89
ssg70
g3139
sg63
(lp3151
S':'
asbag56
(g77
g58
NtRp3152
(dp3153
g61
(dp3154
sg70
g3139
sg63
(lp3155
g56
(g57
g58
NtRp3156
(dp3157
g61
(dp3158
g69
I4
ssg70
g3152
sg63
(lp3159
S'Sun, 19 Jun 2011 03:04:41 GMT'
p3160
asbasbasbag56
(g72
g58
NtRp3161
(dp3162
g61
(dp3163
sg70
g3091
sg63
(lp3164
g56
(g77
g58
NtRp3165
(dp3166
g61
(dp3167
g81
g82
ssg70
g3161
sg63
(lp3168
S'Pragma'
p3169
asbag56
(g77
g58
NtRp3170
(dp3171
g61
(dp3172
g88
g89
ssg70
g3161
sg63
(lp3173
S':'
asbag56
(g77
g58
NtRp3174
(dp3175
g61
(dp3176
sg70
g3161
sg63
(lp3177
g56
(g57
g58
NtRp3178
(dp3179
g61
(dp3180
g69
I4
ssg70
g3174
sg63
(lp3181
S'no-cache'
p3182
asbasbasbag56
(g72
g58
NtRp3183
(dp3184
g61
(dp3185
sg70
g3091
sg63
(lp3186
g56
(g77
g58
NtRp3187
(dp3188
g61
(dp3189
g81
g82
ssg70
g3183
sg63
(lp3190
S'X-Powered-By'
p3191
asbag56
(g77
g58
NtRp3192
(dp3193
g61
(dp3194
g88
g89
ssg70
g3183
sg63
(lp3195
S':'
asbag56
(g77
g58
NtRp3196
(dp3197
g61
(dp3198
sg70
g3183
sg63
(lp3199
g56
(g57
g58
NtRp3200
(dp3201
g61
(dp3202
g69
I4
ssg70
g3196
sg63
(lp3203
S'web2py'
p3204
asbasbasbasbasbasbasbag56
(g72
g58
NtRp3205
(dp3206
g61
(dp3207
sg70
g2712
sg63
(lp3208
g56
(g77
g58
NtRp3209
(dp3210
g61
(dp3211
g81
g82
ssg70
g3205
sg63
(lp3212
S'menu'
p3213
asbag56
(g77
g58
NtRp3214
(dp3215
g61
(dp3216
g88
g89
ssg70
g3205
sg63
(lp3217
S':'
asbag56
(g77
g58
NtRp3218
(dp3219
g61
(dp3220
sg70
g3205
sg63
(lp3221
g56
(g57
g58
NtRp3222
(dp3223
g61
(dp3224
g69
I5
ssg70
g3218
sg63
(lp3225
g56
(g65
g58
NtRp3226
(dp3227
g61
(dp3228
g69
I4
ssg70
Nsg63
(lp3229
g56
(g72
g58
NtRp3230
(dp3231
g61
(dp3232
sg70
g3226
sg63
(lp3233
g56
(g77
g58
NtRp3234
(dp3235
g61
(dp3236
sg70
g3230
sg63
(lp3237
g56
(g57
g58
NtRp3238
(dp3239
g61
(dp3240
g69
I4
ssg70
g3234
sg63
(lp3241
g56
(g65
g58
NtRp3242
(dp3243
g61
(dp3244
g69
I3
ssg70
Nsg63
(lp3245
g56
(g72
g58
NtRp3246
(dp3247
g61
(dp3248
sg70
g3242
sg63
(lp3249
g56
(g77
g58
NtRp3250
(dp3251
g61
(dp3252
sg70
g3246
sg63
(lp3253
g56
(g57
g58
NtRp3254
(dp3255
g61
(dp3256
g69
I3
ssg70
g3250
sg63
(lp3257
cgluon.languages
lazyT_unpickle
p3258
(S's\x04\x00\x00\x00Home'
tRp3259
asbasbasbag56
(g72
g58
NtRp3260
(dp3261
g61
(dp3262
sg70
g3242
sg63
(lp3263
g56
(g77
g58
NtRp3264
(dp3265
g61
(dp3266
sg70
g3260
sg63
(lp3267
g56
(g57
g58
NtRp3268
(dp3269
g61
(dp3270
g69
I3
ssg70
g3264
sg63
(lp3271
g99
asbasbasbag56
(g72
g58
NtRp3272
(dp3273
g61
(dp3274
sg70
g3242
sg63
(lp3275
g56
(g77
g58
NtRp3276
(dp3277
g61
(dp3278
sg70
g3272
sg63
(lp3279
g56
(g57
g58
NtRp3280
(dp3281
g61
(dp3282
g69
I3
ssg70
g3276
sg63
(lp3283
S'/mvstore/default/index'
p3284
asbasbasbag56
(g72
g58
NtRp3285
(dp3286
g61
(dp3287
sg70
g3242
sg63
(lp3288
g56
(g77
g58
NtRp3289
(dp3290
g61
(dp3291
sg70
g3285
sg63
(lp3292
g56
(g57
g58
NtRp3293
(dp3294
g61
(dp3295
g69
I3
ssg70
g3289
sg63
(lp3296
g56
(g65
g58
NtRp3297
(dp3298
g61
(dp3299
g69
I2
ssg70
Nsg63
(lp3300
sbasbasbasbasbasbasbasbag56
(g72
g58
NtRp3301
(dp3302
g61
(dp3303
sg70
g3226
sg63
(lp3304
g56
(g77
g58
NtRp3305
(dp3306
g61
(dp3307
sg70
g3301
sg63
(lp3308
g56
(g57
g58
NtRp3309
(dp3310
g61
(dp3311
g69
I4
ssg70
g3305
sg63
(lp3312
g56
(g65
g58
NtRp3313
(dp3314
g61
(dp3315
g69
I3
ssg70
Nsg63
(lp3316
g56
(g72
g58
NtRp3317
(dp3318
g61
(dp3319
sg70
g3313
sg63
(lp3320
g56
(g77
g58
NtRp3321
(dp3322
g61
(dp3323
sg70
g3317
sg63
(lp3324
g56
(g57
g58
NtRp3325
(dp3326
g61
(dp3327
g69
I3
ssg70
g3321
sg63
(lp3328
g3258
(S's\x08\x00\x00\x00This App'
tRp3329
asbasbasbag56
(g72
g58
NtRp3330
(dp3331
g61
(dp3332
sg70
g3313
sg63
(lp3333
g56
(g77
g58
NtRp3334
(dp3335
g61
(dp3336
sg70
g3330
sg63
(lp3337
g56
(g57
g58
NtRp3338
(dp3339
g61
(dp3340
g69
I3
ssg70
g3334
sg63
(lp3341
g99
asbasbasbag56
(g72
g58
NtRp3342
(dp3343
g61
(dp3344
sg70
g3313
sg63
(lp3345
g56
(g77
g58
NtRp3346
(dp3347
g61
(dp3348
sg70
g3342
sg63
(lp3349
g56
(g57
g58
NtRp3350
(dp3351
g61
(dp3352
g69
I3
ssg70
g3346
sg63
(lp3353
S'/admin/default/design/mvstore'
p3354
asbasbasbag56
(g72
g58
NtRp3355
(dp3356
g61
(dp3357
sg70
g3313
sg63
(lp3358
g56
(g77
g58
NtRp3359
(dp3360
g61
(dp3361
sg70
g3355
sg63
(lp3362
g56
(g57
g58
NtRp3363
(dp3364
g61
(dp3365
g69
I3
ssg70
g3359
sg63
(lp3366
g56
(g65
g58
NtRp3367
(dp3368
g61
(dp3369
g69
I2
ssg70
Nsg63
(lp3370
g56
(g72
g58
NtRp3371
(dp3372
g61
(dp3373
sg70
g3367
sg63
(lp3374
g56
(g77
g58
NtRp3375
(dp3376
g61
(dp3377
sg70
g3371
sg63
(lp3378
g56
(g57
g58
NtRp3379
(dp3380
g61
(dp3381
g69
I2
ssg70
g3375
sg63
(lp3382
g56
(g65
g58
NtRp3383
(dp3384
g61
(dp3385
g69
I1
ssg70
Nsg63
(lp3386
g56
(g72
g58
NtRp3387
(dp3388
g61
(dp3389
sg70
g3383
sg63
(lp3390
g56
(g77
g58
NtRp3391
(dp3392
g61
(dp3393
sg70
g3387
sg63
(lp3394
g56
(g57
g58
NtRp3395
(dp3396
g61
(dp3397
g69
I1
ssg70
g3391
sg63
(lp3398
g3258
(S's\n\x00\x00\x00Controller'
tRp3399
asbasbasbag56
(g72
g58
NtRp3400
(dp3401
g61
(dp3402
sg70
g3383
sg63
(lp3403
g56
(g77
g58
NtRp3404
(dp3405
g61
(dp3406
sg70
g3400
sg63
(lp3407
g56
(g57
g58
NtRp3408
(dp3409
g61
(dp3410
g69
I1
ssg70
g3404
sg63
(lp3411
I00
asbasbasbag56
(g72
g58
NtRp3412
(dp3413
g61
(dp3414
sg70
g3383
sg63
(lp3415
g56
(g77
g58
NtRp3416
(dp3417
g61
(dp3418
sg70
g3412
sg63
(lp3419
g56
(g57
g58
NtRp3420
(dp3421
g61
(dp3422
g69
I1
ssg70
g3416
sg63
(lp3423
S'/admin/default/edit/mvstore/controllers/default.py'
p3424
asbasbasbasbasbasbasbag56
(g72
g58
NtRp3425
(dp3426
g61
(dp3427
sg70
g3367
sg63
(lp3428
g56
(g77
g58
NtRp3429
(dp3430
g61
(dp3431
sg70
g3425
sg63
(lp3432
g56
(g57
g58
NtRp3433
(dp3434
g61
(dp3435
g69
I2
ssg70
g3429
sg63
(lp3436
g56
(g65
g58
NtRp3437
(dp3438
g61
(dp3439
g69
I1
ssg70
Nsg63
(lp3440
g56
(g72
g58
NtRp3441
(dp3442
g61
(dp3443
sg70
g3437
sg63
(lp3444
g56
(g77
g58
NtRp3445
(dp3446
g61
(dp3447
sg70
g3441
sg63
(lp3448
g56
(g57
g58
NtRp3449
(dp3450
g61
(dp3451
g69
I1
ssg70
g3445
sg63
(lp3452
g3258
(S's\x04\x00\x00\x00View'
tRp3453
asbasbasbag56
(g72
g58
NtRp3454
(dp3455
g61
(dp3456
sg70
g3437
sg63
(lp3457
g56
(g77
g58
NtRp3458
(dp3459
g61
(dp3460
sg70
g3454
sg63
(lp3461
g56
(g57
g58
NtRp3462
(dp3463
g61
(dp3464
g69
I1
ssg70
g3458
sg63
(lp3465
I00
asbasbasbag56
(g72
g58
NtRp3466
(dp3467
g61
(dp3468
sg70
g3437
sg63
(lp3469
g56
(g77
g58
NtRp3470
(dp3471
g61
(dp3472
sg70
g3466
sg63
(lp3473
g56
(g57
g58
NtRp3474
(dp3475
g61
(dp3476
g69
I1
ssg70
g3470
sg63
(lp3477
S'/admin/default/edit/mvstore/views/default/empleados.html'
p3478
asbasbasbasbasbasbasbag56
(g72
g58
NtRp3479
(dp3480
g61
(dp3481
sg70
g3367
sg63
(lp3482
g56
(g77
g58
NtRp3483
(dp3484
g61
(dp3485
sg70
g3479
sg63
(lp3486
g56
(g57
g58
NtRp3487
(dp3488
g61
(dp3489
g69
I2
ssg70
g3483
sg63
(lp3490
g56
(g65
g58
NtRp3491
(dp3492
g61
(dp3493
g69
I1
ssg70
Nsg63
(lp3494
g56
(g72
g58
NtRp3495
(dp3496
g61
(dp3497
sg70
g3491
sg63
(lp3498
g56
(g77
g58
NtRp3499
(dp3500
g61
(dp3501
sg70
g3495
sg63
(lp3502
g56
(g57
g58
NtRp3503
(dp3504
g61
(dp3505
g69
I1
ssg70
g3499
sg63
(lp3506
g3258
(S's\x06\x00\x00\x00Layout'
tRp3507
asbasbasbag56
(g72
g58
NtRp3508
(dp3509
g61
(dp3510
sg70
g3491
sg63
(lp3511
g56
(g77
g58
NtRp3512
(dp3513
g61
(dp3514
sg70
g3508
sg63
(lp3515
g56
(g57
g58
NtRp3516
(dp3517
g61
(dp3518
g69
I1
ssg70
g3512
sg63
(lp3519
I00
asbasbasbag56
(g72
g58
NtRp3520
(dp3521
g61
(dp3522
sg70
g3491
sg63
(lp3523
g56
(g77
g58
NtRp3524
(dp3525
g61
(dp3526
sg70
g3520
sg63
(lp3527
g56
(g57
g58
NtRp3528
(dp3529
g61
(dp3530
g69
I1
ssg70
g3524
sg63
(lp3531
S'/admin/default/edit/mvstore/views/layout.html'
p3532
asbasbasbasbasbasbasbag56
(g72
g58
NtRp3533
(dp3534
g61
(dp3535
sg70
g3367
sg63
(lp3536
g56
(g77
g58
NtRp3537
(dp3538
g61
(dp3539
sg70
g3533
sg63
(lp3540
g56
(g57
g58
NtRp3541
(dp3542
g61
(dp3543
g69
I2
ssg70
g3537
sg63
(lp3544
g56
(g65
g58
NtRp3545
(dp3546
g61
(dp3547
g69
I1
ssg70
Nsg63
(lp3548
g56
(g72
g58
NtRp3549
(dp3550
g61
(dp3551
sg70
g3545
sg63
(lp3552
g56
(g77
g58
NtRp3553
(dp3554
g61
(dp3555
sg70
g3549
sg63
(lp3556
g56
(g57
g58
NtRp3557
(dp3558
g61
(dp3559
g69
I1
ssg70
g3553
sg63
(lp3560
g3258
(S's\n\x00\x00\x00Stylesheet'
tRp3561
asbasbasbag56
(g72
g58
NtRp3562
(dp3563
g61
(dp3564
sg70
g3545
sg63
(lp3565
g56
(g77
g58
NtRp3566
(dp3567
g61
(dp3568
sg70
g3562
sg63
(lp3569
g56
(g57
g58
NtRp3570
(dp3571
g61
(dp3572
g69
I1
ssg70
g3566
sg63
(lp3573
I00
asbasbasbag56
(g72
g58
NtRp3574
(dp3575
g61
(dp3576
sg70
g3545
sg63
(lp3577
g56
(g77
g58
NtRp3578
(dp3579
g61
(dp3580
sg70
g3574
sg63
(lp3581
g56
(g57
g58
NtRp3582
(dp3583
g61
(dp3584
g69
I1
ssg70
g3578
sg63
(lp3585
S'/admin/default/edit/mvstore/static/base.css'
p3586
asbasbasbasbasbasbasbag56
(g72
g58
NtRp3587
(dp3588
g61
(dp3589
sg70
g3367
sg63
(lp3590
g56
(g77
g58
NtRp3591
(dp3592
g61
(dp3593
sg70
g3587
sg63
(lp3594
g56
(g57
g58
NtRp3595
(dp3596
g61
(dp3597
g69
I2
ssg70
g3591
sg63
(lp3598
g56
(g65
g58
NtRp3599
(dp3600
g61
(dp3601
g69
I1
ssg70
Nsg63
(lp3602
g56
(g72
g58
NtRp3603
(dp3604
g61
(dp3605
sg70
g3599
sg63
(lp3606
g56
(g77
g58
NtRp3607
(dp3608
g61
(dp3609
sg70
g3603
sg63
(lp3610
g56
(g57
g58
NtRp3611
(dp3612
g61
(dp3613
g69
I1
ssg70
g3607
sg63
(lp3614
g3258
(S's\x08\x00\x00\x00DB Model'
tRp3615
asbasbasbag56
(g72
g58
NtRp3616
(dp3617
g61
(dp3618
sg70
g3599
sg63
(lp3619
g56
(g77
g58
NtRp3620
(dp3621
g61
(dp3622
sg70
g3616
sg63
(lp3623
g56
(g57
g58
NtRp3624
(dp3625
g61
(dp3626
g69
I1
ssg70
g3620
sg63
(lp3627
I00
asbasbasbag56
(g72
g58
NtRp3628
(dp3629
g61
(dp3630
sg70
g3599
sg63
(lp3631
g56
(g77
g58
NtRp3632
(dp3633
g61
(dp3634
sg70
g3628
sg63
(lp3635
g56
(g57
g58
NtRp3636
(dp3637
g61
(dp3638
g69
I1
ssg70
g3632
sg63
(lp3639
S'/admin/default/edit/mvstore/models/db.py'
p3640
asbasbasbasbasbasbasbag56
(g72
g58
NtRp3641
(dp3642
g61
(dp3643
sg70
g3367
sg63
(lp3644
g56
(g77
g58
NtRp3645
(dp3646
g61
(dp3647
sg70
g3641
sg63
(lp3648
g56
(g57
g58
NtRp3649
(dp3650
g61
(dp3651
g69
I2
ssg70
g3645
sg63
(lp3652
g56
(g65
g58
NtRp3653
(dp3654
g61
(dp3655
g69
I1
ssg70
Nsg63
(lp3656
g56
(g72
g58
NtRp3657
(dp3658
g61
(dp3659
sg70
g3653
sg63
(lp3660
g56
(g77
g58
NtRp3661
(dp3662
g61
(dp3663
sg70
g3657
sg63
(lp3664
g56
(g57
g58
NtRp3665
(dp3666
g61
(dp3667
g69
I1
ssg70
g3661
sg63
(lp3668
g3258
(S's\n\x00\x00\x00Menu Model'
tRp3669
asbasbasbag56
(g72
g58
NtRp3670
(dp3671
g61
(dp3672
sg70
g3653
sg63
(lp3673
g56
(g77
g58
NtRp3674
(dp3675
g61
(dp3676
sg70
g3670
sg63
(lp3677
g56
(g57
g58
NtRp3678
(dp3679
g61
(dp3680
g69
I1
ssg70
g3674
sg63
(lp3681
I00
asbasbasbag56
(g72
g58
NtRp3682
(dp3683
g61
(dp3684
sg70
g3653
sg63
(lp3685
g56
(g77
g58
NtRp3686
(dp3687
g61
(dp3688
sg70
g3682
sg63
(lp3689
g56
(g57
g58
NtRp3690
(dp3691
g61
(dp3692
g69
I1
ssg70
g3686
sg63
(lp3693
S'/admin/default/edit/mvstore/models/menu.py'
p3694
asbasbasbasbasbasbasbag56
(g72
g58
NtRp3695
(dp3696
g61
(dp3697
sg70
g3367
sg63
(lp3698
g56
(g77
g58
NtRp3699
(dp3700
g61
(dp3701
sg70
g3695
sg63
(lp3702
g56
(g57
g58
NtRp3703
(dp3704
g61
(dp3705
g69
I2
ssg70
g3699
sg63
(lp3706
g56
(g65
g58
NtRp3707
(dp3708
g61
(dp3709
g69
I1
ssg70
Nsg63
(lp3710
g56
(g72
g58
NtRp3711
(dp3712
g61
(dp3713
sg70
g3707
sg63
(lp3714
g56
(g77
g58
NtRp3715
(dp3716
g61
(dp3717
sg70
g3711
sg63
(lp3718
g56
(g57
g58
NtRp3719
(dp3720
g61
(dp3721
g69
I1
ssg70
g3715
sg63
(lp3722
g3258
(S's\x08\x00\x00\x00Database'
tRp3723
asbasbasbag56
(g72
g58
NtRp3724
(dp3725
g61
(dp3726
sg70
g3707
sg63
(lp3727
g56
(g77
g58
NtRp3728
(dp3729
g61
(dp3730
sg70
g3724
sg63
(lp3731
g56
(g57
g58
NtRp3732
(dp3733
g61
(dp3734
g69
I1
ssg70
g3728
sg63
(lp3735
I00
asbasbasbag56
(g72
g58
NtRp3736
(dp3737
g61
(dp3738
sg70
g3707
sg63
(lp3739
g56
(g77
g58
NtRp3740
(dp3741
g61
(dp3742
sg70
g3736
sg63
(lp3743
g56
(g57
g58
NtRp3744
(dp3745
g61
(dp3746
g69
I1
ssg70
g3740
sg63
(lp3747
S'/mvstore/appadmin/index'
p3748
asbasbasbasbasbasbasbag56
(g72
g58
NtRp3749
(dp3750
g61
(dp3751
sg70
g3367
sg63
(lp3752
g56
(g77
g58
NtRp3753
(dp3754
g61
(dp3755
sg70
g3749
sg63
(lp3756
g56
(g57
g58
NtRp3757
(dp3758
g61
(dp3759
g69
I2
ssg70
g3753
sg63
(lp3760
g56
(g65
g58
NtRp3761
(dp3762
g61
(dp3763
g69
I1
ssg70
Nsg63
(lp3764
g56
(g72
g58
NtRp3765
(dp3766
g61
(dp3767
sg70
g3761
sg63
(lp3768
g56
(g77
g58
NtRp3769
(dp3770
g61
(dp3771
sg70
g3765
sg63
(lp3772
g56
(g57
g58
NtRp3773
(dp3774
g61
(dp3775
g69
I1
ssg70
g3769
sg63
(lp3776
g3258
(S's\x06\x00\x00\x00Errors'
tRp3777
asbasbasbag56
(g72
g58
NtRp3778
(dp3779
g61
(dp3780
sg70
g3761
sg63
(lp3781
g56
(g77
g58
NtRp3782
(dp3783
g61
(dp3784
sg70
g3778
sg63
(lp3785
g56
(g57
g58
NtRp3786
(dp3787
g61
(dp3788
g69
I1
ssg70
g3782
sg63
(lp3789
I00
asbasbasbag56
(g72
g58
NtRp3790
(dp3791
g61
(dp3792
sg70
g3761
sg63
(lp3793
g56
(g77
g58
NtRp3794
(dp3795
g61
(dp3796
sg70
g3790
sg63
(lp3797
g56
(g57
g58
NtRp3798
(dp3799
g61
(dp3800
g69
I1
ssg70
g3794
sg63
(lp3801
S'/admin/default/errors/mvstore'
p3802
asbasbasbasbasbasbasbag56
(g72
g58
NtRp3803
(dp3804
g61
(dp3805
sg70
g3367
sg63
(lp3806
g56
(g77
g58
NtRp3807
(dp3808
g61
(dp3809
sg70
g3803
sg63
(lp3810
g56
(g57
g58
NtRp3811
(dp3812
g61
(dp3813
g69
I2
ssg70
g3807
sg63
(lp3814
g56
(g65
g58
NtRp3815
(dp3816
g61
(dp3817
g69
I1
ssg70
Nsg63
(lp3818
g56
(g72
g58
NtRp3819
(dp3820
g61
(dp3821
sg70
g3815
sg63
(lp3822
g56
(g77
g58
NtRp3823
(dp3824
g61
(dp3825
sg70
g3819
sg63
(lp3826
g56
(g57
g58
NtRp3827
(dp3828
g61
(dp3829
g69
I1
ssg70
g3823
sg63
(lp3830
g3258
(S's\x05\x00\x00\x00About'
tRp3831
asbasbasbag56
(g72
g58
NtRp3832
(dp3833
g61
(dp3834
sg70
g3815
sg63
(lp3835
g56
(g77
g58
NtRp3836
(dp3837
g61
(dp3838
sg70
g3832
sg63
(lp3839
g56
(g57
g58
NtRp3840
(dp3841
g61
(dp3842
g69
I1
ssg70
g3836
sg63
(lp3843
I00
asbasbasbag56
(g72
g58
NtRp3844
(dp3845
g61
(dp3846
sg70
g3815
sg63
(lp3847
g56
(g77
g58
NtRp3848
(dp3849
g61
(dp3850
sg70
g3844
sg63
(lp3851
g56
(g57
g58
NtRp3852
(dp3853
g61
(dp3854
g69
I1
ssg70
g3848
sg63
(lp3855
S'/admin/default/about/mvstore'
p3856
asbasbasbasbasbasbasbasbasbasbasbasbasbasbasbag56
(g72
g58
NtRp3857
(dp3858
g61
(dp3859
sg70
g3226
sg63
(lp3860
g56
(g77
g58
NtRp3861
(dp3862
g61
(dp3863
sg70
g3857
sg63
(lp3864
g56
(g57
g58
NtRp3865
(dp3866
g61
(dp3867
g69
I4
ssg70
g3861
sg63
(lp3868
S'ABM'
p3869
asbasbasbag56
(g72
g58
NtRp3870
(dp3871
g61
(dp3872
sg70
g3226
sg63
(lp3873
g56
(g77
g58
NtRp3874
(dp3875
g61
(dp3876
sg70
g3870
sg63
(lp3877
g56
(g57
g58
NtRp3878
(dp3879
g61
(dp3880
g69
I4
ssg70
g3874
sg63
(lp3881
g99
asbasbasbag56
(g72
g58
NtRp3882
(dp3883
g61
(dp3884
sg70
g3226
sg63
(lp3885
g56
(g77
g58
NtRp3886
(dp3887
g61
(dp3888
sg70
g3882
sg63
(lp3889
g56
(g57
g58
NtRp3890
(dp3891
g61
(dp3892
g69
I4
ssg70
g3886
sg63
(lp3893
S'None'
p3894
asbasbasbag56
(g72
g58
NtRp3895
(dp3896
g61
(dp3897
sg70
g3226
sg63
(lp3898
g56
(g77
g58
NtRp3899
(dp3900
g61
(dp3901
sg70
g3895
sg63
(lp3902
g56
(g57
g58
NtRp3903
(dp3904
g61
(dp3905
g69
I4
ssg70
g3899
sg63
(lp3906
g56
(g65
g58
NtRp3907
(dp3908
g61
(dp3909
g69
I3
ssg70
Nsg63
(lp3910
g56
(g72
g58
NtRp3911
(dp3912
g61
(dp3913
sg70
g3907
sg63
(lp3914
g56
(g77
g58
NtRp3915
(dp3916
g61
(dp3917
sg70
g3911
sg63
(lp3918
g56
(g57
g58
NtRp3919
(dp3920
g61
(dp3921
g69
I3
ssg70
g3915
sg63
(lp3922
g56
(g65
g58
NtRp3923
(dp3924
g61
(dp3925
g69
I2
ssg70
Nsg63
(lp3926
g56
(g72
g58
NtRp3927
(dp3928
g61
(dp3929
sg70
g3923
sg63
(lp3930
g56
(g77
g58
NtRp3931
(dp3932
g61
(dp3933
sg70
g3927
sg63
(lp3934
g56
(g57
g58
NtRp3935
(dp3936
g61
(dp3937
g69
I2
ssg70
g3931
sg63
(lp3938
g3258
(S's\x08\x00\x00\x00Add user'
tRp3939
asbasbasbag56
(g72
g58
NtRp3940
(dp3941
g61
(dp3942
sg70
g3923
sg63
(lp3943
g56
(g77
g58
NtRp3944
(dp3945
g61
(dp3946
sg70
g3940
sg63
(lp3947
g56
(g57
g58
NtRp3948
(dp3949
g61
(dp3950
g69
I2
ssg70
g3944
sg63
(lp3951
g99
asbasbasbag56
(g72
g58
NtRp3952
(dp3953
g61
(dp3954
sg70
g3923
sg63
(lp3955
g56
(g77
g58
NtRp3956
(dp3957
g61
(dp3958
sg70
g3952
sg63
(lp3959
g56
(g57
g58
NtRp3960
(dp3961
g61
(dp3962
g69
I2
ssg70
g3956
sg63
(lp3963
S'/mvstore/default/empleados'
p3964
asbasbasbag56
(g72
g58
NtRp3965
(dp3966
g61
(dp3967
sg70
g3923
sg63
(lp3968
g56
(g77
g58
NtRp3969
(dp3970
g61
(dp3971
sg70
g3965
sg63
(lp3972
g56
(g57
g58
NtRp3973
(dp3974
g61
(dp3975
g69
I2
ssg70
g3969
sg63
(lp3976
g56
(g65
g58
NtRp3977
(dp3978
g61
(dp3979
g69
I1
ssg70
Nsg63
(lp3980
sbasbasbasbasbasbasbasbasbasbasbasbag56
(g72
g58
NtRp3981
(dp3982
g61
(dp3983
sg70
g3226
sg63
(lp3984
g56
(g77
g58
NtRp3985
(dp3986
g61
(dp3987
sg70
g3981
sg63
(lp3988
g56
(g57
g58
NtRp3989
(dp3990
g61
(dp3991
g69
I4
ssg70
g3985
sg63
(lp3992
g56
(g65
g58
NtRp3993
(dp3994
g61
(dp3995
g69
I3
ssg70
Nsg63
(lp3996
g56
(g72
g58
NtRp3997
(dp3998
g61
(dp3999
sg70
g3993
sg63
(lp4000
g56
(g77
g58
NtRp4001
(dp4002
g61
(dp4003
sg70
g3997
sg63
(lp4004
g56
(g57
g58
NtRp4005
(dp4006
g61
(dp4007
g69
I3
ssg70
g4001
sg63
(lp4008
g3258
(S's\t\x00\x00\x00Resources'
tRp4009
asbasbasbag56
(g72
g58
NtRp4010
(dp4011
g61
(dp4012
sg70
g3993
sg63
(lp4013
g56
(g77
g58
NtRp4014
(dp4015
g61
(dp4016
sg70
g4010
sg63
(lp4017
g56
(g57
g58
NtRp4018
(dp4019
g61
(dp4020
g69
I3
ssg70
g4014
sg63
(lp4021
g99
asbasbasbag56
(g72
g58
NtRp4022
(dp4023
g61
(dp4024
sg70
g3993
sg63
(lp4025
g56
(g77
g58
NtRp4026
(dp4027
g61
(dp4028
sg70
g4022
sg63
(lp4029
g56
(g57
g58
NtRp4030
(dp4031
g61
(dp4032
g69
I3
ssg70
g4026
sg63
(lp4033
S'None'
p4034
asbasbasbag56
(g72
g58
NtRp4035
(dp4036
g61
(dp4037
sg70
g3993
sg63
(lp4038
g56
(g77
g58
NtRp4039
(dp4040
g61
(dp4041
sg70
g4035
sg63
(lp4042
g56
(g57
g58
NtRp4043
(dp4044
g61
(dp4045
g69
I3
ssg70
g4039
sg63
(lp4046
g56
(g65
g58
NtRp4047
(dp4048
g61
(dp4049
g69
I2
ssg70
Nsg63
(lp4050
g56
(g72
g58
NtRp4051
(dp4052
g61
(dp4053
sg70
g4047
sg63
(lp4054
g56
(g77
g58
NtRp4055
(dp4056
g61
(dp4057
sg70
g4051
sg63
(lp4058
g56
(g57
g58
NtRp4059
(dp4060
g61
(dp4061
g69
I2
ssg70
g4055
sg63
(lp4062
g56
(g65
g58
NtRp4063
(dp4064
g61
(dp4065
g69
I1
ssg70
Nsg63
(lp4066
g56
(g72
g58
NtRp4067
(dp4068
g61
(dp4069
sg70
g4063
sg63
(lp4070
g56
(g77
g58
NtRp4071
(dp4072
g61
(dp4073
sg70
g4067
sg63
(lp4074
g56
(g57
g58
NtRp4075
(dp4076
g61
(dp4077
g69
I1
ssg70
g4071
sg63
(lp4078
g3258
(S's\r\x00\x00\x00Documentation'
tRp4079
asbasbasbag56
(g72
g58
NtRp4080
(dp4081
g61
(dp4082
sg70
g4063
sg63
(lp4083
g56
(g77
g58
NtRp4084
(dp4085
g61
(dp4086
sg70
g4080
sg63
(lp4087
g56
(g57
g58
NtRp4088
(dp4089
g61
(dp4090
g69
I1
ssg70
g4084
sg63
(lp4091
I00
asbasbasbag56
(g72
g58
NtRp4092
(dp4093
g61
(dp4094
sg70
g4063
sg63
(lp4095
g56
(g77
g58
NtRp4096
(dp4097
g61
(dp4098
sg70
g4092
sg63
(lp4099
g56
(g57
g58
NtRp4100
(dp4101
g61
(dp4102
g69
I1
ssg70
g4096
sg63
(lp4103
S'http://www.web2py.com/book'
p4104
asbasbasbag56
(g72
g58
NtRp4105
(dp4106
g61
(dp4107
sg70
g4063
sg63
(lp4108
g56
(g77
g58
NtRp4109
(dp4110
g61
(dp4111
sg70
g4105
sg63
(lp4112
g56
(g57
g58
NtRp4113
(dp4114
g61
(dp4115
g69
I1
ssg70
g4109
sg63
(lp4116
(lp4117
(g3258
(S's\x07\x00\x00\x00Preface'
tRp4118
I00
S'http://www.web2py.com/book/default/chapter/00'
tp4119
a(g3258
(S's\x0c\x00\x00\x00Introduction'
tRp4120
I00
S'http://www.web2py.com/book/default/chapter/01'
tp4121
a(g3258
(S's\x06\x00\x00\x00Python'
tRp4122
I00
S'http://www.web2py.com/book/default/chapter/02'
tp4123
a(g3258
(S's\x08\x00\x00\x00Overview'
tRp4124
I00
S'http://www.web2py.com/book/default/chapter/03'
tp4125
a(g3258
(S's\x08\x00\x00\x00The Core'
tRp4126
I00
S'http://www.web2py.com/book/default/chapter/04'
tp4127
a(g3258
(S's\t\x00\x00\x00The Views'
tRp4128
I00
S'http://www.web2py.com/book/default/chapter/05'
tp4129
a(g3258
(S's\x08\x00\x00\x00Database'
tRp4130
I00
S'http://www.web2py.com/book/default/chapter/06'
tp4131
a(g3258
(S's\x14\x00\x00\x00Forms and Validators'
tRp4132
I00
S'http://www.web2py.com/book/default/chapter/07'
tp4133
a(g3258
(S's\x0e\x00\x00\x00Access Control'
tRp4134
I00
S'http://www.web2py.com/book/default/chapter/08'
tp4135
a(g3258
(S's\x08\x00\x00\x00Services'
tRp4136
I00
S'http://www.web2py.com/book/default/chapter/09'
tp4137
a(g3258
(S's\x0c\x00\x00\x00Ajax Recipes'
tRp4138
I00
S'http://www.web2py.com/book/default/chapter/10'
tp4139
a(g3258
(S's\x12\x00\x00\x00Deployment Recipes'
tRp4140
I00
S'http://www.web2py.com/book/default/chapter/11'
tp4141
a(g3258
(S's\r\x00\x00\x00Other Recipes'
tRp4142
I00
S'http://www.web2py.com/book/default/chapter/12'
tp4143
a(g3258
(S's\r\x00\x00\x00Buy this book'
tRp4144
I00
S'http://stores.lulu.com/web2py'
tp4145
aasbasbasbasbasbasbasbag56
(g72
g58
NtRp4146
(dp4147
g61
(dp4148
sg70
g4047
sg63
(lp4149
g56
(g77
g58
NtRp4150
(dp4151
g61
(dp4152
sg70
g4146
sg63
(lp4153
g56
(g57
g58
NtRp4154
(dp4155
g61
(dp4156
g69
I2
ssg70
g4150
sg63
(lp4157
g56
(g65
g58
NtRp4158
(dp4159
g61
(dp4160
g69
I1
ssg70
Nsg63
(lp4161
g56
(g72
g58
NtRp4162
(dp4163
g61
(dp4164
sg70
g4158
sg63
(lp4165
g56
(g77
g58
NtRp4166
(dp4167
g61
(dp4168
sg70
g4162
sg63
(lp4169
g56
(g57
g58
NtRp4170
(dp4171
g61
(dp4172
g69
I1
ssg70
g4166
sg63
(lp4173
g3258
(S's\t\x00\x00\x00Community'
tRp4174
asbasbasbag56
(g72
g58
NtRp4175
(dp4176
g61
(dp4177
sg70
g4158
sg63
(lp4178
g56
(g77
g58
NtRp4179
(dp4180
g61
(dp4181
sg70
g4175
sg63
(lp4182
g56
(g57
g58
NtRp4183
(dp4184
g61
(dp4185
g69
I1
ssg70
g4179
sg63
(lp4186
I00
asbasbasbag56
(g72
g58
NtRp4187
(dp4188
g61
(dp4189
sg70
g4158
sg63
(lp4190
g56
(g77
g58
NtRp4191
(dp4192
g61
(dp4193
sg70
g4187
sg63
(lp4194
g56
(g57
g58
NtRp4195
(dp4196
g61
(dp4197
g69
I1
ssg70
g4191
sg63
(lp4198
Nasbasbasbag56
(g72
g58
NtRp4199
(dp4200
g61
(dp4201
sg70
g4158
sg63
(lp4202
g56
(g77
g58
NtRp4203
(dp4204
g61
(dp4205
sg70
g4199
sg63
(lp4206
g56
(g57
g58
NtRp4207
(dp4208
g61
(dp4209
g69
I1
ssg70
g4203
sg63
(lp4210
(lp4211
(g3258
(S's\x06\x00\x00\x00Groups'
tRp4212
I00
S'http://www.web2py.com/examples/default/usergroups'
tp4213
a(g3258
(S's\x07\x00\x00\x00Twitter'
tRp4214
I00
S'http://twitter.com/web2py'
tp4215
a(g3258
(S's\t\x00\x00\x00Live chat'
tRp4216
I00
S'http://mibbit.com/?channel=%23web2py&server=irc.mibbit.net'
tp4217
a(g3258
(S's\n\x00\x00\x00User Voice'
tRp4218
I00
S'http://web2py.uservoice.com/'
tp4219
aasbasbasbasbasbasbasbag56
(g72
g58
NtRp4220
(dp4221
g61
(dp4222
sg70
g4047
sg63
(lp4223
g56
(g77
g58
NtRp4224
(dp4225
g61
(dp4226
sg70
g4220
sg63
(lp4227
g56
(g57
g58
NtRp4228
(dp4229
g61
(dp4230
g69
I2
ssg70
g4224
sg63
(lp4231
g56
(g65
g58
NtRp4232
(dp4233
g61
(dp4234
g69
I1
ssg70
Nsg63
(lp4235
g56
(g72
g58
NtRp4236
(dp4237
g61
(dp4238
sg70
g4232
sg63
(lp4239
g56
(g77
g58
NtRp4240
(dp4241
g61
(dp4242
sg70
g4236
sg63
(lp4243
g56
(g57
g58
NtRp4244
(dp4245
g61
(dp4246
g69
I1
ssg70
g4240
sg63
(lp4247
g3258
(S's\x06\x00\x00\x00Web2py'
tRp4248
asbasbasbag56
(g72
g58
NtRp4249
(dp4250
g61
(dp4251
sg70
g4232
sg63
(lp4252
g56
(g77
g58
NtRp4253
(dp4254
g61
(dp4255
sg70
g4249
sg63
(lp4256
g56
(g57
g58
NtRp4257
(dp4258
g61
(dp4259
g69
I1
ssg70
g4253
sg63
(lp4260
I00
asbasbasbag56
(g72
g58
NtRp4261
(dp4262
g61
(dp4263
sg70
g4232
sg63
(lp4264
g56
(g77
g58
NtRp4265
(dp4266
g61
(dp4267
sg70
g4261
sg63
(lp4268
g56
(g57
g58
NtRp4269
(dp4270
g61
(dp4271
g69
I1
ssg70
g4265
sg63
(lp4272
S'http://www.web2py.com'
p4273
asbasbasbag56
(g72
g58
NtRp4274
(dp4275
g61
(dp4276
sg70
g4232
sg63
(lp4277
g56
(g77
g58
NtRp4278
(dp4279
g61
(dp4280
sg70
g4274
sg63
(lp4281
g56
(g57
g58
NtRp4282
(dp4283
g61
(dp4284
g69
I1
ssg70
g4278
sg63
(lp4285
(lp4286
(g3258
(S's\x08\x00\x00\x00Download'
tRp4287
I00
S'http://www.web2py.com/examples/default/download'
tp4288
a(g3258
(S's\x07\x00\x00\x00Support'
tRp4289
I00
S'http://www.web2py.com/examples/default/support'
tp4290
a(g3258
(S's\x0e\x00\x00\x00Quick Examples'
tRp4291
I00
S'http://web2py.com/examples/default/examples'
tp4292
a(g3258
(S's\x03\x00\x00\x00FAQ'
tRp4293
I00
S'http://web2py.com/AlterEgo'
tp4294
a(g3258
(S's\x11\x00\x00\x00Free Applications'
tRp4295
I00
S'http://web2py.com/appliances'
tp4296
a(g3258
(S's\x07\x00\x00\x00Plugins'
tRp4297
I00
S'http://web2py.com/plugins'
tp4298
a(g3258
(S's\x07\x00\x00\x00Recipes'
tRp4299
I00
S'http://web2pyslices.com/'
tp4300
a(g3258
(S's\x04\x00\x00\x00Demo'
tRp4301
I00
S'http://web2py.com/demo_admin'
tp4302
a(g3258
(S's\x08\x00\x00\x00Semantic'
tRp4303
I00
S'http://web2py.com/semantic'
tp4304
a(g3258
(S's\x07\x00\x00\x00Layouts'
tRp4305
I00
S'http://web2py.com/layouts'
tp4306
a(g3258
(S's\x06\x00\x00\x00Videos'
tRp4307
I00
S'http://www.web2py.com/examples/default/videos/'
tp4308
aasbasbasbasbasbasbasbasbasbasbasbasbasbasbasbasbasbasbasbag56
(g72
g58
NtRp4309
(dp4310
g61
(dp4311
sg70
g2712
sg63
(lp4312
g56
(g77
g58
NtRp4313
(dp4314
g61
(dp4315
g81
g82
ssg70
g4309
sg63
(lp4316
S'meta'
p4317
asbag56
(g77
g58
NtRp4318
(dp4319
g61
(dp4320
g88
g89
ssg70
g4309
sg63
(lp4321
S':'
asbag56
(g77
g58
NtRp4322
(dp4323
g61
(dp4324
sg70
g4309
sg63
(lp4325
g56
(g57
g58
NtRp4326
(dp4327
g61
(dp4328
g69
I5
ssg70
g4322
sg63
(lp4329
g56
(g65
g58
NtRp4330
(dp4331
g61
(dp4332
g69
I4
ssg70
Nsg63
(lp4333
g56
(g72
g58
NtRp4334
(dp4335
g61
(dp4336
sg70
g4330
sg63
(lp4337
g56
(g77
g58
NtRp4338
(dp4339
g61
(dp4340
g81
g82
ssg70
g4334
sg63
(lp4341
S'author'
p4342
asbag56
(g77
g58
NtRp4343
(dp4344
g61
(dp4345
g88
g89
ssg70
g4334
sg63
(lp4346
S':'
asbag56
(g77
g58
NtRp4347
(dp4348
g61
(dp4349
sg70
g4334
sg63
(lp4350
g56
(g57
g58
NtRp4351
(dp4352
g61
(dp4353
g69
I4
ssg70
g4347
sg63
(lp4354
S'Marco Mansilla'
p4355
asbasbasbag56
(g72
g58
NtRp4356
(dp4357
g61
(dp4358
sg70
g4330
sg63
(lp4359
g56
(g77
g58
NtRp4360
(dp4361
g61
(dp4362
g81
g82
ssg70
g4356
sg63
(lp4363
S'copyright'
p4364
asbag56
(g77
g58
NtRp4365
(dp4366
g61
(dp4367
g88
g89
ssg70
g4356
sg63
(lp4368
S':'
asbag56
(g77
g58
NtRp4369
(dp4370
g61
(dp4371
sg70
g4356
sg63
(lp4372
g56
(g57
g58
NtRp4373
(dp4374
g61
(dp4375
g69
I4
ssg70
g4369
sg63
(lp4376
S'Copyright 2007-2010'
p4377
asbasbasbag56
(g72
g58
NtRp4378
(dp4379
g61
(dp4380
sg70
g4330
sg63
(lp4381
g56
(g77
g58
NtRp4382
(dp4383
g61
(dp4384
g81
g82
ssg70
g4378
sg63
(lp4385
S'description'
p4386
asbag56
(g77
g58
NtRp4387
(dp4388
g61
(dp4389
g88
g89
ssg70
g4378
sg63
(lp4390
S':'
asbag56
(g77
g58
NtRp4391
(dp4392
g61
(dp4393
sg70
g4378
sg63
(lp4394
g56
(g57
g58
NtRp4395
(dp4396
g61
(dp4397
g69
I4
ssg70
g4391
sg63
(lp4398
S'Free and open source full-stack enterprise framework for agile development of fast, scalable, secure and portable database-driven web-based applications. Written and programmable in Python'
p4399
asbasbasbag56
(g72
g58
NtRp4400
(dp4401
g61
(dp4402
sg70
g4330
sg63
(lp4403
g56
(g77
g58
NtRp4404
(dp4405
g61
(dp4406
g81
g82
ssg70
g4400
sg63
(lp4407
S'generator'
p4408
asbag56
(g77
g58
NtRp4409
(dp4410
g61
(dp4411
g88
g89
ssg70
g4400
sg63
(lp4412
S':'
asbag56
(g77
g58
NtRp4413
(dp4414
g61
(dp4415
sg70
g4400
sg63
(lp4416
g56
(g57
g58
NtRp4417
(dp4418
g61
(dp4419
g69
I4
ssg70
g4413
sg63
(lp4420
S'Web2py Enterprise Framework'
p4421
asbasbasbag56
(g72
g58
NtRp4422
(dp4423
g61
(dp4424
sg70
g4330
sg63
(lp4425
g56
(g77
g58
NtRp4426
(dp4427
g61
(dp4428
g81
g82
ssg70
g4422
sg63
(lp4429
S'keywords'
p4430
asbag56
(g77
g58
NtRp4431
(dp4432
g61
(dp4433
g88
g89
ssg70
g4422
sg63
(lp4434
S':'
asbag56
(g77
g58
NtRp4435
(dp4436
g61
(dp4437
sg70
g4422
sg63
(lp4438
g56
(g57
g58
NtRp4439
(dp4440
g61
(dp4441
g69
I4
ssg70
g4435
sg63
(lp4442
S'web2py, python, framework'
p4443
asbasbasbasbasbasbasbag56
(g72
g58
NtRp4444
(dp4445
g61
(dp4446
sg70
g2712
sg63
(lp4447
g56
(g77
g58
NtRp4448
(dp4449
g61
(dp4450
g81
g82
ssg70
g4444
sg63
(lp4451
S'postprocessing'
p4452
asbag56
(g77
g58
NtRp4453
(dp4454
g61
(dp4455
g88
g89
ssg70
g4444
sg63
(lp4456
S':'
asbag56
(g77
g58
NtRp4457
(dp4458
g61
(dp4459
sg70
g4444
sg63
(lp4460
g56
(g57
g58
NtRp4461
(dp4462
g61
(dp4463
g69
I5
ssg70
g4457
sg63
(lp4464
g56
(g65
g58
NtRp4465
(dp4466
g61
(dp4467
g69
I4
ssg70
Nsg63
(lp4468
sbasbasbasbag56
(g72
g58
NtRp4469
(dp4470
g61
(dp4471
sg70
g2712
sg63
(lp4472
g56
(g77
g58
NtRp4473
(dp4474
g61
(dp4475
g81
g82
ssg70
g4469
sg63
(lp4476
S'session_file'
p4477
asbag56
(g77
g58
NtRp4478
(dp4479
g61
(dp4480
g88
g89
ssg70
g4469
sg63
(lp4481
S':'
asbag56
(g77
g58
NtRp4482
(dp4483
g61
(dp4484
sg70
g4469
sg63
(lp4485
g56
(g57
g58
NtRp4486
(dp4487
g61
(dp4488
g69
I5
ssg70
g4482
sg63
(lp4489
S"<open file '/home/marco/proyectos/web2py-trunk/applications/mvstore/sessions/127.0.0.1-50654ecb-cdf9-4d07-aebd-7df319d2e714', mode 'rb+' at 0x2965d20>"
p4490
asbasbasbag56
(g72
g58
NtRp4491
(dp4492
g61
(dp4493
sg70
g2712
sg63
(lp4494
g56
(g77
g58
NtRp4495
(dp4496
g61
(dp4497
g81
g82
ssg70
g4491
sg63
(lp4498
S'session_filename'
p4499
asbag56
(g77
g58
NtRp4500
(dp4501
g61
(dp4502
g88
g89
ssg70
g4491
sg63
(lp4503
S':'
asbag56
(g77
g58
NtRp4504
(dp4505
g61
(dp4506
sg70
g4491
sg63
(lp4507
g56
(g57
g58
NtRp4508
(dp4509
g61
(dp4510
g69
I5
ssg70
g4504
sg63
(lp4511
S'/home/marco/proyectos/web2py-trunk/applications/mvstore/sessions/127.0.0.1-50654ecb-cdf9-4d07-aebd-7df319d2e714'
p4512
asbasbasbag56
(g72
g58
NtRp4513
(dp4514
g61
(dp4515
sg70
g2712
sg63
(lp4516
g56
(g77
g58
NtRp4517
(dp4518
g61
(dp4519
g81
g82
ssg70
g4513
sg63
(lp4520
S'session_id'
p4521
asbag56
(g77
g58
NtRp4522
(dp4523
g61
(dp4524
g88
g89
ssg70
g4513
sg63
(lp4525
S':'
asbag56
(g77
g58
NtRp4526
(dp4527
g61
(dp4528
sg70
g4513
sg63
(lp4529
g56
(g57
g58
NtRp4530
(dp4531
g61
(dp4532
g69
I5
ssg70
g4526
sg63
(lp4533
S'127.0.0.1-50654ecb-cdf9-4d07-aebd-7df319d2e714'
p4534
asbasbasbag56
(g72
g58
NtRp4535
(dp4536
g61
(dp4537
sg70
g2712
sg63
(lp4538
g56
(g77
g58
NtRp4539
(dp4540
g61
(dp4541
g81
g82
ssg70
g4535
sg63
(lp4542
S'session_id_name'
p4543
asbag56
(g77
g58
NtRp4544
(dp4545
g61
(dp4546
g88
g89
ssg70
g4535
sg63
(lp4547
S':'
asbag56
(g77
g58
NtRp4548
(dp4549
g61
(dp4550
sg70
g4535
sg63
(lp4551
g56
(g57
g58
NtRp4552
(dp4553
g61
(dp4554
g69
I5
ssg70
g4548
sg63
(lp4555
g2769
asbasbasbag56
(g72
g58
NtRp4556
(dp4557
g61
(dp4558
sg70
g2712
sg63
(lp4559
g56
(g77
g58
NtRp4560
(dp4561
g61
(dp4562
g81
g82
ssg70
g4556
sg63
(lp4563
S'session_locked'
p4564
asbag56
(g77
g58
NtRp4565
(dp4566
g61
(dp4567
g88
g89
ssg70
g4556
sg63
(lp4568
S':'
asbag56
(g77
g58
NtRp4569
(dp4570
g61
(dp4571
sg70
g4556
sg63
(lp4572
g56
(g57
g58
NtRp4573
(dp4574
g61
(dp4575
g69
I5
ssg70
g4569
sg63
(lp4576
g1569
asbasbasbag56
(g72
g58
NtRp4577
(dp4578
g61
(dp4579
sg70
g2712
sg63
(lp4580
g56
(g77
g58
NtRp4581
(dp4582
g61
(dp4583
g81
g82
ssg70
g4577
sg63
(lp4584
S'session_new'
p4585
asbag56
(g77
g58
NtRp4586
(dp4587
g61
(dp4588
g88
g89
ssg70
g4577
sg63
(lp4589
S':'
asbag56
(g77
g58
NtRp4590
(dp4591
g61
(dp4592
sg70
g4577
sg63
(lp4593
g56
(g57
g58
NtRp4594
(dp4595
g61
(dp4596
g69
I5
ssg70
g4590
sg63
(lp4597
g99
asbasbasbag56
(g72
g58
NtRp4598
(dp4599
g61
(dp4600
sg70
g2712
sg63
(lp4601
g56
(g77
g58
NtRp4602
(dp4603
g61
(dp4604
g81
g82
ssg70
g4598
sg63
(lp4605
S'status'
p4606
asbag56
(g77
g58
NtRp4607
(dp4608
g61
(dp4609
g88
g89
ssg70
g4598
sg63
(lp4610
S':'
asbag56
(g77
g58
NtRp4611
(dp4612
g61
(dp4613
sg70
g4598
sg63
(lp4614
g56
(g57
g58
NtRp4615
(dp4616
g61
(dp4617
g69
I5
ssg70
g4611
sg63
(lp4618
S'200'
p4619
asbasbasbag56
(g72
g58
NtRp4620
(dp4621
g61
(dp4622
sg70
g2712
sg63
(lp4623
g56
(g77
g58
NtRp4624
(dp4625
g61
(dp4626
g81
g82
ssg70
g4620
sg63
(lp4627
S'subtitle'
p4628
asbag56
(g77
g58
NtRp4629
(dp4630
g61
(dp4631
g88
g89
ssg70
g4620
sg63
(lp4632
S':'
asbag56
(g77
g58
NtRp4633
(dp4634
g61
(dp4635
sg70
g4620
sg63
(lp4636
g56
(g57
g58
NtRp4637
(dp4638
g61
(dp4639
g69
I5
ssg70
g4633
sg63
(lp4640
g3258
(S's\r\x00\x00\x00customize me!'
tRp4641
asbasbasbag56
(g72
g58
NtRp4642
(dp4643
g61
(dp4644
sg70
g2712
sg63
(lp4645
g56
(g77
g58
NtRp4646
(dp4647
g61
(dp4648
g81
g82
ssg70
g4642
sg63
(lp4649
S'title'
p4650
asbag56
(g77
g58
NtRp4651
(dp4652
g61
(dp4653
g88
g89
ssg70
g4642
sg63
(lp4654
S':'
asbag56
(g77
g58
NtRp4655
(dp4656
g61
(dp4657
sg70
g4642
sg63
(lp4658
g56
(g57
g58
NtRp4659
(dp4660
g61
(dp4661
g69
I5
ssg70
g4655
sg63
(lp4662
g121
asbasbasbag56
(g72
g58
NtRp4663
(dp4664
g61
(dp4665
sg70
g2712
sg63
(lp4666
g56
(g77
g58
NtRp4667
(dp4668
g61
(dp4669
g81
g82
ssg70
g4663
sg63
(lp4670
g1893
asbag56
(g77
g58
NtRp4671
(dp4672
g61
(dp4673
g88
g89
ssg70
g4663
sg63
(lp4674
S':'
asbag56
(g77
g58
NtRp4675
(dp4676
g61
(dp4677
sg70
g4663
sg63
(lp4678
g56
(g57
g58
NtRp4679
(dp4680
g61
(dp4681
g69
I5
ssg70
g4675
sg63
(lp4682
g1906
asbasbasbag56
(g72
g58
NtRp4683
(dp4684
g61
(dp4685
sg70
g2712
sg63
(lp4686
g56
(g77
g58
NtRp4687
(dp4688
g61
(dp4689
g81
g82
ssg70
g4683
sg63
(lp4690
S'view'
p4691
asbag56
(g77
g58
NtRp4692
(dp4693
g61
(dp4694
g88
g89
ssg70
g4683
sg63
(lp4695
S':'
asbag56
(g77
g58
NtRp4696
(dp4697
g61
(dp4698
sg70
g4683
sg63
(lp4699
g56
(g57
g58
NtRp4700
(dp4701
g61
(dp4702
g69
I5
ssg70
g4696
sg63
(lp4703
S'default/empleados.html'
p4704
asbasbasbasbasbsS'locals'
p4705
(dp4706
S'name'
p4707
S"'A'"
p4708
sS'item'
p4709
g99
sS'self'
p4710
S'<gluon.html.MENU object>'
p4711
sg69
S'0'
sS'li'
p4712
S'<gluon.html.LI object>'
p4713
sS'ul'
p4714
S'<gluon.html.UL object>'
p4715
sS'link'
p4716
S"'M'"
p4717
sS'active'
p4718
S"'B'"
p4719
sS'data'
p4720
S"[(<lazyT 'Home'>, False, '/mvstore/default/index', []), (<lazyT 'This App'>, False, '/admin/default/design/mvstore', [(<lazyT 'Controller'>, False, '/admin/default/edit/mvstore/controllers/default.py'), (<lazyT 'View'>, False, '/admin/default/edit/mvstore/views/default/empleados.html'), (<lazyT 'Layout'>, False, '/admin/default/edit/mvstore/views/layout.html'), (<lazyT 'Stylesheet'>, False, '/admin/default/edit/mvstore/static/base.css'), (<lazyT 'DB Model'>, False, '/admin/default/edit/mvstore/models/db.py'), (<lazyT 'Menu Model'>, False, '/admin/default/edit/mvstore/models/menu.py'), (<lazyT 'Database'>, False, '/mvstore/appadmin/index'), (<lazyT 'Errors'>, False, '/admin/default/errors/mvstore'), (<lazyT 'About'>, False, '/admin/default/about/mvstore')]), 'ABM', False, None, [(<lazyT 'Add user'>, False, '/mvstore/default/empleados', [])], (<lazyT 'Resources'>, False, None, [(<lazyT 'Documentation'>, False, 'http://www.web2py.com/book', [(<lazyT 'Preface'>, False, 'http://www.web2py.com/book/default/chapter/00'), (<lazyT 'Introduction'>, False, 'http://www.web2py.com/book/default/chapter/01'), (<lazyT 'Python'>, False, 'http://www.web2py.com/book/default/chapter/02'), (<lazyT 'Overview'>, False, 'http://www.web2py.com/book/default/chapter/03'), (<lazyT 'The Core'>, False, 'http://www.web2py.com/book/default/chapter/04'), (<lazyT 'The Views'>, False, 'http://www.web2py.com/book/default/chapter/05'), (<lazyT 'Database'>, False, 'http://www.web2py.com/book/default/chapter/06'), (<lazyT 'Forms and Validators'>, False, 'http://www.web2py.com/book/default/chapter/07'), (<lazyT 'Access Control'>, False, 'http://www.web2py.com/book/default/chapter/08'), (<lazyT 'Services'>, False, 'http://www.web2py.com/book/default/chapter/09'), (<lazyT 'Ajax Recipes'>, False, 'http://www.web2py.com/book/default/chapter/10'), (<lazyT 'Deployment Recipes'>, False, 'http://www.web2py.com/book/default/chapter/11'), (<lazyT 'Other Recipes'>, False, 'http://www.web2py.com/book/default/chapter/12'), (<lazyT 'Buy this book'>, False, 'http://stores.lulu.com/web2py')]), (<lazyT 'Community'>, False, None, [(<lazyT 'Groups'>, False, 'http://www.web2py.com/examples/default/usergroups'), (<lazyT 'Twitter'>, False, 'http://twitter.com/web2py'), (<lazyT 'Live chat'>, False, 'http://mibbit.com/?channel=%23web2py&server=irc.mibbit.net'), (<lazyT 'User Voice'>, False, 'http://web2py.uservoice.com/')]), (<lazyT 'Web2py'>, False, 'http://www.web2py.com', [(<lazyT 'Download'>, False, 'http://www.web2py.com/examples/default/download'), (<lazyT 'Support'>, False, 'http://www.web2py.com/examples/default/support'), (<lazyT 'Quick Examples'>, False, 'http://web2py.com/examples/default/examples'), (<lazyT 'FAQ'>, False, 'http://web2py.com/AlterEgo'), (<lazyT 'Free Applications'>, False, 'http://web2py.com/appliances'), (<lazyT 'Plugins'>, False, 'http://web2py.com/plugins'), (<lazyT 'Recipes'>, False, 'http://web2pyslices.com/'), (<lazyT 'Demo'>, False, 'http://web2py.com/demo_admin'), (<lazyT 'Semantic'>, False, 'http://web2py.com/semantic'), (<lazyT 'Layouts'>, False, 'http://web2py.com/layouts'), (<lazyT 'Videos'>, False, 'http://www.web2py.com/examples/default/videos/')])])]"
p4721
sssS'traceback'
p4722
S'Traceback (most recent call last):\n  File "/home/marco/proyectos/web2py-trunk/gluon/restricted.py", line 192, in restricted\n    exec ccode in environment\n  File "/home/marco/proyectos/web2py-trunk/applications/mvstore/views/default/empleados.html", line 85, in <module>\n  File "/home/marco/proyectos/web2py-trunk/gluon/globals.py", line 146, in write\n    self.body.write(xmlescape(data))\n  File "/home/marco/proyectos/web2py-trunk/gluon/html.py", line 111, in xmlescape\n    return data.xml()\n  File "/home/marco/proyectos/web2py-trunk/gluon/html.py", line 1927, in xml\n    return self.serialize(self.data, 0).xml()\n  File "/home/marco/proyectos/web2py-trunk/gluon/html.py", line 1905, in serialize\n    (name, active, link) = item[:3]\nTypeError: \'bool\' object is unsubscriptable\n'
p4723
s.