(dp1
S'output'
p2
S''
sS'layer'
p3
S'/home/marco/proyectos/web2py-trunk/applications/mvstore/models/db.py'
p4
sS'code'
p5
S'# -*- coding: utf-8 -*-\n# this file is released under public domain and you can use without limitations\n\n#########################################################################\n## This scaffolding model makes your app work on Google App Engine too\n#########################################################################\n\nif request.env.web2py_runtime_gae:            # if running on Google App Engine\n    db = DAL(\'gae\')                           # connect to Google BigTable\n                                              # optional DAL(\'gae://namespace\')\n    session.connect(request, response, db = db) # and store sessions and tickets there\n    ### or use the following lines to store sessions in Memcache\n    # from gluon.contrib.memdb import MEMDB\n    # from google.appengine.api.memcache import Client\n    # session.connect(request, response, db = MEMDB(Client()))\nelse:                                         # else use a normal relational database\n    db = DAL(\'sqlite://storage.sqlite\')       # if not, use SQLite or other DB\n## if no need for session\n# session.forget()\n\n#########################################################################\n## Here is sample code if you need for\n## - email capabilities\n## - authentication (registration, login, logout, ... )\n## - authorization (role based authorization)\n## - services (xml, csv, json, xmlrpc, jsonrpc, amf, rss)\n## - crud actions\n## (more options discussed in gluon/tools.py)\n#########################################################################\n\nfrom gluon.tools import *\nmail = Mail()                                  # mailer\nauth = Auth(globals(),db)                      # authentication/authorization\ncrud = Crud(globals(),db)                      # for CRUD helpers using auth\nservice = Service(globals())                   # for json, xml, jsonrpc, xmlrpc, amfrpc\nplugins = PluginManager()\n\nmail.settings.server = \'logging\' or \'smtp.gmail.com:587\'  # your SMTP server\nmail.settings.sender = \'you@gmail.com\'         # your email\nmail.settings.login = \'username:password\'      # your credentials or None\n\nauth.settings.hmac_key = \'sha512:7fbe918c-a556-4879-a996-7618f8e7c6aa\'   # before define_tables()\nauth.define_tables()                           # creates all needed tables\nauth.settings.mailer = mail                    # for user email verification\nauth.settings.registration_requires_verification = False\nauth.settings.registration_requires_approval = False\nauth.messages.verify_email = \'Click on the link http://\'+request.env.http_host+URL(\'default\',\'user\',args=[\'verify_email\'])+\'/%(key)s to verify your email\'\nauth.settings.reset_password_requires_verification = True\nauth.messages.reset_password = \'Click on the link http://\'+request.env.http_host+URL(\'default\',\'user\',args=[\'reset_password\'])+\'/%(key)s to reset your password\'\n\n#########################################################################\n## If you need to use OpenID, Facebook, MySpace, Twitter, Linkedin, etc.\n## register with janrain.com, uncomment and customize following\n# from gluon.contrib.login_methods.rpx_account import RPXAccount\n# auth.settings.actions_disabled=[\'register\',\'change_password\',\'request_reset_password\']\n# auth.settings.login_form = RPXAccount(request, api_key=\'...\',domain=\'...\',\n#    url = "http://localhost:8000/%s/default/user/login" % request.application)\n## other login methods are in gluon/contrib/login_methods\n#########################################################################\n\ncrud.settings.auth = None                      # =auth to enforce authorization on crud\n\n#########################################################################\n## Define your tables below (or better in another model file) for example\n##\n## >>> db.define_table(\'mytable\',Field(\'myfield\',\'string\'))\n##\n## Fields can be \'string\',\'text\',\'password\',\'integer\',\'double\',\'boolean\'\n##       \'date\',\'time\',\'datetime\',\'blob\',\'upload\', \'reference TABLENAME\'\n## There is an implicit \'id integer autoincrement\' field\n## Consult manual for more options, validators, etc.\n##\n## More API examples for controllers:\n##\n## >>> db.mytable.insert(myfield=\'value\')\n## >>> rows=db(db.mytable.myfield==\'value\').select(db.mytable.ALL)\n## >>> for row in rows: print row.id, row.myfield\n#########################################################################\ndef Hidden(*a,**b):\n    b[\'writable\']=b[\'readable\']=False\n    return Field(*a,**b)\n\nfields=[\n        Field(\'documento\',\'integer\', required=True, unique=True),\n        Field(\'nombre\',\'string\', required=True),\n        Field(\'apellido\',\'string\',required=True),\n        Field(\'foto\',\'upload\'),\n        Field(\'domicilio\',\'string\', required=True),\n        Field(\'telefono\',\'integer\',required=True),\n        Field(\'fecha_load\',\'date\', default=request.now, writable=False)\n        ]\n\ndb.define_table(\'empleados\',\n        format=\'%(nombre)s %(apellido)s\',\n        *fields\n        )\n\ndb.define_table(\'clientes\',\n        format=\'%(nombre)s %(apellido)s\',\n        *fields\n        )\n\ndb.define_table(\'peliculas\',\n        format=\'%(titulo)s %(id)s\',\n        Field(\'titulo\',\'string\'),\n        Field(\'genero\',\'string\'),\n        Field(\'anio\',\'integer\'),\n        Field(\'sinopsis\',\'text\'),\n        Field(\'tapa\',\'upload\'),\n        Field(\'unidades\',\'integer\'),\n        Field(\'fecha_ing\',\'date\'),\n        )\n\ndb.define_table(\'prestamos\',\n        Field(\'titulo\', db.peliculas),\n        Field(\'cliente\', db.clientes),\n        Field(\'empleado\', db.empleados),\n        Field(\'fecha\', \'datetime\',default=request.now, writable=False),\n        Field(\'devol\', \'datetime\'),\n        Field(\'costo\', \'integer\',default=10),\n        Field(\'mora\', \'integer\', default=0, comment="El recargo que se aplica es de $2 por dia")\n        )\n'
p6
sS'snapshot'
p7
(dp8
S'exception'
p9
(dp10
S'__getslice__'
p11
S"<method-wrapper '__getslice__' of exceptions.SyntaxError object>"
p12
sS'text'
p13
S'"Field(\'titulo\',\'string\'),\\n"'
p14
sS'__str__'
p15
S"<method-wrapper '__str__' of exceptions.SyntaxError object>"
p16
sS'__reduce__'
p17
S'<built-in method __reduce__ of exceptions.SyntaxError object>'
p18
sS'__dict__'
p19
S'{}'
p20
sS'__sizeof__'
p21
S'<built-in method __sizeof__ of exceptions.SyntaxError object>'
p22
sS'__init__'
p23
S"<method-wrapper '__init__' of exceptions.SyntaxError object>"
p24
sS'__setattr__'
p25
S"<method-wrapper '__setattr__' of exceptions.SyntaxError object>"
p26
sS'__reduce_ex__'
p27
S'<built-in method __reduce_ex__ of exceptions.SyntaxError object>'
p28
sS'__new__'
p29
S'<built-in method __new__ of type object>'
p30
sS'__format__'
p31
S'<built-in method __format__ of exceptions.SyntaxError object>'
p32
sS'__class__'
p33
S"<type 'exceptions.SyntaxError'>"
p34
sS'filename'
p35
S"'/home/marco/proyectos/web2py-trunk/applications/mvstore/models/db.py'"
p36
sS'lineno'
p37
S'105'
p38
sS'msg'
p39
S"'non-keyword arg after keyword arg'"
p40
sS'__doc__'
p41
S"'Invalid syntax.'"
p42
sS'__getitem__'
p43
S"<method-wrapper '__getitem__' of exceptions.SyntaxError object>"
p44
sS'__setstate__'
p45
S'<built-in method __setstate__ of exceptions.SyntaxError object>'
p46
sS'__getattribute__'
p47
S"<method-wrapper '__getattribute__' of exceptions.SyntaxError object>"
p48
sS'print_file_and_line'
p49
S'None'
p50
sS'args'
p51
S'(\'non-keyword arg after keyword arg\', (\'/home/marco/proyectos/web2py-trunk/applications/mvstore/models/db.py\', 105, None, "Field(\'titulo\',\'string\'),\\n"))'
p52
sS'__subclasshook__'
p53
S'<built-in method __subclasshook__ of type object>'
p54
sS'offset'
p55
S'None'
p56
sS'__unicode__'
p57
S'<built-in method __unicode__ of exceptions.SyntaxError object>'
p58
sS'__delattr__'
p59
S"<method-wrapper '__delattr__' of exceptions.SyntaxError object>"
p60
sS'__repr__'
p61
S"<method-wrapper '__repr__' of exceptions.SyntaxError object>"
p62
sS'__hash__'
p63
S"<method-wrapper '__hash__' of exceptions.SyntaxError object>"
p64
ssS'evalue'
p65
S'non-keyword arg after keyword arg (db.py, line 105)'
p66
sS'request'
p67
ccopy_reg
_reconstructor
p68
(cgluon.html
BEAUTIFY
p69
c__builtin__
object
p70
NtRp71
(dp72
S'attributes'
p73
(dp74
sS'components'
p75
(lp76
g68
(cgluon.html
TABLE
p77
g70
NtRp78
(dp79
g73
(dp80
S'level'
p81
I5
ssS'parent'
p82
Nsg75
(lp83
g68
(cgluon.html
TR
p84
g70
NtRp85
(dp86
g73
(dp87
sg82
g78
sg75
(lp88
g68
(cgluon.html
TD
p89
g70
NtRp90
(dp91
g73
(dp92
S'_style'
p93
S'font-weight:bold;'
p94
ssg82
g85
sg75
(lp95
S'ajax'
p96
asbag68
(g89
g70
NtRp97
(dp98
g73
(dp99
S'_valign'
p100
S'top'
p101
ssg82
g85
sg75
(lp102
S':'
asbag68
(g89
g70
NtRp103
(dp104
g73
(dp105
sg82
g85
sg75
(lp106
g68
(g69
g70
NtRp107
(dp108
g73
(dp109
g81
I5
ssg82
g103
sg75
(lp110
S'False'
p111
asbasbasbag68
(g84
g70
NtRp112
(dp113
g73
(dp114
sg82
g78
sg75
(lp115
g68
(g89
g70
NtRp116
(dp117
g73
(dp118
g93
g94
ssg82
g112
sg75
(lp119
S'application'
p120
asbag68
(g89
g70
NtRp121
(dp122
g73
(dp123
g100
g101
ssg82
g112
sg75
(lp124
S':'
asbag68
(g89
g70
NtRp125
(dp126
g73
(dp127
sg82
g112
sg75
(lp128
g68
(g69
g70
NtRp129
(dp130
g73
(dp131
g81
I5
ssg82
g125
sg75
(lp132
S'mvstore'
p133
asbasbasbag68
(g84
g70
NtRp134
(dp135
g73
(dp136
sg82
g78
sg75
(lp137
g68
(g89
g70
NtRp138
(dp139
g73
(dp140
g93
g94
ssg82
g134
sg75
(lp141
g51
asbag68
(g89
g70
NtRp142
(dp143
g73
(dp144
g100
g101
ssg82
g134
sg75
(lp145
S':'
asbag68
(g89
g70
NtRp146
(dp147
g73
(dp148
sg82
g134
sg75
(lp149
g68
(g69
g70
NtRp150
(dp151
g73
(dp152
g81
I5
ssg82
g146
sg75
(lp153
g68
(g77
g70
NtRp154
(dp155
g73
(dp156
g81
I4
ssg82
Nsg75
(lp157
sbasbasbasbag68
(g84
g70
NtRp158
(dp159
g73
(dp160
sg82
g78
sg75
(lp161
g68
(g89
g70
NtRp162
(dp163
g73
(dp164
g93
g94
ssg82
g158
sg75
(lp165
S'body'
p166
asbag68
(g89
g70
NtRp167
(dp168
g73
(dp169
g100
g101
ssg82
g158
sg75
(lp170
S':'
asbag68
(g89
g70
NtRp171
(dp172
g73
(dp173
sg82
g158
sg75
(lp174
g68
(g69
g70
NtRp175
(dp176
g73
(dp177
g81
I5
ssg82
g171
sg75
(lp178
S'<cStringIO.StringO object at 0x281cc70>'
p179
asbasbasbag68
(g84
g70
NtRp180
(dp181
g73
(dp182
sg82
g78
sg75
(lp183
g68
(g89
g70
NtRp184
(dp185
g73
(dp186
g93
g94
ssg82
g180
sg75
(lp187
S'client'
p188
asbag68
(g89
g70
NtRp189
(dp190
g73
(dp191
g100
g101
ssg82
g180
sg75
(lp192
S':'
asbag68
(g89
g70
NtRp193
(dp194
g73
(dp195
sg82
g180
sg75
(lp196
g68
(g69
g70
NtRp197
(dp198
g73
(dp199
g81
I5
ssg82
g193
sg75
(lp200
S'127.0.0.1'
p201
asbasbasbag68
(g84
g70
NtRp202
(dp203
g73
(dp204
sg82
g78
sg75
(lp205
g68
(g89
g70
NtRp206
(dp207
g73
(dp208
g93
g94
ssg82
g202
sg75
(lp209
S'controller'
p210
asbag68
(g89
g70
NtRp211
(dp212
g73
(dp213
g100
g101
ssg82
g202
sg75
(lp214
S':'
asbag68
(g89
g70
NtRp215
(dp216
g73
(dp217
sg82
g202
sg75
(lp218
g68
(g69
g70
NtRp219
(dp220
g73
(dp221
g81
I5
ssg82
g215
sg75
(lp222
S'default'
p223
asbasbasbag68
(g84
g70
NtRp224
(dp225
g73
(dp226
sg82
g78
sg75
(lp227
g68
(g89
g70
NtRp228
(dp229
g73
(dp230
g93
g94
ssg82
g224
sg75
(lp231
S'cookies'
p232
asbag68
(g89
g70
NtRp233
(dp234
g73
(dp235
g100
g101
ssg82
g224
sg75
(lp236
S':'
asbag68
(g89
g70
NtRp237
(dp238
g73
(dp239
sg82
g224
sg75
(lp240
g68
(g69
g70
NtRp241
(dp242
g73
(dp243
g81
I5
ssg82
g237
sg75
(lp244
g68
(g77
g70
NtRp245
(dp246
g73
(dp247
g81
I4
ssg82
Nsg75
(lp248
g68
(g84
g70
NtRp249
(dp250
g73
(dp251
sg82
g245
sg75
(lp252
g68
(g89
g70
NtRp253
(dp254
g73
(dp255
g93
g94
ssg82
g249
sg75
(lp256
S'session_id_admin'
p257
asbag68
(g89
g70
NtRp258
(dp259
g73
(dp260
g100
g101
ssg82
g249
sg75
(lp261
S':'
asbag68
(g89
g70
NtRp262
(dp263
g73
(dp264
sg82
g249
sg75
(lp265
g68
(g69
g70
NtRp266
(dp267
g73
(dp268
g81
I4
ssg82
g262
sg75
(lp269
g68
(g77
g70
NtRp270
(dp271
g73
(dp272
g81
I3
ssg82
Nsg75
(lp273
g68
(g84
g70
NtRp274
(dp275
g73
(dp276
sg82
g270
sg75
(lp277
g68
(g89
g70
NtRp278
(dp279
g73
(dp280
g93
g94
ssg82
g274
sg75
(lp281
S'comment'
p282
asbag68
(g89
g70
NtRp283
(dp284
g73
(dp285
g100
g101
ssg82
g274
sg75
(lp286
S':'
asbag68
(g89
g70
NtRp287
(dp288
g73
(dp289
sg82
g274
sg75
(lp290
g68
(g69
g70
NtRp291
(dp292
g73
(dp293
g81
I3
ssg82
g287
sg75
(lp294
S''
asbasbasbag68
(g84
g70
NtRp295
(dp296
g73
(dp297
sg82
g270
sg75
(lp298
g68
(g89
g70
NtRp299
(dp300
g73
(dp301
g93
g94
ssg82
g295
sg75
(lp302
S'domain'
p303
asbag68
(g89
g70
NtRp304
(dp305
g73
(dp306
g100
g101
ssg82
g295
sg75
(lp307
S':'
asbag68
(g89
g70
NtRp308
(dp309
g73
(dp310
sg82
g295
sg75
(lp311
g68
(g69
g70
NtRp312
(dp313
g73
(dp314
g81
I3
ssg82
g308
sg75
(lp315
S''
asbasbasbag68
(g84
g70
NtRp316
(dp317
g73
(dp318
sg82
g270
sg75
(lp319
g68
(g89
g70
NtRp320
(dp321
g73
(dp322
g93
g94
ssg82
g316
sg75
(lp323
S'expires'
p324
asbag68
(g89
g70
NtRp325
(dp326
g73
(dp327
g100
g101
ssg82
g316
sg75
(lp328
S':'
asbag68
(g89
g70
NtRp329
(dp330
g73
(dp331
sg82
g316
sg75
(lp332
g68
(g69
g70
NtRp333
(dp334
g73
(dp335
g81
I3
ssg82
g329
sg75
(lp336
S''
asbasbasbag68
(g84
g70
NtRp337
(dp338
g73
(dp339
sg82
g270
sg75
(lp340
g68
(g89
g70
NtRp341
(dp342
g73
(dp343
g93
g94
ssg82
g337
sg75
(lp344
S'httponly'
p345
asbag68
(g89
g70
NtRp346
(dp347
g73
(dp348
g100
g101
ssg82
g337
sg75
(lp349
S':'
asbag68
(g89
g70
NtRp350
(dp351
g73
(dp352
sg82
g337
sg75
(lp353
g68
(g69
g70
NtRp354
(dp355
g73
(dp356
g81
I3
ssg82
g350
sg75
(lp357
S''
asbasbasbag68
(g84
g70
NtRp358
(dp359
g73
(dp360
sg82
g270
sg75
(lp361
g68
(g89
g70
NtRp362
(dp363
g73
(dp364
g93
g94
ssg82
g358
sg75
(lp365
S'max-age'
p366
asbag68
(g89
g70
NtRp367
(dp368
g73
(dp369
g100
g101
ssg82
g358
sg75
(lp370
S':'
asbag68
(g89
g70
NtRp371
(dp372
g73
(dp373
sg82
g358
sg75
(lp374
g68
(g69
g70
NtRp375
(dp376
g73
(dp377
g81
I3
ssg82
g371
sg75
(lp378
S''
asbasbasbag68
(g84
g70
NtRp379
(dp380
g73
(dp381
sg82
g270
sg75
(lp382
g68
(g89
g70
NtRp383
(dp384
g73
(dp385
g93
g94
ssg82
g379
sg75
(lp386
S'path'
p387
asbag68
(g89
g70
NtRp388
(dp389
g73
(dp390
g100
g101
ssg82
g379
sg75
(lp391
S':'
asbag68
(g89
g70
NtRp392
(dp393
g73
(dp394
sg82
g379
sg75
(lp395
g68
(g69
g70
NtRp396
(dp397
g73
(dp398
g81
I3
ssg82
g392
sg75
(lp399
S''
asbasbasbag68
(g84
g70
NtRp400
(dp401
g73
(dp402
sg82
g270
sg75
(lp403
g68
(g89
g70
NtRp404
(dp405
g73
(dp406
g93
g94
ssg82
g400
sg75
(lp407
S'secure'
p408
asbag68
(g89
g70
NtRp409
(dp410
g73
(dp411
g100
g101
ssg82
g400
sg75
(lp412
S':'
asbag68
(g89
g70
NtRp413
(dp414
g73
(dp415
sg82
g400
sg75
(lp416
g68
(g69
g70
NtRp417
(dp418
g73
(dp419
g81
I3
ssg82
g413
sg75
(lp420
S''
asbasbasbag68
(g84
g70
NtRp421
(dp422
g73
(dp423
sg82
g270
sg75
(lp424
g68
(g89
g70
NtRp425
(dp426
g73
(dp427
g93
g94
ssg82
g421
sg75
(lp428
S'version'
p429
asbag68
(g89
g70
NtRp430
(dp431
g73
(dp432
g100
g101
ssg82
g421
sg75
(lp433
S':'
asbag68
(g89
g70
NtRp434
(dp435
g73
(dp436
sg82
g421
sg75
(lp437
g68
(g69
g70
NtRp438
(dp439
g73
(dp440
g81
I3
ssg82
g434
sg75
(lp441
S''
asbasbasbasbasbasbasbag68
(g84
g70
NtRp442
(dp443
g73
(dp444
sg82
g245
sg75
(lp445
g68
(g89
g70
NtRp446
(dp447
g73
(dp448
g93
g94
ssg82
g442
sg75
(lp449
S'session_id_mvstore'
p450
asbag68
(g89
g70
NtRp451
(dp452
g73
(dp453
g100
g101
ssg82
g442
sg75
(lp454
S':'
asbag68
(g89
g70
NtRp455
(dp456
g73
(dp457
sg82
g442
sg75
(lp458
g68
(g69
g70
NtRp459
(dp460
g73
(dp461
g81
I4
ssg82
g455
sg75
(lp462
g68
(g77
g70
NtRp463
(dp464
g73
(dp465
g81
I3
ssg82
Nsg75
(lp466
g68
(g84
g70
NtRp467
(dp468
g73
(dp469
sg82
g463
sg75
(lp470
g68
(g89
g70
NtRp471
(dp472
g73
(dp473
g93
g94
ssg82
g467
sg75
(lp474
g282
asbag68
(g89
g70
NtRp475
(dp476
g73
(dp477
g100
g101
ssg82
g467
sg75
(lp478
S':'
asbag68
(g89
g70
NtRp479
(dp480
g73
(dp481
sg82
g467
sg75
(lp482
g68
(g69
g70
NtRp483
(dp484
g73
(dp485
g81
I3
ssg82
g479
sg75
(lp486
S''
asbasbasbag68
(g84
g70
NtRp487
(dp488
g73
(dp489
sg82
g463
sg75
(lp490
g68
(g89
g70
NtRp491
(dp492
g73
(dp493
g93
g94
ssg82
g487
sg75
(lp494
g303
asbag68
(g89
g70
NtRp495
(dp496
g73
(dp497
g100
g101
ssg82
g487
sg75
(lp498
S':'
asbag68
(g89
g70
NtRp499
(dp500
g73
(dp501
sg82
g487
sg75
(lp502
g68
(g69
g70
NtRp503
(dp504
g73
(dp505
g81
I3
ssg82
g499
sg75
(lp506
S''
asbasbasbag68
(g84
g70
NtRp507
(dp508
g73
(dp509
sg82
g463
sg75
(lp510
g68
(g89
g70
NtRp511
(dp512
g73
(dp513
g93
g94
ssg82
g507
sg75
(lp514
g324
asbag68
(g89
g70
NtRp515
(dp516
g73
(dp517
g100
g101
ssg82
g507
sg75
(lp518
S':'
asbag68
(g89
g70
NtRp519
(dp520
g73
(dp521
sg82
g507
sg75
(lp522
g68
(g69
g70
NtRp523
(dp524
g73
(dp525
g81
I3
ssg82
g519
sg75
(lp526
S''
asbasbasbag68
(g84
g70
NtRp527
(dp528
g73
(dp529
sg82
g463
sg75
(lp530
g68
(g89
g70
NtRp531
(dp532
g73
(dp533
g93
g94
ssg82
g527
sg75
(lp534
g345
asbag68
(g89
g70
NtRp535
(dp536
g73
(dp537
g100
g101
ssg82
g527
sg75
(lp538
S':'
asbag68
(g89
g70
NtRp539
(dp540
g73
(dp541
sg82
g527
sg75
(lp542
g68
(g69
g70
NtRp543
(dp544
g73
(dp545
g81
I3
ssg82
g539
sg75
(lp546
S''
asbasbasbag68
(g84
g70
NtRp547
(dp548
g73
(dp549
sg82
g463
sg75
(lp550
g68
(g89
g70
NtRp551
(dp552
g73
(dp553
g93
g94
ssg82
g547
sg75
(lp554
g366
asbag68
(g89
g70
NtRp555
(dp556
g73
(dp557
g100
g101
ssg82
g547
sg75
(lp558
S':'
asbag68
(g89
g70
NtRp559
(dp560
g73
(dp561
sg82
g547
sg75
(lp562
g68
(g69
g70
NtRp563
(dp564
g73
(dp565
g81
I3
ssg82
g559
sg75
(lp566
S''
asbasbasbag68
(g84
g70
NtRp567
(dp568
g73
(dp569
sg82
g463
sg75
(lp570
g68
(g89
g70
NtRp571
(dp572
g73
(dp573
g93
g94
ssg82
g567
sg75
(lp574
g387
asbag68
(g89
g70
NtRp575
(dp576
g73
(dp577
g100
g101
ssg82
g567
sg75
(lp578
S':'
asbag68
(g89
g70
NtRp579
(dp580
g73
(dp581
sg82
g567
sg75
(lp582
g68
(g69
g70
NtRp583
(dp584
g73
(dp585
g81
I3
ssg82
g579
sg75
(lp586
S''
asbasbasbag68
(g84
g70
NtRp587
(dp588
g73
(dp589
sg82
g463
sg75
(lp590
g68
(g89
g70
NtRp591
(dp592
g73
(dp593
g93
g94
ssg82
g587
sg75
(lp594
g408
asbag68
(g89
g70
NtRp595
(dp596
g73
(dp597
g100
g101
ssg82
g587
sg75
(lp598
S':'
asbag68
(g89
g70
NtRp599
(dp600
g73
(dp601
sg82
g587
sg75
(lp602
g68
(g69
g70
NtRp603
(dp604
g73
(dp605
g81
I3
ssg82
g599
sg75
(lp606
S''
asbasbasbag68
(g84
g70
NtRp607
(dp608
g73
(dp609
sg82
g463
sg75
(lp610
g68
(g89
g70
NtRp611
(dp612
g73
(dp613
g93
g94
ssg82
g607
sg75
(lp614
g429
asbag68
(g89
g70
NtRp615
(dp616
g73
(dp617
g100
g101
ssg82
g607
sg75
(lp618
S':'
asbag68
(g89
g70
NtRp619
(dp620
g73
(dp621
sg82
g607
sg75
(lp622
g68
(g69
g70
NtRp623
(dp624
g73
(dp625
g81
I3
ssg82
g619
sg75
(lp626
S''
asbasbasbasbasbasbasbag68
(g84
g70
NtRp627
(dp628
g73
(dp629
sg82
g245
sg75
(lp630
g68
(g89
g70
NtRp631
(dp632
g73
(dp633
g93
g94
ssg82
g627
sg75
(lp634
S'session_id_welcome'
p635
asbag68
(g89
g70
NtRp636
(dp637
g73
(dp638
g100
g101
ssg82
g627
sg75
(lp639
S':'
asbag68
(g89
g70
NtRp640
(dp641
g73
(dp642
sg82
g627
sg75
(lp643
g68
(g69
g70
NtRp644
(dp645
g73
(dp646
g81
I4
ssg82
g640
sg75
(lp647
g68
(g77
g70
NtRp648
(dp649
g73
(dp650
g81
I3
ssg82
Nsg75
(lp651
g68
(g84
g70
NtRp652
(dp653
g73
(dp654
sg82
g648
sg75
(lp655
g68
(g89
g70
NtRp656
(dp657
g73
(dp658
g93
g94
ssg82
g652
sg75
(lp659
g282
asbag68
(g89
g70
NtRp660
(dp661
g73
(dp662
g100
g101
ssg82
g652
sg75
(lp663
S':'
asbag68
(g89
g70
NtRp664
(dp665
g73
(dp666
sg82
g652
sg75
(lp667
g68
(g69
g70
NtRp668
(dp669
g73
(dp670
g81
I3
ssg82
g664
sg75
(lp671
S''
asbasbasbag68
(g84
g70
NtRp672
(dp673
g73
(dp674
sg82
g648
sg75
(lp675
g68
(g89
g70
NtRp676
(dp677
g73
(dp678
g93
g94
ssg82
g672
sg75
(lp679
g303
asbag68
(g89
g70
NtRp680
(dp681
g73
(dp682
g100
g101
ssg82
g672
sg75
(lp683
S':'
asbag68
(g89
g70
NtRp684
(dp685
g73
(dp686
sg82
g672
sg75
(lp687
g68
(g69
g70
NtRp688
(dp689
g73
(dp690
g81
I3
ssg82
g684
sg75
(lp691
S''
asbasbasbag68
(g84
g70
NtRp692
(dp693
g73
(dp694
sg82
g648
sg75
(lp695
g68
(g89
g70
NtRp696
(dp697
g73
(dp698
g93
g94
ssg82
g692
sg75
(lp699
g324
asbag68
(g89
g70
NtRp700
(dp701
g73
(dp702
g100
g101
ssg82
g692
sg75
(lp703
S':'
asbag68
(g89
g70
NtRp704
(dp705
g73
(dp706
sg82
g692
sg75
(lp707
g68
(g69
g70
NtRp708
(dp709
g73
(dp710
g81
I3
ssg82
g704
sg75
(lp711
S''
asbasbasbag68
(g84
g70
NtRp712
(dp713
g73
(dp714
sg82
g648
sg75
(lp715
g68
(g89
g70
NtRp716
(dp717
g73
(dp718
g93
g94
ssg82
g712
sg75
(lp719
g345
asbag68
(g89
g70
NtRp720
(dp721
g73
(dp722
g100
g101
ssg82
g712
sg75
(lp723
S':'
asbag68
(g89
g70
NtRp724
(dp725
g73
(dp726
sg82
g712
sg75
(lp727
g68
(g69
g70
NtRp728
(dp729
g73
(dp730
g81
I3
ssg82
g724
sg75
(lp731
S''
asbasbasbag68
(g84
g70
NtRp732
(dp733
g73
(dp734
sg82
g648
sg75
(lp735
g68
(g89
g70
NtRp736
(dp737
g73
(dp738
g93
g94
ssg82
g732
sg75
(lp739
g366
asbag68
(g89
g70
NtRp740
(dp741
g73
(dp742
g100
g101
ssg82
g732
sg75
(lp743
S':'
asbag68
(g89
g70
NtRp744
(dp745
g73
(dp746
sg82
g732
sg75
(lp747
g68
(g69
g70
NtRp748
(dp749
g73
(dp750
g81
I3
ssg82
g744
sg75
(lp751
S''
asbasbasbag68
(g84
g70
NtRp752
(dp753
g73
(dp754
sg82
g648
sg75
(lp755
g68
(g89
g70
NtRp756
(dp757
g73
(dp758
g93
g94
ssg82
g752
sg75
(lp759
g387
asbag68
(g89
g70
NtRp760
(dp761
g73
(dp762
g100
g101
ssg82
g752
sg75
(lp763
S':'
asbag68
(g89
g70
NtRp764
(dp765
g73
(dp766
sg82
g752
sg75
(lp767
g68
(g69
g70
NtRp768
(dp769
g73
(dp770
g81
I3
ssg82
g764
sg75
(lp771
S''
asbasbasbag68
(g84
g70
NtRp772
(dp773
g73
(dp774
sg82
g648
sg75
(lp775
g68
(g89
g70
NtRp776
(dp777
g73
(dp778
g93
g94
ssg82
g772
sg75
(lp779
g408
asbag68
(g89
g70
NtRp780
(dp781
g73
(dp782
g100
g101
ssg82
g772
sg75
(lp783
S':'
asbag68
(g89
g70
NtRp784
(dp785
g73
(dp786
sg82
g772
sg75
(lp787
g68
(g69
g70
NtRp788
(dp789
g73
(dp790
g81
I3
ssg82
g784
sg75
(lp791
S''
asbasbasbag68
(g84
g70
NtRp792
(dp793
g73
(dp794
sg82
g648
sg75
(lp795
g68
(g89
g70
NtRp796
(dp797
g73
(dp798
g93
g94
ssg82
g792
sg75
(lp799
g429
asbag68
(g89
g70
NtRp800
(dp801
g73
(dp802
g100
g101
ssg82
g792
sg75
(lp803
S':'
asbag68
(g89
g70
NtRp804
(dp805
g73
(dp806
sg82
g792
sg75
(lp807
g68
(g69
g70
NtRp808
(dp809
g73
(dp810
g81
I3
ssg82
g804
sg75
(lp811
S''
asbasbasbasbasbasbasbasbasbasbasbag68
(g84
g70
NtRp812
(dp813
g73
(dp814
sg82
g78
sg75
(lp815
g68
(g89
g70
NtRp816
(dp817
g73
(dp818
g93
g94
ssg82
g812
sg75
(lp819
S'env'
p820
asbag68
(g89
g70
NtRp821
(dp822
g73
(dp823
g100
g101
ssg82
g812
sg75
(lp824
S':'
asbag68
(g89
g70
NtRp825
(dp826
g73
(dp827
sg82
g812
sg75
(lp828
g68
(g69
g70
NtRp829
(dp830
g73
(dp831
g81
I5
ssg82
g825
sg75
(lp832
g68
(g77
g70
NtRp833
(dp834
g73
(dp835
g81
I4
ssg82
Nsg75
(lp836
g68
(g84
g70
NtRp837
(dp838
g73
(dp839
sg82
g833
sg75
(lp840
g68
(g89
g70
NtRp841
(dp842
g73
(dp843
g93
g94
ssg82
g837
sg75
(lp844
S'app_folders'
p845
asbag68
(g89
g70
NtRp846
(dp847
g73
(dp848
g100
g101
ssg82
g837
sg75
(lp849
S':'
asbag68
(g89
g70
NtRp850
(dp851
g73
(dp852
sg82
g837
sg75
(lp853
g68
(g69
g70
NtRp854
(dp855
g73
(dp856
g81
I4
ssg82
g850
sg75
(lp857
S"set(['/home/marco/proyectos/web2py-trunk/applications/mvstore/', '/home/marco/proyectos/web2py-trunk/applications/admin/', '/home/marco/proyectos/web2py-trunk/applications/welcome/'])"
p858
asbasbasbag68
(g84
g70
NtRp859
(dp860
g73
(dp861
sg82
g833
sg75
(lp862
g68
(g89
g70
NtRp863
(dp864
g73
(dp865
g93
g94
ssg82
g859
sg75
(lp866
S'applications_parent'
p867
asbag68
(g89
g70
NtRp868
(dp869
g73
(dp870
g100
g101
ssg82
g859
sg75
(lp871
S':'
asbag68
(g89
g70
NtRp872
(dp873
g73
(dp874
sg82
g859
sg75
(lp875
g68
(g69
g70
NtRp876
(dp877
g73
(dp878
g81
I4
ssg82
g872
sg75
(lp879
S'/home/marco/proyectos/web2py-trunk'
p880
asbasbasbag68
(g84
g70
NtRp881
(dp882
g73
(dp883
sg82
g833
sg75
(lp884
g68
(g89
g70
NtRp885
(dp886
g73
(dp887
g93
g94
ssg82
g881
sg75
(lp888
S'cmd_args'
p889
asbag68
(g89
g70
NtRp890
(dp891
g73
(dp892
g100
g101
ssg82
g881
sg75
(lp893
S':'
asbag68
(g89
g70
NtRp894
(dp895
g73
(dp896
sg82
g881
sg75
(lp897
g68
(g69
g70
NtRp898
(dp899
g73
(dp900
g81
I4
ssg82
g894
sg75
(lp901
g68
(g77
g70
NtRp902
(dp903
g73
(dp904
g81
I3
ssg82
Nsg75
(lp905
sbasbasbasbag68
(g84
g70
NtRp906
(dp907
g73
(dp908
sg82
g833
sg75
(lp909
g68
(g89
g70
NtRp910
(dp911
g73
(dp912
g93
g94
ssg82
g906
sg75
(lp913
S'cmd_options'
p914
asbag68
(g89
g70
NtRp915
(dp916
g73
(dp917
g100
g101
ssg82
g906
sg75
(lp918
S':'
asbag68
(g89
g70
NtRp919
(dp920
g73
(dp921
sg82
g906
sg75
(lp922
g68
(g69
g70
NtRp923
(dp924
g73
(dp925
g81
I4
ssg82
g919
sg75
(lp926
S"<Values at 0x1af5b90: {'verbose': False, 'ip': '127.0.0.1', 'shutdown_timeout': 5, 'taskbar': False, 'port': 8000, 'maxthreads': None, 'softcron': False, 'server_name': 'kiki', 'bpython': False, 'nogui': False, 'nocron': False, 'extcron': False, 'debuglevel': 30, 'test': None, 'folder': '/home/marco/proyectos/web2py-trunk', 'config': '', 'import_models': False, 'winservice': '', 'shell': None, 'run': '', 'log_filename': 'httpserver.log', 'args': [''], 'profiler_filename': None, 'ssl_private_key': '', 'password': 'asd', 'request_queue_size': 5, 'ssl_certificate': '', 'cronjob': False, 'plain': False, 'quiet': False, 'interfaces': None, 'minthreads': None, 'timeout': 10, 'numthreads': None, 'nobanner': False, 'pid_filename': 'httpserver.pid'}>"
p927
asbasbasbag68
(g84
g70
NtRp928
(dp929
g73
(dp930
sg82
g833
sg75
(lp931
g68
(g89
g70
NtRp932
(dp933
g73
(dp934
g93
g94
ssg82
g928
sg75
(lp935
S'db_sessions'
p936
asbag68
(g89
g70
NtRp937
(dp938
g73
(dp939
g100
g101
ssg82
g928
sg75
(lp940
S':'
asbag68
(g89
g70
NtRp941
(dp942
g73
(dp943
sg82
g928
sg75
(lp944
g68
(g69
g70
NtRp945
(dp946
g73
(dp947
g81
I4
ssg82
g941
sg75
(lp948
S'set([])'
p949
asbasbasbag68
(g84
g70
NtRp950
(dp951
g73
(dp952
sg82
g833
sg75
(lp953
g68
(g89
g70
NtRp954
(dp955
g73
(dp956
g93
g94
ssg82
g950
sg75
(lp957
S'debugging'
p958
asbag68
(g89
g70
NtRp959
(dp960
g73
(dp961
g100
g101
ssg82
g950
sg75
(lp962
S':'
asbag68
(g89
g70
NtRp963
(dp964
g73
(dp965
sg82
g950
sg75
(lp966
g68
(g69
g70
NtRp967
(dp968
g73
(dp969
g81
I4
ssg82
g963
sg75
(lp970
g111
asbasbasbag68
(g84
g70
NtRp971
(dp972
g73
(dp973
sg82
g833
sg75
(lp974
g68
(g89
g70
NtRp975
(dp976
g73
(dp977
g93
g94
ssg82
g971
sg75
(lp978
S'gluon_parent'
p979
asbag68
(g89
g70
NtRp980
(dp981
g73
(dp982
g100
g101
ssg82
g971
sg75
(lp983
S':'
asbag68
(g89
g70
NtRp984
(dp985
g73
(dp986
sg82
g971
sg75
(lp987
g68
(g69
g70
NtRp988
(dp989
g73
(dp990
g81
I4
ssg82
g984
sg75
(lp991
S'/home/marco/proyectos/web2py-trunk'
p992
asbasbasbag68
(g84
g70
NtRp993
(dp994
g73
(dp995
sg82
g833
sg75
(lp996
g68
(g89
g70
NtRp997
(dp998
g73
(dp999
g93
g94
ssg82
g993
sg75
(lp1000
S'http_accept'
p1001
asbag68
(g89
g70
NtRp1002
(dp1003
g73
(dp1004
g100
g101
ssg82
g993
sg75
(lp1005
S':'
asbag68
(g89
g70
NtRp1006
(dp1007
g73
(dp1008
sg82
g993
sg75
(lp1009
g68
(g69
g70
NtRp1010
(dp1011
g73
(dp1012
g81
I4
ssg82
g1006
sg75
(lp1013
S'application/xml,application/xhtml+xml,text/html;q=0.9,text/plain;q=0.8,image/png,*/*;q=0.5'
p1014
asbasbasbag68
(g84
g70
NtRp1015
(dp1016
g73
(dp1017
sg82
g833
sg75
(lp1018
g68
(g89
g70
NtRp1019
(dp1020
g73
(dp1021
g93
g94
ssg82
g1015
sg75
(lp1022
S'http_accept_charset'
p1023
asbag68
(g89
g70
NtRp1024
(dp1025
g73
(dp1026
g100
g101
ssg82
g1015
sg75
(lp1027
S':'
asbag68
(g89
g70
NtRp1028
(dp1029
g73
(dp1030
sg82
g1015
sg75
(lp1031
g68
(g69
g70
NtRp1032
(dp1033
g73
(dp1034
g81
I4
ssg82
g1028
sg75
(lp1035
S'ISO-8859-1,utf-8;q=0.7,*;q=0.3'
p1036
asbasbasbag68
(g84
g70
NtRp1037
(dp1038
g73
(dp1039
sg82
g833
sg75
(lp1040
g68
(g89
g70
NtRp1041
(dp1042
g73
(dp1043
g93
g94
ssg82
g1037
sg75
(lp1044
S'http_accept_encoding'
p1045
asbag68
(g89
g70
NtRp1046
(dp1047
g73
(dp1048
g100
g101
ssg82
g1037
sg75
(lp1049
S':'
asbag68
(g89
g70
NtRp1050
(dp1051
g73
(dp1052
sg82
g1037
sg75
(lp1053
g68
(g69
g70
NtRp1054
(dp1055
g73
(dp1056
g81
I4
ssg82
g1050
sg75
(lp1057
S'gzip,deflate,sdch'
p1058
asbasbasbag68
(g84
g70
NtRp1059
(dp1060
g73
(dp1061
sg82
g833
sg75
(lp1062
g68
(g89
g70
NtRp1063
(dp1064
g73
(dp1065
g93
g94
ssg82
g1059
sg75
(lp1066
S'http_accept_language'
p1067
asbag68
(g89
g70
NtRp1068
(dp1069
g73
(dp1070
g100
g101
ssg82
g1059
sg75
(lp1071
S':'
asbag68
(g89
g70
NtRp1072
(dp1073
g73
(dp1074
sg82
g1059
sg75
(lp1075
g68
(g69
g70
NtRp1076
(dp1077
g73
(dp1078
g81
I4
ssg82
g1072
sg75
(lp1079
S'es,en-US;q=0.8,en;q=0.6'
p1080
asbasbasbag68
(g84
g70
NtRp1081
(dp1082
g73
(dp1083
sg82
g833
sg75
(lp1084
g68
(g89
g70
NtRp1085
(dp1086
g73
(dp1087
g93
g94
ssg82
g1081
sg75
(lp1088
S'http_connection'
p1089
asbag68
(g89
g70
NtRp1090
(dp1091
g73
(dp1092
g100
g101
ssg82
g1081
sg75
(lp1093
S':'
asbag68
(g89
g70
NtRp1094
(dp1095
g73
(dp1096
sg82
g1081
sg75
(lp1097
g68
(g69
g70
NtRp1098
(dp1099
g73
(dp1100
g81
I4
ssg82
g1094
sg75
(lp1101
S'keep-alive'
p1102
asbasbasbag68
(g84
g70
NtRp1103
(dp1104
g73
(dp1105
sg82
g833
sg75
(lp1106
g68
(g89
g70
NtRp1107
(dp1108
g73
(dp1109
g93
g94
ssg82
g1103
sg75
(lp1110
S'http_cookie'
p1111
asbag68
(g89
g70
NtRp1112
(dp1113
g73
(dp1114
g100
g101
ssg82
g1103
sg75
(lp1115
S':'
asbag68
(g89
g70
NtRp1116
(dp1117
g73
(dp1118
sg82
g1103
sg75
(lp1119
g68
(g69
g70
NtRp1120
(dp1121
g73
(dp1122
g81
I4
ssg82
g1116
sg75
(lp1123
S'session_id_welcome=127.0.0.1-0653ef3e-3e2a-4c9a-a2ad-dc6c0f6d5d3b; session_id_mvstore=127.0.0.1-50654ecb-cdf9-4d07-aebd-7df319d2e714; session_id_admin=127.0.0.1-f645f06f-266f-4e4d-b2e0-7d73420d32e3'
p1124
asbasbasbag68
(g84
g70
NtRp1125
(dp1126
g73
(dp1127
sg82
g833
sg75
(lp1128
g68
(g89
g70
NtRp1129
(dp1130
g73
(dp1131
g93
g94
ssg82
g1125
sg75
(lp1132
S'http_host'
p1133
asbag68
(g89
g70
NtRp1134
(dp1135
g73
(dp1136
g100
g101
ssg82
g1125
sg75
(lp1137
S':'
asbag68
(g89
g70
NtRp1138
(dp1139
g73
(dp1140
sg82
g1125
sg75
(lp1141
g68
(g69
g70
NtRp1142
(dp1143
g73
(dp1144
g81
I4
ssg82
g1138
sg75
(lp1145
S'127.0.0.1:8000'
p1146
asbasbasbag68
(g84
g70
NtRp1147
(dp1148
g73
(dp1149
sg82
g833
sg75
(lp1150
g68
(g89
g70
NtRp1151
(dp1152
g73
(dp1153
g93
g94
ssg82
g1147
sg75
(lp1154
S'http_referer'
p1155
asbag68
(g89
g70
NtRp1156
(dp1157
g73
(dp1158
g100
g101
ssg82
g1147
sg75
(lp1159
S':'
asbag68
(g89
g70
NtRp1160
(dp1161
g73
(dp1162
sg82
g1147
sg75
(lp1163
g68
(g69
g70
NtRp1164
(dp1165
g73
(dp1166
g81
I4
ssg82
g1160
sg75
(lp1167
S'http://127.0.0.1:8000/mvstore/default/peliculas'
p1168
asbasbasbag68
(g84
g70
NtRp1169
(dp1170
g73
(dp1171
sg82
g833
sg75
(lp1172
g68
(g89
g70
NtRp1173
(dp1174
g73
(dp1175
g93
g94
ssg82
g1169
sg75
(lp1176
S'http_user_agent'
p1177
asbag68
(g89
g70
NtRp1178
(dp1179
g73
(dp1180
g100
g101
ssg82
g1169
sg75
(lp1181
S':'
asbag68
(g89
g70
NtRp1182
(dp1183
g73
(dp1184
sg82
g1169
sg75
(lp1185
g68
(g69
g70
NtRp1186
(dp1187
g73
(dp1188
g81
I4
ssg82
g1182
sg75
(lp1189
S'Mozilla/5.0 (X11; U; Linux x86_64; en-US) AppleWebKit/534.16 (KHTML, like Gecko) Chrome/10.0.648.205 Safari/534.16'
p1190
asbasbasbag68
(g84
g70
NtRp1191
(dp1192
g73
(dp1193
sg82
g833
sg75
(lp1194
g68
(g89
g70
NtRp1195
(dp1196
g73
(dp1197
g93
g94
ssg82
g1191
sg75
(lp1198
S'path_info'
p1199
asbag68
(g89
g70
NtRp1200
(dp1201
g73
(dp1202
g100
g101
ssg82
g1191
sg75
(lp1203
S':'
asbag68
(g89
g70
NtRp1204
(dp1205
g73
(dp1206
sg82
g1191
sg75
(lp1207
g68
(g69
g70
NtRp1208
(dp1209
g73
(dp1210
g81
I4
ssg82
g1204
sg75
(lp1211
S'/mvstore/default/personal'
p1212
asbasbasbag68
(g84
g70
NtRp1213
(dp1214
g73
(dp1215
sg82
g833
sg75
(lp1216
g68
(g89
g70
NtRp1217
(dp1218
g73
(dp1219
g93
g94
ssg82
g1213
sg75
(lp1220
S'query_string'
p1221
asbag68
(g89
g70
NtRp1222
(dp1223
g73
(dp1224
g100
g101
ssg82
g1213
sg75
(lp1225
S':'
asbag68
(g89
g70
NtRp1226
(dp1227
g73
(dp1228
sg82
g1213
sg75
(lp1229
g68
(g69
g70
NtRp1230
(dp1231
g73
(dp1232
g81
I4
ssg82
g1226
sg75
(lp1233
S''
asbasbasbag68
(g84
g70
NtRp1234
(dp1235
g73
(dp1236
sg82
g833
sg75
(lp1237
g68
(g89
g70
NtRp1238
(dp1239
g73
(dp1240
g93
g94
ssg82
g1234
sg75
(lp1241
S'remote_addr'
p1242
asbag68
(g89
g70
NtRp1243
(dp1244
g73
(dp1245
g100
g101
ssg82
g1234
sg75
(lp1246
S':'
asbag68
(g89
g70
NtRp1247
(dp1248
g73
(dp1249
sg82
g1234
sg75
(lp1250
g68
(g69
g70
NtRp1251
(dp1252
g73
(dp1253
g81
I4
ssg82
g1247
sg75
(lp1254
g201
asbasbasbag68
(g84
g70
NtRp1255
(dp1256
g73
(dp1257
sg82
g833
sg75
(lp1258
g68
(g89
g70
NtRp1259
(dp1260
g73
(dp1261
g93
g94
ssg82
g1255
sg75
(lp1262
S'remote_port'
p1263
asbag68
(g89
g70
NtRp1264
(dp1265
g73
(dp1266
g100
g101
ssg82
g1255
sg75
(lp1267
S':'
asbag68
(g89
g70
NtRp1268
(dp1269
g73
(dp1270
sg82
g1255
sg75
(lp1271
g68
(g69
g70
NtRp1272
(dp1273
g73
(dp1274
g81
I4
ssg82
g1268
sg75
(lp1275
S'50381'
p1276
asbasbasbag68
(g84
g70
NtRp1277
(dp1278
g73
(dp1279
sg82
g833
sg75
(lp1280
g68
(g89
g70
NtRp1281
(dp1282
g73
(dp1283
g93
g94
ssg82
g1277
sg75
(lp1284
S'request_method'
p1285
asbag68
(g89
g70
NtRp1286
(dp1287
g73
(dp1288
g100
g101
ssg82
g1277
sg75
(lp1289
S':'
asbag68
(g89
g70
NtRp1290
(dp1291
g73
(dp1292
sg82
g1277
sg75
(lp1293
g68
(g69
g70
NtRp1294
(dp1295
g73
(dp1296
g81
I4
ssg82
g1290
sg75
(lp1297
S'GET'
p1298
asbasbasbag68
(g84
g70
NtRp1299
(dp1300
g73
(dp1301
sg82
g833
sg75
(lp1302
g68
(g89
g70
NtRp1303
(dp1304
g73
(dp1305
g93
g94
ssg82
g1299
sg75
(lp1306
S'script_name'
p1307
asbag68
(g89
g70
NtRp1308
(dp1309
g73
(dp1310
g100
g101
ssg82
g1299
sg75
(lp1311
S':'
asbag68
(g89
g70
NtRp1312
(dp1313
g73
(dp1314
sg82
g1299
sg75
(lp1315
g68
(g69
g70
NtRp1316
(dp1317
g73
(dp1318
g81
I4
ssg82
g1312
sg75
(lp1319
S''
asbasbasbag68
(g84
g70
NtRp1320
(dp1321
g73
(dp1322
sg82
g833
sg75
(lp1323
g68
(g89
g70
NtRp1324
(dp1325
g73
(dp1326
g93
g94
ssg82
g1320
sg75
(lp1327
S'server_name'
p1328
asbag68
(g89
g70
NtRp1329
(dp1330
g73
(dp1331
g100
g101
ssg82
g1320
sg75
(lp1332
S':'
asbag68
(g89
g70
NtRp1333
(dp1334
g73
(dp1335
sg82
g1320
sg75
(lp1336
g68
(g69
g70
NtRp1337
(dp1338
g73
(dp1339
g81
I4
ssg82
g1333
sg75
(lp1340
S'kiki'
p1341
asbasbasbag68
(g84
g70
NtRp1342
(dp1343
g73
(dp1344
sg82
g833
sg75
(lp1345
g68
(g89
g70
NtRp1346
(dp1347
g73
(dp1348
g93
g94
ssg82
g1342
sg75
(lp1349
S'server_port'
p1350
asbag68
(g89
g70
NtRp1351
(dp1352
g73
(dp1353
g100
g101
ssg82
g1342
sg75
(lp1354
S':'
asbag68
(g89
g70
NtRp1355
(dp1356
g73
(dp1357
sg82
g1342
sg75
(lp1358
g68
(g69
g70
NtRp1359
(dp1360
g73
(dp1361
g81
I4
ssg82
g1355
sg75
(lp1362
S'8000'
p1363
asbasbasbag68
(g84
g70
NtRp1364
(dp1365
g73
(dp1366
sg82
g833
sg75
(lp1367
g68
(g89
g70
NtRp1368
(dp1369
g73
(dp1370
g93
g94
ssg82
g1364
sg75
(lp1371
S'server_protocol'
p1372
asbag68
(g89
g70
NtRp1373
(dp1374
g73
(dp1375
g100
g101
ssg82
g1364
sg75
(lp1376
S':'
asbag68
(g89
g70
NtRp1377
(dp1378
g73
(dp1379
sg82
g1364
sg75
(lp1380
g68
(g69
g70
NtRp1381
(dp1382
g73
(dp1383
g81
I4
ssg82
g1377
sg75
(lp1384
S'HTTP/1.1'
p1385
asbasbasbag68
(g84
g70
NtRp1386
(dp1387
g73
(dp1388
sg82
g833
sg75
(lp1389
g68
(g89
g70
NtRp1390
(dp1391
g73
(dp1392
g93
g94
ssg82
g1386
sg75
(lp1393
S'server_software'
p1394
asbag68
(g89
g70
NtRp1395
(dp1396
g73
(dp1397
g100
g101
ssg82
g1386
sg75
(lp1398
S':'
asbag68
(g89
g70
NtRp1399
(dp1400
g73
(dp1401
sg82
g1386
sg75
(lp1402
g68
(g69
g70
NtRp1403
(dp1404
g73
(dp1405
g81
I4
ssg82
g1399
sg75
(lp1406
S'Rocket 1.2.2'
p1407
asbasbasbag68
(g84
g70
NtRp1408
(dp1409
g73
(dp1410
sg82
g833
sg75
(lp1411
g68
(g89
g70
NtRp1412
(dp1413
g73
(dp1414
g93
g94
ssg82
g1408
sg75
(lp1415
S'web2py_crontype'
p1416
asbag68
(g89
g70
NtRp1417
(dp1418
g73
(dp1419
g100
g101
ssg82
g1408
sg75
(lp1420
S':'
asbag68
(g89
g70
NtRp1421
(dp1422
g73
(dp1423
sg82
g1408
sg75
(lp1424
g68
(g69
g70
NtRp1425
(dp1426
g73
(dp1427
g81
I4
ssg82
g1421
sg75
(lp1428
S'hard'
p1429
asbasbasbag68
(g84
g70
NtRp1430
(dp1431
g73
(dp1432
sg82
g833
sg75
(lp1433
g68
(g89
g70
NtRp1434
(dp1435
g73
(dp1436
g93
g94
ssg82
g1430
sg75
(lp1437
S'web2py_path'
p1438
asbag68
(g89
g70
NtRp1439
(dp1440
g73
(dp1441
g100
g101
ssg82
g1430
sg75
(lp1442
S':'
asbag68
(g89
g70
NtRp1443
(dp1444
g73
(dp1445
sg82
g1430
sg75
(lp1446
g68
(g69
g70
NtRp1447
(dp1448
g73
(dp1449
g81
I4
ssg82
g1443
sg75
(lp1450
g880
asbasbasbag68
(g84
g70
NtRp1451
(dp1452
g73
(dp1453
sg82
g833
sg75
(lp1454
g68
(g89
g70
NtRp1455
(dp1456
g73
(dp1457
g93
g94
ssg82
g1451
sg75
(lp1458
S'web2py_version'
p1459
asbag68
(g89
g70
NtRp1460
(dp1461
g73
(dp1462
g100
g101
ssg82
g1451
sg75
(lp1463
S':'
asbag68
(g89
g70
NtRp1464
(dp1465
g73
(dp1466
sg82
g1451
sg75
(lp1467
g68
(g69
g70
NtRp1468
(dp1469
g73
(dp1470
g81
I4
ssg82
g1464
sg75
(lp1471
S'        iersion 1.94.1 (2011-03-17 16:30:58)\n'
p1472
asbasbasbag68
(g84
g70
NtRp1473
(dp1474
g73
(dp1475
sg82
g833
sg75
(lp1476
g68
(g89
g70
NtRp1477
(dp1478
g73
(dp1479
g93
g94
ssg82
g1473
sg75
(lp1480
S'wsgi_errors'
p1481
asbag68
(g89
g70
NtRp1482
(dp1483
g73
(dp1484
g100
g101
ssg82
g1473
sg75
(lp1485
S':'
asbag68
(g89
g70
NtRp1486
(dp1487
g73
(dp1488
sg82
g1473
sg75
(lp1489
g68
(g69
g70
NtRp1490
(dp1491
g73
(dp1492
g81
I4
ssg82
g1486
sg75
(lp1493
S"<open file '<stderr>', mode 'w' at 0x7fd2753531e0>"
p1494
asbasbasbag68
(g84
g70
NtRp1495
(dp1496
g73
(dp1497
sg82
g833
sg75
(lp1498
g68
(g89
g70
NtRp1499
(dp1500
g73
(dp1501
g93
g94
ssg82
g1495
sg75
(lp1502
S'wsgi_file_wrapper'
p1503
asbag68
(g89
g70
NtRp1504
(dp1505
g73
(dp1506
g100
g101
ssg82
g1495
sg75
(lp1507
S':'
asbag68
(g89
g70
NtRp1508
(dp1509
g73
(dp1510
sg82
g1495
sg75
(lp1511
g68
(g69
g70
NtRp1512
(dp1513
g73
(dp1514
g81
I4
ssg82
g1508
sg75
(lp1515
S'<class gluon.rocket.FileWrapper at 0x19683b0>'
p1516
asbasbasbag68
(g84
g70
NtRp1517
(dp1518
g73
(dp1519
sg82
g833
sg75
(lp1520
g68
(g89
g70
NtRp1521
(dp1522
g73
(dp1523
g93
g94
ssg82
g1517
sg75
(lp1524
S'wsgi_input'
p1525
asbag68
(g89
g70
NtRp1526
(dp1527
g73
(dp1528
g100
g101
ssg82
g1517
sg75
(lp1529
S':'
asbag68
(g89
g70
NtRp1530
(dp1531
g73
(dp1532
sg82
g1517
sg75
(lp1533
g68
(g69
g70
NtRp1534
(dp1535
g73
(dp1536
g81
I4
ssg82
g1530
sg75
(lp1537
S'<socket._fileobject object at 0x23092d0>'
p1538
asbasbasbag68
(g84
g70
NtRp1539
(dp1540
g73
(dp1541
sg82
g833
sg75
(lp1542
g68
(g89
g70
NtRp1543
(dp1544
g73
(dp1545
g93
g94
ssg82
g1539
sg75
(lp1546
S'wsgi_multiprocess'
p1547
asbag68
(g89
g70
NtRp1548
(dp1549
g73
(dp1550
g100
g101
ssg82
g1539
sg75
(lp1551
S':'
asbag68
(g89
g70
NtRp1552
(dp1553
g73
(dp1554
sg82
g1539
sg75
(lp1555
g68
(g69
g70
NtRp1556
(dp1557
g73
(dp1558
g81
I4
ssg82
g1552
sg75
(lp1559
g111
asbasbasbag68
(g84
g70
NtRp1560
(dp1561
g73
(dp1562
sg82
g833
sg75
(lp1563
g68
(g89
g70
NtRp1564
(dp1565
g73
(dp1566
g93
g94
ssg82
g1560
sg75
(lp1567
S'wsgi_multithread'
p1568
asbag68
(g89
g70
NtRp1569
(dp1570
g73
(dp1571
g100
g101
ssg82
g1560
sg75
(lp1572
S':'
asbag68
(g89
g70
NtRp1573
(dp1574
g73
(dp1575
sg82
g1560
sg75
(lp1576
g68
(g69
g70
NtRp1577
(dp1578
g73
(dp1579
g81
I4
ssg82
g1573
sg75
(lp1580
S'True'
p1581
asbasbasbag68
(g84
g70
NtRp1582
(dp1583
g73
(dp1584
sg82
g833
sg75
(lp1585
g68
(g89
g70
NtRp1586
(dp1587
g73
(dp1588
g93
g94
ssg82
g1582
sg75
(lp1589
S'wsgi_run_once'
p1590
asbag68
(g89
g70
NtRp1591
(dp1592
g73
(dp1593
g100
g101
ssg82
g1582
sg75
(lp1594
S':'
asbag68
(g89
g70
NtRp1595
(dp1596
g73
(dp1597
sg82
g1582
sg75
(lp1598
g68
(g69
g70
NtRp1599
(dp1600
g73
(dp1601
g81
I4
ssg82
g1595
sg75
(lp1602
g111
asbasbasbag68
(g84
g70
NtRp1603
(dp1604
g73
(dp1605
sg82
g833
sg75
(lp1606
g68
(g89
g70
NtRp1607
(dp1608
g73
(dp1609
g93
g94
ssg82
g1603
sg75
(lp1610
S'wsgi_url_scheme'
p1611
asbag68
(g89
g70
NtRp1612
(dp1613
g73
(dp1614
g100
g101
ssg82
g1603
sg75
(lp1615
S':'
asbag68
(g89
g70
NtRp1616
(dp1617
g73
(dp1618
sg82
g1603
sg75
(lp1619
g68
(g69
g70
NtRp1620
(dp1621
g73
(dp1622
g81
I4
ssg82
g1616
sg75
(lp1623
S'http'
p1624
asbasbasbag68
(g84
g70
NtRp1625
(dp1626
g73
(dp1627
sg82
g833
sg75
(lp1628
g68
(g89
g70
NtRp1629
(dp1630
g73
(dp1631
g93
g94
ssg82
g1625
sg75
(lp1632
S'wsgi_version'
p1633
asbag68
(g89
g70
NtRp1634
(dp1635
g73
(dp1636
g100
g101
ssg82
g1625
sg75
(lp1637
S':'
asbag68
(g89
g70
NtRp1638
(dp1639
g73
(dp1640
sg82
g1625
sg75
(lp1641
g68
(g69
g70
NtRp1642
(dp1643
g73
(dp1644
g81
I4
ssg82
g1638
sg75
(lp1645
g68
(g77
g70
NtRp1646
(dp1647
g73
(dp1648
g81
I3
ssg82
Nsg75
(lp1649
g68
(g84
g70
NtRp1650
(dp1651
g73
(dp1652
sg82
g1646
sg75
(lp1653
g68
(g89
g70
NtRp1654
(dp1655
g73
(dp1656
sg82
g1650
sg75
(lp1657
g68
(g69
g70
NtRp1658
(dp1659
g73
(dp1660
g81
I3
ssg82
g1654
sg75
(lp1661
S'1'
asbasbasbag68
(g84
g70
NtRp1662
(dp1663
g73
(dp1664
sg82
g1646
sg75
(lp1665
g68
(g89
g70
NtRp1666
(dp1667
g73
(dp1668
sg82
g1662
sg75
(lp1669
g68
(g69
g70
NtRp1670
(dp1671
g73
(dp1672
g81
I3
ssg82
g1666
sg75
(lp1673
S'0'
asbasbasbasbasbasbasbasbasbasbasbag68
(g84
g70
NtRp1674
(dp1675
g73
(dp1676
sg82
g78
sg75
(lp1677
g68
(g89
g70
NtRp1678
(dp1679
g73
(dp1680
g93
g94
ssg82
g1674
sg75
(lp1681
S'extension'
p1682
asbag68
(g89
g70
NtRp1683
(dp1684
g73
(dp1685
g100
g101
ssg82
g1674
sg75
(lp1686
S':'
asbag68
(g89
g70
NtRp1687
(dp1688
g73
(dp1689
sg82
g1674
sg75
(lp1690
g68
(g69
g70
NtRp1691
(dp1692
g73
(dp1693
g81
I5
ssg82
g1687
sg75
(lp1694
S'html'
p1695
asbasbasbag68
(g84
g70
NtRp1696
(dp1697
g73
(dp1698
sg82
g78
sg75
(lp1699
g68
(g89
g70
NtRp1700
(dp1701
g73
(dp1702
g93
g94
ssg82
g1696
sg75
(lp1703
S'folder'
p1704
asbag68
(g89
g70
NtRp1705
(dp1706
g73
(dp1707
g100
g101
ssg82
g1696
sg75
(lp1708
S':'
asbag68
(g89
g70
NtRp1709
(dp1710
g73
(dp1711
sg82
g1696
sg75
(lp1712
g68
(g69
g70
NtRp1713
(dp1714
g73
(dp1715
g81
I5
ssg82
g1709
sg75
(lp1716
S'/home/marco/proyectos/web2py-trunk/applications/mvstore/'
p1717
asbasbasbag68
(g84
g70
NtRp1718
(dp1719
g73
(dp1720
sg82
g78
sg75
(lp1721
g68
(g89
g70
NtRp1722
(dp1723
g73
(dp1724
g93
g94
ssg82
g1718
sg75
(lp1725
S'function'
p1726
asbag68
(g89
g70
NtRp1727
(dp1728
g73
(dp1729
g100
g101
ssg82
g1718
sg75
(lp1730
S':'
asbag68
(g89
g70
NtRp1731
(dp1732
g73
(dp1733
sg82
g1718
sg75
(lp1734
g68
(g69
g70
NtRp1735
(dp1736
g73
(dp1737
g81
I5
ssg82
g1731
sg75
(lp1738
S'personal'
p1739
asbasbasbag68
(g84
g70
NtRp1740
(dp1741
g73
(dp1742
sg82
g78
sg75
(lp1743
g68
(g89
g70
NtRp1744
(dp1745
g73
(dp1746
g93
g94
ssg82
g1740
sg75
(lp1747
S'get_vars'
p1748
asbag68
(g89
g70
NtRp1749
(dp1750
g73
(dp1751
g100
g101
ssg82
g1740
sg75
(lp1752
S':'
asbag68
(g89
g70
NtRp1753
(dp1754
g73
(dp1755
sg82
g1740
sg75
(lp1756
g68
(g69
g70
NtRp1757
(dp1758
g73
(dp1759
g81
I5
ssg82
g1753
sg75
(lp1760
g68
(g77
g70
NtRp1761
(dp1762
g73
(dp1763
g81
I4
ssg82
Nsg75
(lp1764
sbasbasbasbag68
(g84
g70
NtRp1765
(dp1766
g73
(dp1767
sg82
g78
sg75
(lp1768
g68
(g89
g70
NtRp1769
(dp1770
g73
(dp1771
g93
g94
ssg82
g1765
sg75
(lp1772
S'is_https'
p1773
asbag68
(g89
g70
NtRp1774
(dp1775
g73
(dp1776
g100
g101
ssg82
g1765
sg75
(lp1777
S':'
asbag68
(g89
g70
NtRp1778
(dp1779
g73
(dp1780
sg82
g1765
sg75
(lp1781
g68
(g69
g70
NtRp1782
(dp1783
g73
(dp1784
g81
I5
ssg82
g1778
sg75
(lp1785
g111
asbasbasbag68
(g84
g70
NtRp1786
(dp1787
g73
(dp1788
sg82
g78
sg75
(lp1789
g68
(g89
g70
NtRp1790
(dp1791
g73
(dp1792
g93
g94
ssg82
g1786
sg75
(lp1793
S'is_local'
p1794
asbag68
(g89
g70
NtRp1795
(dp1796
g73
(dp1797
g100
g101
ssg82
g1786
sg75
(lp1798
S':'
asbag68
(g89
g70
NtRp1799
(dp1800
g73
(dp1801
sg82
g1786
sg75
(lp1802
g68
(g69
g70
NtRp1803
(dp1804
g73
(dp1805
g81
I5
ssg82
g1799
sg75
(lp1806
g1581
asbasbasbag68
(g84
g70
NtRp1807
(dp1808
g73
(dp1809
sg82
g78
sg75
(lp1810
g68
(g89
g70
NtRp1811
(dp1812
g73
(dp1813
g93
g94
ssg82
g1807
sg75
(lp1814
S'is_restful'
p1815
asbag68
(g89
g70
NtRp1816
(dp1817
g73
(dp1818
g100
g101
ssg82
g1807
sg75
(lp1819
S':'
asbag68
(g89
g70
NtRp1820
(dp1821
g73
(dp1822
sg82
g1807
sg75
(lp1823
g68
(g69
g70
NtRp1824
(dp1825
g73
(dp1826
g81
I5
ssg82
g1820
sg75
(lp1827
g111
asbasbasbag68
(g84
g70
NtRp1828
(dp1829
g73
(dp1830
sg82
g78
sg75
(lp1831
g68
(g89
g70
NtRp1832
(dp1833
g73
(dp1834
g93
g94
ssg82
g1828
sg75
(lp1835
S'now'
p1836
asbag68
(g89
g70
NtRp1837
(dp1838
g73
(dp1839
g100
g101
ssg82
g1828
sg75
(lp1840
S':'
asbag68
(g89
g70
NtRp1841
(dp1842
g73
(dp1843
sg82
g1828
sg75
(lp1844
g68
(g69
g70
NtRp1845
(dp1846
g73
(dp1847
g81
I5
ssg82
g1841
sg75
(lp1848
S'datetime.datetime(2011, 6, 19, 1, 34, 2, 968228)'
p1849
asbasbasbag68
(g84
g70
NtRp1850
(dp1851
g73
(dp1852
sg82
g78
sg75
(lp1853
g68
(g89
g70
NtRp1854
(dp1855
g73
(dp1856
g93
g94
ssg82
g1850
sg75
(lp1857
S'post_vars'
p1858
asbag68
(g89
g70
NtRp1859
(dp1860
g73
(dp1861
g100
g101
ssg82
g1850
sg75
(lp1862
S':'
asbag68
(g89
g70
NtRp1863
(dp1864
g73
(dp1865
sg82
g1850
sg75
(lp1866
g68
(g69
g70
NtRp1867
(dp1868
g73
(dp1869
g81
I5
ssg82
g1863
sg75
(lp1870
g68
(g77
g70
NtRp1871
(dp1872
g73
(dp1873
g81
I4
ssg82
Nsg75
(lp1874
sbasbasbasbag68
(g84
g70
NtRp1875
(dp1876
g73
(dp1877
sg82
g78
sg75
(lp1878
g68
(g89
g70
NtRp1879
(dp1880
g73
(dp1881
g93
g94
ssg82
g1875
sg75
(lp1882
S'url'
p1883
asbag68
(g89
g70
NtRp1884
(dp1885
g73
(dp1886
g100
g101
ssg82
g1875
sg75
(lp1887
S':'
asbag68
(g89
g70
NtRp1888
(dp1889
g73
(dp1890
sg82
g1875
sg75
(lp1891
g68
(g69
g70
NtRp1892
(dp1893
g73
(dp1894
g81
I5
ssg82
g1888
sg75
(lp1895
S'/mvstore/default/personal'
p1896
asbasbasbag68
(g84
g70
NtRp1897
(dp1898
g73
(dp1899
sg82
g78
sg75
(lp1900
g68
(g89
g70
NtRp1901
(dp1902
g73
(dp1903
g93
g94
ssg82
g1897
sg75
(lp1904
S'uuid'
p1905
asbag68
(g89
g70
NtRp1906
(dp1907
g73
(dp1908
g100
g101
ssg82
g1897
sg75
(lp1909
S':'
asbag68
(g89
g70
NtRp1910
(dp1911
g73
(dp1912
sg82
g1897
sg75
(lp1913
g68
(g69
g70
NtRp1914
(dp1915
g73
(dp1916
g81
I5
ssg82
g1910
sg75
(lp1917
S'mvstore/127.0.0.1.2011-06-19.01-34-02.a7940078-6804-409a-b5c5-3f008c1a7577'
p1918
asbasbasbag68
(g84
g70
NtRp1919
(dp1920
g73
(dp1921
sg82
g78
sg75
(lp1922
g68
(g89
g70
NtRp1923
(dp1924
g73
(dp1925
g93
g94
ssg82
g1919
sg75
(lp1926
S'vars'
p1927
asbag68
(g89
g70
NtRp1928
(dp1929
g73
(dp1930
g100
g101
ssg82
g1919
sg75
(lp1931
S':'
asbag68
(g89
g70
NtRp1932
(dp1933
g73
(dp1934
sg82
g1919
sg75
(lp1935
g68
(g69
g70
NtRp1936
(dp1937
g73
(dp1938
g81
I5
ssg82
g1932
sg75
(lp1939
g68
(g77
g70
NtRp1940
(dp1941
g73
(dp1942
g81
I4
ssg82
Nsg75
(lp1943
sbasbasbasbag68
(g84
g70
NtRp1944
(dp1945
g73
(dp1946
sg82
g78
sg75
(lp1947
g68
(g89
g70
NtRp1948
(dp1949
g73
(dp1950
g93
g94
ssg82
g1944
sg75
(lp1951
S'wsgi'
p1952
asbag68
(g89
g70
NtRp1953
(dp1954
g73
(dp1955
g100
g101
ssg82
g1944
sg75
(lp1956
S':'
asbag68
(g89
g70
NtRp1957
(dp1958
g73
(dp1959
sg82
g1944
sg75
(lp1960
g68
(g69
g70
NtRp1961
(dp1962
g73
(dp1963
g81
I5
ssg82
g1957
sg75
(lp1964
g68
(g77
g70
NtRp1965
(dp1966
g73
(dp1967
g81
I4
ssg82
Nsg75
(lp1968
g68
(g84
g70
NtRp1969
(dp1970
g73
(dp1971
sg82
g1965
sg75
(lp1972
g68
(g89
g70
NtRp1973
(dp1974
g73
(dp1975
g93
g94
ssg82
g1969
sg75
(lp1976
S'environ'
p1977
asbag68
(g89
g70
NtRp1978
(dp1979
g73
(dp1980
g100
g101
ssg82
g1969
sg75
(lp1981
S':'
asbag68
(g89
g70
NtRp1982
(dp1983
g73
(dp1984
sg82
g1969
sg75
(lp1985
g68
(g69
g70
NtRp1986
(dp1987
g73
(dp1988
g81
I4
ssg82
g1982
sg75
(lp1989
g68
(g77
g70
NtRp1990
(dp1991
g73
(dp1992
g81
I3
ssg82
Nsg75
(lp1993
g68
(g84
g70
NtRp1994
(dp1995
g73
(dp1996
sg82
g1990
sg75
(lp1997
g68
(g89
g70
NtRp1998
(dp1999
g73
(dp2000
g93
g94
ssg82
g1994
sg75
(lp2001
S'HTTP_ACCEPT'
p2002
asbag68
(g89
g70
NtRp2003
(dp2004
g73
(dp2005
g100
g101
ssg82
g1994
sg75
(lp2006
S':'
asbag68
(g89
g70
NtRp2007
(dp2008
g73
(dp2009
sg82
g1994
sg75
(lp2010
g68
(g69
g70
NtRp2011
(dp2012
g73
(dp2013
g81
I3
ssg82
g2007
sg75
(lp2014
g1014
asbasbasbag68
(g84
g70
NtRp2015
(dp2016
g73
(dp2017
sg82
g1990
sg75
(lp2018
g68
(g89
g70
NtRp2019
(dp2020
g73
(dp2021
g93
g94
ssg82
g2015
sg75
(lp2022
S'HTTP_ACCEPT_CHARSET'
p2023
asbag68
(g89
g70
NtRp2024
(dp2025
g73
(dp2026
g100
g101
ssg82
g2015
sg75
(lp2027
S':'
asbag68
(g89
g70
NtRp2028
(dp2029
g73
(dp2030
sg82
g2015
sg75
(lp2031
g68
(g69
g70
NtRp2032
(dp2033
g73
(dp2034
g81
I3
ssg82
g2028
sg75
(lp2035
g1036
asbasbasbag68
(g84
g70
NtRp2036
(dp2037
g73
(dp2038
sg82
g1990
sg75
(lp2039
g68
(g89
g70
NtRp2040
(dp2041
g73
(dp2042
g93
g94
ssg82
g2036
sg75
(lp2043
S'HTTP_ACCEPT_ENCODING'
p2044
asbag68
(g89
g70
NtRp2045
(dp2046
g73
(dp2047
g100
g101
ssg82
g2036
sg75
(lp2048
S':'
asbag68
(g89
g70
NtRp2049
(dp2050
g73
(dp2051
sg82
g2036
sg75
(lp2052
g68
(g69
g70
NtRp2053
(dp2054
g73
(dp2055
g81
I3
ssg82
g2049
sg75
(lp2056
g1058
asbasbasbag68
(g84
g70
NtRp2057
(dp2058
g73
(dp2059
sg82
g1990
sg75
(lp2060
g68
(g89
g70
NtRp2061
(dp2062
g73
(dp2063
g93
g94
ssg82
g2057
sg75
(lp2064
S'HTTP_ACCEPT_LANGUAGE'
p2065
asbag68
(g89
g70
NtRp2066
(dp2067
g73
(dp2068
g100
g101
ssg82
g2057
sg75
(lp2069
S':'
asbag68
(g89
g70
NtRp2070
(dp2071
g73
(dp2072
sg82
g2057
sg75
(lp2073
g68
(g69
g70
NtRp2074
(dp2075
g73
(dp2076
g81
I3
ssg82
g2070
sg75
(lp2077
g1080
asbasbasbag68
(g84
g70
NtRp2078
(dp2079
g73
(dp2080
sg82
g1990
sg75
(lp2081
g68
(g89
g70
NtRp2082
(dp2083
g73
(dp2084
g93
g94
ssg82
g2078
sg75
(lp2085
S'HTTP_CONNECTION'
p2086
asbag68
(g89
g70
NtRp2087
(dp2088
g73
(dp2089
g100
g101
ssg82
g2078
sg75
(lp2090
S':'
asbag68
(g89
g70
NtRp2091
(dp2092
g73
(dp2093
sg82
g2078
sg75
(lp2094
g68
(g69
g70
NtRp2095
(dp2096
g73
(dp2097
g81
I3
ssg82
g2091
sg75
(lp2098
g1102
asbasbasbag68
(g84
g70
NtRp2099
(dp2100
g73
(dp2101
sg82
g1990
sg75
(lp2102
g68
(g89
g70
NtRp2103
(dp2104
g73
(dp2105
g93
g94
ssg82
g2099
sg75
(lp2106
S'HTTP_COOKIE'
p2107
asbag68
(g89
g70
NtRp2108
(dp2109
g73
(dp2110
g100
g101
ssg82
g2099
sg75
(lp2111
S':'
asbag68
(g89
g70
NtRp2112
(dp2113
g73
(dp2114
sg82
g2099
sg75
(lp2115
g68
(g69
g70
NtRp2116
(dp2117
g73
(dp2118
g81
I3
ssg82
g2112
sg75
(lp2119
g1124
asbasbasbag68
(g84
g70
NtRp2120
(dp2121
g73
(dp2122
sg82
g1990
sg75
(lp2123
g68
(g89
g70
NtRp2124
(dp2125
g73
(dp2126
g93
g94
ssg82
g2120
sg75
(lp2127
S'HTTP_HOST'
p2128
asbag68
(g89
g70
NtRp2129
(dp2130
g73
(dp2131
g100
g101
ssg82
g2120
sg75
(lp2132
S':'
asbag68
(g89
g70
NtRp2133
(dp2134
g73
(dp2135
sg82
g2120
sg75
(lp2136
g68
(g69
g70
NtRp2137
(dp2138
g73
(dp2139
g81
I3
ssg82
g2133
sg75
(lp2140
g1146
asbasbasbag68
(g84
g70
NtRp2141
(dp2142
g73
(dp2143
sg82
g1990
sg75
(lp2144
g68
(g89
g70
NtRp2145
(dp2146
g73
(dp2147
g93
g94
ssg82
g2141
sg75
(lp2148
S'HTTP_REFERER'
p2149
asbag68
(g89
g70
NtRp2150
(dp2151
g73
(dp2152
g100
g101
ssg82
g2141
sg75
(lp2153
S':'
asbag68
(g89
g70
NtRp2154
(dp2155
g73
(dp2156
sg82
g2141
sg75
(lp2157
g68
(g69
g70
NtRp2158
(dp2159
g73
(dp2160
g81
I3
ssg82
g2154
sg75
(lp2161
g1168
asbasbasbag68
(g84
g70
NtRp2162
(dp2163
g73
(dp2164
sg82
g1990
sg75
(lp2165
g68
(g89
g70
NtRp2166
(dp2167
g73
(dp2168
g93
g94
ssg82
g2162
sg75
(lp2169
S'HTTP_USER_AGENT'
p2170
asbag68
(g89
g70
NtRp2171
(dp2172
g73
(dp2173
g100
g101
ssg82
g2162
sg75
(lp2174
S':'
asbag68
(g89
g70
NtRp2175
(dp2176
g73
(dp2177
sg82
g2162
sg75
(lp2178
g68
(g69
g70
NtRp2179
(dp2180
g73
(dp2181
g81
I3
ssg82
g2175
sg75
(lp2182
g1190
asbasbasbag68
(g84
g70
NtRp2183
(dp2184
g73
(dp2185
sg82
g1990
sg75
(lp2186
g68
(g89
g70
NtRp2187
(dp2188
g73
(dp2189
g93
g94
ssg82
g2183
sg75
(lp2190
S'PATH_INFO'
p2191
asbag68
(g89
g70
NtRp2192
(dp2193
g73
(dp2194
g100
g101
ssg82
g2183
sg75
(lp2195
S':'
asbag68
(g89
g70
NtRp2196
(dp2197
g73
(dp2198
sg82
g2183
sg75
(lp2199
g68
(g69
g70
NtRp2200
(dp2201
g73
(dp2202
g81
I3
ssg82
g2196
sg75
(lp2203
g1212
asbasbasbag68
(g84
g70
NtRp2204
(dp2205
g73
(dp2206
sg82
g1990
sg75
(lp2207
g68
(g89
g70
NtRp2208
(dp2209
g73
(dp2210
g93
g94
ssg82
g2204
sg75
(lp2211
S'QUERY_STRING'
p2212
asbag68
(g89
g70
NtRp2213
(dp2214
g73
(dp2215
g100
g101
ssg82
g2204
sg75
(lp2216
S':'
asbag68
(g89
g70
NtRp2217
(dp2218
g73
(dp2219
sg82
g2204
sg75
(lp2220
g68
(g69
g70
NtRp2221
(dp2222
g73
(dp2223
g81
I3
ssg82
g2217
sg75
(lp2224
S''
asbasbasbag68
(g84
g70
NtRp2225
(dp2226
g73
(dp2227
sg82
g1990
sg75
(lp2228
g68
(g89
g70
NtRp2229
(dp2230
g73
(dp2231
g93
g94
ssg82
g2225
sg75
(lp2232
S'REMOTE_ADDR'
p2233
asbag68
(g89
g70
NtRp2234
(dp2235
g73
(dp2236
g100
g101
ssg82
g2225
sg75
(lp2237
S':'
asbag68
(g89
g70
NtRp2238
(dp2239
g73
(dp2240
sg82
g2225
sg75
(lp2241
g68
(g69
g70
NtRp2242
(dp2243
g73
(dp2244
g81
I3
ssg82
g2238
sg75
(lp2245
g201
asbasbasbag68
(g84
g70
NtRp2246
(dp2247
g73
(dp2248
sg82
g1990
sg75
(lp2249
g68
(g89
g70
NtRp2250
(dp2251
g73
(dp2252
g93
g94
ssg82
g2246
sg75
(lp2253
S'REMOTE_PORT'
p2254
asbag68
(g89
g70
NtRp2255
(dp2256
g73
(dp2257
g100
g101
ssg82
g2246
sg75
(lp2258
S':'
asbag68
(g89
g70
NtRp2259
(dp2260
g73
(dp2261
sg82
g2246
sg75
(lp2262
g68
(g69
g70
NtRp2263
(dp2264
g73
(dp2265
g81
I3
ssg82
g2259
sg75
(lp2266
g1276
asbasbasbag68
(g84
g70
NtRp2267
(dp2268
g73
(dp2269
sg82
g1990
sg75
(lp2270
g68
(g89
g70
NtRp2271
(dp2272
g73
(dp2273
g93
g94
ssg82
g2267
sg75
(lp2274
S'REQUEST_METHOD'
p2275
asbag68
(g89
g70
NtRp2276
(dp2277
g73
(dp2278
g100
g101
ssg82
g2267
sg75
(lp2279
S':'
asbag68
(g89
g70
NtRp2280
(dp2281
g73
(dp2282
sg82
g2267
sg75
(lp2283
g68
(g69
g70
NtRp2284
(dp2285
g73
(dp2286
g81
I3
ssg82
g2280
sg75
(lp2287
g1298
asbasbasbag68
(g84
g70
NtRp2288
(dp2289
g73
(dp2290
sg82
g1990
sg75
(lp2291
g68
(g89
g70
NtRp2292
(dp2293
g73
(dp2294
g93
g94
ssg82
g2288
sg75
(lp2295
S'SCRIPT_NAME'
p2296
asbag68
(g89
g70
NtRp2297
(dp2298
g73
(dp2299
g100
g101
ssg82
g2288
sg75
(lp2300
S':'
asbag68
(g89
g70
NtRp2301
(dp2302
g73
(dp2303
sg82
g2288
sg75
(lp2304
g68
(g69
g70
NtRp2305
(dp2306
g73
(dp2307
g81
I3
ssg82
g2301
sg75
(lp2308
S''
asbasbasbag68
(g84
g70
NtRp2309
(dp2310
g73
(dp2311
sg82
g1990
sg75
(lp2312
g68
(g89
g70
NtRp2313
(dp2314
g73
(dp2315
g93
g94
ssg82
g2309
sg75
(lp2316
S'SERVER_NAME'
p2317
asbag68
(g89
g70
NtRp2318
(dp2319
g73
(dp2320
g100
g101
ssg82
g2309
sg75
(lp2321
S':'
asbag68
(g89
g70
NtRp2322
(dp2323
g73
(dp2324
sg82
g2309
sg75
(lp2325
g68
(g69
g70
NtRp2326
(dp2327
g73
(dp2328
g81
I3
ssg82
g2322
sg75
(lp2329
g1341
asbasbasbag68
(g84
g70
NtRp2330
(dp2331
g73
(dp2332
sg82
g1990
sg75
(lp2333
g68
(g89
g70
NtRp2334
(dp2335
g73
(dp2336
g93
g94
ssg82
g2330
sg75
(lp2337
S'SERVER_PORT'
p2338
asbag68
(g89
g70
NtRp2339
(dp2340
g73
(dp2341
g100
g101
ssg82
g2330
sg75
(lp2342
S':'
asbag68
(g89
g70
NtRp2343
(dp2344
g73
(dp2345
sg82
g2330
sg75
(lp2346
g68
(g69
g70
NtRp2347
(dp2348
g73
(dp2349
g81
I3
ssg82
g2343
sg75
(lp2350
g1363
asbasbasbag68
(g84
g70
NtRp2351
(dp2352
g73
(dp2353
sg82
g1990
sg75
(lp2354
g68
(g89
g70
NtRp2355
(dp2356
g73
(dp2357
g93
g94
ssg82
g2351
sg75
(lp2358
S'SERVER_PROTOCOL'
p2359
asbag68
(g89
g70
NtRp2360
(dp2361
g73
(dp2362
g100
g101
ssg82
g2351
sg75
(lp2363
S':'
asbag68
(g89
g70
NtRp2364
(dp2365
g73
(dp2366
sg82
g2351
sg75
(lp2367
g68
(g69
g70
NtRp2368
(dp2369
g73
(dp2370
g81
I3
ssg82
g2364
sg75
(lp2371
g1385
asbasbasbag68
(g84
g70
NtRp2372
(dp2373
g73
(dp2374
sg82
g1990
sg75
(lp2375
g68
(g89
g70
NtRp2376
(dp2377
g73
(dp2378
g93
g94
ssg82
g2372
sg75
(lp2379
S'SERVER_SOFTWARE'
p2380
asbag68
(g89
g70
NtRp2381
(dp2382
g73
(dp2383
g100
g101
ssg82
g2372
sg75
(lp2384
S':'
asbag68
(g89
g70
NtRp2385
(dp2386
g73
(dp2387
sg82
g2372
sg75
(lp2388
g68
(g69
g70
NtRp2389
(dp2390
g73
(dp2391
g81
I3
ssg82
g2385
sg75
(lp2392
g1407
asbasbasbag68
(g84
g70
NtRp2393
(dp2394
g73
(dp2395
sg82
g1990
sg75
(lp2396
g68
(g89
g70
NtRp2397
(dp2398
g73
(dp2399
g93
g94
ssg82
g2393
sg75
(lp2400
S'wsgi.errors'
p2401
asbag68
(g89
g70
NtRp2402
(dp2403
g73
(dp2404
g100
g101
ssg82
g2393
sg75
(lp2405
S':'
asbag68
(g89
g70
NtRp2406
(dp2407
g73
(dp2408
sg82
g2393
sg75
(lp2409
g68
(g69
g70
NtRp2410
(dp2411
g73
(dp2412
g81
I3
ssg82
g2406
sg75
(lp2413
S"<open file '<stderr>', mode 'w' at 0x7fd2753531e0>"
p2414
asbasbasbag68
(g84
g70
NtRp2415
(dp2416
g73
(dp2417
sg82
g1990
sg75
(lp2418
g68
(g89
g70
NtRp2419
(dp2420
g73
(dp2421
g93
g94
ssg82
g2415
sg75
(lp2422
S'wsgi.file_wrapper'
p2423
asbag68
(g89
g70
NtRp2424
(dp2425
g73
(dp2426
g100
g101
ssg82
g2415
sg75
(lp2427
S':'
asbag68
(g89
g70
NtRp2428
(dp2429
g73
(dp2430
sg82
g2415
sg75
(lp2431
g68
(g69
g70
NtRp2432
(dp2433
g73
(dp2434
g81
I3
ssg82
g2428
sg75
(lp2435
S'<class gluon.rocket.FileWrapper at 0x19683b0>'
p2436
asbasbasbag68
(g84
g70
NtRp2437
(dp2438
g73
(dp2439
sg82
g1990
sg75
(lp2440
g68
(g89
g70
NtRp2441
(dp2442
g73
(dp2443
g93
g94
ssg82
g2437
sg75
(lp2444
S'wsgi.input'
p2445
asbag68
(g89
g70
NtRp2446
(dp2447
g73
(dp2448
g100
g101
ssg82
g2437
sg75
(lp2449
S':'
asbag68
(g89
g70
NtRp2450
(dp2451
g73
(dp2452
sg82
g2437
sg75
(lp2453
g68
(g69
g70
NtRp2454
(dp2455
g73
(dp2456
g81
I3
ssg82
g2450
sg75
(lp2457
S'<cStringIO.StringO object at 0x281cc70>'
p2458
asbasbasbag68
(g84
g70
NtRp2459
(dp2460
g73
(dp2461
sg82
g1990
sg75
(lp2462
g68
(g89
g70
NtRp2463
(dp2464
g73
(dp2465
g93
g94
ssg82
g2459
sg75
(lp2466
S'wsgi.multiprocess'
p2467
asbag68
(g89
g70
NtRp2468
(dp2469
g73
(dp2470
g100
g101
ssg82
g2459
sg75
(lp2471
S':'
asbag68
(g89
g70
NtRp2472
(dp2473
g73
(dp2474
sg82
g2459
sg75
(lp2475
g68
(g69
g70
NtRp2476
(dp2477
g73
(dp2478
g81
I3
ssg82
g2472
sg75
(lp2479
g111
asbasbasbag68
(g84
g70
NtRp2480
(dp2481
g73
(dp2482
sg82
g1990
sg75
(lp2483
g68
(g89
g70
NtRp2484
(dp2485
g73
(dp2486
g93
g94
ssg82
g2480
sg75
(lp2487
S'wsgi.multithread'
p2488
asbag68
(g89
g70
NtRp2489
(dp2490
g73
(dp2491
g100
g101
ssg82
g2480
sg75
(lp2492
S':'
asbag68
(g89
g70
NtRp2493
(dp2494
g73
(dp2495
sg82
g2480
sg75
(lp2496
g68
(g69
g70
NtRp2497
(dp2498
g73
(dp2499
g81
I3
ssg82
g2493
sg75
(lp2500
g1581
asbasbasbag68
(g84
g70
NtRp2501
(dp2502
g73
(dp2503
sg82
g1990
sg75
(lp2504
g68
(g89
g70
NtRp2505
(dp2506
g73
(dp2507
g93
g94
ssg82
g2501
sg75
(lp2508
S'wsgi.run_once'
p2509
asbag68
(g89
g70
NtRp2510
(dp2511
g73
(dp2512
g100
g101
ssg82
g2501
sg75
(lp2513
S':'
asbag68
(g89
g70
NtRp2514
(dp2515
g73
(dp2516
sg82
g2501
sg75
(lp2517
g68
(g69
g70
NtRp2518
(dp2519
g73
(dp2520
g81
I3
ssg82
g2514
sg75
(lp2521
g111
asbasbasbag68
(g84
g70
NtRp2522
(dp2523
g73
(dp2524
sg82
g1990
sg75
(lp2525
g68
(g89
g70
NtRp2526
(dp2527
g73
(dp2528
g93
g94
ssg82
g2522
sg75
(lp2529
S'wsgi.url_scheme'
p2530
asbag68
(g89
g70
NtRp2531
(dp2532
g73
(dp2533
g100
g101
ssg82
g2522
sg75
(lp2534
S':'
asbag68
(g89
g70
NtRp2535
(dp2536
g73
(dp2537
sg82
g2522
sg75
(lp2538
g68
(g69
g70
NtRp2539
(dp2540
g73
(dp2541
g81
I3
ssg82
g2535
sg75
(lp2542
g1624
asbasbasbag68
(g84
g70
NtRp2543
(dp2544
g73
(dp2545
sg82
g1990
sg75
(lp2546
g68
(g89
g70
NtRp2547
(dp2548
g73
(dp2549
g93
g94
ssg82
g2543
sg75
(lp2550
S'wsgi.version'
p2551
asbag68
(g89
g70
NtRp2552
(dp2553
g73
(dp2554
g100
g101
ssg82
g2543
sg75
(lp2555
S':'
asbag68
(g89
g70
NtRp2556
(dp2557
g73
(dp2558
sg82
g2543
sg75
(lp2559
g68
(g69
g70
NtRp2560
(dp2561
g73
(dp2562
g81
I3
ssg82
g2556
sg75
(lp2563
S'1'
asbasbasbasbasbasbasbasbasbasbasbasbasbsS'frames'
p2564
(lp2565
(dp2566
S'file'
p2567
S'/home/marco/proyectos/web2py-trunk/gluon/restricted.py'
p2568
sS'dump'
p2569
(dp2570
S'code'
p2571
S'\'# -*- coding: utf-8 -*-\\n# this file is released ...cargo que se aplica es de $2 por dia")\\n        )\\n\''
p2572
sS'layer'
p2573
S"'/home/marco/proyectos/web2py-trunk/applications/mvstore/models/db.py'"
p2574
sS'global compile2'
p2575
S'<function compile2>'
p2576
sS'ccode'
p2577
S'undefined'
p2578
ssS'lnum'
p2579
I191
sS'lines'
p2580
(dp2581
I192
S'        exec ccode in environment'
p2582
sI193
S'    except HTTP:'
p2583
sI194
S'        raise'
p2584
sI195
S'    except Exception:'
p2585
sI186
S"    environment['__file__'] = layer"
p2586
sI187
S'    try:'
p2587
sI188
S'        if type(code) == types.CodeType:'
p2588
sI189
S'            ccode = code'
p2589
sI190
S'        else:'
p2590
sI191
S'            ccode = compile2(code,layer)'
p2591
ssS'call'
p2592
S'(code=\'# -*- coding: utf-8 -*-\\n# this file is released ...cargo que se aplica es de $2 por dia")\\n        )\\n\', environment={\'A\': <class \'gluon.html.A\'>, \'B\': <class \'gluon.html.B\'>, \'BEAUTIFY\': <class \'gluon.html.BEAUTIFY\'>, \'BODY\': <class \'gluon.html.BODY\'>, \'BR\': <class \'gluon.html.BR\'>, \'BUTTON\': <class \'gluon.html.BUTTON\'>, \'CENTER\': <class \'gluon.html.CENTER\'>, \'CLEANUP\': <class \'gluon.validators.CLEANUP\'>, \'CODE\': <class \'gluon.html.CODE\'>, \'CRYPT\': <class \'gluon.validators.CRYPT\'>, ...}, layer=\'/home/marco/proyectos/web2py-trunk/applications/mvstore/models/db.py\')'
p2593
sS'func'
p2594
S'restricted'
p2595
sa(dp2596
g2567
S'/home/marco/proyectos/web2py-trunk/gluon/restricted.py'
p2597
sg2569
(dp2598
S'builtincompile'
p2599
S'<built-in function compile>'
p2600
sS'code'
p2601
S'\'# -*- coding: utf-8 -*-\\n# this file is released ...cargo que se aplica es de $2 por dia")\\n        )\\n\''
p2602
sS'code.rstrip'
p2603
S'<built-in method rstrip of str object>'
p2604
sS').replace'
p2605
g2578
sS'layer'
p2606
S"'/home/marco/proyectos/web2py-trunk/applications/mvstore/models/db.py'"
p2607
ssg2579
I178
sg2580
(dp2608
I173
S''
sI174
S'def compile2(code,layer):'
p2609
sI175
S'    """'
p2610
sI176
S"    The +'\\n' is necessary else compile fails when code ends in a comment."
p2611
sI177
S'    """'
p2612
sI178
S"    return compile(code.rstrip().replace('\\r\\n','\\n')+'\\n', layer, 'exec')"
p2613
sI179
S''
sI180
S"def restricted(code, environment={}, layer='Unknown'):"
p2614
sI181
S'    """'
p2615
sI182
S'    runs code in environment and returns the output. if an exception occurs'
p2616
ssg2592
S'(code=\'# -*- coding: utf-8 -*-\\n# this file is released ...cargo que se aplica es de $2 por dia")\\n        )\\n\', layer=\'/home/marco/proyectos/web2py-trunk/applications/mvstore/models/db.py\')'
p2617
sg2594
S'compile2'
p2618
sasS'pyver'
p2619
S'Python 2.6.6: /usr/bin/python'
p2620
sS'session'
p2621
g68
(g69
g70
NtRp2622
(dp2623
g73
(dp2624
sg75
(lp2625
g68
(g77
g70
NtRp2626
(dp2627
g73
(dp2628
g81
I5
ssg82
Nsg75
(lp2629
sbasbsS'etype'
p2630
S"<type 'exceptions.SyntaxError'>"
p2631
sS'date'
p2632
S'Sun Jun 19 01:34:02 2011'
p2633
sS'response'
p2634
g68
(g69
g70
NtRp2635
(dp2636
g73
(dp2637
sg75
(lp2638
g68
(g77
g70
NtRp2639
(dp2640
g73
(dp2641
g81
I5
ssg82
Nsg75
(lp2642
g68
(g84
g70
NtRp2643
(dp2644
g73
(dp2645
sg82
g2639
sg75
(lp2646
g68
(g89
g70
NtRp2647
(dp2648
g73
(dp2649
g93
g94
ssg82
g2643
sg75
(lp2650
g166
asbag68
(g89
g70
NtRp2651
(dp2652
g73
(dp2653
g100
g101
ssg82
g2643
sg75
(lp2654
S':'
asbag68
(g89
g70
NtRp2655
(dp2656
g73
(dp2657
sg82
g2643
sg75
(lp2658
g68
(g69
g70
NtRp2659
(dp2660
g73
(dp2661
g81
I5
ssg82
g2655
sg75
(lp2662
S'<cStringIO.StringO object at 0x28a2180>'
p2663
asbasbasbag68
(g84
g70
NtRp2664
(dp2665
g73
(dp2666
sg82
g2639
sg75
(lp2667
g68
(g89
g70
NtRp2668
(dp2669
g73
(dp2670
g93
g94
ssg82
g2664
sg75
(lp2671
g232
asbag68
(g89
g70
NtRp2672
(dp2673
g73
(dp2674
g100
g101
ssg82
g2664
sg75
(lp2675
S':'
asbag68
(g89
g70
NtRp2676
(dp2677
g73
(dp2678
sg82
g2664
sg75
(lp2679
g68
(g69
g70
NtRp2680
(dp2681
g73
(dp2682
g81
I5
ssg82
g2676
sg75
(lp2683
g68
(g77
g70
NtRp2684
(dp2685
g73
(dp2686
g81
I4
ssg82
Nsg75
(lp2687
g68
(g84
g70
NtRp2688
(dp2689
g73
(dp2690
sg82
g2684
sg75
(lp2691
g68
(g89
g70
NtRp2692
(dp2693
g73
(dp2694
g93
g94
ssg82
g2688
sg75
(lp2695
S'session_id_mvstore'
p2696
asbag68
(g89
g70
NtRp2697
(dp2698
g73
(dp2699
g100
g101
ssg82
g2688
sg75
(lp2700
S':'
asbag68
(g89
g70
NtRp2701
(dp2702
g73
(dp2703
sg82
g2688
sg75
(lp2704
g68
(g69
g70
NtRp2705
(dp2706
g73
(dp2707
g81
I4
ssg82
g2701
sg75
(lp2708
g68
(g77
g70
NtRp2709
(dp2710
g73
(dp2711
g81
I3
ssg82
Nsg75
(lp2712
g68
(g84
g70
NtRp2713
(dp2714
g73
(dp2715
sg82
g2709
sg75
(lp2716
g68
(g89
g70
NtRp2717
(dp2718
g73
(dp2719
g93
g94
ssg82
g2713
sg75
(lp2720
g282
asbag68
(g89
g70
NtRp2721
(dp2722
g73
(dp2723
g100
g101
ssg82
g2713
sg75
(lp2724
S':'
asbag68
(g89
g70
NtRp2725
(dp2726
g73
(dp2727
sg82
g2713
sg75
(lp2728
g68
(g69
g70
NtRp2729
(dp2730
g73
(dp2731
g81
I3
ssg82
g2725
sg75
(lp2732
S''
asbasbasbag68
(g84
g70
NtRp2733
(dp2734
g73
(dp2735
sg82
g2709
sg75
(lp2736
g68
(g89
g70
NtRp2737
(dp2738
g73
(dp2739
g93
g94
ssg82
g2733
sg75
(lp2740
g303
asbag68
(g89
g70
NtRp2741
(dp2742
g73
(dp2743
g100
g101
ssg82
g2733
sg75
(lp2744
S':'
asbag68
(g89
g70
NtRp2745
(dp2746
g73
(dp2747
sg82
g2733
sg75
(lp2748
g68
(g69
g70
NtRp2749
(dp2750
g73
(dp2751
g81
I3
ssg82
g2745
sg75
(lp2752
S''
asbasbasbag68
(g84
g70
NtRp2753
(dp2754
g73
(dp2755
sg82
g2709
sg75
(lp2756
g68
(g89
g70
NtRp2757
(dp2758
g73
(dp2759
g93
g94
ssg82
g2753
sg75
(lp2760
g324
asbag68
(g89
g70
NtRp2761
(dp2762
g73
(dp2763
g100
g101
ssg82
g2753
sg75
(lp2764
S':'
asbag68
(g89
g70
NtRp2765
(dp2766
g73
(dp2767
sg82
g2753
sg75
(lp2768
g68
(g69
g70
NtRp2769
(dp2770
g73
(dp2771
g81
I3
ssg82
g2765
sg75
(lp2772
S''
asbasbasbag68
(g84
g70
NtRp2773
(dp2774
g73
(dp2775
sg82
g2709
sg75
(lp2776
g68
(g89
g70
NtRp2777
(dp2778
g73
(dp2779
g93
g94
ssg82
g2773
sg75
(lp2780
g345
asbag68
(g89
g70
NtRp2781
(dp2782
g73
(dp2783
g100
g101
ssg82
g2773
sg75
(lp2784
S':'
asbag68
(g89
g70
NtRp2785
(dp2786
g73
(dp2787
sg82
g2773
sg75
(lp2788
g68
(g69
g70
NtRp2789
(dp2790
g73
(dp2791
g81
I3
ssg82
g2785
sg75
(lp2792
S''
asbasbasbag68
(g84
g70
NtRp2793
(dp2794
g73
(dp2795
sg82
g2709
sg75
(lp2796
g68
(g89
g70
NtRp2797
(dp2798
g73
(dp2799
g93
g94
ssg82
g2793
sg75
(lp2800
g366
asbag68
(g89
g70
NtRp2801
(dp2802
g73
(dp2803
g100
g101
ssg82
g2793
sg75
(lp2804
S':'
asbag68
(g89
g70
NtRp2805
(dp2806
g73
(dp2807
sg82
g2793
sg75
(lp2808
g68
(g69
g70
NtRp2809
(dp2810
g73
(dp2811
g81
I3
ssg82
g2805
sg75
(lp2812
S''
asbasbasbag68
(g84
g70
NtRp2813
(dp2814
g73
(dp2815
sg82
g2709
sg75
(lp2816
g68
(g89
g70
NtRp2817
(dp2818
g73
(dp2819
g93
g94
ssg82
g2813
sg75
(lp2820
g387
asbag68
(g89
g70
NtRp2821
(dp2822
g73
(dp2823
g100
g101
ssg82
g2813
sg75
(lp2824
S':'
asbag68
(g89
g70
NtRp2825
(dp2826
g73
(dp2827
sg82
g2813
sg75
(lp2828
g68
(g69
g70
NtRp2829
(dp2830
g73
(dp2831
g81
I3
ssg82
g2825
sg75
(lp2832
S'/'
asbasbasbag68
(g84
g70
NtRp2833
(dp2834
g73
(dp2835
sg82
g2709
sg75
(lp2836
g68
(g89
g70
NtRp2837
(dp2838
g73
(dp2839
g93
g94
ssg82
g2833
sg75
(lp2840
g408
asbag68
(g89
g70
NtRp2841
(dp2842
g73
(dp2843
g100
g101
ssg82
g2833
sg75
(lp2844
S':'
asbag68
(g89
g70
NtRp2845
(dp2846
g73
(dp2847
sg82
g2833
sg75
(lp2848
g68
(g69
g70
NtRp2849
(dp2850
g73
(dp2851
g81
I3
ssg82
g2845
sg75
(lp2852
S''
asbasbasbag68
(g84
g70
NtRp2853
(dp2854
g73
(dp2855
sg82
g2709
sg75
(lp2856
g68
(g89
g70
NtRp2857
(dp2858
g73
(dp2859
g93
g94
ssg82
g2853
sg75
(lp2860
g429
asbag68
(g89
g70
NtRp2861
(dp2862
g73
(dp2863
g100
g101
ssg82
g2853
sg75
(lp2864
S':'
asbag68
(g89
g70
NtRp2865
(dp2866
g73
(dp2867
sg82
g2853
sg75
(lp2868
g68
(g69
g70
NtRp2869
(dp2870
g73
(dp2871
g81
I3
ssg82
g2865
sg75
(lp2872
S''
asbasbasbasbasbasbasbasbasbasbasbag68
(g84
g70
NtRp2873
(dp2874
g73
(dp2875
sg82
g2639
sg75
(lp2876
g68
(g89
g70
NtRp2877
(dp2878
g73
(dp2879
g93
g94
ssg82
g2873
sg75
(lp2880
S'files'
p2881
asbag68
(g89
g70
NtRp2882
(dp2883
g73
(dp2884
g100
g101
ssg82
g2873
sg75
(lp2885
S':'
asbag68
(g89
g70
NtRp2886
(dp2887
g73
(dp2888
sg82
g2873
sg75
(lp2889
g68
(g69
g70
NtRp2890
(dp2891
g73
(dp2892
g81
I5
ssg82
g2886
sg75
(lp2893
g68
(g77
g70
NtRp2894
(dp2895
g73
(dp2896
g81
I4
ssg82
Nsg75
(lp2897
sbasbasbasbag68
(g84
g70
NtRp2898
(dp2899
g73
(dp2900
sg82
g2639
sg75
(lp2901
g68
(g89
g70
NtRp2902
(dp2903
g73
(dp2904
g93
g94
ssg82
g2898
sg75
(lp2905
S'flash'
p2906
asbag68
(g89
g70
NtRp2907
(dp2908
g73
(dp2909
g100
g101
ssg82
g2898
sg75
(lp2910
S':'
asbag68
(g89
g70
NtRp2911
(dp2912
g73
(dp2913
sg82
g2898
sg75
(lp2914
g68
(g69
g70
NtRp2915
(dp2916
g73
(dp2917
g81
I5
ssg82
g2911
sg75
(lp2918
S''
asbasbasbag68
(g84
g70
NtRp2919
(dp2920
g73
(dp2921
sg82
g2639
sg75
(lp2922
g68
(g89
g70
NtRp2923
(dp2924
g73
(dp2925
g93
g94
ssg82
g2919
sg75
(lp2926
S'headers'
p2927
asbag68
(g89
g70
NtRp2928
(dp2929
g73
(dp2930
g100
g101
ssg82
g2919
sg75
(lp2931
S':'
asbag68
(g89
g70
NtRp2932
(dp2933
g73
(dp2934
sg82
g2919
sg75
(lp2935
g68
(g69
g70
NtRp2936
(dp2937
g73
(dp2938
g81
I5
ssg82
g2932
sg75
(lp2939
g68
(g77
g70
NtRp2940
(dp2941
g73
(dp2942
g81
I4
ssg82
Nsg75
(lp2943
g68
(g84
g70
NtRp2944
(dp2945
g73
(dp2946
sg82
g2940
sg75
(lp2947
g68
(g89
g70
NtRp2948
(dp2949
g73
(dp2950
g93
g94
ssg82
g2944
sg75
(lp2951
S'Cache-Control'
p2952
asbag68
(g89
g70
NtRp2953
(dp2954
g73
(dp2955
g100
g101
ssg82
g2944
sg75
(lp2956
S':'
asbag68
(g89
g70
NtRp2957
(dp2958
g73
(dp2959
sg82
g2944
sg75
(lp2960
g68
(g69
g70
NtRp2961
(dp2962
g73
(dp2963
g81
I4
ssg82
g2957
sg75
(lp2964
S'no-store, no-cache, must-revalidate, post-check=0, pre-check=0'
p2965
asbasbasbag68
(g84
g70
NtRp2966
(dp2967
g73
(dp2968
sg82
g2940
sg75
(lp2969
g68
(g89
g70
NtRp2970
(dp2971
g73
(dp2972
g93
g94
ssg82
g2966
sg75
(lp2973
S'Content-Type'
p2974
asbag68
(g89
g70
NtRp2975
(dp2976
g73
(dp2977
g100
g101
ssg82
g2966
sg75
(lp2978
S':'
asbag68
(g89
g70
NtRp2979
(dp2980
g73
(dp2981
sg82
g2966
sg75
(lp2982
g68
(g69
g70
NtRp2983
(dp2984
g73
(dp2985
g81
I4
ssg82
g2979
sg75
(lp2986
S'text/html; charset=utf-8'
p2987
asbasbasbag68
(g84
g70
NtRp2988
(dp2989
g73
(dp2990
sg82
g2940
sg75
(lp2991
g68
(g89
g70
NtRp2992
(dp2993
g73
(dp2994
g93
g94
ssg82
g2988
sg75
(lp2995
S'Expires'
p2996
asbag68
(g89
g70
NtRp2997
(dp2998
g73
(dp2999
g100
g101
ssg82
g2988
sg75
(lp3000
S':'
asbag68
(g89
g70
NtRp3001
(dp3002
g73
(dp3003
sg82
g2988
sg75
(lp3004
g68
(g69
g70
NtRp3005
(dp3006
g73
(dp3007
g81
I4
ssg82
g3001
sg75
(lp3008
S'Sun, 19 Jun 2011 04:34:02 GMT'
p3009
asbasbasbag68
(g84
g70
NtRp3010
(dp3011
g73
(dp3012
sg82
g2940
sg75
(lp3013
g68
(g89
g70
NtRp3014
(dp3015
g73
(dp3016
g93
g94
ssg82
g3010
sg75
(lp3017
S'Pragma'
p3018
asbag68
(g89
g70
NtRp3019
(dp3020
g73
(dp3021
g100
g101
ssg82
g3010
sg75
(lp3022
S':'
asbag68
(g89
g70
NtRp3023
(dp3024
g73
(dp3025
sg82
g3010
sg75
(lp3026
g68
(g69
g70
NtRp3027
(dp3028
g73
(dp3029
g81
I4
ssg82
g3023
sg75
(lp3030
S'no-cache'
p3031
asbasbasbag68
(g84
g70
NtRp3032
(dp3033
g73
(dp3034
sg82
g2940
sg75
(lp3035
g68
(g89
g70
NtRp3036
(dp3037
g73
(dp3038
g93
g94
ssg82
g3032
sg75
(lp3039
S'X-Powered-By'
p3040
asbag68
(g89
g70
NtRp3041
(dp3042
g73
(dp3043
g100
g101
ssg82
g3032
sg75
(lp3044
S':'
asbag68
(g89
g70
NtRp3045
(dp3046
g73
(dp3047
sg82
g3032
sg75
(lp3048
g68
(g69
g70
NtRp3049
(dp3050
g73
(dp3051
g81
I4
ssg82
g3045
sg75
(lp3052
S'web2py'
p3053
asbasbasbasbasbasbasbag68
(g84
g70
NtRp3054
(dp3055
g73
(dp3056
sg82
g2639
sg75
(lp3057
g68
(g89
g70
NtRp3058
(dp3059
g73
(dp3060
g93
g94
ssg82
g3054
sg75
(lp3061
S'menu'
p3062
asbag68
(g89
g70
NtRp3063
(dp3064
g73
(dp3065
g100
g101
ssg82
g3054
sg75
(lp3066
S':'
asbag68
(g89
g70
NtRp3067
(dp3068
g73
(dp3069
sg82
g3054
sg75
(lp3070
g68
(g69
g70
NtRp3071
(dp3072
g73
(dp3073
g81
I5
ssg82
g3067
sg75
(lp3074
g68
(g77
g70
NtRp3075
(dp3076
g73
(dp3077
g81
I4
ssg82
Nsg75
(lp3078
sbasbasbasbag68
(g84
g70
NtRp3079
(dp3080
g73
(dp3081
sg82
g2639
sg75
(lp3082
g68
(g89
g70
NtRp3083
(dp3084
g73
(dp3085
g93
g94
ssg82
g3079
sg75
(lp3086
S'meta'
p3087
asbag68
(g89
g70
NtRp3088
(dp3089
g73
(dp3090
g100
g101
ssg82
g3079
sg75
(lp3091
S':'
asbag68
(g89
g70
NtRp3092
(dp3093
g73
(dp3094
sg82
g3079
sg75
(lp3095
g68
(g69
g70
NtRp3096
(dp3097
g73
(dp3098
g81
I5
ssg82
g3092
sg75
(lp3099
g68
(g77
g70
NtRp3100
(dp3101
g73
(dp3102
g81
I4
ssg82
Nsg75
(lp3103
sbasbasbasbag68
(g84
g70
NtRp3104
(dp3105
g73
(dp3106
sg82
g2639
sg75
(lp3107
g68
(g89
g70
NtRp3108
(dp3109
g73
(dp3110
g93
g94
ssg82
g3104
sg75
(lp3111
S'postprocessing'
p3112
asbag68
(g89
g70
NtRp3113
(dp3114
g73
(dp3115
g100
g101
ssg82
g3104
sg75
(lp3116
S':'
asbag68
(g89
g70
NtRp3117
(dp3118
g73
(dp3119
sg82
g3104
sg75
(lp3120
g68
(g69
g70
NtRp3121
(dp3122
g73
(dp3123
g81
I5
ssg82
g3117
sg75
(lp3124
g68
(g77
g70
NtRp3125
(dp3126
g73
(dp3127
g81
I4
ssg82
Nsg75
(lp3128
sbasbasbasbag68
(g84
g70
NtRp3129
(dp3130
g73
(dp3131
sg82
g2639
sg75
(lp3132
g68
(g89
g70
NtRp3133
(dp3134
g73
(dp3135
g93
g94
ssg82
g3129
sg75
(lp3136
S'session_file'
p3137
asbag68
(g89
g70
NtRp3138
(dp3139
g73
(dp3140
g100
g101
ssg82
g3129
sg75
(lp3141
S':'
asbag68
(g89
g70
NtRp3142
(dp3143
g73
(dp3144
sg82
g3129
sg75
(lp3145
g68
(g69
g70
NtRp3146
(dp3147
g73
(dp3148
g81
I5
ssg82
g3142
sg75
(lp3149
S"<open file '/home/marco/proyectos/web2py-trunk/applications/mvstore/sessions/127.0.0.1-50654ecb-cdf9-4d07-aebd-7df319d2e714', mode 'rb+' at 0x26a94b0>"
p3150
asbasbasbag68
(g84
g70
NtRp3151
(dp3152
g73
(dp3153
sg82
g2639
sg75
(lp3154
g68
(g89
g70
NtRp3155
(dp3156
g73
(dp3157
g93
g94
ssg82
g3151
sg75
(lp3158
S'session_filename'
p3159
asbag68
(g89
g70
NtRp3160
(dp3161
g73
(dp3162
g100
g101
ssg82
g3151
sg75
(lp3163
S':'
asbag68
(g89
g70
NtRp3164
(dp3165
g73
(dp3166
sg82
g3151
sg75
(lp3167
g68
(g69
g70
NtRp3168
(dp3169
g73
(dp3170
g81
I5
ssg82
g3164
sg75
(lp3171
S'/home/marco/proyectos/web2py-trunk/applications/mvstore/sessions/127.0.0.1-50654ecb-cdf9-4d07-aebd-7df319d2e714'
p3172
asbasbasbag68
(g84
g70
NtRp3173
(dp3174
g73
(dp3175
sg82
g2639
sg75
(lp3176
g68
(g89
g70
NtRp3177
(dp3178
g73
(dp3179
g93
g94
ssg82
g3173
sg75
(lp3180
S'session_id'
p3181
asbag68
(g89
g70
NtRp3182
(dp3183
g73
(dp3184
g100
g101
ssg82
g3173
sg75
(lp3185
S':'
asbag68
(g89
g70
NtRp3186
(dp3187
g73
(dp3188
sg82
g3173
sg75
(lp3189
g68
(g69
g70
NtRp3190
(dp3191
g73
(dp3192
g81
I5
ssg82
g3186
sg75
(lp3193
S'127.0.0.1-50654ecb-cdf9-4d07-aebd-7df319d2e714'
p3194
asbasbasbag68
(g84
g70
NtRp3195
(dp3196
g73
(dp3197
sg82
g2639
sg75
(lp3198
g68
(g89
g70
NtRp3199
(dp3200
g73
(dp3201
g93
g94
ssg82
g3195
sg75
(lp3202
S'session_id_name'
p3203
asbag68
(g89
g70
NtRp3204
(dp3205
g73
(dp3206
g100
g101
ssg82
g3195
sg75
(lp3207
S':'
asbag68
(g89
g70
NtRp3208
(dp3209
g73
(dp3210
sg82
g3195
sg75
(lp3211
g68
(g69
g70
NtRp3212
(dp3213
g73
(dp3214
g81
I5
ssg82
g3208
sg75
(lp3215
g2696
asbasbasbag68
(g84
g70
NtRp3216
(dp3217
g73
(dp3218
sg82
g2639
sg75
(lp3219
g68
(g89
g70
NtRp3220
(dp3221
g73
(dp3222
g93
g94
ssg82
g3216
sg75
(lp3223
S'session_locked'
p3224
asbag68
(g89
g70
NtRp3225
(dp3226
g73
(dp3227
g100
g101
ssg82
g3216
sg75
(lp3228
S':'
asbag68
(g89
g70
NtRp3229
(dp3230
g73
(dp3231
sg82
g3216
sg75
(lp3232
g68
(g69
g70
NtRp3233
(dp3234
g73
(dp3235
g81
I5
ssg82
g3229
sg75
(lp3236
g1581
asbasbasbag68
(g84
g70
NtRp3237
(dp3238
g73
(dp3239
sg82
g2639
sg75
(lp3240
g68
(g89
g70
NtRp3241
(dp3242
g73
(dp3243
g93
g94
ssg82
g3237
sg75
(lp3244
S'session_new'
p3245
asbag68
(g89
g70
NtRp3246
(dp3247
g73
(dp3248
g100
g101
ssg82
g3237
sg75
(lp3249
S':'
asbag68
(g89
g70
NtRp3250
(dp3251
g73
(dp3252
sg82
g3237
sg75
(lp3253
g68
(g69
g70
NtRp3254
(dp3255
g73
(dp3256
g81
I5
ssg82
g3250
sg75
(lp3257
g111
asbasbasbag68
(g84
g70
NtRp3258
(dp3259
g73
(dp3260
sg82
g2639
sg75
(lp3261
g68
(g89
g70
NtRp3262
(dp3263
g73
(dp3264
g93
g94
ssg82
g3258
sg75
(lp3265
S'status'
p3266
asbag68
(g89
g70
NtRp3267
(dp3268
g73
(dp3269
g100
g101
ssg82
g3258
sg75
(lp3270
S':'
asbag68
(g89
g70
NtRp3271
(dp3272
g73
(dp3273
sg82
g3258
sg75
(lp3274
g68
(g69
g70
NtRp3275
(dp3276
g73
(dp3277
g81
I5
ssg82
g3271
sg75
(lp3278
S'200'
p3279
asbasbasbag68
(g84
g70
NtRp3280
(dp3281
g73
(dp3282
sg82
g2639
sg75
(lp3283
g68
(g89
g70
NtRp3284
(dp3285
g73
(dp3286
g93
g94
ssg82
g3280
sg75
(lp3287
g1905
asbag68
(g89
g70
NtRp3288
(dp3289
g73
(dp3290
g100
g101
ssg82
g3280
sg75
(lp3291
S':'
asbag68
(g89
g70
NtRp3292
(dp3293
g73
(dp3294
sg82
g3280
sg75
(lp3295
g68
(g69
g70
NtRp3296
(dp3297
g73
(dp3298
g81
I5
ssg82
g3292
sg75
(lp3299
g1918
asbasbasbag68
(g84
g70
NtRp3300
(dp3301
g73
(dp3302
sg82
g2639
sg75
(lp3303
g68
(g89
g70
NtRp3304
(dp3305
g73
(dp3306
g93
g94
ssg82
g3300
sg75
(lp3307
S'view'
p3308
asbag68
(g89
g70
NtRp3309
(dp3310
g73
(dp3311
g100
g101
ssg82
g3300
sg75
(lp3312
S':'
asbag68
(g89
g70
NtRp3313
(dp3314
g73
(dp3315
sg82
g3300
sg75
(lp3316
g68
(g69
g70
NtRp3317
(dp3318
g73
(dp3319
g81
I5
ssg82
g3313
sg75
(lp3320
S'default/personal.html'
p3321
asbasbasbasbasbsS'locals'
p3322
(dp3323
g3
S"'/home/marco/proyectos/web2py-trunk/applications/mvstore/models/db.py'"
p3324
sg5
S'\'# -*- coding: utf-8 -*-\\n# this file is released ...cargo que se aplica es de $2 por dia")\\n        )\\n\''
p3325
sssS'traceback'
p3326
S'Traceback (most recent call last):\n  File "/home/marco/proyectos/web2py-trunk/gluon/restricted.py", line 191, in restricted\n    ccode = compile2(code,layer)\n  File "/home/marco/proyectos/web2py-trunk/gluon/restricted.py", line 178, in compile2\n    return compile(code.rstrip().replace(\'\\r\\n\',\'\\n\')+\'\\n\', layer, \'exec\')\n  File "/home/marco/proyectos/web2py-trunk/applications/mvstore/models/db.py", line 105\n    Field(\'titulo\',\'string\'),\nSyntaxError: non-keyword arg after keyword arg\n'
p3327
s.