(dp1
S'output'
p2
S''
sS'layer'
p3
S'/home/marco/proyectos/web2py-trunk/applications/mvstore/controllers/default.py'
p4
sS'code'
p5
S'#-*- coding: utf-8 -*-\n# this file is released under public domain and you can use without limitations\n\n#########################################################################\n## This is a samples controller\n## - index is the default action of any application\n## - user is required for authentication and authorization\n## - download is for downloading files uploaded in the db (does streaming)\n## - call exposes all registered services (none by default)\n#########################################################################\n\ndef index():\n    """\n    example action using the internationalization operator T and flash\n    rendered by views/default/index.html or views/generic.html\n    """\n    return dict(message=T(\'Hello World\'))\n\ndef user():\n    """\n    exposes:\n    http://..../[app]/default/user/login\n    http://..../[app]/default/user/logout\n    http://..../[app]/default/user/register\n    http://..../[app]/default/user/profile\n    http://..../[app]/default/user/retrieve_password\n    http://..../[app]/default/user/change_password\n    use @auth.requires_login()\n        @auth.requires_membership(\'group name\')\n        @auth.requires_permission(\'read\',\'table name\',record_id)\n    to decorate functions that need access control\n    """\n    return dict(form=auth())\n\n\ndef download():\n    """\n    allows downloading of uploaded files\n    http://..../[app]/default/download/[filename]\n    """\n    return response.download(request,db)\n\n\ndef call():\n    """\n    exposes services. for example:\n    http://..../[app]/default/call/jsonrpc\n    decorate with @services.jsonrpc the functions to expose\n    supports xml, json, xmlrpc, jsonrpc, amfrpc, rss, csv\n    """\n    session.forget()\n    return service()\n\ndef empleados():\n    form=crud.create(db.empleados)\n    return dict(form=form)\n\ndef clientes():\n    form=crud.create(db.clientes)\n    return dict(form=form)\n\ndef peliculas():\n    form=crud.create(db.peliculas)\n    return dict(form=form)\n\ndef prestamos():\n    form=crud.create(db.prestamos)\n    return dict(form=form)\n\n\nresponse._vars=response._caller(prestamos)\n'
p6
sS'snapshot'
p7
(dp8
S'exception'
p9
(dp10
S'__hash__'
p11
S"<method-wrapper '__hash__' of exceptions.KeyError object>"
p12
sS'__setattr__'
p13
S"<method-wrapper '__setattr__' of exceptions.KeyError object>"
p14
sS'__reduce_ex__'
p15
S'<built-in method __reduce_ex__ of exceptions.KeyError object>'
p16
sS'__getslice__'
p17
S"<method-wrapper '__getslice__' of exceptions.KeyError object>"
p18
sS'__getitem__'
p19
S"<method-wrapper '__getitem__' of exceptions.KeyError object>"
p20
sS'__setstate__'
p21
S'<built-in method __setstate__ of exceptions.KeyError object>'
p22
sS'args'
p23
S"('first_name',)"
p24
sS'__reduce__'
p25
S'<built-in method __reduce__ of exceptions.KeyError object>'
p26
sS'__str__'
p27
S"<method-wrapper '__str__' of exceptions.KeyError object>"
p28
sS'__format__'
p29
S'<built-in method __format__ of exceptions.KeyError object>'
p30
sS'__getattribute__'
p31
S"<method-wrapper '__getattribute__' of exceptions.KeyError object>"
p32
sS'__class__'
p33
S"<type 'exceptions.KeyError'>"
p34
sS'__unicode__'
p35
S'<built-in method __unicode__ of exceptions.KeyError object>'
p36
sS'__delattr__'
p37
S"<method-wrapper '__delattr__' of exceptions.KeyError object>"
p38
sS'__subclasshook__'
p39
S'<built-in method __subclasshook__ of type object>'
p40
sS'__repr__'
p41
S"<method-wrapper '__repr__' of exceptions.KeyError object>"
p42
sS'__dict__'
p43
S'{}'
p44
sS'__sizeof__'
p45
S'<built-in method __sizeof__ of exceptions.KeyError object>'
p46
sS'__doc__'
p47
S"'Mapping key not found.'"
p48
sS'__init__'
p49
S"<method-wrapper '__init__' of exceptions.KeyError object>"
p50
sS'__new__'
p51
S'<built-in method __new__ of type object>'
p52
ssS'evalue'
p53
S"'first_name'"
p54
sS'request'
p55
ccopy_reg
_reconstructor
p56
(cgluon.html
BEAUTIFY
p57
c__builtin__
object
p58
NtRp59
(dp60
S'attributes'
p61
(dp62
sS'components'
p63
(lp64
g56
(cgluon.html
TABLE
p65
g58
NtRp66
(dp67
g61
(dp68
S'level'
p69
I5
ssS'parent'
p70
Nsg63
(lp71
g56
(cgluon.html
TR
p72
g58
NtRp73
(dp74
g61
(dp75
sg70
g66
sg63
(lp76
g56
(cgluon.html
TD
p77
g58
NtRp78
(dp79
g61
(dp80
S'_style'
p81
S'font-weight:bold;'
p82
ssg70
g73
sg63
(lp83
S'ajax'
p84
asbag56
(g77
g58
NtRp85
(dp86
g61
(dp87
S'_valign'
p88
S'top'
p89
ssg70
g73
sg63
(lp90
S':'
asbag56
(g77
g58
NtRp91
(dp92
g61
(dp93
sg70
g73
sg63
(lp94
g56
(g57
g58
NtRp95
(dp96
g61
(dp97
g69
I5
ssg70
g91
sg63
(lp98
S'False'
p99
asbasbasbag56
(g72
g58
NtRp100
(dp101
g61
(dp102
sg70
g66
sg63
(lp103
g56
(g77
g58
NtRp104
(dp105
g61
(dp106
g81
g82
ssg70
g100
sg63
(lp107
S'application'
p108
asbag56
(g77
g58
NtRp109
(dp110
g61
(dp111
g88
g89
ssg70
g100
sg63
(lp112
S':'
asbag56
(g77
g58
NtRp113
(dp114
g61
(dp115
sg70
g100
sg63
(lp116
g56
(g57
g58
NtRp117
(dp118
g61
(dp119
g69
I5
ssg70
g113
sg63
(lp120
S'mvstore'
p121
asbasbasbag56
(g72
g58
NtRp122
(dp123
g61
(dp124
sg70
g66
sg63
(lp125
g56
(g77
g58
NtRp126
(dp127
g61
(dp128
g81
g82
ssg70
g122
sg63
(lp129
g23
asbag56
(g77
g58
NtRp130
(dp131
g61
(dp132
g88
g89
ssg70
g122
sg63
(lp133
S':'
asbag56
(g77
g58
NtRp134
(dp135
g61
(dp136
sg70
g122
sg63
(lp137
g56
(g57
g58
NtRp138
(dp139
g61
(dp140
g69
I5
ssg70
g134
sg63
(lp141
g56
(g65
g58
NtRp142
(dp143
g61
(dp144
g69
I4
ssg70
Nsg63
(lp145
sbasbasbasbag56
(g72
g58
NtRp146
(dp147
g61
(dp148
sg70
g66
sg63
(lp149
g56
(g77
g58
NtRp150
(dp151
g61
(dp152
g81
g82
ssg70
g146
sg63
(lp153
S'body'
p154
asbag56
(g77
g58
NtRp155
(dp156
g61
(dp157
g88
g89
ssg70
g146
sg63
(lp158
S':'
asbag56
(g77
g58
NtRp159
(dp160
g61
(dp161
sg70
g146
sg63
(lp162
g56
(g57
g58
NtRp163
(dp164
g61
(dp165
g69
I5
ssg70
g159
sg63
(lp166
S'<cStringIO.StringO object at 0x2751f10>'
p167
asbasbasbag56
(g72
g58
NtRp168
(dp169
g61
(dp170
sg70
g66
sg63
(lp171
g56
(g77
g58
NtRp172
(dp173
g61
(dp174
g81
g82
ssg70
g168
sg63
(lp175
S'client'
p176
asbag56
(g77
g58
NtRp177
(dp178
g61
(dp179
g88
g89
ssg70
g168
sg63
(lp180
S':'
asbag56
(g77
g58
NtRp181
(dp182
g61
(dp183
sg70
g168
sg63
(lp184
g56
(g57
g58
NtRp185
(dp186
g61
(dp187
g69
I5
ssg70
g181
sg63
(lp188
S'127.0.0.1'
p189
asbasbasbag56
(g72
g58
NtRp190
(dp191
g61
(dp192
sg70
g66
sg63
(lp193
g56
(g77
g58
NtRp194
(dp195
g61
(dp196
g81
g82
ssg70
g190
sg63
(lp197
S'controller'
p198
asbag56
(g77
g58
NtRp199
(dp200
g61
(dp201
g88
g89
ssg70
g190
sg63
(lp202
S':'
asbag56
(g77
g58
NtRp203
(dp204
g61
(dp205
sg70
g190
sg63
(lp206
g56
(g57
g58
NtRp207
(dp208
g61
(dp209
g69
I5
ssg70
g203
sg63
(lp210
S'default'
p211
asbasbasbag56
(g72
g58
NtRp212
(dp213
g61
(dp214
sg70
g66
sg63
(lp215
g56
(g77
g58
NtRp216
(dp217
g61
(dp218
g81
g82
ssg70
g212
sg63
(lp219
S'cookies'
p220
asbag56
(g77
g58
NtRp221
(dp222
g61
(dp223
g88
g89
ssg70
g212
sg63
(lp224
S':'
asbag56
(g77
g58
NtRp225
(dp226
g61
(dp227
sg70
g212
sg63
(lp228
g56
(g57
g58
NtRp229
(dp230
g61
(dp231
g69
I5
ssg70
g225
sg63
(lp232
g56
(g65
g58
NtRp233
(dp234
g61
(dp235
g69
I4
ssg70
Nsg63
(lp236
g56
(g72
g58
NtRp237
(dp238
g61
(dp239
sg70
g233
sg63
(lp240
g56
(g77
g58
NtRp241
(dp242
g61
(dp243
g81
g82
ssg70
g237
sg63
(lp244
S'session_id_admin'
p245
asbag56
(g77
g58
NtRp246
(dp247
g61
(dp248
g88
g89
ssg70
g237
sg63
(lp249
S':'
asbag56
(g77
g58
NtRp250
(dp251
g61
(dp252
sg70
g237
sg63
(lp253
g56
(g57
g58
NtRp254
(dp255
g61
(dp256
g69
I4
ssg70
g250
sg63
(lp257
g56
(g65
g58
NtRp258
(dp259
g61
(dp260
g69
I3
ssg70
Nsg63
(lp261
g56
(g72
g58
NtRp262
(dp263
g61
(dp264
sg70
g258
sg63
(lp265
g56
(g77
g58
NtRp266
(dp267
g61
(dp268
g81
g82
ssg70
g262
sg63
(lp269
S'comment'
p270
asbag56
(g77
g58
NtRp271
(dp272
g61
(dp273
g88
g89
ssg70
g262
sg63
(lp274
S':'
asbag56
(g77
g58
NtRp275
(dp276
g61
(dp277
sg70
g262
sg63
(lp278
g56
(g57
g58
NtRp279
(dp280
g61
(dp281
g69
I3
ssg70
g275
sg63
(lp282
S''
asbasbasbag56
(g72
g58
NtRp283
(dp284
g61
(dp285
sg70
g258
sg63
(lp286
g56
(g77
g58
NtRp287
(dp288
g61
(dp289
g81
g82
ssg70
g283
sg63
(lp290
S'domain'
p291
asbag56
(g77
g58
NtRp292
(dp293
g61
(dp294
g88
g89
ssg70
g283
sg63
(lp295
S':'
asbag56
(g77
g58
NtRp296
(dp297
g61
(dp298
sg70
g283
sg63
(lp299
g56
(g57
g58
NtRp300
(dp301
g61
(dp302
g69
I3
ssg70
g296
sg63
(lp303
S''
asbasbasbag56
(g72
g58
NtRp304
(dp305
g61
(dp306
sg70
g258
sg63
(lp307
g56
(g77
g58
NtRp308
(dp309
g61
(dp310
g81
g82
ssg70
g304
sg63
(lp311
S'expires'
p312
asbag56
(g77
g58
NtRp313
(dp314
g61
(dp315
g88
g89
ssg70
g304
sg63
(lp316
S':'
asbag56
(g77
g58
NtRp317
(dp318
g61
(dp319
sg70
g304
sg63
(lp320
g56
(g57
g58
NtRp321
(dp322
g61
(dp323
g69
I3
ssg70
g317
sg63
(lp324
S''
asbasbasbag56
(g72
g58
NtRp325
(dp326
g61
(dp327
sg70
g258
sg63
(lp328
g56
(g77
g58
NtRp329
(dp330
g61
(dp331
g81
g82
ssg70
g325
sg63
(lp332
S'httponly'
p333
asbag56
(g77
g58
NtRp334
(dp335
g61
(dp336
g88
g89
ssg70
g325
sg63
(lp337
S':'
asbag56
(g77
g58
NtRp338
(dp339
g61
(dp340
sg70
g325
sg63
(lp341
g56
(g57
g58
NtRp342
(dp343
g61
(dp344
g69
I3
ssg70
g338
sg63
(lp345
S''
asbasbasbag56
(g72
g58
NtRp346
(dp347
g61
(dp348
sg70
g258
sg63
(lp349
g56
(g77
g58
NtRp350
(dp351
g61
(dp352
g81
g82
ssg70
g346
sg63
(lp353
S'max-age'
p354
asbag56
(g77
g58
NtRp355
(dp356
g61
(dp357
g88
g89
ssg70
g346
sg63
(lp358
S':'
asbag56
(g77
g58
NtRp359
(dp360
g61
(dp361
sg70
g346
sg63
(lp362
g56
(g57
g58
NtRp363
(dp364
g61
(dp365
g69
I3
ssg70
g359
sg63
(lp366
S''
asbasbasbag56
(g72
g58
NtRp367
(dp368
g61
(dp369
sg70
g258
sg63
(lp370
g56
(g77
g58
NtRp371
(dp372
g61
(dp373
g81
g82
ssg70
g367
sg63
(lp374
S'path'
p375
asbag56
(g77
g58
NtRp376
(dp377
g61
(dp378
g88
g89
ssg70
g367
sg63
(lp379
S':'
asbag56
(g77
g58
NtRp380
(dp381
g61
(dp382
sg70
g367
sg63
(lp383
g56
(g57
g58
NtRp384
(dp385
g61
(dp386
g69
I3
ssg70
g380
sg63
(lp387
S''
asbasbasbag56
(g72
g58
NtRp388
(dp389
g61
(dp390
sg70
g258
sg63
(lp391
g56
(g77
g58
NtRp392
(dp393
g61
(dp394
g81
g82
ssg70
g388
sg63
(lp395
S'secure'
p396
asbag56
(g77
g58
NtRp397
(dp398
g61
(dp399
g88
g89
ssg70
g388
sg63
(lp400
S':'
asbag56
(g77
g58
NtRp401
(dp402
g61
(dp403
sg70
g388
sg63
(lp404
g56
(g57
g58
NtRp405
(dp406
g61
(dp407
g69
I3
ssg70
g401
sg63
(lp408
S''
asbasbasbag56
(g72
g58
NtRp409
(dp410
g61
(dp411
sg70
g258
sg63
(lp412
g56
(g77
g58
NtRp413
(dp414
g61
(dp415
g81
g82
ssg70
g409
sg63
(lp416
S'version'
p417
asbag56
(g77
g58
NtRp418
(dp419
g61
(dp420
g88
g89
ssg70
g409
sg63
(lp421
S':'
asbag56
(g77
g58
NtRp422
(dp423
g61
(dp424
sg70
g409
sg63
(lp425
g56
(g57
g58
NtRp426
(dp427
g61
(dp428
g69
I3
ssg70
g422
sg63
(lp429
S''
asbasbasbasbasbasbasbag56
(g72
g58
NtRp430
(dp431
g61
(dp432
sg70
g233
sg63
(lp433
g56
(g77
g58
NtRp434
(dp435
g61
(dp436
g81
g82
ssg70
g430
sg63
(lp437
S'session_id_jornadasdemo'
p438
asbag56
(g77
g58
NtRp439
(dp440
g61
(dp441
g88
g89
ssg70
g430
sg63
(lp442
S':'
asbag56
(g77
g58
NtRp443
(dp444
g61
(dp445
sg70
g430
sg63
(lp446
g56
(g57
g58
NtRp447
(dp448
g61
(dp449
g69
I4
ssg70
g443
sg63
(lp450
g56
(g65
g58
NtRp451
(dp452
g61
(dp453
g69
I3
ssg70
Nsg63
(lp454
g56
(g72
g58
NtRp455
(dp456
g61
(dp457
sg70
g451
sg63
(lp458
g56
(g77
g58
NtRp459
(dp460
g61
(dp461
g81
g82
ssg70
g455
sg63
(lp462
g270
asbag56
(g77
g58
NtRp463
(dp464
g61
(dp465
g88
g89
ssg70
g455
sg63
(lp466
S':'
asbag56
(g77
g58
NtRp467
(dp468
g61
(dp469
sg70
g455
sg63
(lp470
g56
(g57
g58
NtRp471
(dp472
g61
(dp473
g69
I3
ssg70
g467
sg63
(lp474
S''
asbasbasbag56
(g72
g58
NtRp475
(dp476
g61
(dp477
sg70
g451
sg63
(lp478
g56
(g77
g58
NtRp479
(dp480
g61
(dp481
g81
g82
ssg70
g475
sg63
(lp482
g291
asbag56
(g77
g58
NtRp483
(dp484
g61
(dp485
g88
g89
ssg70
g475
sg63
(lp486
S':'
asbag56
(g77
g58
NtRp487
(dp488
g61
(dp489
sg70
g475
sg63
(lp490
g56
(g57
g58
NtRp491
(dp492
g61
(dp493
g69
I3
ssg70
g487
sg63
(lp494
S''
asbasbasbag56
(g72
g58
NtRp495
(dp496
g61
(dp497
sg70
g451
sg63
(lp498
g56
(g77
g58
NtRp499
(dp500
g61
(dp501
g81
g82
ssg70
g495
sg63
(lp502
g312
asbag56
(g77
g58
NtRp503
(dp504
g61
(dp505
g88
g89
ssg70
g495
sg63
(lp506
S':'
asbag56
(g77
g58
NtRp507
(dp508
g61
(dp509
sg70
g495
sg63
(lp510
g56
(g57
g58
NtRp511
(dp512
g61
(dp513
g69
I3
ssg70
g507
sg63
(lp514
S''
asbasbasbag56
(g72
g58
NtRp515
(dp516
g61
(dp517
sg70
g451
sg63
(lp518
g56
(g77
g58
NtRp519
(dp520
g61
(dp521
g81
g82
ssg70
g515
sg63
(lp522
g333
asbag56
(g77
g58
NtRp523
(dp524
g61
(dp525
g88
g89
ssg70
g515
sg63
(lp526
S':'
asbag56
(g77
g58
NtRp527
(dp528
g61
(dp529
sg70
g515
sg63
(lp530
g56
(g57
g58
NtRp531
(dp532
g61
(dp533
g69
I3
ssg70
g527
sg63
(lp534
S''
asbasbasbag56
(g72
g58
NtRp535
(dp536
g61
(dp537
sg70
g451
sg63
(lp538
g56
(g77
g58
NtRp539
(dp540
g61
(dp541
g81
g82
ssg70
g535
sg63
(lp542
g354
asbag56
(g77
g58
NtRp543
(dp544
g61
(dp545
g88
g89
ssg70
g535
sg63
(lp546
S':'
asbag56
(g77
g58
NtRp547
(dp548
g61
(dp549
sg70
g535
sg63
(lp550
g56
(g57
g58
NtRp551
(dp552
g61
(dp553
g69
I3
ssg70
g547
sg63
(lp554
S''
asbasbasbag56
(g72
g58
NtRp555
(dp556
g61
(dp557
sg70
g451
sg63
(lp558
g56
(g77
g58
NtRp559
(dp560
g61
(dp561
g81
g82
ssg70
g555
sg63
(lp562
g375
asbag56
(g77
g58
NtRp563
(dp564
g61
(dp565
g88
g89
ssg70
g555
sg63
(lp566
S':'
asbag56
(g77
g58
NtRp567
(dp568
g61
(dp569
sg70
g555
sg63
(lp570
g56
(g57
g58
NtRp571
(dp572
g61
(dp573
g69
I3
ssg70
g567
sg63
(lp574
S''
asbasbasbag56
(g72
g58
NtRp575
(dp576
g61
(dp577
sg70
g451
sg63
(lp578
g56
(g77
g58
NtRp579
(dp580
g61
(dp581
g81
g82
ssg70
g575
sg63
(lp582
g396
asbag56
(g77
g58
NtRp583
(dp584
g61
(dp585
g88
g89
ssg70
g575
sg63
(lp586
S':'
asbag56
(g77
g58
NtRp587
(dp588
g61
(dp589
sg70
g575
sg63
(lp590
g56
(g57
g58
NtRp591
(dp592
g61
(dp593
g69
I3
ssg70
g587
sg63
(lp594
S''
asbasbasbag56
(g72
g58
NtRp595
(dp596
g61
(dp597
sg70
g451
sg63
(lp598
g56
(g77
g58
NtRp599
(dp600
g61
(dp601
g81
g82
ssg70
g595
sg63
(lp602
g417
asbag56
(g77
g58
NtRp603
(dp604
g61
(dp605
g88
g89
ssg70
g595
sg63
(lp606
S':'
asbag56
(g77
g58
NtRp607
(dp608
g61
(dp609
sg70
g595
sg63
(lp610
g56
(g57
g58
NtRp611
(dp612
g61
(dp613
g69
I3
ssg70
g607
sg63
(lp614
S''
asbasbasbasbasbasbasbag56
(g72
g58
NtRp615
(dp616
g61
(dp617
sg70
g233
sg63
(lp618
g56
(g77
g58
NtRp619
(dp620
g61
(dp621
g81
g82
ssg70
g615
sg63
(lp622
S'session_id_moviestore'
p623
asbag56
(g77
g58
NtRp624
(dp625
g61
(dp626
g88
g89
ssg70
g615
sg63
(lp627
S':'
asbag56
(g77
g58
NtRp628
(dp629
g61
(dp630
sg70
g615
sg63
(lp631
g56
(g57
g58
NtRp632
(dp633
g61
(dp634
g69
I4
ssg70
g628
sg63
(lp635
g56
(g65
g58
NtRp636
(dp637
g61
(dp638
g69
I3
ssg70
Nsg63
(lp639
g56
(g72
g58
NtRp640
(dp641
g61
(dp642
sg70
g636
sg63
(lp643
g56
(g77
g58
NtRp644
(dp645
g61
(dp646
g81
g82
ssg70
g640
sg63
(lp647
g270
asbag56
(g77
g58
NtRp648
(dp649
g61
(dp650
g88
g89
ssg70
g640
sg63
(lp651
S':'
asbag56
(g77
g58
NtRp652
(dp653
g61
(dp654
sg70
g640
sg63
(lp655
g56
(g57
g58
NtRp656
(dp657
g61
(dp658
g69
I3
ssg70
g652
sg63
(lp659
S''
asbasbasbag56
(g72
g58
NtRp660
(dp661
g61
(dp662
sg70
g636
sg63
(lp663
g56
(g77
g58
NtRp664
(dp665
g61
(dp666
g81
g82
ssg70
g660
sg63
(lp667
g291
asbag56
(g77
g58
NtRp668
(dp669
g61
(dp670
g88
g89
ssg70
g660
sg63
(lp671
S':'
asbag56
(g77
g58
NtRp672
(dp673
g61
(dp674
sg70
g660
sg63
(lp675
g56
(g57
g58
NtRp676
(dp677
g61
(dp678
g69
I3
ssg70
g672
sg63
(lp679
S''
asbasbasbag56
(g72
g58
NtRp680
(dp681
g61
(dp682
sg70
g636
sg63
(lp683
g56
(g77
g58
NtRp684
(dp685
g61
(dp686
g81
g82
ssg70
g680
sg63
(lp687
g312
asbag56
(g77
g58
NtRp688
(dp689
g61
(dp690
g88
g89
ssg70
g680
sg63
(lp691
S':'
asbag56
(g77
g58
NtRp692
(dp693
g61
(dp694
sg70
g680
sg63
(lp695
g56
(g57
g58
NtRp696
(dp697
g61
(dp698
g69
I3
ssg70
g692
sg63
(lp699
S''
asbasbasbag56
(g72
g58
NtRp700
(dp701
g61
(dp702
sg70
g636
sg63
(lp703
g56
(g77
g58
NtRp704
(dp705
g61
(dp706
g81
g82
ssg70
g700
sg63
(lp707
g333
asbag56
(g77
g58
NtRp708
(dp709
g61
(dp710
g88
g89
ssg70
g700
sg63
(lp711
S':'
asbag56
(g77
g58
NtRp712
(dp713
g61
(dp714
sg70
g700
sg63
(lp715
g56
(g57
g58
NtRp716
(dp717
g61
(dp718
g69
I3
ssg70
g712
sg63
(lp719
S''
asbasbasbag56
(g72
g58
NtRp720
(dp721
g61
(dp722
sg70
g636
sg63
(lp723
g56
(g77
g58
NtRp724
(dp725
g61
(dp726
g81
g82
ssg70
g720
sg63
(lp727
g354
asbag56
(g77
g58
NtRp728
(dp729
g61
(dp730
g88
g89
ssg70
g720
sg63
(lp731
S':'
asbag56
(g77
g58
NtRp732
(dp733
g61
(dp734
sg70
g720
sg63
(lp735
g56
(g57
g58
NtRp736
(dp737
g61
(dp738
g69
I3
ssg70
g732
sg63
(lp739
S''
asbasbasbag56
(g72
g58
NtRp740
(dp741
g61
(dp742
sg70
g636
sg63
(lp743
g56
(g77
g58
NtRp744
(dp745
g61
(dp746
g81
g82
ssg70
g740
sg63
(lp747
g375
asbag56
(g77
g58
NtRp748
(dp749
g61
(dp750
g88
g89
ssg70
g740
sg63
(lp751
S':'
asbag56
(g77
g58
NtRp752
(dp753
g61
(dp754
sg70
g740
sg63
(lp755
g56
(g57
g58
NtRp756
(dp757
g61
(dp758
g69
I3
ssg70
g752
sg63
(lp759
S''
asbasbasbag56
(g72
g58
NtRp760
(dp761
g61
(dp762
sg70
g636
sg63
(lp763
g56
(g77
g58
NtRp764
(dp765
g61
(dp766
g81
g82
ssg70
g760
sg63
(lp767
g396
asbag56
(g77
g58
NtRp768
(dp769
g61
(dp770
g88
g89
ssg70
g760
sg63
(lp771
S':'
asbag56
(g77
g58
NtRp772
(dp773
g61
(dp774
sg70
g760
sg63
(lp775
g56
(g57
g58
NtRp776
(dp777
g61
(dp778
g69
I3
ssg70
g772
sg63
(lp779
S''
asbasbasbag56
(g72
g58
NtRp780
(dp781
g61
(dp782
sg70
g636
sg63
(lp783
g56
(g77
g58
NtRp784
(dp785
g61
(dp786
g81
g82
ssg70
g780
sg63
(lp787
g417
asbag56
(g77
g58
NtRp788
(dp789
g61
(dp790
g88
g89
ssg70
g780
sg63
(lp791
S':'
asbag56
(g77
g58
NtRp792
(dp793
g61
(dp794
sg70
g780
sg63
(lp795
g56
(g57
g58
NtRp796
(dp797
g61
(dp798
g69
I3
ssg70
g792
sg63
(lp799
S''
asbasbasbasbasbasbasbag56
(g72
g58
NtRp800
(dp801
g61
(dp802
sg70
g233
sg63
(lp803
g56
(g77
g58
NtRp804
(dp805
g61
(dp806
g81
g82
ssg70
g800
sg63
(lp807
S'session_id_mvstore'
p808
asbag56
(g77
g58
NtRp809
(dp810
g61
(dp811
g88
g89
ssg70
g800
sg63
(lp812
S':'
asbag56
(g77
g58
NtRp813
(dp814
g61
(dp815
sg70
g800
sg63
(lp816
g56
(g57
g58
NtRp817
(dp818
g61
(dp819
g69
I4
ssg70
g813
sg63
(lp820
g56
(g65
g58
NtRp821
(dp822
g61
(dp823
g69
I3
ssg70
Nsg63
(lp824
g56
(g72
g58
NtRp825
(dp826
g61
(dp827
sg70
g821
sg63
(lp828
g56
(g77
g58
NtRp829
(dp830
g61
(dp831
g81
g82
ssg70
g825
sg63
(lp832
g270
asbag56
(g77
g58
NtRp833
(dp834
g61
(dp835
g88
g89
ssg70
g825
sg63
(lp836
S':'
asbag56
(g77
g58
NtRp837
(dp838
g61
(dp839
sg70
g825
sg63
(lp840
g56
(g57
g58
NtRp841
(dp842
g61
(dp843
g69
I3
ssg70
g837
sg63
(lp844
S''
asbasbasbag56
(g72
g58
NtRp845
(dp846
g61
(dp847
sg70
g821
sg63
(lp848
g56
(g77
g58
NtRp849
(dp850
g61
(dp851
g81
g82
ssg70
g845
sg63
(lp852
g291
asbag56
(g77
g58
NtRp853
(dp854
g61
(dp855
g88
g89
ssg70
g845
sg63
(lp856
S':'
asbag56
(g77
g58
NtRp857
(dp858
g61
(dp859
sg70
g845
sg63
(lp860
g56
(g57
g58
NtRp861
(dp862
g61
(dp863
g69
I3
ssg70
g857
sg63
(lp864
S''
asbasbasbag56
(g72
g58
NtRp865
(dp866
g61
(dp867
sg70
g821
sg63
(lp868
g56
(g77
g58
NtRp869
(dp870
g61
(dp871
g81
g82
ssg70
g865
sg63
(lp872
g312
asbag56
(g77
g58
NtRp873
(dp874
g61
(dp875
g88
g89
ssg70
g865
sg63
(lp876
S':'
asbag56
(g77
g58
NtRp877
(dp878
g61
(dp879
sg70
g865
sg63
(lp880
g56
(g57
g58
NtRp881
(dp882
g61
(dp883
g69
I3
ssg70
g877
sg63
(lp884
S''
asbasbasbag56
(g72
g58
NtRp885
(dp886
g61
(dp887
sg70
g821
sg63
(lp888
g56
(g77
g58
NtRp889
(dp890
g61
(dp891
g81
g82
ssg70
g885
sg63
(lp892
g333
asbag56
(g77
g58
NtRp893
(dp894
g61
(dp895
g88
g89
ssg70
g885
sg63
(lp896
S':'
asbag56
(g77
g58
NtRp897
(dp898
g61
(dp899
sg70
g885
sg63
(lp900
g56
(g57
g58
NtRp901
(dp902
g61
(dp903
g69
I3
ssg70
g897
sg63
(lp904
S''
asbasbasbag56
(g72
g58
NtRp905
(dp906
g61
(dp907
sg70
g821
sg63
(lp908
g56
(g77
g58
NtRp909
(dp910
g61
(dp911
g81
g82
ssg70
g905
sg63
(lp912
g354
asbag56
(g77
g58
NtRp913
(dp914
g61
(dp915
g88
g89
ssg70
g905
sg63
(lp916
S':'
asbag56
(g77
g58
NtRp917
(dp918
g61
(dp919
sg70
g905
sg63
(lp920
g56
(g57
g58
NtRp921
(dp922
g61
(dp923
g69
I3
ssg70
g917
sg63
(lp924
S''
asbasbasbag56
(g72
g58
NtRp925
(dp926
g61
(dp927
sg70
g821
sg63
(lp928
g56
(g77
g58
NtRp929
(dp930
g61
(dp931
g81
g82
ssg70
g925
sg63
(lp932
g375
asbag56
(g77
g58
NtRp933
(dp934
g61
(dp935
g88
g89
ssg70
g925
sg63
(lp936
S':'
asbag56
(g77
g58
NtRp937
(dp938
g61
(dp939
sg70
g925
sg63
(lp940
g56
(g57
g58
NtRp941
(dp942
g61
(dp943
g69
I3
ssg70
g937
sg63
(lp944
S''
asbasbasbag56
(g72
g58
NtRp945
(dp946
g61
(dp947
sg70
g821
sg63
(lp948
g56
(g77
g58
NtRp949
(dp950
g61
(dp951
g81
g82
ssg70
g945
sg63
(lp952
g396
asbag56
(g77
g58
NtRp953
(dp954
g61
(dp955
g88
g89
ssg70
g945
sg63
(lp956
S':'
asbag56
(g77
g58
NtRp957
(dp958
g61
(dp959
sg70
g945
sg63
(lp960
g56
(g57
g58
NtRp961
(dp962
g61
(dp963
g69
I3
ssg70
g957
sg63
(lp964
S''
asbasbasbag56
(g72
g58
NtRp965
(dp966
g61
(dp967
sg70
g821
sg63
(lp968
g56
(g77
g58
NtRp969
(dp970
g61
(dp971
g81
g82
ssg70
g965
sg63
(lp972
g417
asbag56
(g77
g58
NtRp973
(dp974
g61
(dp975
g88
g89
ssg70
g965
sg63
(lp976
S':'
asbag56
(g77
g58
NtRp977
(dp978
g61
(dp979
sg70
g965
sg63
(lp980
g56
(g57
g58
NtRp981
(dp982
g61
(dp983
g69
I3
ssg70
g977
sg63
(lp984
S''
asbasbasbasbasbasbasbag56
(g72
g58
NtRp985
(dp986
g61
(dp987
sg70
g233
sg63
(lp988
g56
(g77
g58
NtRp989
(dp990
g61
(dp991
g81
g82
ssg70
g985
sg63
(lp992
S'session_id_napp'
p993
asbag56
(g77
g58
NtRp994
(dp995
g61
(dp996
g88
g89
ssg70
g985
sg63
(lp997
S':'
asbag56
(g77
g58
NtRp998
(dp999
g61
(dp1000
sg70
g985
sg63
(lp1001
g56
(g57
g58
NtRp1002
(dp1003
g61
(dp1004
g69
I4
ssg70
g998
sg63
(lp1005
g56
(g65
g58
NtRp1006
(dp1007
g61
(dp1008
g69
I3
ssg70
Nsg63
(lp1009
g56
(g72
g58
NtRp1010
(dp1011
g61
(dp1012
sg70
g1006
sg63
(lp1013
g56
(g77
g58
NtRp1014
(dp1015
g61
(dp1016
g81
g82
ssg70
g1010
sg63
(lp1017
g270
asbag56
(g77
g58
NtRp1018
(dp1019
g61
(dp1020
g88
g89
ssg70
g1010
sg63
(lp1021
S':'
asbag56
(g77
g58
NtRp1022
(dp1023
g61
(dp1024
sg70
g1010
sg63
(lp1025
g56
(g57
g58
NtRp1026
(dp1027
g61
(dp1028
g69
I3
ssg70
g1022
sg63
(lp1029
S''
asbasbasbag56
(g72
g58
NtRp1030
(dp1031
g61
(dp1032
sg70
g1006
sg63
(lp1033
g56
(g77
g58
NtRp1034
(dp1035
g61
(dp1036
g81
g82
ssg70
g1030
sg63
(lp1037
g291
asbag56
(g77
g58
NtRp1038
(dp1039
g61
(dp1040
g88
g89
ssg70
g1030
sg63
(lp1041
S':'
asbag56
(g77
g58
NtRp1042
(dp1043
g61
(dp1044
sg70
g1030
sg63
(lp1045
g56
(g57
g58
NtRp1046
(dp1047
g61
(dp1048
g69
I3
ssg70
g1042
sg63
(lp1049
S''
asbasbasbag56
(g72
g58
NtRp1050
(dp1051
g61
(dp1052
sg70
g1006
sg63
(lp1053
g56
(g77
g58
NtRp1054
(dp1055
g61
(dp1056
g81
g82
ssg70
g1050
sg63
(lp1057
g312
asbag56
(g77
g58
NtRp1058
(dp1059
g61
(dp1060
g88
g89
ssg70
g1050
sg63
(lp1061
S':'
asbag56
(g77
g58
NtRp1062
(dp1063
g61
(dp1064
sg70
g1050
sg63
(lp1065
g56
(g57
g58
NtRp1066
(dp1067
g61
(dp1068
g69
I3
ssg70
g1062
sg63
(lp1069
S''
asbasbasbag56
(g72
g58
NtRp1070
(dp1071
g61
(dp1072
sg70
g1006
sg63
(lp1073
g56
(g77
g58
NtRp1074
(dp1075
g61
(dp1076
g81
g82
ssg70
g1070
sg63
(lp1077
g333
asbag56
(g77
g58
NtRp1078
(dp1079
g61
(dp1080
g88
g89
ssg70
g1070
sg63
(lp1081
S':'
asbag56
(g77
g58
NtRp1082
(dp1083
g61
(dp1084
sg70
g1070
sg63
(lp1085
g56
(g57
g58
NtRp1086
(dp1087
g61
(dp1088
g69
I3
ssg70
g1082
sg63
(lp1089
S''
asbasbasbag56
(g72
g58
NtRp1090
(dp1091
g61
(dp1092
sg70
g1006
sg63
(lp1093
g56
(g77
g58
NtRp1094
(dp1095
g61
(dp1096
g81
g82
ssg70
g1090
sg63
(lp1097
g354
asbag56
(g77
g58
NtRp1098
(dp1099
g61
(dp1100
g88
g89
ssg70
g1090
sg63
(lp1101
S':'
asbag56
(g77
g58
NtRp1102
(dp1103
g61
(dp1104
sg70
g1090
sg63
(lp1105
g56
(g57
g58
NtRp1106
(dp1107
g61
(dp1108
g69
I3
ssg70
g1102
sg63
(lp1109
S''
asbasbasbag56
(g72
g58
NtRp1110
(dp1111
g61
(dp1112
sg70
g1006
sg63
(lp1113
g56
(g77
g58
NtRp1114
(dp1115
g61
(dp1116
g81
g82
ssg70
g1110
sg63
(lp1117
g375
asbag56
(g77
g58
NtRp1118
(dp1119
g61
(dp1120
g88
g89
ssg70
g1110
sg63
(lp1121
S':'
asbag56
(g77
g58
NtRp1122
(dp1123
g61
(dp1124
sg70
g1110
sg63
(lp1125
g56
(g57
g58
NtRp1126
(dp1127
g61
(dp1128
g69
I3
ssg70
g1122
sg63
(lp1129
S''
asbasbasbag56
(g72
g58
NtRp1130
(dp1131
g61
(dp1132
sg70
g1006
sg63
(lp1133
g56
(g77
g58
NtRp1134
(dp1135
g61
(dp1136
g81
g82
ssg70
g1130
sg63
(lp1137
g396
asbag56
(g77
g58
NtRp1138
(dp1139
g61
(dp1140
g88
g89
ssg70
g1130
sg63
(lp1141
S':'
asbag56
(g77
g58
NtRp1142
(dp1143
g61
(dp1144
sg70
g1130
sg63
(lp1145
g56
(g57
g58
NtRp1146
(dp1147
g61
(dp1148
g69
I3
ssg70
g1142
sg63
(lp1149
S''
asbasbasbag56
(g72
g58
NtRp1150
(dp1151
g61
(dp1152
sg70
g1006
sg63
(lp1153
g56
(g77
g58
NtRp1154
(dp1155
g61
(dp1156
g81
g82
ssg70
g1150
sg63
(lp1157
g417
asbag56
(g77
g58
NtRp1158
(dp1159
g61
(dp1160
g88
g89
ssg70
g1150
sg63
(lp1161
S':'
asbag56
(g77
g58
NtRp1162
(dp1163
g61
(dp1164
sg70
g1150
sg63
(lp1165
g56
(g57
g58
NtRp1166
(dp1167
g61
(dp1168
g69
I3
ssg70
g1162
sg63
(lp1169
S''
asbasbasbasbasbasbasbag56
(g72
g58
NtRp1170
(dp1171
g61
(dp1172
sg70
g233
sg63
(lp1173
g56
(g77
g58
NtRp1174
(dp1175
g61
(dp1176
g81
g82
ssg70
g1170
sg63
(lp1177
S'session_id_welcome'
p1178
asbag56
(g77
g58
NtRp1179
(dp1180
g61
(dp1181
g88
g89
ssg70
g1170
sg63
(lp1182
S':'
asbag56
(g77
g58
NtRp1183
(dp1184
g61
(dp1185
sg70
g1170
sg63
(lp1186
g56
(g57
g58
NtRp1187
(dp1188
g61
(dp1189
g69
I4
ssg70
g1183
sg63
(lp1190
g56
(g65
g58
NtRp1191
(dp1192
g61
(dp1193
g69
I3
ssg70
Nsg63
(lp1194
g56
(g72
g58
NtRp1195
(dp1196
g61
(dp1197
sg70
g1191
sg63
(lp1198
g56
(g77
g58
NtRp1199
(dp1200
g61
(dp1201
g81
g82
ssg70
g1195
sg63
(lp1202
g270
asbag56
(g77
g58
NtRp1203
(dp1204
g61
(dp1205
g88
g89
ssg70
g1195
sg63
(lp1206
S':'
asbag56
(g77
g58
NtRp1207
(dp1208
g61
(dp1209
sg70
g1195
sg63
(lp1210
g56
(g57
g58
NtRp1211
(dp1212
g61
(dp1213
g69
I3
ssg70
g1207
sg63
(lp1214
S''
asbasbasbag56
(g72
g58
NtRp1215
(dp1216
g61
(dp1217
sg70
g1191
sg63
(lp1218
g56
(g77
g58
NtRp1219
(dp1220
g61
(dp1221
g81
g82
ssg70
g1215
sg63
(lp1222
g291
asbag56
(g77
g58
NtRp1223
(dp1224
g61
(dp1225
g88
g89
ssg70
g1215
sg63
(lp1226
S':'
asbag56
(g77
g58
NtRp1227
(dp1228
g61
(dp1229
sg70
g1215
sg63
(lp1230
g56
(g57
g58
NtRp1231
(dp1232
g61
(dp1233
g69
I3
ssg70
g1227
sg63
(lp1234
S''
asbasbasbag56
(g72
g58
NtRp1235
(dp1236
g61
(dp1237
sg70
g1191
sg63
(lp1238
g56
(g77
g58
NtRp1239
(dp1240
g61
(dp1241
g81
g82
ssg70
g1235
sg63
(lp1242
g312
asbag56
(g77
g58
NtRp1243
(dp1244
g61
(dp1245
g88
g89
ssg70
g1235
sg63
(lp1246
S':'
asbag56
(g77
g58
NtRp1247
(dp1248
g61
(dp1249
sg70
g1235
sg63
(lp1250
g56
(g57
g58
NtRp1251
(dp1252
g61
(dp1253
g69
I3
ssg70
g1247
sg63
(lp1254
S''
asbasbasbag56
(g72
g58
NtRp1255
(dp1256
g61
(dp1257
sg70
g1191
sg63
(lp1258
g56
(g77
g58
NtRp1259
(dp1260
g61
(dp1261
g81
g82
ssg70
g1255
sg63
(lp1262
g333
asbag56
(g77
g58
NtRp1263
(dp1264
g61
(dp1265
g88
g89
ssg70
g1255
sg63
(lp1266
S':'
asbag56
(g77
g58
NtRp1267
(dp1268
g61
(dp1269
sg70
g1255
sg63
(lp1270
g56
(g57
g58
NtRp1271
(dp1272
g61
(dp1273
g69
I3
ssg70
g1267
sg63
(lp1274
S''
asbasbasbag56
(g72
g58
NtRp1275
(dp1276
g61
(dp1277
sg70
g1191
sg63
(lp1278
g56
(g77
g58
NtRp1279
(dp1280
g61
(dp1281
g81
g82
ssg70
g1275
sg63
(lp1282
g354
asbag56
(g77
g58
NtRp1283
(dp1284
g61
(dp1285
g88
g89
ssg70
g1275
sg63
(lp1286
S':'
asbag56
(g77
g58
NtRp1287
(dp1288
g61
(dp1289
sg70
g1275
sg63
(lp1290
g56
(g57
g58
NtRp1291
(dp1292
g61
(dp1293
g69
I3
ssg70
g1287
sg63
(lp1294
S''
asbasbasbag56
(g72
g58
NtRp1295
(dp1296
g61
(dp1297
sg70
g1191
sg63
(lp1298
g56
(g77
g58
NtRp1299
(dp1300
g61
(dp1301
g81
g82
ssg70
g1295
sg63
(lp1302
g375
asbag56
(g77
g58
NtRp1303
(dp1304
g61
(dp1305
g88
g89
ssg70
g1295
sg63
(lp1306
S':'
asbag56
(g77
g58
NtRp1307
(dp1308
g61
(dp1309
sg70
g1295
sg63
(lp1310
g56
(g57
g58
NtRp1311
(dp1312
g61
(dp1313
g69
I3
ssg70
g1307
sg63
(lp1314
S''
asbasbasbag56
(g72
g58
NtRp1315
(dp1316
g61
(dp1317
sg70
g1191
sg63
(lp1318
g56
(g77
g58
NtRp1319
(dp1320
g61
(dp1321
g81
g82
ssg70
g1315
sg63
(lp1322
g396
asbag56
(g77
g58
NtRp1323
(dp1324
g61
(dp1325
g88
g89
ssg70
g1315
sg63
(lp1326
S':'
asbag56
(g77
g58
NtRp1327
(dp1328
g61
(dp1329
sg70
g1315
sg63
(lp1330
g56
(g57
g58
NtRp1331
(dp1332
g61
(dp1333
g69
I3
ssg70
g1327
sg63
(lp1334
S''
asbasbasbag56
(g72
g58
NtRp1335
(dp1336
g61
(dp1337
sg70
g1191
sg63
(lp1338
g56
(g77
g58
NtRp1339
(dp1340
g61
(dp1341
g81
g82
ssg70
g1335
sg63
(lp1342
g417
asbag56
(g77
g58
NtRp1343
(dp1344
g61
(dp1345
g88
g89
ssg70
g1335
sg63
(lp1346
S':'
asbag56
(g77
g58
NtRp1347
(dp1348
g61
(dp1349
sg70
g1335
sg63
(lp1350
g56
(g57
g58
NtRp1351
(dp1352
g61
(dp1353
g69
I3
ssg70
g1347
sg63
(lp1354
S''
asbasbasbasbasbasbasbasbasbasbasbag56
(g72
g58
NtRp1355
(dp1356
g61
(dp1357
sg70
g66
sg63
(lp1358
g56
(g77
g58
NtRp1359
(dp1360
g61
(dp1361
g81
g82
ssg70
g1355
sg63
(lp1362
S'env'
p1363
asbag56
(g77
g58
NtRp1364
(dp1365
g61
(dp1366
g88
g89
ssg70
g1355
sg63
(lp1367
S':'
asbag56
(g77
g58
NtRp1368
(dp1369
g61
(dp1370
sg70
g1355
sg63
(lp1371
g56
(g57
g58
NtRp1372
(dp1373
g61
(dp1374
g69
I5
ssg70
g1368
sg63
(lp1375
g56
(g65
g58
NtRp1376
(dp1377
g61
(dp1378
g69
I4
ssg70
Nsg63
(lp1379
g56
(g72
g58
NtRp1380
(dp1381
g61
(dp1382
sg70
g1376
sg63
(lp1383
g56
(g77
g58
NtRp1384
(dp1385
g61
(dp1386
g81
g82
ssg70
g1380
sg63
(lp1387
S'app_folders'
p1388
asbag56
(g77
g58
NtRp1389
(dp1390
g61
(dp1391
g88
g89
ssg70
g1380
sg63
(lp1392
S':'
asbag56
(g77
g58
NtRp1393
(dp1394
g61
(dp1395
sg70
g1380
sg63
(lp1396
g56
(g57
g58
NtRp1397
(dp1398
g61
(dp1399
g69
I4
ssg70
g1393
sg63
(lp1400
S"set(['/home/marco/proyectos/web2py-trunk/applications/mvstore/', '/home/marco/proyectos/web2py-trunk/applications/admin/', '/home/marco/proyectos/web2py-trunk/applications/jornadasdemo/', '/home/marco/proyectos/web2py-trunk/applications/welcome/', '/home/marco/proyectos/web2py-trunk/applications/napp/', '/home/marco/proyectos/web2py-trunk/applications/conf2py/', '/home/marco/proyectos/web2py-trunk/applications/moviestore/'])"
p1401
asbasbasbag56
(g72
g58
NtRp1402
(dp1403
g61
(dp1404
sg70
g1376
sg63
(lp1405
g56
(g77
g58
NtRp1406
(dp1407
g61
(dp1408
g81
g82
ssg70
g1402
sg63
(lp1409
S'applications_parent'
p1410
asbag56
(g77
g58
NtRp1411
(dp1412
g61
(dp1413
g88
g89
ssg70
g1402
sg63
(lp1414
S':'
asbag56
(g77
g58
NtRp1415
(dp1416
g61
(dp1417
sg70
g1402
sg63
(lp1418
g56
(g57
g58
NtRp1419
(dp1420
g61
(dp1421
g69
I4
ssg70
g1415
sg63
(lp1422
S'/home/marco/proyectos/web2py-trunk'
p1423
asbasbasbag56
(g72
g58
NtRp1424
(dp1425
g61
(dp1426
sg70
g1376
sg63
(lp1427
g56
(g77
g58
NtRp1428
(dp1429
g61
(dp1430
g81
g82
ssg70
g1424
sg63
(lp1431
S'cmd_args'
p1432
asbag56
(g77
g58
NtRp1433
(dp1434
g61
(dp1435
g88
g89
ssg70
g1424
sg63
(lp1436
S':'
asbag56
(g77
g58
NtRp1437
(dp1438
g61
(dp1439
sg70
g1424
sg63
(lp1440
g56
(g57
g58
NtRp1441
(dp1442
g61
(dp1443
g69
I4
ssg70
g1437
sg63
(lp1444
g56
(g65
g58
NtRp1445
(dp1446
g61
(dp1447
g69
I3
ssg70
Nsg63
(lp1448
sbasbasbasbag56
(g72
g58
NtRp1449
(dp1450
g61
(dp1451
sg70
g1376
sg63
(lp1452
g56
(g77
g58
NtRp1453
(dp1454
g61
(dp1455
g81
g82
ssg70
g1449
sg63
(lp1456
S'cmd_options'
p1457
asbag56
(g77
g58
NtRp1458
(dp1459
g61
(dp1460
g88
g89
ssg70
g1449
sg63
(lp1461
S':'
asbag56
(g77
g58
NtRp1462
(dp1463
g61
(dp1464
sg70
g1449
sg63
(lp1465
g56
(g57
g58
NtRp1466
(dp1467
g61
(dp1468
g69
I4
ssg70
g1462
sg63
(lp1469
S"<Values at 0x1ffcb90: {'verbose': False, 'ip': '127.0.0.1', 'shutdown_timeout': 5, 'taskbar': False, 'port': 8000, 'maxthreads': None, 'softcron': False, 'server_name': 'kiki', 'bpython': False, 'nogui': False, 'nocron': False, 'extcron': False, 'debuglevel': 30, 'test': None, 'folder': '/home/marco/proyectos/web2py-trunk', 'config': '', 'import_models': False, 'winservice': '', 'shell': None, 'run': '', 'log_filename': 'httpserver.log', 'args': [''], 'profiler_filename': None, 'ssl_private_key': '', 'password': '<ask>', 'request_queue_size': 5, 'ssl_certificate': '', 'cronjob': False, 'plain': False, 'quiet': False, 'interfaces': None, 'minthreads': None, 'timeout': 10, 'numthreads': None, 'nobanner': False, 'pid_filename': 'httpserver.pid'}>"
p1470
asbasbasbag56
(g72
g58
NtRp1471
(dp1472
g61
(dp1473
sg70
g1376
sg63
(lp1474
g56
(g77
g58
NtRp1475
(dp1476
g61
(dp1477
g81
g82
ssg70
g1471
sg63
(lp1478
S'db_sessions'
p1479
asbag56
(g77
g58
NtRp1480
(dp1481
g61
(dp1482
g88
g89
ssg70
g1471
sg63
(lp1483
S':'
asbag56
(g77
g58
NtRp1484
(dp1485
g61
(dp1486
sg70
g1471
sg63
(lp1487
g56
(g57
g58
NtRp1488
(dp1489
g61
(dp1490
g69
I4
ssg70
g1484
sg63
(lp1491
S'set([])'
p1492
asbasbasbag56
(g72
g58
NtRp1493
(dp1494
g61
(dp1495
sg70
g1376
sg63
(lp1496
g56
(g77
g58
NtRp1497
(dp1498
g61
(dp1499
g81
g82
ssg70
g1493
sg63
(lp1500
S'debugging'
p1501
asbag56
(g77
g58
NtRp1502
(dp1503
g61
(dp1504
g88
g89
ssg70
g1493
sg63
(lp1505
S':'
asbag56
(g77
g58
NtRp1506
(dp1507
g61
(dp1508
sg70
g1493
sg63
(lp1509
g56
(g57
g58
NtRp1510
(dp1511
g61
(dp1512
g69
I4
ssg70
g1506
sg63
(lp1513
g99
asbasbasbag56
(g72
g58
NtRp1514
(dp1515
g61
(dp1516
sg70
g1376
sg63
(lp1517
g56
(g77
g58
NtRp1518
(dp1519
g61
(dp1520
g81
g82
ssg70
g1514
sg63
(lp1521
S'gluon_parent'
p1522
asbag56
(g77
g58
NtRp1523
(dp1524
g61
(dp1525
g88
g89
ssg70
g1514
sg63
(lp1526
S':'
asbag56
(g77
g58
NtRp1527
(dp1528
g61
(dp1529
sg70
g1514
sg63
(lp1530
g56
(g57
g58
NtRp1531
(dp1532
g61
(dp1533
g69
I4
ssg70
g1527
sg63
(lp1534
S'/home/marco/proyectos/web2py-trunk'
p1535
asbasbasbag56
(g72
g58
NtRp1536
(dp1537
g61
(dp1538
sg70
g1376
sg63
(lp1539
g56
(g77
g58
NtRp1540
(dp1541
g61
(dp1542
g81
g82
ssg70
g1536
sg63
(lp1543
S'http_accept'
p1544
asbag56
(g77
g58
NtRp1545
(dp1546
g61
(dp1547
g88
g89
ssg70
g1536
sg63
(lp1548
S':'
asbag56
(g77
g58
NtRp1549
(dp1550
g61
(dp1551
sg70
g1536
sg63
(lp1552
g56
(g57
g58
NtRp1553
(dp1554
g61
(dp1555
g69
I4
ssg70
g1549
sg63
(lp1556
S'application/xml,application/xhtml+xml,text/html;q=0.9,text/plain;q=0.8,image/png,*/*;q=0.5'
p1557
asbasbasbag56
(g72
g58
NtRp1558
(dp1559
g61
(dp1560
sg70
g1376
sg63
(lp1561
g56
(g77
g58
NtRp1562
(dp1563
g61
(dp1564
g81
g82
ssg70
g1558
sg63
(lp1565
S'http_accept_charset'
p1566
asbag56
(g77
g58
NtRp1567
(dp1568
g61
(dp1569
g88
g89
ssg70
g1558
sg63
(lp1570
S':'
asbag56
(g77
g58
NtRp1571
(dp1572
g61
(dp1573
sg70
g1558
sg63
(lp1574
g56
(g57
g58
NtRp1575
(dp1576
g61
(dp1577
g69
I4
ssg70
g1571
sg63
(lp1578
S'ISO-8859-1,utf-8;q=0.7,*;q=0.3'
p1579
asbasbasbag56
(g72
g58
NtRp1580
(dp1581
g61
(dp1582
sg70
g1376
sg63
(lp1583
g56
(g77
g58
NtRp1584
(dp1585
g61
(dp1586
g81
g82
ssg70
g1580
sg63
(lp1587
S'http_accept_encoding'
p1588
asbag56
(g77
g58
NtRp1589
(dp1590
g61
(dp1591
g88
g89
ssg70
g1580
sg63
(lp1592
S':'
asbag56
(g77
g58
NtRp1593
(dp1594
g61
(dp1595
sg70
g1580
sg63
(lp1596
g56
(g57
g58
NtRp1597
(dp1598
g61
(dp1599
g69
I4
ssg70
g1593
sg63
(lp1600
S'gzip,deflate,sdch'
p1601
asbasbasbag56
(g72
g58
NtRp1602
(dp1603
g61
(dp1604
sg70
g1376
sg63
(lp1605
g56
(g77
g58
NtRp1606
(dp1607
g61
(dp1608
g81
g82
ssg70
g1602
sg63
(lp1609
S'http_accept_language'
p1610
asbag56
(g77
g58
NtRp1611
(dp1612
g61
(dp1613
g88
g89
ssg70
g1602
sg63
(lp1614
S':'
asbag56
(g77
g58
NtRp1615
(dp1616
g61
(dp1617
sg70
g1602
sg63
(lp1618
g56
(g57
g58
NtRp1619
(dp1620
g61
(dp1621
g69
I4
ssg70
g1615
sg63
(lp1622
S'es-419,es;q=0.8'
p1623
asbasbasbag56
(g72
g58
NtRp1624
(dp1625
g61
(dp1626
sg70
g1376
sg63
(lp1627
g56
(g77
g58
NtRp1628
(dp1629
g61
(dp1630
g81
g82
ssg70
g1624
sg63
(lp1631
S'http_connection'
p1632
asbag56
(g77
g58
NtRp1633
(dp1634
g61
(dp1635
g88
g89
ssg70
g1624
sg63
(lp1636
S':'
asbag56
(g77
g58
NtRp1637
(dp1638
g61
(dp1639
sg70
g1624
sg63
(lp1640
g56
(g57
g58
NtRp1641
(dp1642
g61
(dp1643
g69
I4
ssg70
g1637
sg63
(lp1644
S'keep-alive'
p1645
asbasbasbag56
(g72
g58
NtRp1646
(dp1647
g61
(dp1648
sg70
g1376
sg63
(lp1649
g56
(g77
g58
NtRp1650
(dp1651
g61
(dp1652
g81
g82
ssg70
g1646
sg63
(lp1653
S'http_cookie'
p1654
asbag56
(g77
g58
NtRp1655
(dp1656
g61
(dp1657
g88
g89
ssg70
g1646
sg63
(lp1658
S':'
asbag56
(g77
g58
NtRp1659
(dp1660
g61
(dp1661
sg70
g1646
sg63
(lp1662
g56
(g57
g58
NtRp1663
(dp1664
g61
(dp1665
g69
I4
ssg70
g1659
sg63
(lp1666
S'session_id_welcome=127.0.0.1-42aeeffb-91ad-41cf-a19a-c542b618bc3b; session_id_jornadasdemo=127.0.0.1-c2aedcb7-3cda-4472-95a7-e206025ae0aa; session_id_moviestore=127.0.0.1-b659915f-a893-4edf-9389-3d1d816b6d14; session_id_napp=127.0.0.1-5892b436-4013-46df-be21-176a66b88855; session_id_mvstore=127.0.0.1-0b059b4c-5741-4722-be03-f31fed87a8d7; session_id_admin=127.0.0.1-6d5f70af-c182-4a4b-bb48-a3442921674a'
p1667
asbasbasbag56
(g72
g58
NtRp1668
(dp1669
g61
(dp1670
sg70
g1376
sg63
(lp1671
g56
(g77
g58
NtRp1672
(dp1673
g61
(dp1674
g81
g82
ssg70
g1668
sg63
(lp1675
S'http_host'
p1676
asbag56
(g77
g58
NtRp1677
(dp1678
g61
(dp1679
g88
g89
ssg70
g1668
sg63
(lp1680
S':'
asbag56
(g77
g58
NtRp1681
(dp1682
g61
(dp1683
sg70
g1668
sg63
(lp1684
g56
(g57
g58
NtRp1685
(dp1686
g61
(dp1687
g69
I4
ssg70
g1681
sg63
(lp1688
S'127.0.0.1:8000'
p1689
asbasbasbag56
(g72
g58
NtRp1690
(dp1691
g61
(dp1692
sg70
g1376
sg63
(lp1693
g56
(g77
g58
NtRp1694
(dp1695
g61
(dp1696
g81
g82
ssg70
g1690
sg63
(lp1697
S'http_referer'
p1698
asbag56
(g77
g58
NtRp1699
(dp1700
g61
(dp1701
g88
g89
ssg70
g1690
sg63
(lp1702
S':'
asbag56
(g77
g58
NtRp1703
(dp1704
g61
(dp1705
sg70
g1690
sg63
(lp1706
g56
(g57
g58
NtRp1707
(dp1708
g61
(dp1709
g69
I4
ssg70
g1703
sg63
(lp1710
S'http://127.0.0.1:8000/admin/default/design/mvstore'
p1711
asbasbasbag56
(g72
g58
NtRp1712
(dp1713
g61
(dp1714
sg70
g1376
sg63
(lp1715
g56
(g77
g58
NtRp1716
(dp1717
g61
(dp1718
g81
g82
ssg70
g1712
sg63
(lp1719
S'http_user_agent'
p1720
asbag56
(g77
g58
NtRp1721
(dp1722
g61
(dp1723
g88
g89
ssg70
g1712
sg63
(lp1724
S':'
asbag56
(g77
g58
NtRp1725
(dp1726
g61
(dp1727
sg70
g1712
sg63
(lp1728
g56
(g57
g58
NtRp1729
(dp1730
g61
(dp1731
g69
I4
ssg70
g1725
sg63
(lp1732
S'Mozilla/5.0 (X11; Linux x86_64) AppleWebKit/534.24 (KHTML, like Gecko) Chrome/11.0.696.71 Safari/534.24'
p1733
asbasbasbag56
(g72
g58
NtRp1734
(dp1735
g61
(dp1736
sg70
g1376
sg63
(lp1737
g56
(g77
g58
NtRp1738
(dp1739
g61
(dp1740
g81
g82
ssg70
g1734
sg63
(lp1741
S'path_info'
p1742
asbag56
(g77
g58
NtRp1743
(dp1744
g61
(dp1745
g88
g89
ssg70
g1734
sg63
(lp1746
S':'
asbag56
(g77
g58
NtRp1747
(dp1748
g61
(dp1749
sg70
g1734
sg63
(lp1750
g56
(g57
g58
NtRp1751
(dp1752
g61
(dp1753
g69
I4
ssg70
g1747
sg63
(lp1754
S'/mvstore/default/prestamos'
p1755
asbasbasbag56
(g72
g58
NtRp1756
(dp1757
g61
(dp1758
sg70
g1376
sg63
(lp1759
g56
(g77
g58
NtRp1760
(dp1761
g61
(dp1762
g81
g82
ssg70
g1756
sg63
(lp1763
S'query_string'
p1764
asbag56
(g77
g58
NtRp1765
(dp1766
g61
(dp1767
g88
g89
ssg70
g1756
sg63
(lp1768
S':'
asbag56
(g77
g58
NtRp1769
(dp1770
g61
(dp1771
sg70
g1756
sg63
(lp1772
g56
(g57
g58
NtRp1773
(dp1774
g61
(dp1775
g69
I4
ssg70
g1769
sg63
(lp1776
S''
asbasbasbag56
(g72
g58
NtRp1777
(dp1778
g61
(dp1779
sg70
g1376
sg63
(lp1780
g56
(g77
g58
NtRp1781
(dp1782
g61
(dp1783
g81
g82
ssg70
g1777
sg63
(lp1784
S'remote_addr'
p1785
asbag56
(g77
g58
NtRp1786
(dp1787
g61
(dp1788
g88
g89
ssg70
g1777
sg63
(lp1789
S':'
asbag56
(g77
g58
NtRp1790
(dp1791
g61
(dp1792
sg70
g1777
sg63
(lp1793
g56
(g57
g58
NtRp1794
(dp1795
g61
(dp1796
g69
I4
ssg70
g1790
sg63
(lp1797
g189
asbasbasbag56
(g72
g58
NtRp1798
(dp1799
g61
(dp1800
sg70
g1376
sg63
(lp1801
g56
(g77
g58
NtRp1802
(dp1803
g61
(dp1804
g81
g82
ssg70
g1798
sg63
(lp1805
S'remote_port'
p1806
asbag56
(g77
g58
NtRp1807
(dp1808
g61
(dp1809
g88
g89
ssg70
g1798
sg63
(lp1810
S':'
asbag56
(g77
g58
NtRp1811
(dp1812
g61
(dp1813
sg70
g1798
sg63
(lp1814
g56
(g57
g58
NtRp1815
(dp1816
g61
(dp1817
g69
I4
ssg70
g1811
sg63
(lp1818
S'43669'
p1819
asbasbasbag56
(g72
g58
NtRp1820
(dp1821
g61
(dp1822
sg70
g1376
sg63
(lp1823
g56
(g77
g58
NtRp1824
(dp1825
g61
(dp1826
g81
g82
ssg70
g1820
sg63
(lp1827
S'request_method'
p1828
asbag56
(g77
g58
NtRp1829
(dp1830
g61
(dp1831
g88
g89
ssg70
g1820
sg63
(lp1832
S':'
asbag56
(g77
g58
NtRp1833
(dp1834
g61
(dp1835
sg70
g1820
sg63
(lp1836
g56
(g57
g58
NtRp1837
(dp1838
g61
(dp1839
g69
I4
ssg70
g1833
sg63
(lp1840
S'GET'
p1841
asbasbasbag56
(g72
g58
NtRp1842
(dp1843
g61
(dp1844
sg70
g1376
sg63
(lp1845
g56
(g77
g58
NtRp1846
(dp1847
g61
(dp1848
g81
g82
ssg70
g1842
sg63
(lp1849
S'script_name'
p1850
asbag56
(g77
g58
NtRp1851
(dp1852
g61
(dp1853
g88
g89
ssg70
g1842
sg63
(lp1854
S':'
asbag56
(g77
g58
NtRp1855
(dp1856
g61
(dp1857
sg70
g1842
sg63
(lp1858
g56
(g57
g58
NtRp1859
(dp1860
g61
(dp1861
g69
I4
ssg70
g1855
sg63
(lp1862
S''
asbasbasbag56
(g72
g58
NtRp1863
(dp1864
g61
(dp1865
sg70
g1376
sg63
(lp1866
g56
(g77
g58
NtRp1867
(dp1868
g61
(dp1869
g81
g82
ssg70
g1863
sg63
(lp1870
S'server_name'
p1871
asbag56
(g77
g58
NtRp1872
(dp1873
g61
(dp1874
g88
g89
ssg70
g1863
sg63
(lp1875
S':'
asbag56
(g77
g58
NtRp1876
(dp1877
g61
(dp1878
sg70
g1863
sg63
(lp1879
g56
(g57
g58
NtRp1880
(dp1881
g61
(dp1882
g69
I4
ssg70
g1876
sg63
(lp1883
S'kiki'
p1884
asbasbasbag56
(g72
g58
NtRp1885
(dp1886
g61
(dp1887
sg70
g1376
sg63
(lp1888
g56
(g77
g58
NtRp1889
(dp1890
g61
(dp1891
g81
g82
ssg70
g1885
sg63
(lp1892
S'server_port'
p1893
asbag56
(g77
g58
NtRp1894
(dp1895
g61
(dp1896
g88
g89
ssg70
g1885
sg63
(lp1897
S':'
asbag56
(g77
g58
NtRp1898
(dp1899
g61
(dp1900
sg70
g1885
sg63
(lp1901
g56
(g57
g58
NtRp1902
(dp1903
g61
(dp1904
g69
I4
ssg70
g1898
sg63
(lp1905
S'8000'
p1906
asbasbasbag56
(g72
g58
NtRp1907
(dp1908
g61
(dp1909
sg70
g1376
sg63
(lp1910
g56
(g77
g58
NtRp1911
(dp1912
g61
(dp1913
g81
g82
ssg70
g1907
sg63
(lp1914
S'server_protocol'
p1915
asbag56
(g77
g58
NtRp1916
(dp1917
g61
(dp1918
g88
g89
ssg70
g1907
sg63
(lp1919
S':'
asbag56
(g77
g58
NtRp1920
(dp1921
g61
(dp1922
sg70
g1907
sg63
(lp1923
g56
(g57
g58
NtRp1924
(dp1925
g61
(dp1926
g69
I4
ssg70
g1920
sg63
(lp1927
S'HTTP/1.1'
p1928
asbasbasbag56
(g72
g58
NtRp1929
(dp1930
g61
(dp1931
sg70
g1376
sg63
(lp1932
g56
(g77
g58
NtRp1933
(dp1934
g61
(dp1935
g81
g82
ssg70
g1929
sg63
(lp1936
S'server_software'
p1937
asbag56
(g77
g58
NtRp1938
(dp1939
g61
(dp1940
g88
g89
ssg70
g1929
sg63
(lp1941
S':'
asbag56
(g77
g58
NtRp1942
(dp1943
g61
(dp1944
sg70
g1929
sg63
(lp1945
g56
(g57
g58
NtRp1946
(dp1947
g61
(dp1948
g69
I4
ssg70
g1942
sg63
(lp1949
S'Rocket 1.2.2'
p1950
asbasbasbag56
(g72
g58
NtRp1951
(dp1952
g61
(dp1953
sg70
g1376
sg63
(lp1954
g56
(g77
g58
NtRp1955
(dp1956
g61
(dp1957
g81
g82
ssg70
g1951
sg63
(lp1958
S'web2py_crontype'
p1959
asbag56
(g77
g58
NtRp1960
(dp1961
g61
(dp1962
g88
g89
ssg70
g1951
sg63
(lp1963
S':'
asbag56
(g77
g58
NtRp1964
(dp1965
g61
(dp1966
sg70
g1951
sg63
(lp1967
g56
(g57
g58
NtRp1968
(dp1969
g61
(dp1970
g69
I4
ssg70
g1964
sg63
(lp1971
S'hard'
p1972
asbasbasbag56
(g72
g58
NtRp1973
(dp1974
g61
(dp1975
sg70
g1376
sg63
(lp1976
g56
(g77
g58
NtRp1977
(dp1978
g61
(dp1979
g81
g82
ssg70
g1973
sg63
(lp1980
S'web2py_path'
p1981
asbag56
(g77
g58
NtRp1982
(dp1983
g61
(dp1984
g88
g89
ssg70
g1973
sg63
(lp1985
S':'
asbag56
(g77
g58
NtRp1986
(dp1987
g61
(dp1988
sg70
g1973
sg63
(lp1989
g56
(g57
g58
NtRp1990
(dp1991
g61
(dp1992
g69
I4
ssg70
g1986
sg63
(lp1993
g1423
asbasbasbag56
(g72
g58
NtRp1994
(dp1995
g61
(dp1996
sg70
g1376
sg63
(lp1997
g56
(g77
g58
NtRp1998
(dp1999
g61
(dp2000
g81
g82
ssg70
g1994
sg63
(lp2001
S'web2py_version'
p2002
asbag56
(g77
g58
NtRp2003
(dp2004
g61
(dp2005
g88
g89
ssg70
g1994
sg63
(lp2006
S':'
asbag56
(g77
g58
NtRp2007
(dp2008
g61
(dp2009
sg70
g1994
sg63
(lp2010
g56
(g57
g58
NtRp2011
(dp2012
g61
(dp2013
g69
I4
ssg70
g2007
sg63
(lp2014
S'        iersion 1.94.1 (2011-03-17 16:30:58)\n'
p2015
asbasbasbag56
(g72
g58
NtRp2016
(dp2017
g61
(dp2018
sg70
g1376
sg63
(lp2019
g56
(g77
g58
NtRp2020
(dp2021
g61
(dp2022
g81
g82
ssg70
g2016
sg63
(lp2023
S'wsgi_errors'
p2024
asbag56
(g77
g58
NtRp2025
(dp2026
g61
(dp2027
g88
g89
ssg70
g2016
sg63
(lp2028
S':'
asbag56
(g77
g58
NtRp2029
(dp2030
g61
(dp2031
sg70
g2016
sg63
(lp2032
g56
(g57
g58
NtRp2033
(dp2034
g61
(dp2035
g69
I4
ssg70
g2029
sg63
(lp2036
S"<open file '<stderr>', mode 'w' at 0x7f8a1045a1e0>"
p2037
asbasbasbag56
(g72
g58
NtRp2038
(dp2039
g61
(dp2040
sg70
g1376
sg63
(lp2041
g56
(g77
g58
NtRp2042
(dp2043
g61
(dp2044
g81
g82
ssg70
g2038
sg63
(lp2045
S'wsgi_file_wrapper'
p2046
asbag56
(g77
g58
NtRp2047
(dp2048
g61
(dp2049
g88
g89
ssg70
g2038
sg63
(lp2050
S':'
asbag56
(g77
g58
NtRp2051
(dp2052
g61
(dp2053
sg70
g2038
sg63
(lp2054
g56
(g57
g58
NtRp2055
(dp2056
g61
(dp2057
g69
I4
ssg70
g2051
sg63
(lp2058
S'<class gluon.rocket.FileWrapper at 0x1e6f3b0>'
p2059
asbasbasbag56
(g72
g58
NtRp2060
(dp2061
g61
(dp2062
sg70
g1376
sg63
(lp2063
g56
(g77
g58
NtRp2064
(dp2065
g61
(dp2066
g81
g82
ssg70
g2060
sg63
(lp2067
S'wsgi_input'
p2068
asbag56
(g77
g58
NtRp2069
(dp2070
g61
(dp2071
g88
g89
ssg70
g2060
sg63
(lp2072
S':'
asbag56
(g77
g58
NtRp2073
(dp2074
g61
(dp2075
sg70
g2060
sg63
(lp2076
g56
(g57
g58
NtRp2077
(dp2078
g61
(dp2079
g69
I4
ssg70
g2073
sg63
(lp2080
S'<socket._fileobject object at 0x281a2d0>'
p2081
asbasbasbag56
(g72
g58
NtRp2082
(dp2083
g61
(dp2084
sg70
g1376
sg63
(lp2085
g56
(g77
g58
NtRp2086
(dp2087
g61
(dp2088
g81
g82
ssg70
g2082
sg63
(lp2089
S'wsgi_multiprocess'
p2090
asbag56
(g77
g58
NtRp2091
(dp2092
g61
(dp2093
g88
g89
ssg70
g2082
sg63
(lp2094
S':'
asbag56
(g77
g58
NtRp2095
(dp2096
g61
(dp2097
sg70
g2082
sg63
(lp2098
g56
(g57
g58
NtRp2099
(dp2100
g61
(dp2101
g69
I4
ssg70
g2095
sg63
(lp2102
g99
asbasbasbag56
(g72
g58
NtRp2103
(dp2104
g61
(dp2105
sg70
g1376
sg63
(lp2106
g56
(g77
g58
NtRp2107
(dp2108
g61
(dp2109
g81
g82
ssg70
g2103
sg63
(lp2110
S'wsgi_multithread'
p2111
asbag56
(g77
g58
NtRp2112
(dp2113
g61
(dp2114
g88
g89
ssg70
g2103
sg63
(lp2115
S':'
asbag56
(g77
g58
NtRp2116
(dp2117
g61
(dp2118
sg70
g2103
sg63
(lp2119
g56
(g57
g58
NtRp2120
(dp2121
g61
(dp2122
g69
I4
ssg70
g2116
sg63
(lp2123
S'True'
p2124
asbasbasbag56
(g72
g58
NtRp2125
(dp2126
g61
(dp2127
sg70
g1376
sg63
(lp2128
g56
(g77
g58
NtRp2129
(dp2130
g61
(dp2131
g81
g82
ssg70
g2125
sg63
(lp2132
S'wsgi_run_once'
p2133
asbag56
(g77
g58
NtRp2134
(dp2135
g61
(dp2136
g88
g89
ssg70
g2125
sg63
(lp2137
S':'
asbag56
(g77
g58
NtRp2138
(dp2139
g61
(dp2140
sg70
g2125
sg63
(lp2141
g56
(g57
g58
NtRp2142
(dp2143
g61
(dp2144
g69
I4
ssg70
g2138
sg63
(lp2145
g99
asbasbasbag56
(g72
g58
NtRp2146
(dp2147
g61
(dp2148
sg70
g1376
sg63
(lp2149
g56
(g77
g58
NtRp2150
(dp2151
g61
(dp2152
g81
g82
ssg70
g2146
sg63
(lp2153
S'wsgi_url_scheme'
p2154
asbag56
(g77
g58
NtRp2155
(dp2156
g61
(dp2157
g88
g89
ssg70
g2146
sg63
(lp2158
S':'
asbag56
(g77
g58
NtRp2159
(dp2160
g61
(dp2161
sg70
g2146
sg63
(lp2162
g56
(g57
g58
NtRp2163
(dp2164
g61
(dp2165
g69
I4
ssg70
g2159
sg63
(lp2166
S'http'
p2167
asbasbasbag56
(g72
g58
NtRp2168
(dp2169
g61
(dp2170
sg70
g1376
sg63
(lp2171
g56
(g77
g58
NtRp2172
(dp2173
g61
(dp2174
g81
g82
ssg70
g2168
sg63
(lp2175
S'wsgi_version'
p2176
asbag56
(g77
g58
NtRp2177
(dp2178
g61
(dp2179
g88
g89
ssg70
g2168
sg63
(lp2180
S':'
asbag56
(g77
g58
NtRp2181
(dp2182
g61
(dp2183
sg70
g2168
sg63
(lp2184
g56
(g57
g58
NtRp2185
(dp2186
g61
(dp2187
g69
I4
ssg70
g2181
sg63
(lp2188
g56
(g65
g58
NtRp2189
(dp2190
g61
(dp2191
g69
I3
ssg70
Nsg63
(lp2192
g56
(g72
g58
NtRp2193
(dp2194
g61
(dp2195
sg70
g2189
sg63
(lp2196
g56
(g77
g58
NtRp2197
(dp2198
g61
(dp2199
sg70
g2193
sg63
(lp2200
g56
(g57
g58
NtRp2201
(dp2202
g61
(dp2203
g69
I3
ssg70
g2197
sg63
(lp2204
S'1'
asbasbasbag56
(g72
g58
NtRp2205
(dp2206
g61
(dp2207
sg70
g2189
sg63
(lp2208
g56
(g77
g58
NtRp2209
(dp2210
g61
(dp2211
sg70
g2205
sg63
(lp2212
g56
(g57
g58
NtRp2213
(dp2214
g61
(dp2215
g69
I3
ssg70
g2209
sg63
(lp2216
S'0'
asbasbasbasbasbasbasbasbasbasbasbag56
(g72
g58
NtRp2217
(dp2218
g61
(dp2219
sg70
g66
sg63
(lp2220
g56
(g77
g58
NtRp2221
(dp2222
g61
(dp2223
g81
g82
ssg70
g2217
sg63
(lp2224
S'extension'
p2225
asbag56
(g77
g58
NtRp2226
(dp2227
g61
(dp2228
g88
g89
ssg70
g2217
sg63
(lp2229
S':'
asbag56
(g77
g58
NtRp2230
(dp2231
g61
(dp2232
sg70
g2217
sg63
(lp2233
g56
(g57
g58
NtRp2234
(dp2235
g61
(dp2236
g69
I5
ssg70
g2230
sg63
(lp2237
S'html'
p2238
asbasbasbag56
(g72
g58
NtRp2239
(dp2240
g61
(dp2241
sg70
g66
sg63
(lp2242
g56
(g77
g58
NtRp2243
(dp2244
g61
(dp2245
g81
g82
ssg70
g2239
sg63
(lp2246
S'folder'
p2247
asbag56
(g77
g58
NtRp2248
(dp2249
g61
(dp2250
g88
g89
ssg70
g2239
sg63
(lp2251
S':'
asbag56
(g77
g58
NtRp2252
(dp2253
g61
(dp2254
sg70
g2239
sg63
(lp2255
g56
(g57
g58
NtRp2256
(dp2257
g61
(dp2258
g69
I5
ssg70
g2252
sg63
(lp2259
S'/home/marco/proyectos/web2py-trunk/applications/mvstore/'
p2260
asbasbasbag56
(g72
g58
NtRp2261
(dp2262
g61
(dp2263
sg70
g66
sg63
(lp2264
g56
(g77
g58
NtRp2265
(dp2266
g61
(dp2267
g81
g82
ssg70
g2261
sg63
(lp2268
S'function'
p2269
asbag56
(g77
g58
NtRp2270
(dp2271
g61
(dp2272
g88
g89
ssg70
g2261
sg63
(lp2273
S':'
asbag56
(g77
g58
NtRp2274
(dp2275
g61
(dp2276
sg70
g2261
sg63
(lp2277
g56
(g57
g58
NtRp2278
(dp2279
g61
(dp2280
g69
I5
ssg70
g2274
sg63
(lp2281
S'prestamos'
p2282
asbasbasbag56
(g72
g58
NtRp2283
(dp2284
g61
(dp2285
sg70
g66
sg63
(lp2286
g56
(g77
g58
NtRp2287
(dp2288
g61
(dp2289
g81
g82
ssg70
g2283
sg63
(lp2290
S'get_vars'
p2291
asbag56
(g77
g58
NtRp2292
(dp2293
g61
(dp2294
g88
g89
ssg70
g2283
sg63
(lp2295
S':'
asbag56
(g77
g58
NtRp2296
(dp2297
g61
(dp2298
sg70
g2283
sg63
(lp2299
g56
(g57
g58
NtRp2300
(dp2301
g61
(dp2302
g69
I5
ssg70
g2296
sg63
(lp2303
g56
(g65
g58
NtRp2304
(dp2305
g61
(dp2306
g69
I4
ssg70
Nsg63
(lp2307
sbasbasbasbag56
(g72
g58
NtRp2308
(dp2309
g61
(dp2310
sg70
g66
sg63
(lp2311
g56
(g77
g58
NtRp2312
(dp2313
g61
(dp2314
g81
g82
ssg70
g2308
sg63
(lp2315
S'is_https'
p2316
asbag56
(g77
g58
NtRp2317
(dp2318
g61
(dp2319
g88
g89
ssg70
g2308
sg63
(lp2320
S':'
asbag56
(g77
g58
NtRp2321
(dp2322
g61
(dp2323
sg70
g2308
sg63
(lp2324
g56
(g57
g58
NtRp2325
(dp2326
g61
(dp2327
g69
I5
ssg70
g2321
sg63
(lp2328
g99
asbasbasbag56
(g72
g58
NtRp2329
(dp2330
g61
(dp2331
sg70
g66
sg63
(lp2332
g56
(g77
g58
NtRp2333
(dp2334
g61
(dp2335
g81
g82
ssg70
g2329
sg63
(lp2336
S'is_local'
p2337
asbag56
(g77
g58
NtRp2338
(dp2339
g61
(dp2340
g88
g89
ssg70
g2329
sg63
(lp2341
S':'
asbag56
(g77
g58
NtRp2342
(dp2343
g61
(dp2344
sg70
g2329
sg63
(lp2345
g56
(g57
g58
NtRp2346
(dp2347
g61
(dp2348
g69
I5
ssg70
g2342
sg63
(lp2349
g2124
asbasbasbag56
(g72
g58
NtRp2350
(dp2351
g61
(dp2352
sg70
g66
sg63
(lp2353
g56
(g77
g58
NtRp2354
(dp2355
g61
(dp2356
g81
g82
ssg70
g2350
sg63
(lp2357
S'is_restful'
p2358
asbag56
(g77
g58
NtRp2359
(dp2360
g61
(dp2361
g88
g89
ssg70
g2350
sg63
(lp2362
S':'
asbag56
(g77
g58
NtRp2363
(dp2364
g61
(dp2365
sg70
g2350
sg63
(lp2366
g56
(g57
g58
NtRp2367
(dp2368
g61
(dp2369
g69
I5
ssg70
g2363
sg63
(lp2370
g99
asbasbasbag56
(g72
g58
NtRp2371
(dp2372
g61
(dp2373
sg70
g66
sg63
(lp2374
g56
(g77
g58
NtRp2375
(dp2376
g61
(dp2377
g81
g82
ssg70
g2371
sg63
(lp2378
S'now'
p2379
asbag56
(g77
g58
NtRp2380
(dp2381
g61
(dp2382
g88
g89
ssg70
g2371
sg63
(lp2383
S':'
asbag56
(g77
g58
NtRp2384
(dp2385
g61
(dp2386
sg70
g2371
sg63
(lp2387
g56
(g57
g58
NtRp2388
(dp2389
g61
(dp2390
g69
I5
ssg70
g2384
sg63
(lp2391
S'datetime.datetime(2011, 6, 18, 0, 31, 12, 733288)'
p2392
asbasbasbag56
(g72
g58
NtRp2393
(dp2394
g61
(dp2395
sg70
g66
sg63
(lp2396
g56
(g77
g58
NtRp2397
(dp2398
g61
(dp2399
g81
g82
ssg70
g2393
sg63
(lp2400
S'post_vars'
p2401
asbag56
(g77
g58
NtRp2402
(dp2403
g61
(dp2404
g88
g89
ssg70
g2393
sg63
(lp2405
S':'
asbag56
(g77
g58
NtRp2406
(dp2407
g61
(dp2408
sg70
g2393
sg63
(lp2409
g56
(g57
g58
NtRp2410
(dp2411
g61
(dp2412
g69
I5
ssg70
g2406
sg63
(lp2413
g56
(g65
g58
NtRp2414
(dp2415
g61
(dp2416
g69
I4
ssg70
Nsg63
(lp2417
sbasbasbasbag56
(g72
g58
NtRp2418
(dp2419
g61
(dp2420
sg70
g66
sg63
(lp2421
g56
(g77
g58
NtRp2422
(dp2423
g61
(dp2424
g81
g82
ssg70
g2418
sg63
(lp2425
S'url'
p2426
asbag56
(g77
g58
NtRp2427
(dp2428
g61
(dp2429
g88
g89
ssg70
g2418
sg63
(lp2430
S':'
asbag56
(g77
g58
NtRp2431
(dp2432
g61
(dp2433
sg70
g2418
sg63
(lp2434
g56
(g57
g58
NtRp2435
(dp2436
g61
(dp2437
g69
I5
ssg70
g2431
sg63
(lp2438
S'/mvstore/default/prestamos'
p2439
asbasbasbag56
(g72
g58
NtRp2440
(dp2441
g61
(dp2442
sg70
g66
sg63
(lp2443
g56
(g77
g58
NtRp2444
(dp2445
g61
(dp2446
g81
g82
ssg70
g2440
sg63
(lp2447
S'uuid'
p2448
asbag56
(g77
g58
NtRp2449
(dp2450
g61
(dp2451
g88
g89
ssg70
g2440
sg63
(lp2452
S':'
asbag56
(g77
g58
NtRp2453
(dp2454
g61
(dp2455
sg70
g2440
sg63
(lp2456
g56
(g57
g58
NtRp2457
(dp2458
g61
(dp2459
g69
I5
ssg70
g2453
sg63
(lp2460
S'mvstore/127.0.0.1.2011-06-18.00-31-12.4c939f2b-7ff5-4008-8e0c-627d91685641'
p2461
asbasbasbag56
(g72
g58
NtRp2462
(dp2463
g61
(dp2464
sg70
g66
sg63
(lp2465
g56
(g77
g58
NtRp2466
(dp2467
g61
(dp2468
g81
g82
ssg70
g2462
sg63
(lp2469
S'vars'
p2470
asbag56
(g77
g58
NtRp2471
(dp2472
g61
(dp2473
g88
g89
ssg70
g2462
sg63
(lp2474
S':'
asbag56
(g77
g58
NtRp2475
(dp2476
g61
(dp2477
sg70
g2462
sg63
(lp2478
g56
(g57
g58
NtRp2479
(dp2480
g61
(dp2481
g69
I5
ssg70
g2475
sg63
(lp2482
g56
(g65
g58
NtRp2483
(dp2484
g61
(dp2485
g69
I4
ssg70
Nsg63
(lp2486
sbasbasbasbag56
(g72
g58
NtRp2487
(dp2488
g61
(dp2489
sg70
g66
sg63
(lp2490
g56
(g77
g58
NtRp2491
(dp2492
g61
(dp2493
g81
g82
ssg70
g2487
sg63
(lp2494
S'wsgi'
p2495
asbag56
(g77
g58
NtRp2496
(dp2497
g61
(dp2498
g88
g89
ssg70
g2487
sg63
(lp2499
S':'
asbag56
(g77
g58
NtRp2500
(dp2501
g61
(dp2502
sg70
g2487
sg63
(lp2503
g56
(g57
g58
NtRp2504
(dp2505
g61
(dp2506
g69
I5
ssg70
g2500
sg63
(lp2507
g56
(g65
g58
NtRp2508
(dp2509
g61
(dp2510
g69
I4
ssg70
Nsg63
(lp2511
g56
(g72
g58
NtRp2512
(dp2513
g61
(dp2514
sg70
g2508
sg63
(lp2515
g56
(g77
g58
NtRp2516
(dp2517
g61
(dp2518
g81
g82
ssg70
g2512
sg63
(lp2519
S'environ'
p2520
asbag56
(g77
g58
NtRp2521
(dp2522
g61
(dp2523
g88
g89
ssg70
g2512
sg63
(lp2524
S':'
asbag56
(g77
g58
NtRp2525
(dp2526
g61
(dp2527
sg70
g2512
sg63
(lp2528
g56
(g57
g58
NtRp2529
(dp2530
g61
(dp2531
g69
I4
ssg70
g2525
sg63
(lp2532
g56
(g65
g58
NtRp2533
(dp2534
g61
(dp2535
g69
I3
ssg70
Nsg63
(lp2536
g56
(g72
g58
NtRp2537
(dp2538
g61
(dp2539
sg70
g2533
sg63
(lp2540
g56
(g77
g58
NtRp2541
(dp2542
g61
(dp2543
g81
g82
ssg70
g2537
sg63
(lp2544
S'HTTP_ACCEPT'
p2545
asbag56
(g77
g58
NtRp2546
(dp2547
g61
(dp2548
g88
g89
ssg70
g2537
sg63
(lp2549
S':'
asbag56
(g77
g58
NtRp2550
(dp2551
g61
(dp2552
sg70
g2537
sg63
(lp2553
g56
(g57
g58
NtRp2554
(dp2555
g61
(dp2556
g69
I3
ssg70
g2550
sg63
(lp2557
g1557
asbasbasbag56
(g72
g58
NtRp2558
(dp2559
g61
(dp2560
sg70
g2533
sg63
(lp2561
g56
(g77
g58
NtRp2562
(dp2563
g61
(dp2564
g81
g82
ssg70
g2558
sg63
(lp2565
S'HTTP_ACCEPT_CHARSET'
p2566
asbag56
(g77
g58
NtRp2567
(dp2568
g61
(dp2569
g88
g89
ssg70
g2558
sg63
(lp2570
S':'
asbag56
(g77
g58
NtRp2571
(dp2572
g61
(dp2573
sg70
g2558
sg63
(lp2574
g56
(g57
g58
NtRp2575
(dp2576
g61
(dp2577
g69
I3
ssg70
g2571
sg63
(lp2578
g1579
asbasbasbag56
(g72
g58
NtRp2579
(dp2580
g61
(dp2581
sg70
g2533
sg63
(lp2582
g56
(g77
g58
NtRp2583
(dp2584
g61
(dp2585
g81
g82
ssg70
g2579
sg63
(lp2586
S'HTTP_ACCEPT_ENCODING'
p2587
asbag56
(g77
g58
NtRp2588
(dp2589
g61
(dp2590
g88
g89
ssg70
g2579
sg63
(lp2591
S':'
asbag56
(g77
g58
NtRp2592
(dp2593
g61
(dp2594
sg70
g2579
sg63
(lp2595
g56
(g57
g58
NtRp2596
(dp2597
g61
(dp2598
g69
I3
ssg70
g2592
sg63
(lp2599
g1601
asbasbasbag56
(g72
g58
NtRp2600
(dp2601
g61
(dp2602
sg70
g2533
sg63
(lp2603
g56
(g77
g58
NtRp2604
(dp2605
g61
(dp2606
g81
g82
ssg70
g2600
sg63
(lp2607
S'HTTP_ACCEPT_LANGUAGE'
p2608
asbag56
(g77
g58
NtRp2609
(dp2610
g61
(dp2611
g88
g89
ssg70
g2600
sg63
(lp2612
S':'
asbag56
(g77
g58
NtRp2613
(dp2614
g61
(dp2615
sg70
g2600
sg63
(lp2616
g56
(g57
g58
NtRp2617
(dp2618
g61
(dp2619
g69
I3
ssg70
g2613
sg63
(lp2620
g1623
asbasbasbag56
(g72
g58
NtRp2621
(dp2622
g61
(dp2623
sg70
g2533
sg63
(lp2624
g56
(g77
g58
NtRp2625
(dp2626
g61
(dp2627
g81
g82
ssg70
g2621
sg63
(lp2628
S'HTTP_CONNECTION'
p2629
asbag56
(g77
g58
NtRp2630
(dp2631
g61
(dp2632
g88
g89
ssg70
g2621
sg63
(lp2633
S':'
asbag56
(g77
g58
NtRp2634
(dp2635
g61
(dp2636
sg70
g2621
sg63
(lp2637
g56
(g57
g58
NtRp2638
(dp2639
g61
(dp2640
g69
I3
ssg70
g2634
sg63
(lp2641
g1645
asbasbasbag56
(g72
g58
NtRp2642
(dp2643
g61
(dp2644
sg70
g2533
sg63
(lp2645
g56
(g77
g58
NtRp2646
(dp2647
g61
(dp2648
g81
g82
ssg70
g2642
sg63
(lp2649
S'HTTP_COOKIE'
p2650
asbag56
(g77
g58
NtRp2651
(dp2652
g61
(dp2653
g88
g89
ssg70
g2642
sg63
(lp2654
S':'
asbag56
(g77
g58
NtRp2655
(dp2656
g61
(dp2657
sg70
g2642
sg63
(lp2658
g56
(g57
g58
NtRp2659
(dp2660
g61
(dp2661
g69
I3
ssg70
g2655
sg63
(lp2662
g1667
asbasbasbag56
(g72
g58
NtRp2663
(dp2664
g61
(dp2665
sg70
g2533
sg63
(lp2666
g56
(g77
g58
NtRp2667
(dp2668
g61
(dp2669
g81
g82
ssg70
g2663
sg63
(lp2670
S'HTTP_HOST'
p2671
asbag56
(g77
g58
NtRp2672
(dp2673
g61
(dp2674
g88
g89
ssg70
g2663
sg63
(lp2675
S':'
asbag56
(g77
g58
NtRp2676
(dp2677
g61
(dp2678
sg70
g2663
sg63
(lp2679
g56
(g57
g58
NtRp2680
(dp2681
g61
(dp2682
g69
I3
ssg70
g2676
sg63
(lp2683
g1689
asbasbasbag56
(g72
g58
NtRp2684
(dp2685
g61
(dp2686
sg70
g2533
sg63
(lp2687
g56
(g77
g58
NtRp2688
(dp2689
g61
(dp2690
g81
g82
ssg70
g2684
sg63
(lp2691
S'HTTP_REFERER'
p2692
asbag56
(g77
g58
NtRp2693
(dp2694
g61
(dp2695
g88
g89
ssg70
g2684
sg63
(lp2696
S':'
asbag56
(g77
g58
NtRp2697
(dp2698
g61
(dp2699
sg70
g2684
sg63
(lp2700
g56
(g57
g58
NtRp2701
(dp2702
g61
(dp2703
g69
I3
ssg70
g2697
sg63
(lp2704
g1711
asbasbasbag56
(g72
g58
NtRp2705
(dp2706
g61
(dp2707
sg70
g2533
sg63
(lp2708
g56
(g77
g58
NtRp2709
(dp2710
g61
(dp2711
g81
g82
ssg70
g2705
sg63
(lp2712
S'HTTP_USER_AGENT'
p2713
asbag56
(g77
g58
NtRp2714
(dp2715
g61
(dp2716
g88
g89
ssg70
g2705
sg63
(lp2717
S':'
asbag56
(g77
g58
NtRp2718
(dp2719
g61
(dp2720
sg70
g2705
sg63
(lp2721
g56
(g57
g58
NtRp2722
(dp2723
g61
(dp2724
g69
I3
ssg70
g2718
sg63
(lp2725
g1733
asbasbasbag56
(g72
g58
NtRp2726
(dp2727
g61
(dp2728
sg70
g2533
sg63
(lp2729
g56
(g77
g58
NtRp2730
(dp2731
g61
(dp2732
g81
g82
ssg70
g2726
sg63
(lp2733
S'PATH_INFO'
p2734
asbag56
(g77
g58
NtRp2735
(dp2736
g61
(dp2737
g88
g89
ssg70
g2726
sg63
(lp2738
S':'
asbag56
(g77
g58
NtRp2739
(dp2740
g61
(dp2741
sg70
g2726
sg63
(lp2742
g56
(g57
g58
NtRp2743
(dp2744
g61
(dp2745
g69
I3
ssg70
g2739
sg63
(lp2746
g1755
asbasbasbag56
(g72
g58
NtRp2747
(dp2748
g61
(dp2749
sg70
g2533
sg63
(lp2750
g56
(g77
g58
NtRp2751
(dp2752
g61
(dp2753
g81
g82
ssg70
g2747
sg63
(lp2754
S'QUERY_STRING'
p2755
asbag56
(g77
g58
NtRp2756
(dp2757
g61
(dp2758
g88
g89
ssg70
g2747
sg63
(lp2759
S':'
asbag56
(g77
g58
NtRp2760
(dp2761
g61
(dp2762
sg70
g2747
sg63
(lp2763
g56
(g57
g58
NtRp2764
(dp2765
g61
(dp2766
g69
I3
ssg70
g2760
sg63
(lp2767
S''
asbasbasbag56
(g72
g58
NtRp2768
(dp2769
g61
(dp2770
sg70
g2533
sg63
(lp2771
g56
(g77
g58
NtRp2772
(dp2773
g61
(dp2774
g81
g82
ssg70
g2768
sg63
(lp2775
S'REMOTE_ADDR'
p2776
asbag56
(g77
g58
NtRp2777
(dp2778
g61
(dp2779
g88
g89
ssg70
g2768
sg63
(lp2780
S':'
asbag56
(g77
g58
NtRp2781
(dp2782
g61
(dp2783
sg70
g2768
sg63
(lp2784
g56
(g57
g58
NtRp2785
(dp2786
g61
(dp2787
g69
I3
ssg70
g2781
sg63
(lp2788
g189
asbasbasbag56
(g72
g58
NtRp2789
(dp2790
g61
(dp2791
sg70
g2533
sg63
(lp2792
g56
(g77
g58
NtRp2793
(dp2794
g61
(dp2795
g81
g82
ssg70
g2789
sg63
(lp2796
S'REMOTE_PORT'
p2797
asbag56
(g77
g58
NtRp2798
(dp2799
g61
(dp2800
g88
g89
ssg70
g2789
sg63
(lp2801
S':'
asbag56
(g77
g58
NtRp2802
(dp2803
g61
(dp2804
sg70
g2789
sg63
(lp2805
g56
(g57
g58
NtRp2806
(dp2807
g61
(dp2808
g69
I3
ssg70
g2802
sg63
(lp2809
g1819
asbasbasbag56
(g72
g58
NtRp2810
(dp2811
g61
(dp2812
sg70
g2533
sg63
(lp2813
g56
(g77
g58
NtRp2814
(dp2815
g61
(dp2816
g81
g82
ssg70
g2810
sg63
(lp2817
S'REQUEST_METHOD'
p2818
asbag56
(g77
g58
NtRp2819
(dp2820
g61
(dp2821
g88
g89
ssg70
g2810
sg63
(lp2822
S':'
asbag56
(g77
g58
NtRp2823
(dp2824
g61
(dp2825
sg70
g2810
sg63
(lp2826
g56
(g57
g58
NtRp2827
(dp2828
g61
(dp2829
g69
I3
ssg70
g2823
sg63
(lp2830
g1841
asbasbasbag56
(g72
g58
NtRp2831
(dp2832
g61
(dp2833
sg70
g2533
sg63
(lp2834
g56
(g77
g58
NtRp2835
(dp2836
g61
(dp2837
g81
g82
ssg70
g2831
sg63
(lp2838
S'SCRIPT_NAME'
p2839
asbag56
(g77
g58
NtRp2840
(dp2841
g61
(dp2842
g88
g89
ssg70
g2831
sg63
(lp2843
S':'
asbag56
(g77
g58
NtRp2844
(dp2845
g61
(dp2846
sg70
g2831
sg63
(lp2847
g56
(g57
g58
NtRp2848
(dp2849
g61
(dp2850
g69
I3
ssg70
g2844
sg63
(lp2851
S''
asbasbasbag56
(g72
g58
NtRp2852
(dp2853
g61
(dp2854
sg70
g2533
sg63
(lp2855
g56
(g77
g58
NtRp2856
(dp2857
g61
(dp2858
g81
g82
ssg70
g2852
sg63
(lp2859
S'SERVER_NAME'
p2860
asbag56
(g77
g58
NtRp2861
(dp2862
g61
(dp2863
g88
g89
ssg70
g2852
sg63
(lp2864
S':'
asbag56
(g77
g58
NtRp2865
(dp2866
g61
(dp2867
sg70
g2852
sg63
(lp2868
g56
(g57
g58
NtRp2869
(dp2870
g61
(dp2871
g69
I3
ssg70
g2865
sg63
(lp2872
g1884
asbasbasbag56
(g72
g58
NtRp2873
(dp2874
g61
(dp2875
sg70
g2533
sg63
(lp2876
g56
(g77
g58
NtRp2877
(dp2878
g61
(dp2879
g81
g82
ssg70
g2873
sg63
(lp2880
S'SERVER_PORT'
p2881
asbag56
(g77
g58
NtRp2882
(dp2883
g61
(dp2884
g88
g89
ssg70
g2873
sg63
(lp2885
S':'
asbag56
(g77
g58
NtRp2886
(dp2887
g61
(dp2888
sg70
g2873
sg63
(lp2889
g56
(g57
g58
NtRp2890
(dp2891
g61
(dp2892
g69
I3
ssg70
g2886
sg63
(lp2893
g1906
asbasbasbag56
(g72
g58
NtRp2894
(dp2895
g61
(dp2896
sg70
g2533
sg63
(lp2897
g56
(g77
g58
NtRp2898
(dp2899
g61
(dp2900
g81
g82
ssg70
g2894
sg63
(lp2901
S'SERVER_PROTOCOL'
p2902
asbag56
(g77
g58
NtRp2903
(dp2904
g61
(dp2905
g88
g89
ssg70
g2894
sg63
(lp2906
S':'
asbag56
(g77
g58
NtRp2907
(dp2908
g61
(dp2909
sg70
g2894
sg63
(lp2910
g56
(g57
g58
NtRp2911
(dp2912
g61
(dp2913
g69
I3
ssg70
g2907
sg63
(lp2914
g1928
asbasbasbag56
(g72
g58
NtRp2915
(dp2916
g61
(dp2917
sg70
g2533
sg63
(lp2918
g56
(g77
g58
NtRp2919
(dp2920
g61
(dp2921
g81
g82
ssg70
g2915
sg63
(lp2922
S'SERVER_SOFTWARE'
p2923
asbag56
(g77
g58
NtRp2924
(dp2925
g61
(dp2926
g88
g89
ssg70
g2915
sg63
(lp2927
S':'
asbag56
(g77
g58
NtRp2928
(dp2929
g61
(dp2930
sg70
g2915
sg63
(lp2931
g56
(g57
g58
NtRp2932
(dp2933
g61
(dp2934
g69
I3
ssg70
g2928
sg63
(lp2935
g1950
asbasbasbag56
(g72
g58
NtRp2936
(dp2937
g61
(dp2938
sg70
g2533
sg63
(lp2939
g56
(g77
g58
NtRp2940
(dp2941
g61
(dp2942
g81
g82
ssg70
g2936
sg63
(lp2943
S'wsgi.errors'
p2944
asbag56
(g77
g58
NtRp2945
(dp2946
g61
(dp2947
g88
g89
ssg70
g2936
sg63
(lp2948
S':'
asbag56
(g77
g58
NtRp2949
(dp2950
g61
(dp2951
sg70
g2936
sg63
(lp2952
g56
(g57
g58
NtRp2953
(dp2954
g61
(dp2955
g69
I3
ssg70
g2949
sg63
(lp2956
S"<open file '<stderr>', mode 'w' at 0x7f8a1045a1e0>"
p2957
asbasbasbag56
(g72
g58
NtRp2958
(dp2959
g61
(dp2960
sg70
g2533
sg63
(lp2961
g56
(g77
g58
NtRp2962
(dp2963
g61
(dp2964
g81
g82
ssg70
g2958
sg63
(lp2965
S'wsgi.file_wrapper'
p2966
asbag56
(g77
g58
NtRp2967
(dp2968
g61
(dp2969
g88
g89
ssg70
g2958
sg63
(lp2970
S':'
asbag56
(g77
g58
NtRp2971
(dp2972
g61
(dp2973
sg70
g2958
sg63
(lp2974
g56
(g57
g58
NtRp2975
(dp2976
g61
(dp2977
g69
I3
ssg70
g2971
sg63
(lp2978
S'<class gluon.rocket.FileWrapper at 0x1e6f3b0>'
p2979
asbasbasbag56
(g72
g58
NtRp2980
(dp2981
g61
(dp2982
sg70
g2533
sg63
(lp2983
g56
(g77
g58
NtRp2984
(dp2985
g61
(dp2986
g81
g82
ssg70
g2980
sg63
(lp2987
S'wsgi.input'
p2988
asbag56
(g77
g58
NtRp2989
(dp2990
g61
(dp2991
g88
g89
ssg70
g2980
sg63
(lp2992
S':'
asbag56
(g77
g58
NtRp2993
(dp2994
g61
(dp2995
sg70
g2980
sg63
(lp2996
g56
(g57
g58
NtRp2997
(dp2998
g61
(dp2999
g69
I3
ssg70
g2993
sg63
(lp3000
S'<cStringIO.StringO object at 0x2751f10>'
p3001
asbasbasbag56
(g72
g58
NtRp3002
(dp3003
g61
(dp3004
sg70
g2533
sg63
(lp3005
g56
(g77
g58
NtRp3006
(dp3007
g61
(dp3008
g81
g82
ssg70
g3002
sg63
(lp3009
S'wsgi.multiprocess'
p3010
asbag56
(g77
g58
NtRp3011
(dp3012
g61
(dp3013
g88
g89
ssg70
g3002
sg63
(lp3014
S':'
asbag56
(g77
g58
NtRp3015
(dp3016
g61
(dp3017
sg70
g3002
sg63
(lp3018
g56
(g57
g58
NtRp3019
(dp3020
g61
(dp3021
g69
I3
ssg70
g3015
sg63
(lp3022
g99
asbasbasbag56
(g72
g58
NtRp3023
(dp3024
g61
(dp3025
sg70
g2533
sg63
(lp3026
g56
(g77
g58
NtRp3027
(dp3028
g61
(dp3029
g81
g82
ssg70
g3023
sg63
(lp3030
S'wsgi.multithread'
p3031
asbag56
(g77
g58
NtRp3032
(dp3033
g61
(dp3034
g88
g89
ssg70
g3023
sg63
(lp3035
S':'
asbag56
(g77
g58
NtRp3036
(dp3037
g61
(dp3038
sg70
g3023
sg63
(lp3039
g56
(g57
g58
NtRp3040
(dp3041
g61
(dp3042
g69
I3
ssg70
g3036
sg63
(lp3043
g2124
asbasbasbag56
(g72
g58
NtRp3044
(dp3045
g61
(dp3046
sg70
g2533
sg63
(lp3047
g56
(g77
g58
NtRp3048
(dp3049
g61
(dp3050
g81
g82
ssg70
g3044
sg63
(lp3051
S'wsgi.run_once'
p3052
asbag56
(g77
g58
NtRp3053
(dp3054
g61
(dp3055
g88
g89
ssg70
g3044
sg63
(lp3056
S':'
asbag56
(g77
g58
NtRp3057
(dp3058
g61
(dp3059
sg70
g3044
sg63
(lp3060
g56
(g57
g58
NtRp3061
(dp3062
g61
(dp3063
g69
I3
ssg70
g3057
sg63
(lp3064
g99
asbasbasbag56
(g72
g58
NtRp3065
(dp3066
g61
(dp3067
sg70
g2533
sg63
(lp3068
g56
(g77
g58
NtRp3069
(dp3070
g61
(dp3071
g81
g82
ssg70
g3065
sg63
(lp3072
S'wsgi.url_scheme'
p3073
asbag56
(g77
g58
NtRp3074
(dp3075
g61
(dp3076
g88
g89
ssg70
g3065
sg63
(lp3077
S':'
asbag56
(g77
g58
NtRp3078
(dp3079
g61
(dp3080
sg70
g3065
sg63
(lp3081
g56
(g57
g58
NtRp3082
(dp3083
g61
(dp3084
g69
I3
ssg70
g3078
sg63
(lp3085
g2167
asbasbasbag56
(g72
g58
NtRp3086
(dp3087
g61
(dp3088
sg70
g2533
sg63
(lp3089
g56
(g77
g58
NtRp3090
(dp3091
g61
(dp3092
g81
g82
ssg70
g3086
sg63
(lp3093
S'wsgi.version'
p3094
asbag56
(g77
g58
NtRp3095
(dp3096
g61
(dp3097
g88
g89
ssg70
g3086
sg63
(lp3098
S':'
asbag56
(g77
g58
NtRp3099
(dp3100
g61
(dp3101
sg70
g3086
sg63
(lp3102
g56
(g57
g58
NtRp3103
(dp3104
g61
(dp3105
g69
I3
ssg70
g3099
sg63
(lp3106
S'1'
asbasbasbasbasbasbasbasbasbasbasbasbasbsS'frames'
p3107
(lp3108
(dp3109
S'file'
p3110
S'/home/marco/proyectos/web2py-trunk/gluon/restricted.py'
p3111
sS'dump'
p3112
(dp3113
S'environment'
p3114
S"{'A': <class 'gluon.html.A'>, 'Auth': <class 'gluon.tools.Auth'>, 'B': <class 'gluon.html.B'>, 'BEAUTIFY': <class 'gluon.html.BEAUTIFY'>, 'BODY': <class 'gluon.html.BODY'>, 'BR': <class 'gluon.html.BR'>, 'BUTTON': <class 'gluon.html.BUTTON'>, 'CENTER': <class 'gluon.html.CENTER'>, 'CLEANUP': <class 'gluon.validators.CLEANUP'>, 'CODE': <class 'gluon.html.CODE'>, ...}"
p3115
sS'ccode'
p3116
S'<code object <module> at 0x7f8a00232120, file "/...cations/mvstore/controllers/default.py", line 12>'
p3117
ssS'lnum'
p3118
I192
sS'lines'
p3119
(dp3120
I192
S'        exec ccode in environment'
p3121
sI193
S'    except HTTP:'
p3122
sI194
S'        raise'
p3123
sI195
S'    except Exception:'
p3124
sI196
S'        # XXX Show exception in Wing IDE if running in debugger'
p3125
sI187
S'    try:'
p3126
sI188
S'        if type(code) == types.CodeType:'
p3127
sI189
S'            ccode = code'
p3128
sI190
S'        else:'
p3129
sI191
S'            ccode = compile2(code,layer)'
p3130
ssS'call'
p3131
S"(code='#-*- coding: utf-8 -*-\\n# this file is released u...rm)\\n\\n\\nresponse._vars=response._caller(prestamos)\\n', environment={'A': <class 'gluon.html.A'>, 'Auth': <class 'gluon.tools.Auth'>, 'B': <class 'gluon.html.B'>, 'BEAUTIFY': <class 'gluon.html.BEAUTIFY'>, 'BODY': <class 'gluon.html.BODY'>, 'BR': <class 'gluon.html.BR'>, 'BUTTON': <class 'gluon.html.BUTTON'>, 'CENTER': <class 'gluon.html.CENTER'>, 'CLEANUP': <class 'gluon.validators.CLEANUP'>, 'CODE': <class 'gluon.html.CODE'>, ...}, layer='/home/marco/proyectos/web2py-trunk/applications/mvstore/controllers/default.py')"
p3132
sS'func'
p3133
S'restricted'
p3134
sa(dp3135
g3110
S'/home/marco/proyectos/web2py-trunk/applications/mvstore/controllers/default.py'
p3136
sg3112
(dp3137
sg3118
I71
sg3119
(dp3138
I64
S'    return dict(form=form)'
p3139
sI65
S''
sI66
S'def prestamos():'
p3140
sI67
S'    form=crud.create(db.prestamos)'
p3141
sI68
S'    return dict(form=form)'
p3142
sI69
S''
sI60
S'    return dict(form=form)'
p3143
sI61
S''
sI62
S'def peliculas():'
p3144
sI63
S'    form=crud.create(db.peliculas)'
p3145
ssg3131
S'()'
p3146
sg3133
S'<module>'
p3147
sa(dp3148
g3110
S'/home/marco/proyectos/web2py-trunk/gluon/globals.py'
p3149
sg3112
(dp3150
S'self'
p3151
S'undefined'
p3152
sS'f'
S'<function prestamos>'
p3153
ssg3118
I137
sg3119
(dp3154
I132
S"        self.flash = ''           # used by the default view layout"
p3155
sI133
S'        self.meta = Storage()     # used by web2py_ajax.html'
p3156
sI134
S'        self.menu = []            # used by the default view layout'
p3157
sI135
S'        self.files = []           # used by web2py_ajax.html'
p3158
sI136
S'        self._vars = None'
p3159
sI137
S'        self._caller = lambda f: f()'
p3160
sI138
S'        self._view_environment = None'
p3161
sI139
S'        self._custom_commit = None'
p3162
sI140
S'        self._custom_rollback = None'
p3163
sI141
S''
ssg3131
S'(f=<function prestamos>)'
p3164
sg3133
S'<lambda>'
p3165
sa(dp3166
g3110
S'/home/marco/proyectos/web2py-trunk/applications/mvstore/controllers/default.py'
p3167
sg3112
(dp3168
S'global crud'
p3169
S'<gluon.tools.Crud object>'
p3170
sS'crud.create'
p3171
S'<bound method Crud.create of <gluon.tools.Crud object>>'
p3172
sS'global db'
p3173
S"<DAL {'auth_event': <Table {'origin': <gluon.dal..., 'id': <gluon.dal.Field object at 0x3550790>}>}>"
p3174
sS'form'
p3175
g3152
sS'db.prestamos'
p3176
S"<Table {'ALL': <gluon.dal.SQLALL object at 0x355...y-trunk/applications/mvstore/databases/sql.log'}>"
p3177
ssg3118
I67
sg3119
(dp3178
I64
S'    return dict(form=form)'
p3179
sI65
S''
sI66
S'def prestamos():'
p3180
sI67
S'    form=crud.create(db.prestamos)'
p3181
sI68
S'    return dict(form=form)'
p3182
sI69
S''
sI60
S'    return dict(form=form)'
p3183
sI61
S''
sI62
S'def peliculas():'
p3184
sI63
S'    form=crud.create(db.peliculas)'
p3185
ssg3131
S'()'
p3186
sg3133
S'prestamos'
p3187
sa(dp3188
g3110
S'/home/marco/proyectos/web2py-trunk/gluon/tools.py'
p3189
sg3112
(dp3190
S'formname'
p3191
S'<function <lambda>>'
p3192
ssg3118
I3120
sg3119
(dp3193
I3115
S'            onvalidation=onvalidation,'
p3194
sI3116
S'            onaccept=onaccept,'
p3195
sI3117
S'            log=log,'
p3196
sI3118
S'            message=message,'
p3197
sI3119
S'            deletable=False,'
p3198
sI3120
S'            formname=formname,'
p3199
sI3121
S'            )'
p3200
sI3122
S''
sI3123
S'    def read(self, table, record):'
p3201
sI3124
S'        if not (isinstance(table, self.db.Table) or table in self.db.tables) \\'
p3202
ssg3131
S"(self=<gluon.tools.Crud object>, table=<Table {'ALL': <gluon.dal.SQLALL object at 0x355...y-trunk/applications/mvstore/databases/sql.log'}>, next=None, onvalidation=<Storage {}>, onaccept=<Storage {}>, log='Record %(id)s created', message='Record Created', formname=<function <lambda>>)"
p3203
sg3133
S'create'
p3204
sa(dp3205
g3110
S'/home/marco/proyectos/web2py-trunk/gluon/tools.py'
p3206
sg3112
(dp3207
S'formstyle'
p3208
g3152
sS'self'
p3209
S'<gluon.tools.Crud object>'
p3210
sS'self.settings'
p3211
S"<Storage {'showid': False, 'delete_onaccept': <S...ble': True, 'create_onvalidation': <Storage {}>}>"
p3212
sS'self.settings.formstyle'
p3213
S"'table3cols'"
p3214
ssg3118
I3032
sg3119
(dp3215
I3027
S'            showid=self.settings.showid,'
p3216
sI3028
S'            submit_button=self.messages.submit_button,'
p3217
sI3029
S'            delete_label=self.messages.delete_label,'
p3218
sI3030
S'            deletable=deletable,'
p3219
sI3031
S'            upload=self.settings.download_url,'
p3220
sI3032
S'            formstyle=self.settings.formstyle'
p3221
sI3033
S'            )'
p3222
sI3034
S'        self.accepted = False'
p3223
sI3035
S'        self.deleted = False'
p3224
sI3036
S'        captcha = self.settings.update_captcha or \\'
p3225
ssg3131
S"(self=<gluon.tools.Crud object>, table=<Table {'ALL': <gluon.dal.SQLALL object at 0x355...y-trunk/applications/mvstore/databases/sql.log'}>, record=None, next=None, onvalidation=<Storage {}>, onaccept=<Storage {}>, ondelete=<Storage {}>, log='Record %(id)s created', message='Record Created', deletable=False, formname=<function <lambda>>)"
p3226
sg3133
S'update'
p3227
sa(dp3228
g3110
S'/home/marco/proyectos/web2py-trunk/gluon/sqlhtml.py'
p3229
sg3112
(dp3230
S'default'
p3231
S'None'
p3232
sS'self.widgets.options.widget'
p3233
S'<function widget>'
p3234
sS'self'
p3235
S'<gluon.sqlhtml.SQLFORM object>'
p3236
sS'inp'
p3237
S'<gluon.html.INPUT object>'
p3238
sS'self.widgets'
p3239
S"<Storage {'multiple': <class 'gluon.sqlhtml.Mult...ss 'gluon.sqlhtml.OptionsWidget'>, 'blob': None}>"
p3240
sS'field'
p3241
S'<gluon.dal.Field object>'
p3242
sS'self.widgets.options'
p3243
S"<class 'gluon.sqlhtml.OptionsWidget'>"
p3244
ssg3118
I817
sg3119
(dp3245
I812
S"                    inpval = 'checked'"
p3246
sI813
S'                else:'
p3247
sI814
S"                    inpval = ''"
p3248
sI815
S'            elif OptionsWidget.has_options(field):'
p3249
sI816
S'                if not field.requires.multiple:'
p3250
sI817
S'                    inp = self.widgets.options.widget(field, default)'
p3251
sI818
S'                else:'
p3252
sI819
S'                    inp = self.widgets.multiple.widget(field, default)'
p3253
sI820
S'                if fieldname in keepopts:'
p3254
sI821
S"                    inpval = TAG[''](*inp.components)"
p3255
ssg3131
S"(self=<gluon.sqlhtml.SQLFORM object>, table=<Table {'ALL': <gluon.dal.SQLALL object at 0x355...y-trunk/applications/mvstore/databases/sql.log'}>, record=None, deletable=False, linkto=None, upload='/mvstore/default/download', fields=['id', 'titulo', 'cliente', 'empleado', 'fecha', 'devol'], labels=None, col3={}, submit_button='Submit', delete_label='Check to delete:', showid=False, readonly=False, comments=True, keepopts=[], ignore_rw=False, record_id=None, formstyle='table3cols', buttons=['submit'], **attributes={'hidden': {'_next': None}})"
p3256
sg3133
g49
sa(dp3257
g3110
S'/home/marco/proyectos/web2py-trunk/gluon/sqlhtml.py'
p3258
sg3112
(dp3259
S'].options'
p3260
g3152
sS'requires'
p3261
S'[<gluon.validators.IS_IN_DB object>]'
p3262
sS'options'
p3263
g3152
ssg3118
I206
sg3119
(dp3264
I201
S'        requires = field.requires'
p3265
sI202
S'        if not isinstance(requires, (list, tuple)):'
p3266
sI203
S'            requires = [requires]'
p3267
sI204
S'        if requires:'
p3268
sI205
S"            if hasattr(requires[0], 'options'):"
p3269
sI206
S'                options = requires[0].options()'
p3270
sI207
S'            else:'
p3271
sI208
S"                raise SyntaxError, 'widget cannot determine options of %s' \\"
p3272
sI209
S'                    % field'
p3273
sI210
S'        opts = [OPTION(v, _value=k) for (k, v) in options]'
p3274
ssg3131
S'(field=<gluon.dal.Field object>, value=None, **attributes={})'
p3275
sg3133
S'widget'
p3276
sa(dp3277
g3110
S'/home/marco/proyectos/web2py-trunk/gluon/validators.py'
p3278
sg3112
(dp3279
S'self'
p3280
S'<gluon.validators.IS_IN_DB object>'
p3281
sS'self.build_set'
p3282
S'<bound method IS_IN_DB.build_set of <gluon.validators.IS_IN_DB object>>'
p3283
ssg3118
I438
sg3119
(dp3284
I433
S'            self.labels = [self.label % dict(r) for r in records]'
p3285
sI434
S'        else:'
p3286
sI435
S'            self.labels = [self.label(r) for r in records]'
p3287
sI436
S''
sI437
S'    def options(self):'
p3288
sI438
S'        self.build_set()'
p3289
sI439
S'        items = [(k, self.labels[i]) for (i, k) in enumerate(self.theset)]'
p3290
sI440
S'        if self.sort:'
p3291
sI441
S'            items.sort(options_sorter)'
p3292
sI442
S'        if self.zero != None and not self.multiple:'
p3293
ssg3131
S'(self=<gluon.validators.IS_IN_DB object>)'
p3294
sg3133
S'options'
p3295
sa(dp3296
g3110
S'/home/marco/proyectos/web2py-trunk/gluon/validators.py'
p3297
sg3112
(dp3298
S'self.dbset'
p3299
S'<gluon.dal.Set object>'
p3300
sS'fields'
p3301
g3152
sS'self'
p3302
S'<gluon.validators.IS_IN_DB object>'
p3303
sS'self.ktable'
p3304
S"'clientes'"
p3305
sS'self.fields'
p3306
S"['first_name', 'last_name', 'id']"
p3307
sS'self.dbset.db'
p3308
S"<DAL {'auth_event': <Table {'origin': <gluon.dal..., 'id': <gluon.dal.Field object at 0x3550790>}>}>"
p3309
sS'k'
S"'first_name'"
p3310
ssg3118
I421
sg3119
(dp3311
I416
S''
sI417
S'    def build_set(self):'
p3312
sI418
S"        if self.fields == 'all':"
p3313
sI419
S'            fields = [f for f in self.dbset.db[self.ktable]]'
p3314
sI420
S'        else:'
p3315
sI421
S'            fields = [self.dbset.db[self.ktable][k] for k in self.fields]'
p3316
sI422
S"        if self.dbset.db._dbname != 'gae':"
p3317
sI423
S'            orderby = self.orderby or reduce(lambda a,b:a|b,fields)'
p3318
sI424
S'            groupby = self.groupby'
p3319
sI425
S'            dd = dict(orderby=orderby, groupby=groupby, cache=self.cache)'
p3320
ssg3131
S'(self=<gluon.validators.IS_IN_DB object>)'
p3321
sg3133
S'build_set'
p3322
sa(dp3323
g3110
S'/home/marco/proyectos/web2py-trunk/gluon/dal.py'
p3324
sg3112
(dp3325
S'builtinstr'
p3326
S"<type 'str'>"
p3327
sS'self'
p3328
S"<Table {'foto': <gluon.dal.Field object at 0x357...cumento': <gluon.dal.Field object at 0x357e410>}>"
p3329
sS'dict.__getitem__'
p3330
S"<method '__getitem__' of 'dict' objects>"
p3331
sS'key'
p3332
S"'first_name'"
p3333
sS'builtindict'
p3334
S"<type 'dict'>"
p3335
ssg3118
I4592
sg3119
(dp3336
I4587
S'                return rows[0]'
p3337
sI4588
S'            return None'
p3338
sI4589
S'        elif str(key).isdigit():'
p3339
sI4590
S'            return self._db(self._id == key).select(limitby=(0,1)).first()'
p3340
sI4591
S'        elif key:'
p3341
sI4592
S'            return dict.__getitem__(self, str(key))'
p3342
sI4593
S''
sI4594
S'    def __call__(self, key=DEFAULT, **kwargs):'
p3343
sI4595
S'        if key!=DEFAULT:'
p3344
sI4596
S'            if isinstance(key, Query):'
p3345
ssg3131
S"(self=<Table {'foto': <gluon.dal.Field object at 0x357...cumento': <gluon.dal.Field object at 0x357e410>}>, key='first_name')"
p3346
sg3133
g19
sasS'pyver'
p3347
S'Python 2.6.6: /usr/bin/python'
p3348
sS'session'
p3349
g56
(g57
g58
NtRp3350
(dp3351
g61
(dp3352
sg63
(lp3353
g56
(g65
g58
NtRp3354
(dp3355
g61
(dp3356
g69
I5
ssg70
Nsg63
(lp3357
sbasbsS'etype'
p3358
S"<type 'exceptions.KeyError'>"
p3359
sS'date'
p3360
S'Sat Jun 18 00:31:12 2011'
p3361
sS'response'
p3362
g56
(g57
g58
NtRp3363
(dp3364
g61
(dp3365
sg63
(lp3366
g56
(g65
g58
NtRp3367
(dp3368
g61
(dp3369
g69
I5
ssg70
Nsg63
(lp3370
g56
(g72
g58
NtRp3371
(dp3372
g61
(dp3373
sg70
g3367
sg63
(lp3374
g56
(g77
g58
NtRp3375
(dp3376
g61
(dp3377
g81
g82
ssg70
g3371
sg63
(lp3378
g154
asbag56
(g77
g58
NtRp3379
(dp3380
g61
(dp3381
g88
g89
ssg70
g3371
sg63
(lp3382
S':'
asbag56
(g77
g58
NtRp3383
(dp3384
g61
(dp3385
sg70
g3371
sg63
(lp3386
g56
(g57
g58
NtRp3387
(dp3388
g61
(dp3389
g69
I5
ssg70
g3383
sg63
(lp3390
S'<cStringIO.StringO object at 0x3958ce0>'
p3391
asbasbasbag56
(g72
g58
NtRp3392
(dp3393
g61
(dp3394
sg70
g3367
sg63
(lp3395
g56
(g77
g58
NtRp3396
(dp3397
g61
(dp3398
g81
g82
ssg70
g3392
sg63
(lp3399
g220
asbag56
(g77
g58
NtRp3400
(dp3401
g61
(dp3402
g88
g89
ssg70
g3392
sg63
(lp3403
S':'
asbag56
(g77
g58
NtRp3404
(dp3405
g61
(dp3406
sg70
g3392
sg63
(lp3407
g56
(g57
g58
NtRp3408
(dp3409
g61
(dp3410
g69
I5
ssg70
g3404
sg63
(lp3411
g56
(g65
g58
NtRp3412
(dp3413
g61
(dp3414
g69
I4
ssg70
Nsg63
(lp3415
g56
(g72
g58
NtRp3416
(dp3417
g61
(dp3418
sg70
g3412
sg63
(lp3419
g56
(g77
g58
NtRp3420
(dp3421
g61
(dp3422
g81
g82
ssg70
g3416
sg63
(lp3423
S'session_id_mvstore'
p3424
asbag56
(g77
g58
NtRp3425
(dp3426
g61
(dp3427
g88
g89
ssg70
g3416
sg63
(lp3428
S':'
asbag56
(g77
g58
NtRp3429
(dp3430
g61
(dp3431
sg70
g3416
sg63
(lp3432
g56
(g57
g58
NtRp3433
(dp3434
g61
(dp3435
g69
I4
ssg70
g3429
sg63
(lp3436
g56
(g65
g58
NtRp3437
(dp3438
g61
(dp3439
g69
I3
ssg70
Nsg63
(lp3440
g56
(g72
g58
NtRp3441
(dp3442
g61
(dp3443
sg70
g3437
sg63
(lp3444
g56
(g77
g58
NtRp3445
(dp3446
g61
(dp3447
g81
g82
ssg70
g3441
sg63
(lp3448
g270
asbag56
(g77
g58
NtRp3449
(dp3450
g61
(dp3451
g88
g89
ssg70
g3441
sg63
(lp3452
S':'
asbag56
(g77
g58
NtRp3453
(dp3454
g61
(dp3455
sg70
g3441
sg63
(lp3456
g56
(g57
g58
NtRp3457
(dp3458
g61
(dp3459
g69
I3
ssg70
g3453
sg63
(lp3460
S''
asbasbasbag56
(g72
g58
NtRp3461
(dp3462
g61
(dp3463
sg70
g3437
sg63
(lp3464
g56
(g77
g58
NtRp3465
(dp3466
g61
(dp3467
g81
g82
ssg70
g3461
sg63
(lp3468
g291
asbag56
(g77
g58
NtRp3469
(dp3470
g61
(dp3471
g88
g89
ssg70
g3461
sg63
(lp3472
S':'
asbag56
(g77
g58
NtRp3473
(dp3474
g61
(dp3475
sg70
g3461
sg63
(lp3476
g56
(g57
g58
NtRp3477
(dp3478
g61
(dp3479
g69
I3
ssg70
g3473
sg63
(lp3480
S''
asbasbasbag56
(g72
g58
NtRp3481
(dp3482
g61
(dp3483
sg70
g3437
sg63
(lp3484
g56
(g77
g58
NtRp3485
(dp3486
g61
(dp3487
g81
g82
ssg70
g3481
sg63
(lp3488
g312
asbag56
(g77
g58
NtRp3489
(dp3490
g61
(dp3491
g88
g89
ssg70
g3481
sg63
(lp3492
S':'
asbag56
(g77
g58
NtRp3493
(dp3494
g61
(dp3495
sg70
g3481
sg63
(lp3496
g56
(g57
g58
NtRp3497
(dp3498
g61
(dp3499
g69
I3
ssg70
g3493
sg63
(lp3500
S''
asbasbasbag56
(g72
g58
NtRp3501
(dp3502
g61
(dp3503
sg70
g3437
sg63
(lp3504
g56
(g77
g58
NtRp3505
(dp3506
g61
(dp3507
g81
g82
ssg70
g3501
sg63
(lp3508
g333
asbag56
(g77
g58
NtRp3509
(dp3510
g61
(dp3511
g88
g89
ssg70
g3501
sg63
(lp3512
S':'
asbag56
(g77
g58
NtRp3513
(dp3514
g61
(dp3515
sg70
g3501
sg63
(lp3516
g56
(g57
g58
NtRp3517
(dp3518
g61
(dp3519
g69
I3
ssg70
g3513
sg63
(lp3520
S''
asbasbasbag56
(g72
g58
NtRp3521
(dp3522
g61
(dp3523
sg70
g3437
sg63
(lp3524
g56
(g77
g58
NtRp3525
(dp3526
g61
(dp3527
g81
g82
ssg70
g3521
sg63
(lp3528
g354
asbag56
(g77
g58
NtRp3529
(dp3530
g61
(dp3531
g88
g89
ssg70
g3521
sg63
(lp3532
S':'
asbag56
(g77
g58
NtRp3533
(dp3534
g61
(dp3535
sg70
g3521
sg63
(lp3536
g56
(g57
g58
NtRp3537
(dp3538
g61
(dp3539
g69
I3
ssg70
g3533
sg63
(lp3540
S''
asbasbasbag56
(g72
g58
NtRp3541
(dp3542
g61
(dp3543
sg70
g3437
sg63
(lp3544
g56
(g77
g58
NtRp3545
(dp3546
g61
(dp3547
g81
g82
ssg70
g3541
sg63
(lp3548
g375
asbag56
(g77
g58
NtRp3549
(dp3550
g61
(dp3551
g88
g89
ssg70
g3541
sg63
(lp3552
S':'
asbag56
(g77
g58
NtRp3553
(dp3554
g61
(dp3555
sg70
g3541
sg63
(lp3556
g56
(g57
g58
NtRp3557
(dp3558
g61
(dp3559
g69
I3
ssg70
g3553
sg63
(lp3560
S'/'
asbasbasbag56
(g72
g58
NtRp3561
(dp3562
g61
(dp3563
sg70
g3437
sg63
(lp3564
g56
(g77
g58
NtRp3565
(dp3566
g61
(dp3567
g81
g82
ssg70
g3561
sg63
(lp3568
g396
asbag56
(g77
g58
NtRp3569
(dp3570
g61
(dp3571
g88
g89
ssg70
g3561
sg63
(lp3572
S':'
asbag56
(g77
g58
NtRp3573
(dp3574
g61
(dp3575
sg70
g3561
sg63
(lp3576
g56
(g57
g58
NtRp3577
(dp3578
g61
(dp3579
g69
I3
ssg70
g3573
sg63
(lp3580
S''
asbasbasbag56
(g72
g58
NtRp3581
(dp3582
g61
(dp3583
sg70
g3437
sg63
(lp3584
g56
(g77
g58
NtRp3585
(dp3586
g61
(dp3587
g81
g82
ssg70
g3581
sg63
(lp3588
g417
asbag56
(g77
g58
NtRp3589
(dp3590
g61
(dp3591
g88
g89
ssg70
g3581
sg63
(lp3592
S':'
asbag56
(g77
g58
NtRp3593
(dp3594
g61
(dp3595
sg70
g3581
sg63
(lp3596
g56
(g57
g58
NtRp3597
(dp3598
g61
(dp3599
g69
I3
ssg70
g3593
sg63
(lp3600
S''
asbasbasbasbasbasbasbasbasbasbasbag56
(g72
g58
NtRp3601
(dp3602
g61
(dp3603
sg70
g3367
sg63
(lp3604
g56
(g77
g58
NtRp3605
(dp3606
g61
(dp3607
g81
g82
ssg70
g3601
sg63
(lp3608
S'files'
p3609
asbag56
(g77
g58
NtRp3610
(dp3611
g61
(dp3612
g88
g89
ssg70
g3601
sg63
(lp3613
S':'
asbag56
(g77
g58
NtRp3614
(dp3615
g61
(dp3616
sg70
g3601
sg63
(lp3617
g56
(g57
g58
NtRp3618
(dp3619
g61
(dp3620
g69
I5
ssg70
g3614
sg63
(lp3621
g56
(g65
g58
NtRp3622
(dp3623
g61
(dp3624
g69
I4
ssg70
Nsg63
(lp3625
sbasbasbasbag56
(g72
g58
NtRp3626
(dp3627
g61
(dp3628
sg70
g3367
sg63
(lp3629
g56
(g77
g58
NtRp3630
(dp3631
g61
(dp3632
g81
g82
ssg70
g3626
sg63
(lp3633
S'flash'
p3634
asbag56
(g77
g58
NtRp3635
(dp3636
g61
(dp3637
g88
g89
ssg70
g3626
sg63
(lp3638
S':'
asbag56
(g77
g58
NtRp3639
(dp3640
g61
(dp3641
sg70
g3626
sg63
(lp3642
g56
(g57
g58
NtRp3643
(dp3644
g61
(dp3645
g69
I5
ssg70
g3639
sg63
(lp3646
S''
asbasbasbag56
(g72
g58
NtRp3647
(dp3648
g61
(dp3649
sg70
g3367
sg63
(lp3650
g56
(g77
g58
NtRp3651
(dp3652
g61
(dp3653
g81
g82
ssg70
g3647
sg63
(lp3654
S'headers'
p3655
asbag56
(g77
g58
NtRp3656
(dp3657
g61
(dp3658
g88
g89
ssg70
g3647
sg63
(lp3659
S':'
asbag56
(g77
g58
NtRp3660
(dp3661
g61
(dp3662
sg70
g3647
sg63
(lp3663
g56
(g57
g58
NtRp3664
(dp3665
g61
(dp3666
g69
I5
ssg70
g3660
sg63
(lp3667
g56
(g65
g58
NtRp3668
(dp3669
g61
(dp3670
g69
I4
ssg70
Nsg63
(lp3671
g56
(g72
g58
NtRp3672
(dp3673
g61
(dp3674
sg70
g3668
sg63
(lp3675
g56
(g77
g58
NtRp3676
(dp3677
g61
(dp3678
g81
g82
ssg70
g3672
sg63
(lp3679
S'Cache-Control'
p3680
asbag56
(g77
g58
NtRp3681
(dp3682
g61
(dp3683
g88
g89
ssg70
g3672
sg63
(lp3684
S':'
asbag56
(g77
g58
NtRp3685
(dp3686
g61
(dp3687
sg70
g3672
sg63
(lp3688
g56
(g57
g58
NtRp3689
(dp3690
g61
(dp3691
g69
I4
ssg70
g3685
sg63
(lp3692
S'no-store, no-cache, must-revalidate, post-check=0, pre-check=0'
p3693
asbasbasbag56
(g72
g58
NtRp3694
(dp3695
g61
(dp3696
sg70
g3668
sg63
(lp3697
g56
(g77
g58
NtRp3698
(dp3699
g61
(dp3700
g81
g82
ssg70
g3694
sg63
(lp3701
S'Content-Type'
p3702
asbag56
(g77
g58
NtRp3703
(dp3704
g61
(dp3705
g88
g89
ssg70
g3694
sg63
(lp3706
S':'
asbag56
(g77
g58
NtRp3707
(dp3708
g61
(dp3709
sg70
g3694
sg63
(lp3710
g56
(g57
g58
NtRp3711
(dp3712
g61
(dp3713
g69
I4
ssg70
g3707
sg63
(lp3714
S'text/html; charset=utf-8'
p3715
asbasbasbag56
(g72
g58
NtRp3716
(dp3717
g61
(dp3718
sg70
g3668
sg63
(lp3719
g56
(g77
g58
NtRp3720
(dp3721
g61
(dp3722
g81
g82
ssg70
g3716
sg63
(lp3723
S'Expires'
p3724
asbag56
(g77
g58
NtRp3725
(dp3726
g61
(dp3727
g88
g89
ssg70
g3716
sg63
(lp3728
S':'
asbag56
(g77
g58
NtRp3729
(dp3730
g61
(dp3731
sg70
g3716
sg63
(lp3732
g56
(g57
g58
NtRp3733
(dp3734
g61
(dp3735
g69
I4
ssg70
g3729
sg63
(lp3736
S'Sat, 18 Jun 2011 03:31:12 GMT'
p3737
asbasbasbag56
(g72
g58
NtRp3738
(dp3739
g61
(dp3740
sg70
g3668
sg63
(lp3741
g56
(g77
g58
NtRp3742
(dp3743
g61
(dp3744
g81
g82
ssg70
g3738
sg63
(lp3745
S'Pragma'
p3746
asbag56
(g77
g58
NtRp3747
(dp3748
g61
(dp3749
g88
g89
ssg70
g3738
sg63
(lp3750
S':'
asbag56
(g77
g58
NtRp3751
(dp3752
g61
(dp3753
sg70
g3738
sg63
(lp3754
g56
(g57
g58
NtRp3755
(dp3756
g61
(dp3757
g69
I4
ssg70
g3751
sg63
(lp3758
S'no-cache'
p3759
asbasbasbag56
(g72
g58
NtRp3760
(dp3761
g61
(dp3762
sg70
g3668
sg63
(lp3763
g56
(g77
g58
NtRp3764
(dp3765
g61
(dp3766
g81
g82
ssg70
g3760
sg63
(lp3767
S'X-Powered-By'
p3768
asbag56
(g77
g58
NtRp3769
(dp3770
g61
(dp3771
g88
g89
ssg70
g3760
sg63
(lp3772
S':'
asbag56
(g77
g58
NtRp3773
(dp3774
g61
(dp3775
sg70
g3760
sg63
(lp3776
g56
(g57
g58
NtRp3777
(dp3778
g61
(dp3779
g69
I4
ssg70
g3773
sg63
(lp3780
S'web2py'
p3781
asbasbasbasbasbasbasbag56
(g72
g58
NtRp3782
(dp3783
g61
(dp3784
sg70
g3367
sg63
(lp3785
g56
(g77
g58
NtRp3786
(dp3787
g61
(dp3788
g81
g82
ssg70
g3782
sg63
(lp3789
S'menu'
p3790
asbag56
(g77
g58
NtRp3791
(dp3792
g61
(dp3793
g88
g89
ssg70
g3782
sg63
(lp3794
S':'
asbag56
(g77
g58
NtRp3795
(dp3796
g61
(dp3797
sg70
g3782
sg63
(lp3798
g56
(g57
g58
NtRp3799
(dp3800
g61
(dp3801
g69
I5
ssg70
g3795
sg63
(lp3802
g56
(g65
g58
NtRp3803
(dp3804
g61
(dp3805
g69
I4
ssg70
Nsg63
(lp3806
g56
(g72
g58
NtRp3807
(dp3808
g61
(dp3809
sg70
g3803
sg63
(lp3810
g56
(g77
g58
NtRp3811
(dp3812
g61
(dp3813
sg70
g3807
sg63
(lp3814
g56
(g57
g58
NtRp3815
(dp3816
g61
(dp3817
g69
I4
ssg70
g3811
sg63
(lp3818
g56
(g65
g58
NtRp3819
(dp3820
g61
(dp3821
g69
I3
ssg70
Nsg63
(lp3822
g56
(g72
g58
NtRp3823
(dp3824
g61
(dp3825
sg70
g3819
sg63
(lp3826
g56
(g77
g58
NtRp3827
(dp3828
g61
(dp3829
sg70
g3823
sg63
(lp3830
g56
(g57
g58
NtRp3831
(dp3832
g61
(dp3833
g69
I3
ssg70
g3827
sg63
(lp3834
cgluon.languages
lazyT_unpickle
p3835
(S's\x04\x00\x00\x00Home'
tRp3836
asbasbasbag56
(g72
g58
NtRp3837
(dp3838
g61
(dp3839
sg70
g3819
sg63
(lp3840
g56
(g77
g58
NtRp3841
(dp3842
g61
(dp3843
sg70
g3837
sg63
(lp3844
g56
(g57
g58
NtRp3845
(dp3846
g61
(dp3847
g69
I3
ssg70
g3841
sg63
(lp3848
g99
asbasbasbag56
(g72
g58
NtRp3849
(dp3850
g61
(dp3851
sg70
g3819
sg63
(lp3852
g56
(g77
g58
NtRp3853
(dp3854
g61
(dp3855
sg70
g3849
sg63
(lp3856
g56
(g57
g58
NtRp3857
(dp3858
g61
(dp3859
g69
I3
ssg70
g3853
sg63
(lp3860
S'/mvstore/default/index'
p3861
asbasbasbag56
(g72
g58
NtRp3862
(dp3863
g61
(dp3864
sg70
g3819
sg63
(lp3865
g56
(g77
g58
NtRp3866
(dp3867
g61
(dp3868
sg70
g3862
sg63
(lp3869
g56
(g57
g58
NtRp3870
(dp3871
g61
(dp3872
g69
I3
ssg70
g3866
sg63
(lp3873
g56
(g65
g58
NtRp3874
(dp3875
g61
(dp3876
g69
I2
ssg70
Nsg63
(lp3877
sbasbasbasbasbasbasbasbag56
(g72
g58
NtRp3878
(dp3879
g61
(dp3880
sg70
g3803
sg63
(lp3881
g56
(g77
g58
NtRp3882
(dp3883
g61
(dp3884
sg70
g3878
sg63
(lp3885
g56
(g57
g58
NtRp3886
(dp3887
g61
(dp3888
g69
I4
ssg70
g3882
sg63
(lp3889
g56
(g65
g58
NtRp3890
(dp3891
g61
(dp3892
g69
I3
ssg70
Nsg63
(lp3893
g56
(g72
g58
NtRp3894
(dp3895
g61
(dp3896
sg70
g3890
sg63
(lp3897
g56
(g77
g58
NtRp3898
(dp3899
g61
(dp3900
sg70
g3894
sg63
(lp3901
g56
(g57
g58
NtRp3902
(dp3903
g61
(dp3904
g69
I3
ssg70
g3898
sg63
(lp3905
g3835
(S's\x08\x00\x00\x00This App'
tRp3906
asbasbasbag56
(g72
g58
NtRp3907
(dp3908
g61
(dp3909
sg70
g3890
sg63
(lp3910
g56
(g77
g58
NtRp3911
(dp3912
g61
(dp3913
sg70
g3907
sg63
(lp3914
g56
(g57
g58
NtRp3915
(dp3916
g61
(dp3917
g69
I3
ssg70
g3911
sg63
(lp3918
g99
asbasbasbag56
(g72
g58
NtRp3919
(dp3920
g61
(dp3921
sg70
g3890
sg63
(lp3922
g56
(g77
g58
NtRp3923
(dp3924
g61
(dp3925
sg70
g3919
sg63
(lp3926
g56
(g57
g58
NtRp3927
(dp3928
g61
(dp3929
g69
I3
ssg70
g3923
sg63
(lp3930
S'/admin/default/design/mvstore'
p3931
asbasbasbag56
(g72
g58
NtRp3932
(dp3933
g61
(dp3934
sg70
g3890
sg63
(lp3935
g56
(g77
g58
NtRp3936
(dp3937
g61
(dp3938
sg70
g3932
sg63
(lp3939
g56
(g57
g58
NtRp3940
(dp3941
g61
(dp3942
g69
I3
ssg70
g3936
sg63
(lp3943
g56
(g65
g58
NtRp3944
(dp3945
g61
(dp3946
g69
I2
ssg70
Nsg63
(lp3947
g56
(g72
g58
NtRp3948
(dp3949
g61
(dp3950
sg70
g3944
sg63
(lp3951
g56
(g77
g58
NtRp3952
(dp3953
g61
(dp3954
sg70
g3948
sg63
(lp3955
g56
(g57
g58
NtRp3956
(dp3957
g61
(dp3958
g69
I2
ssg70
g3952
sg63
(lp3959
g56
(g65
g58
NtRp3960
(dp3961
g61
(dp3962
g69
I1
ssg70
Nsg63
(lp3963
g56
(g72
g58
NtRp3964
(dp3965
g61
(dp3966
sg70
g3960
sg63
(lp3967
g56
(g77
g58
NtRp3968
(dp3969
g61
(dp3970
sg70
g3964
sg63
(lp3971
g56
(g57
g58
NtRp3972
(dp3973
g61
(dp3974
g69
I1
ssg70
g3968
sg63
(lp3975
g3835
(S's\n\x00\x00\x00Controller'
tRp3976
asbasbasbag56
(g72
g58
NtRp3977
(dp3978
g61
(dp3979
sg70
g3960
sg63
(lp3980
g56
(g77
g58
NtRp3981
(dp3982
g61
(dp3983
sg70
g3977
sg63
(lp3984
g56
(g57
g58
NtRp3985
(dp3986
g61
(dp3987
g69
I1
ssg70
g3981
sg63
(lp3988
I00
asbasbasbag56
(g72
g58
NtRp3989
(dp3990
g61
(dp3991
sg70
g3960
sg63
(lp3992
g56
(g77
g58
NtRp3993
(dp3994
g61
(dp3995
sg70
g3989
sg63
(lp3996
g56
(g57
g58
NtRp3997
(dp3998
g61
(dp3999
g69
I1
ssg70
g3993
sg63
(lp4000
S'/admin/default/edit/mvstore/controllers/default.py'
p4001
asbasbasbasbasbasbasbag56
(g72
g58
NtRp4002
(dp4003
g61
(dp4004
sg70
g3944
sg63
(lp4005
g56
(g77
g58
NtRp4006
(dp4007
g61
(dp4008
sg70
g4002
sg63
(lp4009
g56
(g57
g58
NtRp4010
(dp4011
g61
(dp4012
g69
I2
ssg70
g4006
sg63
(lp4013
g56
(g65
g58
NtRp4014
(dp4015
g61
(dp4016
g69
I1
ssg70
Nsg63
(lp4017
g56
(g72
g58
NtRp4018
(dp4019
g61
(dp4020
sg70
g4014
sg63
(lp4021
g56
(g77
g58
NtRp4022
(dp4023
g61
(dp4024
sg70
g4018
sg63
(lp4025
g56
(g57
g58
NtRp4026
(dp4027
g61
(dp4028
g69
I1
ssg70
g4022
sg63
(lp4029
g3835
(S's\x04\x00\x00\x00View'
tRp4030
asbasbasbag56
(g72
g58
NtRp4031
(dp4032
g61
(dp4033
sg70
g4014
sg63
(lp4034
g56
(g77
g58
NtRp4035
(dp4036
g61
(dp4037
sg70
g4031
sg63
(lp4038
g56
(g57
g58
NtRp4039
(dp4040
g61
(dp4041
g69
I1
ssg70
g4035
sg63
(lp4042
I00
asbasbasbag56
(g72
g58
NtRp4043
(dp4044
g61
(dp4045
sg70
g4014
sg63
(lp4046
g56
(g77
g58
NtRp4047
(dp4048
g61
(dp4049
sg70
g4043
sg63
(lp4050
g56
(g57
g58
NtRp4051
(dp4052
g61
(dp4053
g69
I1
ssg70
g4047
sg63
(lp4054
S'/admin/default/edit/mvstore/views/default/prestamos.html'
p4055
asbasbasbasbasbasbasbag56
(g72
g58
NtRp4056
(dp4057
g61
(dp4058
sg70
g3944
sg63
(lp4059
g56
(g77
g58
NtRp4060
(dp4061
g61
(dp4062
sg70
g4056
sg63
(lp4063
g56
(g57
g58
NtRp4064
(dp4065
g61
(dp4066
g69
I2
ssg70
g4060
sg63
(lp4067
g56
(g65
g58
NtRp4068
(dp4069
g61
(dp4070
g69
I1
ssg70
Nsg63
(lp4071
g56
(g72
g58
NtRp4072
(dp4073
g61
(dp4074
sg70
g4068
sg63
(lp4075
g56
(g77
g58
NtRp4076
(dp4077
g61
(dp4078
sg70
g4072
sg63
(lp4079
g56
(g57
g58
NtRp4080
(dp4081
g61
(dp4082
g69
I1
ssg70
g4076
sg63
(lp4083
g3835
(S's\x06\x00\x00\x00Layout'
tRp4084
asbasbasbag56
(g72
g58
NtRp4085
(dp4086
g61
(dp4087
sg70
g4068
sg63
(lp4088
g56
(g77
g58
NtRp4089
(dp4090
g61
(dp4091
sg70
g4085
sg63
(lp4092
g56
(g57
g58
NtRp4093
(dp4094
g61
(dp4095
g69
I1
ssg70
g4089
sg63
(lp4096
I00
asbasbasbag56
(g72
g58
NtRp4097
(dp4098
g61
(dp4099
sg70
g4068
sg63
(lp4100
g56
(g77
g58
NtRp4101
(dp4102
g61
(dp4103
sg70
g4097
sg63
(lp4104
g56
(g57
g58
NtRp4105
(dp4106
g61
(dp4107
g69
I1
ssg70
g4101
sg63
(lp4108
S'/admin/default/edit/mvstore/views/layout.html'
p4109
asbasbasbasbasbasbasbag56
(g72
g58
NtRp4110
(dp4111
g61
(dp4112
sg70
g3944
sg63
(lp4113
g56
(g77
g58
NtRp4114
(dp4115
g61
(dp4116
sg70
g4110
sg63
(lp4117
g56
(g57
g58
NtRp4118
(dp4119
g61
(dp4120
g69
I2
ssg70
g4114
sg63
(lp4121
g56
(g65
g58
NtRp4122
(dp4123
g61
(dp4124
g69
I1
ssg70
Nsg63
(lp4125
g56
(g72
g58
NtRp4126
(dp4127
g61
(dp4128
sg70
g4122
sg63
(lp4129
g56
(g77
g58
NtRp4130
(dp4131
g61
(dp4132
sg70
g4126
sg63
(lp4133
g56
(g57
g58
NtRp4134
(dp4135
g61
(dp4136
g69
I1
ssg70
g4130
sg63
(lp4137
g3835
(S's\n\x00\x00\x00Stylesheet'
tRp4138
asbasbasbag56
(g72
g58
NtRp4139
(dp4140
g61
(dp4141
sg70
g4122
sg63
(lp4142
g56
(g77
g58
NtRp4143
(dp4144
g61
(dp4145
sg70
g4139
sg63
(lp4146
g56
(g57
g58
NtRp4147
(dp4148
g61
(dp4149
g69
I1
ssg70
g4143
sg63
(lp4150
I00
asbasbasbag56
(g72
g58
NtRp4151
(dp4152
g61
(dp4153
sg70
g4122
sg63
(lp4154
g56
(g77
g58
NtRp4155
(dp4156
g61
(dp4157
sg70
g4151
sg63
(lp4158
g56
(g57
g58
NtRp4159
(dp4160
g61
(dp4161
g69
I1
ssg70
g4155
sg63
(lp4162
S'/admin/default/edit/mvstore/static/base.css'
p4163
asbasbasbasbasbasbasbag56
(g72
g58
NtRp4164
(dp4165
g61
(dp4166
sg70
g3944
sg63
(lp4167
g56
(g77
g58
NtRp4168
(dp4169
g61
(dp4170
sg70
g4164
sg63
(lp4171
g56
(g57
g58
NtRp4172
(dp4173
g61
(dp4174
g69
I2
ssg70
g4168
sg63
(lp4175
g56
(g65
g58
NtRp4176
(dp4177
g61
(dp4178
g69
I1
ssg70
Nsg63
(lp4179
g56
(g72
g58
NtRp4180
(dp4181
g61
(dp4182
sg70
g4176
sg63
(lp4183
g56
(g77
g58
NtRp4184
(dp4185
g61
(dp4186
sg70
g4180
sg63
(lp4187
g56
(g57
g58
NtRp4188
(dp4189
g61
(dp4190
g69
I1
ssg70
g4184
sg63
(lp4191
g3835
(S's\x08\x00\x00\x00DB Model'
tRp4192
asbasbasbag56
(g72
g58
NtRp4193
(dp4194
g61
(dp4195
sg70
g4176
sg63
(lp4196
g56
(g77
g58
NtRp4197
(dp4198
g61
(dp4199
sg70
g4193
sg63
(lp4200
g56
(g57
g58
NtRp4201
(dp4202
g61
(dp4203
g69
I1
ssg70
g4197
sg63
(lp4204
I00
asbasbasbag56
(g72
g58
NtRp4205
(dp4206
g61
(dp4207
sg70
g4176
sg63
(lp4208
g56
(g77
g58
NtRp4209
(dp4210
g61
(dp4211
sg70
g4205
sg63
(lp4212
g56
(g57
g58
NtRp4213
(dp4214
g61
(dp4215
g69
I1
ssg70
g4209
sg63
(lp4216
S'/admin/default/edit/mvstore/models/db.py'
p4217
asbasbasbasbasbasbasbag56
(g72
g58
NtRp4218
(dp4219
g61
(dp4220
sg70
g3944
sg63
(lp4221
g56
(g77
g58
NtRp4222
(dp4223
g61
(dp4224
sg70
g4218
sg63
(lp4225
g56
(g57
g58
NtRp4226
(dp4227
g61
(dp4228
g69
I2
ssg70
g4222
sg63
(lp4229
g56
(g65
g58
NtRp4230
(dp4231
g61
(dp4232
g69
I1
ssg70
Nsg63
(lp4233
g56
(g72
g58
NtRp4234
(dp4235
g61
(dp4236
sg70
g4230
sg63
(lp4237
g56
(g77
g58
NtRp4238
(dp4239
g61
(dp4240
sg70
g4234
sg63
(lp4241
g56
(g57
g58
NtRp4242
(dp4243
g61
(dp4244
g69
I1
ssg70
g4238
sg63
(lp4245
g3835
(S's\n\x00\x00\x00Menu Model'
tRp4246
asbasbasbag56
(g72
g58
NtRp4247
(dp4248
g61
(dp4249
sg70
g4230
sg63
(lp4250
g56
(g77
g58
NtRp4251
(dp4252
g61
(dp4253
sg70
g4247
sg63
(lp4254
g56
(g57
g58
NtRp4255
(dp4256
g61
(dp4257
g69
I1
ssg70
g4251
sg63
(lp4258
I00
asbasbasbag56
(g72
g58
NtRp4259
(dp4260
g61
(dp4261
sg70
g4230
sg63
(lp4262
g56
(g77
g58
NtRp4263
(dp4264
g61
(dp4265
sg70
g4259
sg63
(lp4266
g56
(g57
g58
NtRp4267
(dp4268
g61
(dp4269
g69
I1
ssg70
g4263
sg63
(lp4270
S'/admin/default/edit/mvstore/models/menu.py'
p4271
asbasbasbasbasbasbasbag56
(g72
g58
NtRp4272
(dp4273
g61
(dp4274
sg70
g3944
sg63
(lp4275
g56
(g77
g58
NtRp4276
(dp4277
g61
(dp4278
sg70
g4272
sg63
(lp4279
g56
(g57
g58
NtRp4280
(dp4281
g61
(dp4282
g69
I2
ssg70
g4276
sg63
(lp4283
g56
(g65
g58
NtRp4284
(dp4285
g61
(dp4286
g69
I1
ssg70
Nsg63
(lp4287
g56
(g72
g58
NtRp4288
(dp4289
g61
(dp4290
sg70
g4284
sg63
(lp4291
g56
(g77
g58
NtRp4292
(dp4293
g61
(dp4294
sg70
g4288
sg63
(lp4295
g56
(g57
g58
NtRp4296
(dp4297
g61
(dp4298
g69
I1
ssg70
g4292
sg63
(lp4299
g3835
(S's\x08\x00\x00\x00Database'
tRp4300
asbasbasbag56
(g72
g58
NtRp4301
(dp4302
g61
(dp4303
sg70
g4284
sg63
(lp4304
g56
(g77
g58
NtRp4305
(dp4306
g61
(dp4307
sg70
g4301
sg63
(lp4308
g56
(g57
g58
NtRp4309
(dp4310
g61
(dp4311
g69
I1
ssg70
g4305
sg63
(lp4312
I00
asbasbasbag56
(g72
g58
NtRp4313
(dp4314
g61
(dp4315
sg70
g4284
sg63
(lp4316
g56
(g77
g58
NtRp4317
(dp4318
g61
(dp4319
sg70
g4313
sg63
(lp4320
g56
(g57
g58
NtRp4321
(dp4322
g61
(dp4323
g69
I1
ssg70
g4317
sg63
(lp4324
S'/mvstore/appadmin/index'
p4325
asbasbasbasbasbasbasbag56
(g72
g58
NtRp4326
(dp4327
g61
(dp4328
sg70
g3944
sg63
(lp4329
g56
(g77
g58
NtRp4330
(dp4331
g61
(dp4332
sg70
g4326
sg63
(lp4333
g56
(g57
g58
NtRp4334
(dp4335
g61
(dp4336
g69
I2
ssg70
g4330
sg63
(lp4337
g56
(g65
g58
NtRp4338
(dp4339
g61
(dp4340
g69
I1
ssg70
Nsg63
(lp4341
g56
(g72
g58
NtRp4342
(dp4343
g61
(dp4344
sg70
g4338
sg63
(lp4345
g56
(g77
g58
NtRp4346
(dp4347
g61
(dp4348
sg70
g4342
sg63
(lp4349
g56
(g57
g58
NtRp4350
(dp4351
g61
(dp4352
g69
I1
ssg70
g4346
sg63
(lp4353
g3835
(S's\x06\x00\x00\x00Errors'
tRp4354
asbasbasbag56
(g72
g58
NtRp4355
(dp4356
g61
(dp4357
sg70
g4338
sg63
(lp4358
g56
(g77
g58
NtRp4359
(dp4360
g61
(dp4361
sg70
g4355
sg63
(lp4362
g56
(g57
g58
NtRp4363
(dp4364
g61
(dp4365
g69
I1
ssg70
g4359
sg63
(lp4366
I00
asbasbasbag56
(g72
g58
NtRp4367
(dp4368
g61
(dp4369
sg70
g4338
sg63
(lp4370
g56
(g77
g58
NtRp4371
(dp4372
g61
(dp4373
sg70
g4367
sg63
(lp4374
g56
(g57
g58
NtRp4375
(dp4376
g61
(dp4377
g69
I1
ssg70
g4371
sg63
(lp4378
S'/admin/default/errors/mvstore'
p4379
asbasbasbasbasbasbasbag56
(g72
g58
NtRp4380
(dp4381
g61
(dp4382
sg70
g3944
sg63
(lp4383
g56
(g77
g58
NtRp4384
(dp4385
g61
(dp4386
sg70
g4380
sg63
(lp4387
g56
(g57
g58
NtRp4388
(dp4389
g61
(dp4390
g69
I2
ssg70
g4384
sg63
(lp4391
g56
(g65
g58
NtRp4392
(dp4393
g61
(dp4394
g69
I1
ssg70
Nsg63
(lp4395
g56
(g72
g58
NtRp4396
(dp4397
g61
(dp4398
sg70
g4392
sg63
(lp4399
g56
(g77
g58
NtRp4400
(dp4401
g61
(dp4402
sg70
g4396
sg63
(lp4403
g56
(g57
g58
NtRp4404
(dp4405
g61
(dp4406
g69
I1
ssg70
g4400
sg63
(lp4407
g3835
(S's\x05\x00\x00\x00About'
tRp4408
asbasbasbag56
(g72
g58
NtRp4409
(dp4410
g61
(dp4411
sg70
g4392
sg63
(lp4412
g56
(g77
g58
NtRp4413
(dp4414
g61
(dp4415
sg70
g4409
sg63
(lp4416
g56
(g57
g58
NtRp4417
(dp4418
g61
(dp4419
g69
I1
ssg70
g4413
sg63
(lp4420
I00
asbasbasbag56
(g72
g58
NtRp4421
(dp4422
g61
(dp4423
sg70
g4392
sg63
(lp4424
g56
(g77
g58
NtRp4425
(dp4426
g61
(dp4427
sg70
g4421
sg63
(lp4428
g56
(g57
g58
NtRp4429
(dp4430
g61
(dp4431
g69
I1
ssg70
g4425
sg63
(lp4432
S'/admin/default/about/mvstore'
p4433
asbasbasbasbasbasbasbasbasbasbasbasbasbasbasbag56
(g72
g58
NtRp4434
(dp4435
g61
(dp4436
sg70
g3803
sg63
(lp4437
g56
(g77
g58
NtRp4438
(dp4439
g61
(dp4440
sg70
g4434
sg63
(lp4441
g56
(g57
g58
NtRp4442
(dp4443
g61
(dp4444
g69
I4
ssg70
g4438
sg63
(lp4445
g56
(g65
g58
NtRp4446
(dp4447
g61
(dp4448
g69
I3
ssg70
Nsg63
(lp4449
g56
(g72
g58
NtRp4450
(dp4451
g61
(dp4452
sg70
g4446
sg63
(lp4453
g56
(g77
g58
NtRp4454
(dp4455
g61
(dp4456
sg70
g4450
sg63
(lp4457
g56
(g57
g58
NtRp4458
(dp4459
g61
(dp4460
g69
I3
ssg70
g4454
sg63
(lp4461
g3835
(S's\t\x00\x00\x00Resources'
tRp4462
asbasbasbag56
(g72
g58
NtRp4463
(dp4464
g61
(dp4465
sg70
g4446
sg63
(lp4466
g56
(g77
g58
NtRp4467
(dp4468
g61
(dp4469
sg70
g4463
sg63
(lp4470
g56
(g57
g58
NtRp4471
(dp4472
g61
(dp4473
g69
I3
ssg70
g4467
sg63
(lp4474
g99
asbasbasbag56
(g72
g58
NtRp4475
(dp4476
g61
(dp4477
sg70
g4446
sg63
(lp4478
g56
(g77
g58
NtRp4479
(dp4480
g61
(dp4481
sg70
g4475
sg63
(lp4482
g56
(g57
g58
NtRp4483
(dp4484
g61
(dp4485
g69
I3
ssg70
g4479
sg63
(lp4486
S'None'
p4487
asbasbasbag56
(g72
g58
NtRp4488
(dp4489
g61
(dp4490
sg70
g4446
sg63
(lp4491
g56
(g77
g58
NtRp4492
(dp4493
g61
(dp4494
sg70
g4488
sg63
(lp4495
g56
(g57
g58
NtRp4496
(dp4497
g61
(dp4498
g69
I3
ssg70
g4492
sg63
(lp4499
g56
(g65
g58
NtRp4500
(dp4501
g61
(dp4502
g69
I2
ssg70
Nsg63
(lp4503
g56
(g72
g58
NtRp4504
(dp4505
g61
(dp4506
sg70
g4500
sg63
(lp4507
g56
(g77
g58
NtRp4508
(dp4509
g61
(dp4510
sg70
g4504
sg63
(lp4511
g56
(g57
g58
NtRp4512
(dp4513
g61
(dp4514
g69
I2
ssg70
g4508
sg63
(lp4515
g56
(g65
g58
NtRp4516
(dp4517
g61
(dp4518
g69
I1
ssg70
Nsg63
(lp4519
g56
(g72
g58
NtRp4520
(dp4521
g61
(dp4522
sg70
g4516
sg63
(lp4523
g56
(g77
g58
NtRp4524
(dp4525
g61
(dp4526
sg70
g4520
sg63
(lp4527
g56
(g57
g58
NtRp4528
(dp4529
g61
(dp4530
g69
I1
ssg70
g4524
sg63
(lp4531
g3835
(S's\r\x00\x00\x00Documentation'
tRp4532
asbasbasbag56
(g72
g58
NtRp4533
(dp4534
g61
(dp4535
sg70
g4516
sg63
(lp4536
g56
(g77
g58
NtRp4537
(dp4538
g61
(dp4539
sg70
g4533
sg63
(lp4540
g56
(g57
g58
NtRp4541
(dp4542
g61
(dp4543
g69
I1
ssg70
g4537
sg63
(lp4544
I00
asbasbasbag56
(g72
g58
NtRp4545
(dp4546
g61
(dp4547
sg70
g4516
sg63
(lp4548
g56
(g77
g58
NtRp4549
(dp4550
g61
(dp4551
sg70
g4545
sg63
(lp4552
g56
(g57
g58
NtRp4553
(dp4554
g61
(dp4555
g69
I1
ssg70
g4549
sg63
(lp4556
S'http://www.web2py.com/book'
p4557
asbasbasbag56
(g72
g58
NtRp4558
(dp4559
g61
(dp4560
sg70
g4516
sg63
(lp4561
g56
(g77
g58
NtRp4562
(dp4563
g61
(dp4564
sg70
g4558
sg63
(lp4565
g56
(g57
g58
NtRp4566
(dp4567
g61
(dp4568
g69
I1
ssg70
g4562
sg63
(lp4569
(lp4570
(g3835
(S's\x07\x00\x00\x00Preface'
tRp4571
I00
S'http://www.web2py.com/book/default/chapter/00'
tp4572
a(g3835
(S's\x0c\x00\x00\x00Introduction'
tRp4573
I00
S'http://www.web2py.com/book/default/chapter/01'
tp4574
a(g3835
(S's\x06\x00\x00\x00Python'
tRp4575
I00
S'http://www.web2py.com/book/default/chapter/02'
tp4576
a(g3835
(S's\x08\x00\x00\x00Overview'
tRp4577
I00
S'http://www.web2py.com/book/default/chapter/03'
tp4578
a(g3835
(S's\x08\x00\x00\x00The Core'
tRp4579
I00
S'http://www.web2py.com/book/default/chapter/04'
tp4580
a(g3835
(S's\t\x00\x00\x00The Views'
tRp4581
I00
S'http://www.web2py.com/book/default/chapter/05'
tp4582
a(g3835
(S's\x08\x00\x00\x00Database'
tRp4583
I00
S'http://www.web2py.com/book/default/chapter/06'
tp4584
a(g3835
(S's\x14\x00\x00\x00Forms and Validators'
tRp4585
I00
S'http://www.web2py.com/book/default/chapter/07'
tp4586
a(g3835
(S's\x0e\x00\x00\x00Access Control'
tRp4587
I00
S'http://www.web2py.com/book/default/chapter/08'
tp4588
a(g3835
(S's\x08\x00\x00\x00Services'
tRp4589
I00
S'http://www.web2py.com/book/default/chapter/09'
tp4590
a(g3835
(S's\x0c\x00\x00\x00Ajax Recipes'
tRp4591
I00
S'http://www.web2py.com/book/default/chapter/10'
tp4592
a(g3835
(S's\x12\x00\x00\x00Deployment Recipes'
tRp4593
I00
S'http://www.web2py.com/book/default/chapter/11'
tp4594
a(g3835
(S's\r\x00\x00\x00Other Recipes'
tRp4595
I00
S'http://www.web2py.com/book/default/chapter/12'
tp4596
a(g3835
(S's\r\x00\x00\x00Buy this book'
tRp4597
I00
S'http://stores.lulu.com/web2py'
tp4598
aasbasbasbasbasbasbasbag56
(g72
g58
NtRp4599
(dp4600
g61
(dp4601
sg70
g4500
sg63
(lp4602
g56
(g77
g58
NtRp4603
(dp4604
g61
(dp4605
sg70
g4599
sg63
(lp4606
g56
(g57
g58
NtRp4607
(dp4608
g61
(dp4609
g69
I2
ssg70
g4603
sg63
(lp4610
g56
(g65
g58
NtRp4611
(dp4612
g61
(dp4613
g69
I1
ssg70
Nsg63
(lp4614
g56
(g72
g58
NtRp4615
(dp4616
g61
(dp4617
sg70
g4611
sg63
(lp4618
g56
(g77
g58
NtRp4619
(dp4620
g61
(dp4621
sg70
g4615
sg63
(lp4622
g56
(g57
g58
NtRp4623
(dp4624
g61
(dp4625
g69
I1
ssg70
g4619
sg63
(lp4626
g3835
(S's\t\x00\x00\x00Community'
tRp4627
asbasbasbag56
(g72
g58
NtRp4628
(dp4629
g61
(dp4630
sg70
g4611
sg63
(lp4631
g56
(g77
g58
NtRp4632
(dp4633
g61
(dp4634
sg70
g4628
sg63
(lp4635
g56
(g57
g58
NtRp4636
(dp4637
g61
(dp4638
g69
I1
ssg70
g4632
sg63
(lp4639
I00
asbasbasbag56
(g72
g58
NtRp4640
(dp4641
g61
(dp4642
sg70
g4611
sg63
(lp4643
g56
(g77
g58
NtRp4644
(dp4645
g61
(dp4646
sg70
g4640
sg63
(lp4647
g56
(g57
g58
NtRp4648
(dp4649
g61
(dp4650
g69
I1
ssg70
g4644
sg63
(lp4651
Nasbasbasbag56
(g72
g58
NtRp4652
(dp4653
g61
(dp4654
sg70
g4611
sg63
(lp4655
g56
(g77
g58
NtRp4656
(dp4657
g61
(dp4658
sg70
g4652
sg63
(lp4659
g56
(g57
g58
NtRp4660
(dp4661
g61
(dp4662
g69
I1
ssg70
g4656
sg63
(lp4663
(lp4664
(g3835
(S's\x06\x00\x00\x00Groups'
tRp4665
I00
S'http://www.web2py.com/examples/default/usergroups'
tp4666
a(g3835
(S's\x07\x00\x00\x00Twitter'
tRp4667
I00
S'http://twitter.com/web2py'
tp4668
a(g3835
(S's\t\x00\x00\x00Live chat'
tRp4669
I00
S'http://mibbit.com/?channel=%23web2py&server=irc.mibbit.net'
tp4670
a(g3835
(S's\n\x00\x00\x00User Voice'
tRp4671
I00
S'http://web2py.uservoice.com/'
tp4672
aasbasbasbasbasbasbasbag56
(g72
g58
NtRp4673
(dp4674
g61
(dp4675
sg70
g4500
sg63
(lp4676
g56
(g77
g58
NtRp4677
(dp4678
g61
(dp4679
sg70
g4673
sg63
(lp4680
g56
(g57
g58
NtRp4681
(dp4682
g61
(dp4683
g69
I2
ssg70
g4677
sg63
(lp4684
g56
(g65
g58
NtRp4685
(dp4686
g61
(dp4687
g69
I1
ssg70
Nsg63
(lp4688
g56
(g72
g58
NtRp4689
(dp4690
g61
(dp4691
sg70
g4685
sg63
(lp4692
g56
(g77
g58
NtRp4693
(dp4694
g61
(dp4695
sg70
g4689
sg63
(lp4696
g56
(g57
g58
NtRp4697
(dp4698
g61
(dp4699
g69
I1
ssg70
g4693
sg63
(lp4700
g3835
(S's\x06\x00\x00\x00Web2py'
tRp4701
asbasbasbag56
(g72
g58
NtRp4702
(dp4703
g61
(dp4704
sg70
g4685
sg63
(lp4705
g56
(g77
g58
NtRp4706
(dp4707
g61
(dp4708
sg70
g4702
sg63
(lp4709
g56
(g57
g58
NtRp4710
(dp4711
g61
(dp4712
g69
I1
ssg70
g4706
sg63
(lp4713
I00
asbasbasbag56
(g72
g58
NtRp4714
(dp4715
g61
(dp4716
sg70
g4685
sg63
(lp4717
g56
(g77
g58
NtRp4718
(dp4719
g61
(dp4720
sg70
g4714
sg63
(lp4721
g56
(g57
g58
NtRp4722
(dp4723
g61
(dp4724
g69
I1
ssg70
g4718
sg63
(lp4725
S'http://www.web2py.com'
p4726
asbasbasbag56
(g72
g58
NtRp4727
(dp4728
g61
(dp4729
sg70
g4685
sg63
(lp4730
g56
(g77
g58
NtRp4731
(dp4732
g61
(dp4733
sg70
g4727
sg63
(lp4734
g56
(g57
g58
NtRp4735
(dp4736
g61
(dp4737
g69
I1
ssg70
g4731
sg63
(lp4738
(lp4739
(g3835
(S's\x08\x00\x00\x00Download'
tRp4740
I00
S'http://www.web2py.com/examples/default/download'
tp4741
a(g3835
(S's\x07\x00\x00\x00Support'
tRp4742
I00
S'http://www.web2py.com/examples/default/support'
tp4743
a(g3835
(S's\x0e\x00\x00\x00Quick Examples'
tRp4744
I00
S'http://web2py.com/examples/default/examples'
tp4745
a(g3835
(S's\x03\x00\x00\x00FAQ'
tRp4746
I00
S'http://web2py.com/AlterEgo'
tp4747
a(g3835
(S's\x11\x00\x00\x00Free Applications'
tRp4748
I00
S'http://web2py.com/appliances'
tp4749
a(g3835
(S's\x07\x00\x00\x00Plugins'
tRp4750
I00
S'http://web2py.com/plugins'
tp4751
a(g3835
(S's\x07\x00\x00\x00Recipes'
tRp4752
I00
S'http://web2pyslices.com/'
tp4753
a(g3835
(S's\x04\x00\x00\x00Demo'
tRp4754
I00
S'http://web2py.com/demo_admin'
tp4755
a(g3835
(S's\x08\x00\x00\x00Semantic'
tRp4756
I00
S'http://web2py.com/semantic'
tp4757
a(g3835
(S's\x07\x00\x00\x00Layouts'
tRp4758
I00
S'http://web2py.com/layouts'
tp4759
a(g3835
(S's\x06\x00\x00\x00Videos'
tRp4760
I00
S'http://www.web2py.com/examples/default/videos/'
tp4761
aasbasbasbasbasbasbasbasbasbasbasbasbasbasbasbasbasbasbasbag56
(g72
g58
NtRp4762
(dp4763
g61
(dp4764
sg70
g3367
sg63
(lp4765
g56
(g77
g58
NtRp4766
(dp4767
g61
(dp4768
g81
g82
ssg70
g4762
sg63
(lp4769
S'meta'
p4770
asbag56
(g77
g58
NtRp4771
(dp4772
g61
(dp4773
g88
g89
ssg70
g4762
sg63
(lp4774
S':'
asbag56
(g77
g58
NtRp4775
(dp4776
g61
(dp4777
sg70
g4762
sg63
(lp4778
g56
(g57
g58
NtRp4779
(dp4780
g61
(dp4781
g69
I5
ssg70
g4775
sg63
(lp4782
g56
(g65
g58
NtRp4783
(dp4784
g61
(dp4785
g69
I4
ssg70
Nsg63
(lp4786
g56
(g72
g58
NtRp4787
(dp4788
g61
(dp4789
sg70
g4783
sg63
(lp4790
g56
(g77
g58
NtRp4791
(dp4792
g61
(dp4793
g81
g82
ssg70
g4787
sg63
(lp4794
S'author'
p4795
asbag56
(g77
g58
NtRp4796
(dp4797
g61
(dp4798
g88
g89
ssg70
g4787
sg63
(lp4799
S':'
asbag56
(g77
g58
NtRp4800
(dp4801
g61
(dp4802
sg70
g4787
sg63
(lp4803
g56
(g57
g58
NtRp4804
(dp4805
g61
(dp4806
g69
I4
ssg70
g4800
sg63
(lp4807
S'you'
p4808
asbasbasbag56
(g72
g58
NtRp4809
(dp4810
g61
(dp4811
sg70
g4783
sg63
(lp4812
g56
(g77
g58
NtRp4813
(dp4814
g61
(dp4815
g81
g82
ssg70
g4809
sg63
(lp4816
S'copyright'
p4817
asbag56
(g77
g58
NtRp4818
(dp4819
g61
(dp4820
g88
g89
ssg70
g4809
sg63
(lp4821
S':'
asbag56
(g77
g58
NtRp4822
(dp4823
g61
(dp4824
sg70
g4809
sg63
(lp4825
g56
(g57
g58
NtRp4826
(dp4827
g61
(dp4828
g69
I4
ssg70
g4822
sg63
(lp4829
S'Copyright 2007-2010'
p4830
asbasbasbag56
(g72
g58
NtRp4831
(dp4832
g61
(dp4833
sg70
g4783
sg63
(lp4834
g56
(g77
g58
NtRp4835
(dp4836
g61
(dp4837
g81
g82
ssg70
g4831
sg63
(lp4838
S'description'
p4839
asbag56
(g77
g58
NtRp4840
(dp4841
g61
(dp4842
g88
g89
ssg70
g4831
sg63
(lp4843
S':'
asbag56
(g77
g58
NtRp4844
(dp4845
g61
(dp4846
sg70
g4831
sg63
(lp4847
g56
(g57
g58
NtRp4848
(dp4849
g61
(dp4850
g69
I4
ssg70
g4844
sg63
(lp4851
S'Free and open source full-stack enterprise framework for agile development of fast, scalable, secure and portable database-driven web-based applications. Written and programmable in Python'
p4852
asbasbasbag56
(g72
g58
NtRp4853
(dp4854
g61
(dp4855
sg70
g4783
sg63
(lp4856
g56
(g77
g58
NtRp4857
(dp4858
g61
(dp4859
g81
g82
ssg70
g4853
sg63
(lp4860
S'generator'
p4861
asbag56
(g77
g58
NtRp4862
(dp4863
g61
(dp4864
g88
g89
ssg70
g4853
sg63
(lp4865
S':'
asbag56
(g77
g58
NtRp4866
(dp4867
g61
(dp4868
sg70
g4853
sg63
(lp4869
g56
(g57
g58
NtRp4870
(dp4871
g61
(dp4872
g69
I4
ssg70
g4866
sg63
(lp4873
S'Web2py Enterprise Framework'
p4874
asbasbasbag56
(g72
g58
NtRp4875
(dp4876
g61
(dp4877
sg70
g4783
sg63
(lp4878
g56
(g77
g58
NtRp4879
(dp4880
g61
(dp4881
g81
g82
ssg70
g4875
sg63
(lp4882
S'keywords'
p4883
asbag56
(g77
g58
NtRp4884
(dp4885
g61
(dp4886
g88
g89
ssg70
g4875
sg63
(lp4887
S':'
asbag56
(g77
g58
NtRp4888
(dp4889
g61
(dp4890
sg70
g4875
sg63
(lp4891
g56
(g57
g58
NtRp4892
(dp4893
g61
(dp4894
g69
I4
ssg70
g4888
sg63
(lp4895
S'web2py, python, framework'
p4896
asbasbasbasbasbasbasbag56
(g72
g58
NtRp4897
(dp4898
g61
(dp4899
sg70
g3367
sg63
(lp4900
g56
(g77
g58
NtRp4901
(dp4902
g61
(dp4903
g81
g82
ssg70
g4897
sg63
(lp4904
S'postprocessing'
p4905
asbag56
(g77
g58
NtRp4906
(dp4907
g61
(dp4908
g88
g89
ssg70
g4897
sg63
(lp4909
S':'
asbag56
(g77
g58
NtRp4910
(dp4911
g61
(dp4912
sg70
g4897
sg63
(lp4913
g56
(g57
g58
NtRp4914
(dp4915
g61
(dp4916
g69
I5
ssg70
g4910
sg63
(lp4917
g56
(g65
g58
NtRp4918
(dp4919
g61
(dp4920
g69
I4
ssg70
Nsg63
(lp4921
sbasbasbasbag56
(g72
g58
NtRp4922
(dp4923
g61
(dp4924
sg70
g3367
sg63
(lp4925
g56
(g77
g58
NtRp4926
(dp4927
g61
(dp4928
g81
g82
ssg70
g4922
sg63
(lp4929
S'session_file'
p4930
asbag56
(g77
g58
NtRp4931
(dp4932
g61
(dp4933
g88
g89
ssg70
g4922
sg63
(lp4934
S':'
asbag56
(g77
g58
NtRp4935
(dp4936
g61
(dp4937
sg70
g4922
sg63
(lp4938
g56
(g57
g58
NtRp4939
(dp4940
g61
(dp4941
g69
I5
ssg70
g4935
sg63
(lp4942
S"<open file '/home/marco/proyectos/web2py-trunk/applications/mvstore/sessions/127.0.0.1-0b059b4c-5741-4722-be03-f31fed87a8d7', mode 'rb+' at 0x27a2ae0>"
p4943
asbasbasbag56
(g72
g58
NtRp4944
(dp4945
g61
(dp4946
sg70
g3367
sg63
(lp4947
g56
(g77
g58
NtRp4948
(dp4949
g61
(dp4950
g81
g82
ssg70
g4944
sg63
(lp4951
S'session_filename'
p4952
asbag56
(g77
g58
NtRp4953
(dp4954
g61
(dp4955
g88
g89
ssg70
g4944
sg63
(lp4956
S':'
asbag56
(g77
g58
NtRp4957
(dp4958
g61
(dp4959
sg70
g4944
sg63
(lp4960
g56
(g57
g58
NtRp4961
(dp4962
g61
(dp4963
g69
I5
ssg70
g4957
sg63
(lp4964
S'/home/marco/proyectos/web2py-trunk/applications/mvstore/sessions/127.0.0.1-0b059b4c-5741-4722-be03-f31fed87a8d7'
p4965
asbasbasbag56
(g72
g58
NtRp4966
(dp4967
g61
(dp4968
sg70
g3367
sg63
(lp4969
g56
(g77
g58
NtRp4970
(dp4971
g61
(dp4972
g81
g82
ssg70
g4966
sg63
(lp4973
S'session_id'
p4974
asbag56
(g77
g58
NtRp4975
(dp4976
g61
(dp4977
g88
g89
ssg70
g4966
sg63
(lp4978
S':'
asbag56
(g77
g58
NtRp4979
(dp4980
g61
(dp4981
sg70
g4966
sg63
(lp4982
g56
(g57
g58
NtRp4983
(dp4984
g61
(dp4985
g69
I5
ssg70
g4979
sg63
(lp4986
S'127.0.0.1-0b059b4c-5741-4722-be03-f31fed87a8d7'
p4987
asbasbasbag56
(g72
g58
NtRp4988
(dp4989
g61
(dp4990
sg70
g3367
sg63
(lp4991
g56
(g77
g58
NtRp4992
(dp4993
g61
(dp4994
g81
g82
ssg70
g4988
sg63
(lp4995
S'session_id_name'
p4996
asbag56
(g77
g58
NtRp4997
(dp4998
g61
(dp4999
g88
g89
ssg70
g4988
sg63
(lp5000
S':'
asbag56
(g77
g58
NtRp5001
(dp5002
g61
(dp5003
sg70
g4988
sg63
(lp5004
g56
(g57
g58
NtRp5005
(dp5006
g61
(dp5007
g69
I5
ssg70
g5001
sg63
(lp5008
g3424
asbasbasbag56
(g72
g58
NtRp5009
(dp5010
g61
(dp5011
sg70
g3367
sg63
(lp5012
g56
(g77
g58
NtRp5013
(dp5014
g61
(dp5015
g81
g82
ssg70
g5009
sg63
(lp5016
S'session_locked'
p5017
asbag56
(g77
g58
NtRp5018
(dp5019
g61
(dp5020
g88
g89
ssg70
g5009
sg63
(lp5021
S':'
asbag56
(g77
g58
NtRp5022
(dp5023
g61
(dp5024
sg70
g5009
sg63
(lp5025
g56
(g57
g58
NtRp5026
(dp5027
g61
(dp5028
g69
I5
ssg70
g5022
sg63
(lp5029
g2124
asbasbasbag56
(g72
g58
NtRp5030
(dp5031
g61
(dp5032
sg70
g3367
sg63
(lp5033
g56
(g77
g58
NtRp5034
(dp5035
g61
(dp5036
g81
g82
ssg70
g5030
sg63
(lp5037
S'session_new'
p5038
asbag56
(g77
g58
NtRp5039
(dp5040
g61
(dp5041
g88
g89
ssg70
g5030
sg63
(lp5042
S':'
asbag56
(g77
g58
NtRp5043
(dp5044
g61
(dp5045
sg70
g5030
sg63
(lp5046
g56
(g57
g58
NtRp5047
(dp5048
g61
(dp5049
g69
I5
ssg70
g5043
sg63
(lp5050
g99
asbasbasbag56
(g72
g58
NtRp5051
(dp5052
g61
(dp5053
sg70
g3367
sg63
(lp5054
g56
(g77
g58
NtRp5055
(dp5056
g61
(dp5057
g81
g82
ssg70
g5051
sg63
(lp5058
S'status'
p5059
asbag56
(g77
g58
NtRp5060
(dp5061
g61
(dp5062
g88
g89
ssg70
g5051
sg63
(lp5063
S':'
asbag56
(g77
g58
NtRp5064
(dp5065
g61
(dp5066
sg70
g5051
sg63
(lp5067
g56
(g57
g58
NtRp5068
(dp5069
g61
(dp5070
g69
I5
ssg70
g5064
sg63
(lp5071
S'200'
p5072
asbasbasbag56
(g72
g58
NtRp5073
(dp5074
g61
(dp5075
sg70
g3367
sg63
(lp5076
g56
(g77
g58
NtRp5077
(dp5078
g61
(dp5079
g81
g82
ssg70
g5073
sg63
(lp5080
S'subtitle'
p5081
asbag56
(g77
g58
NtRp5082
(dp5083
g61
(dp5084
g88
g89
ssg70
g5073
sg63
(lp5085
S':'
asbag56
(g77
g58
NtRp5086
(dp5087
g61
(dp5088
sg70
g5073
sg63
(lp5089
g56
(g57
g58
NtRp5090
(dp5091
g61
(dp5092
g69
I5
ssg70
g5086
sg63
(lp5093
g3835
(S's\r\x00\x00\x00customize me!'
tRp5094
asbasbasbag56
(g72
g58
NtRp5095
(dp5096
g61
(dp5097
sg70
g3367
sg63
(lp5098
g56
(g77
g58
NtRp5099
(dp5100
g61
(dp5101
g81
g82
ssg70
g5095
sg63
(lp5102
S'title'
p5103
asbag56
(g77
g58
NtRp5104
(dp5105
g61
(dp5106
g88
g89
ssg70
g5095
sg63
(lp5107
S':'
asbag56
(g77
g58
NtRp5108
(dp5109
g61
(dp5110
sg70
g5095
sg63
(lp5111
g56
(g57
g58
NtRp5112
(dp5113
g61
(dp5114
g69
I5
ssg70
g5108
sg63
(lp5115
g121
asbasbasbag56
(g72
g58
NtRp5116
(dp5117
g61
(dp5118
sg70
g3367
sg63
(lp5119
g56
(g77
g58
NtRp5120
(dp5121
g61
(dp5122
g81
g82
ssg70
g5116
sg63
(lp5123
g2448
asbag56
(g77
g58
NtRp5124
(dp5125
g61
(dp5126
g88
g89
ssg70
g5116
sg63
(lp5127
S':'
asbag56
(g77
g58
NtRp5128
(dp5129
g61
(dp5130
sg70
g5116
sg63
(lp5131
g56
(g57
g58
NtRp5132
(dp5133
g61
(dp5134
g69
I5
ssg70
g5128
sg63
(lp5135
g2461
asbasbasbag56
(g72
g58
NtRp5136
(dp5137
g61
(dp5138
sg70
g3367
sg63
(lp5139
g56
(g77
g58
NtRp5140
(dp5141
g61
(dp5142
g81
g82
ssg70
g5136
sg63
(lp5143
S'view'
p5144
asbag56
(g77
g58
NtRp5145
(dp5146
g61
(dp5147
g88
g89
ssg70
g5136
sg63
(lp5148
S':'
asbag56
(g77
g58
NtRp5149
(dp5150
g61
(dp5151
sg70
g5136
sg63
(lp5152
g56
(g57
g58
NtRp5153
(dp5154
g61
(dp5155
g69
I5
ssg70
g5149
sg63
(lp5156
S'default/prestamos.html'
p5157
asbasbasbasbasbsS'locals'
p5158
(dp5159
S'self'
p5160
S"<Table {'foto': <gluon.dal.Field object at 0x357...cumento': <gluon.dal.Field object at 0x357e410>}>"
p5161
sS'key'
p5162
S"'first_name'"
p5163
sssS'traceback'
p5164
S'Traceback (most recent call last):\n  File "/home/marco/proyectos/web2py-trunk/gluon/restricted.py", line 192, in restricted\n    exec ccode in environment\n  File "/home/marco/proyectos/web2py-trunk/applications/mvstore/controllers/default.py", line 71, in <module>\n  File "/home/marco/proyectos/web2py-trunk/gluon/globals.py", line 137, in <lambda>\n    self._caller = lambda f: f()\n  File "/home/marco/proyectos/web2py-trunk/applications/mvstore/controllers/default.py", line 67, in prestamos\n    form=crud.create(db.prestamos)\n  File "/home/marco/proyectos/web2py-trunk/gluon/tools.py", line 3120, in create\n    formname=formname,\n  File "/home/marco/proyectos/web2py-trunk/gluon/tools.py", line 3032, in update\n    formstyle=self.settings.formstyle\n  File "/home/marco/proyectos/web2py-trunk/gluon/sqlhtml.py", line 817, in __init__\n    inp = self.widgets.options.widget(field, default)\n  File "/home/marco/proyectos/web2py-trunk/gluon/sqlhtml.py", line 206, in widget\n    options = requires[0].options()\n  File "/home/marco/proyectos/web2py-trunk/gluon/validators.py", line 438, in options\n    self.build_set()\n  File "/home/marco/proyectos/web2py-trunk/gluon/validators.py", line 421, in build_set\n    fields = [self.dbset.db[self.ktable][k] for k in self.fields]\n  File "/home/marco/proyectos/web2py-trunk/gluon/dal.py", line 4592, in __getitem__\n    return dict.__getitem__(self, str(key))\nKeyError: \'first_name\'\n'
p5165
s.