(dp1
S'output'
p2
S''
sS'layer'
p3
S'/home/marco/proyectos/web2py-trunk/applications/mvstore/models/db.py'
p4
sS'code'
p5
S'# -*- coding: utf-8 -*-\n# this file is released under public domain and you can use without limitations\n\n#########################################################################\n## This scaffolding model makes your app work on Google App Engine too\n#########################################################################\n\nif request.env.web2py_runtime_gae:            # if running on Google App Engine\n    db = DAL(\'gae\')                           # connect to Google BigTable\n                                              # optional DAL(\'gae://namespace\')\n    session.connect(request, response, db = db) # and store sessions and tickets there\n    ### or use the following lines to store sessions in Memcache\n    # from gluon.contrib.memdb import MEMDB\n    # from google.appengine.api.memcache import Client\n    # session.connect(request, response, db = MEMDB(Client()))\nelse:                                         # else use a normal relational database\n    db = DAL(\'sqlite://storage.sqlite\')       # if not, use SQLite or other DB\n## if no need for session\n# session.forget()\n\n#########################################################################\n## Here is sample code if you need for\n## - email capabilities\n## - authentication (registration, login, logout, ... )\n## - authorization (role based authorization)\n## - services (xml, csv, json, xmlrpc, jsonrpc, amf, rss)\n## - crud actions\n## (more options discussed in gluon/tools.py)\n#########################################################################\n\nfrom gluon.tools import *\nmail = Mail()                                  # mailer\nauth = Auth(globals(),db)                      # authentication/authorization\ncrud = Crud(globals(),db)                      # for CRUD helpers using auth\nservice = Service(globals())                   # for json, xml, jsonrpc, xmlrpc, amfrpc\nplugins = PluginManager()\n\nmail.settings.server = \'logging\' or \'smtp.gmail.com:587\'  # your SMTP server\nmail.settings.sender = \'you@gmail.com\'         # your email\nmail.settings.login = \'username:password\'      # your credentials or None\n\nauth.settings.hmac_key = \'sha512:7fbe918c-a556-4879-a996-7618f8e7c6aa\'   # before define_tables()\nauth.define_tables()                           # creates all needed tables\nauth.settings.mailer = mail                    # for user email verification\nauth.settings.registration_requires_verification = False\nauth.settings.registration_requires_approval = False\nauth.messages.verify_email = \'Click on the link http://\'+request.env.http_host+URL(\'default\',\'user\',args=[\'verify_email\'])+\'/%(key)s to verify your email\'\nauth.settings.reset_password_requires_verification = True\nauth.messages.reset_password = \'Click on the link http://\'+request.env.http_host+URL(\'default\',\'user\',args=[\'reset_password\'])+\'/%(key)s to reset your password\'\n\n#########################################################################\n## If you need to use OpenID, Facebook, MySpace, Twitter, Linkedin, etc.\n## register with janrain.com, uncomment and customize following\n# from gluon.contrib.login_methods.rpx_account import RPXAccount\n# auth.settings.actions_disabled=[\'register\',\'change_password\',\'request_reset_password\']\n# auth.settings.login_form = RPXAccount(request, api_key=\'...\',domain=\'...\',\n#    url = "http://localhost:8000/%s/default/user/login" % request.application)\n## other login methods are in gluon/contrib/login_methods\n#########################################################################\n\ncrud.settings.auth = None                      # =auth to enforce authorization on crud\n\n#########################################################################\n## Define your tables below (or better in another model file) for example\n##\n## >>> db.define_table(\'mytable\',Field(\'myfield\',\'string\'))\n##\n## Fields can be \'string\',\'text\',\'password\',\'integer\',\'double\',\'boolean\'\n##       \'date\',\'time\',\'datetime\',\'blob\',\'upload\', \'reference TABLENAME\'\n## There is an implicit \'id integer autoincrement\' field\n## Consult manual for more options, validators, etc.\n##\n## More API examples for controllers:\n##\n## >>> db.mytable.insert(myfield=\'value\')\n## >>> rows=db(db.mytable.myfield==\'value\').select(db.mytable.ALL)\n## >>> for row in rows: print row.id, row.myfield\n#########################################################################\ndef Hidden(*a,**b):\n    b[\'writable\']=b[\'readable\']=False\n    return Field(*a,**b)\n\nfields=[\n        Field(\'documento\',\'integer\', required=True, unique=True),\n        Field(\'nombre\',\'string\', required=True),\n        Field(\'apellido\',\'string\',required=True),\n        Field(\'foto\',\'upload\'),\n        Field(\'domicilio\',\'string\', required=True),\n        Field(\'telefono\',\'integer\',required=True),\n        Field(\'fecha_load\',\'date\', default=request.now, writable=False)\n        ]\n\ndb.define_table(\'empleados\',\n        format=\'%(nombre)s %(apellido)s\',\n        *fields\n        )\n\ndb.define_table(\'clientes\',\n        format=\'%(nombre)s %(apellido)s\',\n        *fields\n        )\n\ndb.define_table(\'peliculas\',\n        Field(\'id_pelicula\', \'integer\', required=True, unique=True),\n        Field(\'titulo\',\'string\'),\n        Field(\'genero\',\'string\'),\n        Field(\'anio\',\'integer\'),\n        Field(\'sinopsis\',\'text\'),\n        Field(\'tapa\',\'upload\'),\n        Field(\'unidades\',\'integer\'),\n        Field(\'fecha_ing\',\'date\'),\n        format=\'%(titulo)s\',\n        )\n\ndb.define_table(\'prestamos\',\n        Field(\'id_prestamo\', \'integer\', required=True, unique=True),\n        Field(\'titulo\', db.peliculas),\n        Field(\'cliente\', db.clientes),\n        Field(\'empleado\', db.empleados),\n        Field(\'fecha\', \'datetime\',default=request.now, writable=False),\n        Field(\'devol\', \'datetime\'),\n        Field(\'costo\', \'integer\',default=10),\n        Field(\'mora\', \'integer\', default=0, comment="El recargo que se aplica es de $2 por dia")\n        )\n'
p6
sS'snapshot'
p7
(dp8
S'exception'
p9
(dp10
S'__module__'
p11
S"'pysqlite2.dbapi2'"
p12
sS'__getslice__'
p13
S"<method-wrapper '__getslice__' of OperationalError object>"
p14
sS'__str__'
p15
S"<method-wrapper '__str__' of OperationalError object>"
p16
sS'__reduce__'
p17
S'<built-in method __reduce__ of OperationalError object>'
p18
sS'__dict__'
p19
S'{}'
p20
sS'__sizeof__'
p21
S'<built-in method __sizeof__ of OperationalError object>'
p22
sS'__weakref__'
p23
S'None'
p24
sS'__init__'
p25
S"<method-wrapper '__init__' of OperationalError object>"
p26
sS'__setattr__'
p27
S"<method-wrapper '__setattr__' of OperationalError object>"
p28
sS'__reduce_ex__'
p29
S'<built-in method __reduce_ex__ of OperationalError object>'
p30
sS'__new__'
p31
S'<built-in method __new__ of type object>'
p32
sS'__format__'
p33
S'<built-in method __format__ of OperationalError object>'
p34
sS'__class__'
p35
S"<class 'pysqlite2.dbapi2.OperationalError'>"
p36
sS'__doc__'
p37
S'None'
p38
sS'__getitem__'
p39
S"<method-wrapper '__getitem__' of OperationalError object>"
p40
sS'__setstate__'
p41
S'<built-in method __setstate__ of OperationalError object>'
p42
sS'__getattribute__'
p43
S"<method-wrapper '__getattribute__' of OperationalError object>"
p44
sS'args'
p45
S"('Cannot add a UNIQUE column',)"
p46
sS'__subclasshook__'
p47
S'<built-in method __subclasshook__ of type object>'
p48
sS'__unicode__'
p49
S'<built-in method __unicode__ of OperationalError object>'
p50
sS'__delattr__'
p51
S"<method-wrapper '__delattr__' of OperationalError object>"
p52
sS'__repr__'
p53
S"<method-wrapper '__repr__' of OperationalError object>"
p54
sS'__hash__'
p55
S"<method-wrapper '__hash__' of OperationalError object>"
p56
ssS'evalue'
p57
S'Cannot add a UNIQUE column'
p58
sS'request'
p59
ccopy_reg
_reconstructor
p60
(cgluon.html
BEAUTIFY
p61
c__builtin__
object
p62
NtRp63
(dp64
S'attributes'
p65
(dp66
sS'components'
p67
(lp68
g60
(cgluon.html
TABLE
p69
g62
NtRp70
(dp71
g65
(dp72
S'level'
p73
I5
ssS'parent'
p74
Nsg67
(lp75
g60
(cgluon.html
TR
p76
g62
NtRp77
(dp78
g65
(dp79
sg74
g70
sg67
(lp80
g60
(cgluon.html
TD
p81
g62
NtRp82
(dp83
g65
(dp84
S'_style'
p85
S'font-weight:bold;'
p86
ssg74
g77
sg67
(lp87
S'ajax'
p88
asbag60
(g81
g62
NtRp89
(dp90
g65
(dp91
S'_valign'
p92
S'top'
p93
ssg74
g77
sg67
(lp94
S':'
asbag60
(g81
g62
NtRp95
(dp96
g65
(dp97
sg74
g77
sg67
(lp98
g60
(g61
g62
NtRp99
(dp100
g65
(dp101
g73
I5
ssg74
g95
sg67
(lp102
S'False'
p103
asbasbasbag60
(g76
g62
NtRp104
(dp105
g65
(dp106
sg74
g70
sg67
(lp107
g60
(g81
g62
NtRp108
(dp109
g65
(dp110
g85
g86
ssg74
g104
sg67
(lp111
S'application'
p112
asbag60
(g81
g62
NtRp113
(dp114
g65
(dp115
g92
g93
ssg74
g104
sg67
(lp116
S':'
asbag60
(g81
g62
NtRp117
(dp118
g65
(dp119
sg74
g104
sg67
(lp120
g60
(g61
g62
NtRp121
(dp122
g65
(dp123
g73
I5
ssg74
g117
sg67
(lp124
S'mvstore'
p125
asbasbasbag60
(g76
g62
NtRp126
(dp127
g65
(dp128
sg74
g70
sg67
(lp129
g60
(g81
g62
NtRp130
(dp131
g65
(dp132
g85
g86
ssg74
g126
sg67
(lp133
g45
asbag60
(g81
g62
NtRp134
(dp135
g65
(dp136
g92
g93
ssg74
g126
sg67
(lp137
S':'
asbag60
(g81
g62
NtRp138
(dp139
g65
(dp140
sg74
g126
sg67
(lp141
g60
(g61
g62
NtRp142
(dp143
g65
(dp144
g73
I5
ssg74
g138
sg67
(lp145
g60
(g69
g62
NtRp146
(dp147
g65
(dp148
g73
I4
ssg74
Nsg67
(lp149
sbasbasbasbag60
(g76
g62
NtRp150
(dp151
g65
(dp152
sg74
g70
sg67
(lp153
g60
(g81
g62
NtRp154
(dp155
g65
(dp156
g85
g86
ssg74
g150
sg67
(lp157
S'body'
p158
asbag60
(g81
g62
NtRp159
(dp160
g65
(dp161
g92
g93
ssg74
g150
sg67
(lp162
S':'
asbag60
(g81
g62
NtRp163
(dp164
g65
(dp165
sg74
g150
sg67
(lp166
g60
(g61
g62
NtRp167
(dp168
g65
(dp169
g73
I5
ssg74
g163
sg67
(lp170
S'<cStringIO.StringO object at 0x2332b90>'
p171
asbasbasbag60
(g76
g62
NtRp172
(dp173
g65
(dp174
sg74
g70
sg67
(lp175
g60
(g81
g62
NtRp176
(dp177
g65
(dp178
g85
g86
ssg74
g172
sg67
(lp179
S'client'
p180
asbag60
(g81
g62
NtRp181
(dp182
g65
(dp183
g92
g93
ssg74
g172
sg67
(lp184
S':'
asbag60
(g81
g62
NtRp185
(dp186
g65
(dp187
sg74
g172
sg67
(lp188
g60
(g61
g62
NtRp189
(dp190
g65
(dp191
g73
I5
ssg74
g185
sg67
(lp192
S'127.0.0.1'
p193
asbasbasbag60
(g76
g62
NtRp194
(dp195
g65
(dp196
sg74
g70
sg67
(lp197
g60
(g81
g62
NtRp198
(dp199
g65
(dp200
g85
g86
ssg74
g194
sg67
(lp201
S'controller'
p202
asbag60
(g81
g62
NtRp203
(dp204
g65
(dp205
g92
g93
ssg74
g194
sg67
(lp206
S':'
asbag60
(g81
g62
NtRp207
(dp208
g65
(dp209
sg74
g194
sg67
(lp210
g60
(g61
g62
NtRp211
(dp212
g65
(dp213
g73
I5
ssg74
g207
sg67
(lp214
S'default'
p215
asbasbasbag60
(g76
g62
NtRp216
(dp217
g65
(dp218
sg74
g70
sg67
(lp219
g60
(g81
g62
NtRp220
(dp221
g65
(dp222
g85
g86
ssg74
g216
sg67
(lp223
S'cookies'
p224
asbag60
(g81
g62
NtRp225
(dp226
g65
(dp227
g92
g93
ssg74
g216
sg67
(lp228
S':'
asbag60
(g81
g62
NtRp229
(dp230
g65
(dp231
sg74
g216
sg67
(lp232
g60
(g61
g62
NtRp233
(dp234
g65
(dp235
g73
I5
ssg74
g229
sg67
(lp236
g60
(g69
g62
NtRp237
(dp238
g65
(dp239
g73
I4
ssg74
Nsg67
(lp240
sbasbasbasbag60
(g76
g62
NtRp241
(dp242
g65
(dp243
sg74
g70
sg67
(lp244
g60
(g81
g62
NtRp245
(dp246
g65
(dp247
g85
g86
ssg74
g241
sg67
(lp248
S'env'
p249
asbag60
(g81
g62
NtRp250
(dp251
g65
(dp252
g92
g93
ssg74
g241
sg67
(lp253
S':'
asbag60
(g81
g62
NtRp254
(dp255
g65
(dp256
sg74
g241
sg67
(lp257
g60
(g61
g62
NtRp258
(dp259
g65
(dp260
g73
I5
ssg74
g254
sg67
(lp261
g60
(g69
g62
NtRp262
(dp263
g65
(dp264
g73
I4
ssg74
Nsg67
(lp265
g60
(g76
g62
NtRp266
(dp267
g65
(dp268
sg74
g262
sg67
(lp269
g60
(g81
g62
NtRp270
(dp271
g65
(dp272
g85
g86
ssg74
g266
sg67
(lp273
S'app_folders'
p274
asbag60
(g81
g62
NtRp275
(dp276
g65
(dp277
g92
g93
ssg74
g266
sg67
(lp278
S':'
asbag60
(g81
g62
NtRp279
(dp280
g65
(dp281
sg74
g266
sg67
(lp282
g60
(g61
g62
NtRp283
(dp284
g65
(dp285
g73
I4
ssg74
g279
sg67
(lp286
S"set(['/home/marco/proyectos/web2py-trunk/applications/mvstore/'])"
p287
asbasbasbag60
(g76
g62
NtRp288
(dp289
g65
(dp290
sg74
g262
sg67
(lp291
g60
(g81
g62
NtRp292
(dp293
g65
(dp294
g85
g86
ssg74
g288
sg67
(lp295
S'applications_parent'
p296
asbag60
(g81
g62
NtRp297
(dp298
g65
(dp299
g92
g93
ssg74
g288
sg67
(lp300
S':'
asbag60
(g81
g62
NtRp301
(dp302
g65
(dp303
sg74
g288
sg67
(lp304
g60
(g61
g62
NtRp305
(dp306
g65
(dp307
g73
I4
ssg74
g301
sg67
(lp308
S'/home/marco/proyectos/web2py-trunk'
p309
asbasbasbag60
(g76
g62
NtRp310
(dp311
g65
(dp312
sg74
g262
sg67
(lp313
g60
(g81
g62
NtRp314
(dp315
g65
(dp316
g85
g86
ssg74
g310
sg67
(lp317
S'cmd_args'
p318
asbag60
(g81
g62
NtRp319
(dp320
g65
(dp321
g92
g93
ssg74
g310
sg67
(lp322
S':'
asbag60
(g81
g62
NtRp323
(dp324
g65
(dp325
sg74
g310
sg67
(lp326
g60
(g61
g62
NtRp327
(dp328
g65
(dp329
g73
I4
ssg74
g323
sg67
(lp330
g60
(g69
g62
NtRp331
(dp332
g65
(dp333
g73
I3
ssg74
Nsg67
(lp334
sbasbasbasbag60
(g76
g62
NtRp335
(dp336
g65
(dp337
sg74
g262
sg67
(lp338
g60
(g81
g62
NtRp339
(dp340
g65
(dp341
g85
g86
ssg74
g335
sg67
(lp342
S'cmd_options'
p343
asbag60
(g81
g62
NtRp344
(dp345
g65
(dp346
g92
g93
ssg74
g335
sg67
(lp347
S':'
asbag60
(g81
g62
NtRp348
(dp349
g65
(dp350
sg74
g335
sg67
(lp351
g60
(g61
g62
NtRp352
(dp353
g65
(dp354
g73
I4
ssg74
g348
sg67
(lp355
S"<Values at 0x2337b90: {'verbose': False, 'ip': '127.0.0.1', 'shutdown_timeout': 5, 'taskbar': False, 'port': 8000, 'maxthreads': None, 'softcron': False, 'server_name': 'kiki', 'bpython': False, 'nogui': False, 'nocron': False, 'extcron': False, 'debuglevel': 30, 'test': None, 'folder': '/home/marco/proyectos/web2py-trunk', 'config': '', 'import_models': False, 'winservice': '', 'shell': None, 'run': '', 'log_filename': 'httpserver.log', 'args': [''], 'profiler_filename': None, 'ssl_private_key': '', 'password': 'asd', 'request_queue_size': 5, 'ssl_certificate': '', 'cronjob': False, 'plain': False, 'quiet': False, 'interfaces': None, 'minthreads': None, 'timeout': 10, 'numthreads': None, 'nobanner': False, 'pid_filename': 'httpserver.pid'}>"
p356
asbasbasbag60
(g76
g62
NtRp357
(dp358
g65
(dp359
sg74
g262
sg67
(lp360
g60
(g81
g62
NtRp361
(dp362
g65
(dp363
g85
g86
ssg74
g357
sg67
(lp364
S'db_sessions'
p365
asbag60
(g81
g62
NtRp366
(dp367
g65
(dp368
g92
g93
ssg74
g357
sg67
(lp369
S':'
asbag60
(g81
g62
NtRp370
(dp371
g65
(dp372
sg74
g357
sg67
(lp373
g60
(g61
g62
NtRp374
(dp375
g65
(dp376
g73
I4
ssg74
g370
sg67
(lp377
S'set([])'
p378
asbasbasbag60
(g76
g62
NtRp379
(dp380
g65
(dp381
sg74
g262
sg67
(lp382
g60
(g81
g62
NtRp383
(dp384
g65
(dp385
g85
g86
ssg74
g379
sg67
(lp386
S'debugging'
p387
asbag60
(g81
g62
NtRp388
(dp389
g65
(dp390
g92
g93
ssg74
g379
sg67
(lp391
S':'
asbag60
(g81
g62
NtRp392
(dp393
g65
(dp394
sg74
g379
sg67
(lp395
g60
(g61
g62
NtRp396
(dp397
g65
(dp398
g73
I4
ssg74
g392
sg67
(lp399
g103
asbasbasbag60
(g76
g62
NtRp400
(dp401
g65
(dp402
sg74
g262
sg67
(lp403
g60
(g81
g62
NtRp404
(dp405
g65
(dp406
g85
g86
ssg74
g400
sg67
(lp407
S'gluon_parent'
p408
asbag60
(g81
g62
NtRp409
(dp410
g65
(dp411
g92
g93
ssg74
g400
sg67
(lp412
S':'
asbag60
(g81
g62
NtRp413
(dp414
g65
(dp415
sg74
g400
sg67
(lp416
g60
(g61
g62
NtRp417
(dp418
g65
(dp419
g73
I4
ssg74
g413
sg67
(lp420
S'/home/marco/proyectos/web2py-trunk'
p421
asbasbasbag60
(g76
g62
NtRp422
(dp423
g65
(dp424
sg74
g262
sg67
(lp425
g60
(g81
g62
NtRp426
(dp427
g65
(dp428
g85
g86
ssg74
g422
sg67
(lp429
S'http_accept'
p430
asbag60
(g81
g62
NtRp431
(dp432
g65
(dp433
g92
g93
ssg74
g422
sg67
(lp434
S':'
asbag60
(g81
g62
NtRp435
(dp436
g65
(dp437
sg74
g422
sg67
(lp438
g60
(g61
g62
NtRp439
(dp440
g65
(dp441
g73
I4
ssg74
g435
sg67
(lp442
S'text/html,application/xhtml+xml,application/xml;q=0.9,*/*;q=0.8'
p443
asbasbasbag60
(g76
g62
NtRp444
(dp445
g65
(dp446
sg74
g262
sg67
(lp447
g60
(g81
g62
NtRp448
(dp449
g65
(dp450
g85
g86
ssg74
g444
sg67
(lp451
S'http_accept_charset'
p452
asbag60
(g81
g62
NtRp453
(dp454
g65
(dp455
g92
g93
ssg74
g444
sg67
(lp456
S':'
asbag60
(g81
g62
NtRp457
(dp458
g65
(dp459
sg74
g444
sg67
(lp460
g60
(g61
g62
NtRp461
(dp462
g65
(dp463
g73
I4
ssg74
g457
sg67
(lp464
S'ISO-8859-1,utf-8;q=0.7,*;q=0.7'
p465
asbasbasbag60
(g76
g62
NtRp466
(dp467
g65
(dp468
sg74
g262
sg67
(lp469
g60
(g81
g62
NtRp470
(dp471
g65
(dp472
g85
g86
ssg74
g466
sg67
(lp473
S'http_accept_encoding'
p474
asbag60
(g81
g62
NtRp475
(dp476
g65
(dp477
g92
g93
ssg74
g466
sg67
(lp478
S':'
asbag60
(g81
g62
NtRp479
(dp480
g65
(dp481
sg74
g466
sg67
(lp482
g60
(g61
g62
NtRp483
(dp484
g65
(dp485
g73
I4
ssg74
g479
sg67
(lp486
S'gzip,deflate'
p487
asbasbasbag60
(g76
g62
NtRp488
(dp489
g65
(dp490
sg74
g262
sg67
(lp491
g60
(g81
g62
NtRp492
(dp493
g65
(dp494
g85
g86
ssg74
g488
sg67
(lp495
S'http_accept_language'
p496
asbag60
(g81
g62
NtRp497
(dp498
g65
(dp499
g92
g93
ssg74
g488
sg67
(lp500
S':'
asbag60
(g81
g62
NtRp501
(dp502
g65
(dp503
sg74
g488
sg67
(lp504
g60
(g61
g62
NtRp505
(dp506
g65
(dp507
g73
I4
ssg74
g501
sg67
(lp508
S'en-us,en;q=0.5'
p509
asbasbasbag60
(g76
g62
NtRp510
(dp511
g65
(dp512
sg74
g262
sg67
(lp513
g60
(g81
g62
NtRp514
(dp515
g65
(dp516
g85
g86
ssg74
g510
sg67
(lp517
S'http_connection'
p518
asbag60
(g81
g62
NtRp519
(dp520
g65
(dp521
g92
g93
ssg74
g510
sg67
(lp522
S':'
asbag60
(g81
g62
NtRp523
(dp524
g65
(dp525
sg74
g510
sg67
(lp526
g60
(g61
g62
NtRp527
(dp528
g65
(dp529
g73
I4
ssg74
g523
sg67
(lp530
S'keep-alive'
p531
asbasbasbag60
(g76
g62
NtRp532
(dp533
g65
(dp534
sg74
g262
sg67
(lp535
g60
(g81
g62
NtRp536
(dp537
g65
(dp538
g85
g86
ssg74
g532
sg67
(lp539
S'http_host'
p540
asbag60
(g81
g62
NtRp541
(dp542
g65
(dp543
g92
g93
ssg74
g532
sg67
(lp544
S':'
asbag60
(g81
g62
NtRp545
(dp546
g65
(dp547
sg74
g532
sg67
(lp548
g60
(g61
g62
NtRp549
(dp550
g65
(dp551
g73
I4
ssg74
g545
sg67
(lp552
S'127.0.0.1:8000'
p553
asbasbasbag60
(g76
g62
NtRp554
(dp555
g65
(dp556
sg74
g262
sg67
(lp557
g60
(g81
g62
NtRp558
(dp559
g65
(dp560
g85
g86
ssg74
g554
sg67
(lp561
S'http_keep_alive'
p562
asbag60
(g81
g62
NtRp563
(dp564
g65
(dp565
g92
g93
ssg74
g554
sg67
(lp566
S':'
asbag60
(g81
g62
NtRp567
(dp568
g65
(dp569
sg74
g554
sg67
(lp570
g60
(g61
g62
NtRp571
(dp572
g65
(dp573
g73
I4
ssg74
g567
sg67
(lp574
S'300'
p575
asbasbasbag60
(g76
g62
NtRp576
(dp577
g65
(dp578
sg74
g262
sg67
(lp579
g60
(g81
g62
NtRp580
(dp581
g65
(dp582
g85
g86
ssg74
g576
sg67
(lp583
S'http_user_agent'
p584
asbag60
(g81
g62
NtRp585
(dp586
g65
(dp587
g92
g93
ssg74
g576
sg67
(lp588
S':'
asbag60
(g81
g62
NtRp589
(dp590
g65
(dp591
sg74
g576
sg67
(lp592
g60
(g61
g62
NtRp593
(dp594
g65
(dp595
g73
I4
ssg74
g589
sg67
(lp596
S'Mozilla/5.0 (X11; U; Linux x86_64; en-US; rv:1.9.1.18) Gecko/20110323 Iceweasel/3.5.19 (like Firefox/3.5.19)'
p597
asbasbasbag60
(g76
g62
NtRp598
(dp599
g65
(dp600
sg74
g262
sg67
(lp601
g60
(g81
g62
NtRp602
(dp603
g65
(dp604
g85
g86
ssg74
g598
sg67
(lp605
S'path_info'
p606
asbag60
(g81
g62
NtRp607
(dp608
g65
(dp609
g92
g93
ssg74
g598
sg67
(lp610
S':'
asbag60
(g81
g62
NtRp611
(dp612
g65
(dp613
sg74
g598
sg67
(lp614
g60
(g61
g62
NtRp615
(dp616
g65
(dp617
g73
I4
ssg74
g611
sg67
(lp618
S'/mvstore'
p619
asbasbasbag60
(g76
g62
NtRp620
(dp621
g65
(dp622
sg74
g262
sg67
(lp623
g60
(g81
g62
NtRp624
(dp625
g65
(dp626
g85
g86
ssg74
g620
sg67
(lp627
S'query_string'
p628
asbag60
(g81
g62
NtRp629
(dp630
g65
(dp631
g92
g93
ssg74
g620
sg67
(lp632
S':'
asbag60
(g81
g62
NtRp633
(dp634
g65
(dp635
sg74
g620
sg67
(lp636
g60
(g61
g62
NtRp637
(dp638
g65
(dp639
g73
I4
ssg74
g633
sg67
(lp640
S''
asbasbasbag60
(g76
g62
NtRp641
(dp642
g65
(dp643
sg74
g262
sg67
(lp644
g60
(g81
g62
NtRp645
(dp646
g65
(dp647
g85
g86
ssg74
g641
sg67
(lp648
S'remote_addr'
p649
asbag60
(g81
g62
NtRp650
(dp651
g65
(dp652
g92
g93
ssg74
g641
sg67
(lp653
S':'
asbag60
(g81
g62
NtRp654
(dp655
g65
(dp656
sg74
g641
sg67
(lp657
g60
(g61
g62
NtRp658
(dp659
g65
(dp660
g73
I4
ssg74
g654
sg67
(lp661
g193
asbasbasbag60
(g76
g62
NtRp662
(dp663
g65
(dp664
sg74
g262
sg67
(lp665
g60
(g81
g62
NtRp666
(dp667
g65
(dp668
g85
g86
ssg74
g662
sg67
(lp669
S'remote_port'
p670
asbag60
(g81
g62
NtRp671
(dp672
g65
(dp673
g92
g93
ssg74
g662
sg67
(lp674
S':'
asbag60
(g81
g62
NtRp675
(dp676
g65
(dp677
sg74
g662
sg67
(lp678
g60
(g61
g62
NtRp679
(dp680
g65
(dp681
g73
I4
ssg74
g675
sg67
(lp682
S'46696'
p683
asbasbasbag60
(g76
g62
NtRp684
(dp685
g65
(dp686
sg74
g262
sg67
(lp687
g60
(g81
g62
NtRp688
(dp689
g65
(dp690
g85
g86
ssg74
g684
sg67
(lp691
S'request_method'
p692
asbag60
(g81
g62
NtRp693
(dp694
g65
(dp695
g92
g93
ssg74
g684
sg67
(lp696
S':'
asbag60
(g81
g62
NtRp697
(dp698
g65
(dp699
sg74
g684
sg67
(lp700
g60
(g61
g62
NtRp701
(dp702
g65
(dp703
g73
I4
ssg74
g697
sg67
(lp704
S'GET'
p705
asbasbasbag60
(g76
g62
NtRp706
(dp707
g65
(dp708
sg74
g262
sg67
(lp709
g60
(g81
g62
NtRp710
(dp711
g65
(dp712
g85
g86
ssg74
g706
sg67
(lp713
S'script_name'
p714
asbag60
(g81
g62
NtRp715
(dp716
g65
(dp717
g92
g93
ssg74
g706
sg67
(lp718
S':'
asbag60
(g81
g62
NtRp719
(dp720
g65
(dp721
sg74
g706
sg67
(lp722
g60
(g61
g62
NtRp723
(dp724
g65
(dp725
g73
I4
ssg74
g719
sg67
(lp726
S''
asbasbasbag60
(g76
g62
NtRp727
(dp728
g65
(dp729
sg74
g262
sg67
(lp730
g60
(g81
g62
NtRp731
(dp732
g65
(dp733
g85
g86
ssg74
g727
sg67
(lp734
S'server_name'
p735
asbag60
(g81
g62
NtRp736
(dp737
g65
(dp738
g92
g93
ssg74
g727
sg67
(lp739
S':'
asbag60
(g81
g62
NtRp740
(dp741
g65
(dp742
sg74
g727
sg67
(lp743
g60
(g61
g62
NtRp744
(dp745
g65
(dp746
g73
I4
ssg74
g740
sg67
(lp747
S'kiki'
p748
asbasbasbag60
(g76
g62
NtRp749
(dp750
g65
(dp751
sg74
g262
sg67
(lp752
g60
(g81
g62
NtRp753
(dp754
g65
(dp755
g85
g86
ssg74
g749
sg67
(lp756
S'server_port'
p757
asbag60
(g81
g62
NtRp758
(dp759
g65
(dp760
g92
g93
ssg74
g749
sg67
(lp761
S':'
asbag60
(g81
g62
NtRp762
(dp763
g65
(dp764
sg74
g749
sg67
(lp765
g60
(g61
g62
NtRp766
(dp767
g65
(dp768
g73
I4
ssg74
g762
sg67
(lp769
S'8000'
p770
asbasbasbag60
(g76
g62
NtRp771
(dp772
g65
(dp773
sg74
g262
sg67
(lp774
g60
(g81
g62
NtRp775
(dp776
g65
(dp777
g85
g86
ssg74
g771
sg67
(lp778
S'server_protocol'
p779
asbag60
(g81
g62
NtRp780
(dp781
g65
(dp782
g92
g93
ssg74
g771
sg67
(lp783
S':'
asbag60
(g81
g62
NtRp784
(dp785
g65
(dp786
sg74
g771
sg67
(lp787
g60
(g61
g62
NtRp788
(dp789
g65
(dp790
g73
I4
ssg74
g784
sg67
(lp791
S'HTTP/1.1'
p792
asbasbasbag60
(g76
g62
NtRp793
(dp794
g65
(dp795
sg74
g262
sg67
(lp796
g60
(g81
g62
NtRp797
(dp798
g65
(dp799
g85
g86
ssg74
g793
sg67
(lp800
S'server_software'
p801
asbag60
(g81
g62
NtRp802
(dp803
g65
(dp804
g92
g93
ssg74
g793
sg67
(lp805
S':'
asbag60
(g81
g62
NtRp806
(dp807
g65
(dp808
sg74
g793
sg67
(lp809
g60
(g61
g62
NtRp810
(dp811
g65
(dp812
g73
I4
ssg74
g806
sg67
(lp813
S'Rocket 1.2.2'
p814
asbasbasbag60
(g76
g62
NtRp815
(dp816
g65
(dp817
sg74
g262
sg67
(lp818
g60
(g81
g62
NtRp819
(dp820
g65
(dp821
g85
g86
ssg74
g815
sg67
(lp822
S'web2py_crontype'
p823
asbag60
(g81
g62
NtRp824
(dp825
g65
(dp826
g92
g93
ssg74
g815
sg67
(lp827
S':'
asbag60
(g81
g62
NtRp828
(dp829
g65
(dp830
sg74
g815
sg67
(lp831
g60
(g61
g62
NtRp832
(dp833
g65
(dp834
g73
I4
ssg74
g828
sg67
(lp835
S'hard'
p836
asbasbasbag60
(g76
g62
NtRp837
(dp838
g65
(dp839
sg74
g262
sg67
(lp840
g60
(g81
g62
NtRp841
(dp842
g65
(dp843
g85
g86
ssg74
g837
sg67
(lp844
S'web2py_path'
p845
asbag60
(g81
g62
NtRp846
(dp847
g65
(dp848
g92
g93
ssg74
g837
sg67
(lp849
S':'
asbag60
(g81
g62
NtRp850
(dp851
g65
(dp852
sg74
g837
sg67
(lp853
g60
(g61
g62
NtRp854
(dp855
g65
(dp856
g73
I4
ssg74
g850
sg67
(lp857
g309
asbasbasbag60
(g76
g62
NtRp858
(dp859
g65
(dp860
sg74
g262
sg67
(lp861
g60
(g81
g62
NtRp862
(dp863
g65
(dp864
g85
g86
ssg74
g858
sg67
(lp865
S'web2py_version'
p866
asbag60
(g81
g62
NtRp867
(dp868
g65
(dp869
g92
g93
ssg74
g858
sg67
(lp870
S':'
asbag60
(g81
g62
NtRp871
(dp872
g65
(dp873
sg74
g858
sg67
(lp874
g60
(g61
g62
NtRp875
(dp876
g65
(dp877
g73
I4
ssg74
g871
sg67
(lp878
S'        iersion 1.94.1 (2011-03-17 16:30:58)\n'
p879
asbasbasbag60
(g76
g62
NtRp880
(dp881
g65
(dp882
sg74
g262
sg67
(lp883
g60
(g81
g62
NtRp884
(dp885
g65
(dp886
g85
g86
ssg74
g880
sg67
(lp887
S'wsgi_errors'
p888
asbag60
(g81
g62
NtRp889
(dp890
g65
(dp891
g92
g93
ssg74
g880
sg67
(lp892
S':'
asbag60
(g81
g62
NtRp893
(dp894
g65
(dp895
sg74
g880
sg67
(lp896
g60
(g61
g62
NtRp897
(dp898
g65
(dp899
g73
I4
ssg74
g893
sg67
(lp900
S"<open file '<stderr>', mode 'w' at 0x7f88635761e0>"
p901
asbasbasbag60
(g76
g62
NtRp902
(dp903
g65
(dp904
sg74
g262
sg67
(lp905
g60
(g81
g62
NtRp906
(dp907
g65
(dp908
g85
g86
ssg74
g902
sg67
(lp909
S'wsgi_file_wrapper'
p910
asbag60
(g81
g62
NtRp911
(dp912
g65
(dp913
g92
g93
ssg74
g902
sg67
(lp914
S':'
asbag60
(g81
g62
NtRp915
(dp916
g65
(dp917
sg74
g902
sg67
(lp918
g60
(g61
g62
NtRp919
(dp920
g65
(dp921
g73
I4
ssg74
g915
sg67
(lp922
S'<class gluon.rocket.FileWrapper at 0x21aa3b0>'
p923
asbasbasbag60
(g76
g62
NtRp924
(dp925
g65
(dp926
sg74
g262
sg67
(lp927
g60
(g81
g62
NtRp928
(dp929
g65
(dp930
g85
g86
ssg74
g924
sg67
(lp931
S'wsgi_input'
p932
asbag60
(g81
g62
NtRp933
(dp934
g65
(dp935
g92
g93
ssg74
g924
sg67
(lp936
S':'
asbag60
(g81
g62
NtRp937
(dp938
g65
(dp939
sg74
g924
sg67
(lp940
g60
(g61
g62
NtRp941
(dp942
g65
(dp943
g73
I4
ssg74
g937
sg67
(lp944
S'<socket._fileobject object at 0x229f150>'
p945
asbasbasbag60
(g76
g62
NtRp946
(dp947
g65
(dp948
sg74
g262
sg67
(lp949
g60
(g81
g62
NtRp950
(dp951
g65
(dp952
g85
g86
ssg74
g946
sg67
(lp953
S'wsgi_multiprocess'
p954
asbag60
(g81
g62
NtRp955
(dp956
g65
(dp957
g92
g93
ssg74
g946
sg67
(lp958
S':'
asbag60
(g81
g62
NtRp959
(dp960
g65
(dp961
sg74
g946
sg67
(lp962
g60
(g61
g62
NtRp963
(dp964
g65
(dp965
g73
I4
ssg74
g959
sg67
(lp966
g103
asbasbasbag60
(g76
g62
NtRp967
(dp968
g65
(dp969
sg74
g262
sg67
(lp970
g60
(g81
g62
NtRp971
(dp972
g65
(dp973
g85
g86
ssg74
g967
sg67
(lp974
S'wsgi_multithread'
p975
asbag60
(g81
g62
NtRp976
(dp977
g65
(dp978
g92
g93
ssg74
g967
sg67
(lp979
S':'
asbag60
(g81
g62
NtRp980
(dp981
g65
(dp982
sg74
g967
sg67
(lp983
g60
(g61
g62
NtRp984
(dp985
g65
(dp986
g73
I4
ssg74
g980
sg67
(lp987
S'True'
p988
asbasbasbag60
(g76
g62
NtRp989
(dp990
g65
(dp991
sg74
g262
sg67
(lp992
g60
(g81
g62
NtRp993
(dp994
g65
(dp995
g85
g86
ssg74
g989
sg67
(lp996
S'wsgi_run_once'
p997
asbag60
(g81
g62
NtRp998
(dp999
g65
(dp1000
g92
g93
ssg74
g989
sg67
(lp1001
S':'
asbag60
(g81
g62
NtRp1002
(dp1003
g65
(dp1004
sg74
g989
sg67
(lp1005
g60
(g61
g62
NtRp1006
(dp1007
g65
(dp1008
g73
I4
ssg74
g1002
sg67
(lp1009
g103
asbasbasbag60
(g76
g62
NtRp1010
(dp1011
g65
(dp1012
sg74
g262
sg67
(lp1013
g60
(g81
g62
NtRp1014
(dp1015
g65
(dp1016
g85
g86
ssg74
g1010
sg67
(lp1017
S'wsgi_url_scheme'
p1018
asbag60
(g81
g62
NtRp1019
(dp1020
g65
(dp1021
g92
g93
ssg74
g1010
sg67
(lp1022
S':'
asbag60
(g81
g62
NtRp1023
(dp1024
g65
(dp1025
sg74
g1010
sg67
(lp1026
g60
(g61
g62
NtRp1027
(dp1028
g65
(dp1029
g73
I4
ssg74
g1023
sg67
(lp1030
S'http'
p1031
asbasbasbag60
(g76
g62
NtRp1032
(dp1033
g65
(dp1034
sg74
g262
sg67
(lp1035
g60
(g81
g62
NtRp1036
(dp1037
g65
(dp1038
g85
g86
ssg74
g1032
sg67
(lp1039
S'wsgi_version'
p1040
asbag60
(g81
g62
NtRp1041
(dp1042
g65
(dp1043
g92
g93
ssg74
g1032
sg67
(lp1044
S':'
asbag60
(g81
g62
NtRp1045
(dp1046
g65
(dp1047
sg74
g1032
sg67
(lp1048
g60
(g61
g62
NtRp1049
(dp1050
g65
(dp1051
g73
I4
ssg74
g1045
sg67
(lp1052
g60
(g69
g62
NtRp1053
(dp1054
g65
(dp1055
g73
I3
ssg74
Nsg67
(lp1056
g60
(g76
g62
NtRp1057
(dp1058
g65
(dp1059
sg74
g1053
sg67
(lp1060
g60
(g81
g62
NtRp1061
(dp1062
g65
(dp1063
sg74
g1057
sg67
(lp1064
g60
(g61
g62
NtRp1065
(dp1066
g65
(dp1067
g73
I3
ssg74
g1061
sg67
(lp1068
S'1'
asbasbasbag60
(g76
g62
NtRp1069
(dp1070
g65
(dp1071
sg74
g1053
sg67
(lp1072
g60
(g81
g62
NtRp1073
(dp1074
g65
(dp1075
sg74
g1069
sg67
(lp1076
g60
(g61
g62
NtRp1077
(dp1078
g65
(dp1079
g73
I3
ssg74
g1073
sg67
(lp1080
S'0'
asbasbasbasbasbasbasbasbasbasbasbag60
(g76
g62
NtRp1081
(dp1082
g65
(dp1083
sg74
g70
sg67
(lp1084
g60
(g81
g62
NtRp1085
(dp1086
g65
(dp1087
g85
g86
ssg74
g1081
sg67
(lp1088
S'extension'
p1089
asbag60
(g81
g62
NtRp1090
(dp1091
g65
(dp1092
g92
g93
ssg74
g1081
sg67
(lp1093
S':'
asbag60
(g81
g62
NtRp1094
(dp1095
g65
(dp1096
sg74
g1081
sg67
(lp1097
g60
(g61
g62
NtRp1098
(dp1099
g65
(dp1100
g73
I5
ssg74
g1094
sg67
(lp1101
S'html'
p1102
asbasbasbag60
(g76
g62
NtRp1103
(dp1104
g65
(dp1105
sg74
g70
sg67
(lp1106
g60
(g81
g62
NtRp1107
(dp1108
g65
(dp1109
g85
g86
ssg74
g1103
sg67
(lp1110
S'folder'
p1111
asbag60
(g81
g62
NtRp1112
(dp1113
g65
(dp1114
g92
g93
ssg74
g1103
sg67
(lp1115
S':'
asbag60
(g81
g62
NtRp1116
(dp1117
g65
(dp1118
sg74
g1103
sg67
(lp1119
g60
(g61
g62
NtRp1120
(dp1121
g65
(dp1122
g73
I5
ssg74
g1116
sg67
(lp1123
S'/home/marco/proyectos/web2py-trunk/applications/mvstore/'
p1124
asbasbasbag60
(g76
g62
NtRp1125
(dp1126
g65
(dp1127
sg74
g70
sg67
(lp1128
g60
(g81
g62
NtRp1129
(dp1130
g65
(dp1131
g85
g86
ssg74
g1125
sg67
(lp1132
S'function'
p1133
asbag60
(g81
g62
NtRp1134
(dp1135
g65
(dp1136
g92
g93
ssg74
g1125
sg67
(lp1137
S':'
asbag60
(g81
g62
NtRp1138
(dp1139
g65
(dp1140
sg74
g1125
sg67
(lp1141
g60
(g61
g62
NtRp1142
(dp1143
g65
(dp1144
g73
I5
ssg74
g1138
sg67
(lp1145
S'index'
p1146
asbasbasbag60
(g76
g62
NtRp1147
(dp1148
g65
(dp1149
sg74
g70
sg67
(lp1150
g60
(g81
g62
NtRp1151
(dp1152
g65
(dp1153
g85
g86
ssg74
g1147
sg67
(lp1154
S'get_vars'
p1155
asbag60
(g81
g62
NtRp1156
(dp1157
g65
(dp1158
g92
g93
ssg74
g1147
sg67
(lp1159
S':'
asbag60
(g81
g62
NtRp1160
(dp1161
g65
(dp1162
sg74
g1147
sg67
(lp1163
g60
(g61
g62
NtRp1164
(dp1165
g65
(dp1166
g73
I5
ssg74
g1160
sg67
(lp1167
g60
(g69
g62
NtRp1168
(dp1169
g65
(dp1170
g73
I4
ssg74
Nsg67
(lp1171
sbasbasbasbag60
(g76
g62
NtRp1172
(dp1173
g65
(dp1174
sg74
g70
sg67
(lp1175
g60
(g81
g62
NtRp1176
(dp1177
g65
(dp1178
g85
g86
ssg74
g1172
sg67
(lp1179
S'is_https'
p1180
asbag60
(g81
g62
NtRp1181
(dp1182
g65
(dp1183
g92
g93
ssg74
g1172
sg67
(lp1184
S':'
asbag60
(g81
g62
NtRp1185
(dp1186
g65
(dp1187
sg74
g1172
sg67
(lp1188
g60
(g61
g62
NtRp1189
(dp1190
g65
(dp1191
g73
I5
ssg74
g1185
sg67
(lp1192
g103
asbasbasbag60
(g76
g62
NtRp1193
(dp1194
g65
(dp1195
sg74
g70
sg67
(lp1196
g60
(g81
g62
NtRp1197
(dp1198
g65
(dp1199
g85
g86
ssg74
g1193
sg67
(lp1200
S'is_local'
p1201
asbag60
(g81
g62
NtRp1202
(dp1203
g65
(dp1204
g92
g93
ssg74
g1193
sg67
(lp1205
S':'
asbag60
(g81
g62
NtRp1206
(dp1207
g65
(dp1208
sg74
g1193
sg67
(lp1209
g60
(g61
g62
NtRp1210
(dp1211
g65
(dp1212
g73
I5
ssg74
g1206
sg67
(lp1213
g988
asbasbasbag60
(g76
g62
NtRp1214
(dp1215
g65
(dp1216
sg74
g70
sg67
(lp1217
g60
(g81
g62
NtRp1218
(dp1219
g65
(dp1220
g85
g86
ssg74
g1214
sg67
(lp1221
S'is_restful'
p1222
asbag60
(g81
g62
NtRp1223
(dp1224
g65
(dp1225
g92
g93
ssg74
g1214
sg67
(lp1226
S':'
asbag60
(g81
g62
NtRp1227
(dp1228
g65
(dp1229
sg74
g1214
sg67
(lp1230
g60
(g61
g62
NtRp1231
(dp1232
g65
(dp1233
g73
I5
ssg74
g1227
sg67
(lp1234
g103
asbasbasbag60
(g76
g62
NtRp1235
(dp1236
g65
(dp1237
sg74
g70
sg67
(lp1238
g60
(g81
g62
NtRp1239
(dp1240
g65
(dp1241
g85
g86
ssg74
g1235
sg67
(lp1242
S'now'
p1243
asbag60
(g81
g62
NtRp1244
(dp1245
g65
(dp1246
g92
g93
ssg74
g1235
sg67
(lp1247
S':'
asbag60
(g81
g62
NtRp1248
(dp1249
g65
(dp1250
sg74
g1235
sg67
(lp1251
g60
(g61
g62
NtRp1252
(dp1253
g65
(dp1254
g73
I5
ssg74
g1248
sg67
(lp1255
S'datetime.datetime(2011, 6, 20, 2, 59, 3, 566349)'
p1256
asbasbasbag60
(g76
g62
NtRp1257
(dp1258
g65
(dp1259
sg74
g70
sg67
(lp1260
g60
(g81
g62
NtRp1261
(dp1262
g65
(dp1263
g85
g86
ssg74
g1257
sg67
(lp1264
S'post_vars'
p1265
asbag60
(g81
g62
NtRp1266
(dp1267
g65
(dp1268
g92
g93
ssg74
g1257
sg67
(lp1269
S':'
asbag60
(g81
g62
NtRp1270
(dp1271
g65
(dp1272
sg74
g1257
sg67
(lp1273
g60
(g61
g62
NtRp1274
(dp1275
g65
(dp1276
g73
I5
ssg74
g1270
sg67
(lp1277
g60
(g69
g62
NtRp1278
(dp1279
g65
(dp1280
g73
I4
ssg74
Nsg67
(lp1281
sbasbasbasbag60
(g76
g62
NtRp1282
(dp1283
g65
(dp1284
sg74
g70
sg67
(lp1285
g60
(g81
g62
NtRp1286
(dp1287
g65
(dp1288
g85
g86
ssg74
g1282
sg67
(lp1289
S'url'
p1290
asbag60
(g81
g62
NtRp1291
(dp1292
g65
(dp1293
g92
g93
ssg74
g1282
sg67
(lp1294
S':'
asbag60
(g81
g62
NtRp1295
(dp1296
g65
(dp1297
sg74
g1282
sg67
(lp1298
g60
(g61
g62
NtRp1299
(dp1300
g65
(dp1301
g73
I5
ssg74
g1295
sg67
(lp1302
S'/mvstore/default/index'
p1303
asbasbasbag60
(g76
g62
NtRp1304
(dp1305
g65
(dp1306
sg74
g70
sg67
(lp1307
g60
(g81
g62
NtRp1308
(dp1309
g65
(dp1310
g85
g86
ssg74
g1304
sg67
(lp1311
S'uuid'
p1312
asbag60
(g81
g62
NtRp1313
(dp1314
g65
(dp1315
g92
g93
ssg74
g1304
sg67
(lp1316
S':'
asbag60
(g81
g62
NtRp1317
(dp1318
g65
(dp1319
sg74
g1304
sg67
(lp1320
g60
(g61
g62
NtRp1321
(dp1322
g65
(dp1323
g73
I5
ssg74
g1317
sg67
(lp1324
S'mvstore/127.0.0.1.2011-06-20.02-59-03.4b54f0e7-a3e8-4bc9-ba4a-94a19aaa3a49'
p1325
asbasbasbag60
(g76
g62
NtRp1326
(dp1327
g65
(dp1328
sg74
g70
sg67
(lp1329
g60
(g81
g62
NtRp1330
(dp1331
g65
(dp1332
g85
g86
ssg74
g1326
sg67
(lp1333
S'vars'
p1334
asbag60
(g81
g62
NtRp1335
(dp1336
g65
(dp1337
g92
g93
ssg74
g1326
sg67
(lp1338
S':'
asbag60
(g81
g62
NtRp1339
(dp1340
g65
(dp1341
sg74
g1326
sg67
(lp1342
g60
(g61
g62
NtRp1343
(dp1344
g65
(dp1345
g73
I5
ssg74
g1339
sg67
(lp1346
g60
(g69
g62
NtRp1347
(dp1348
g65
(dp1349
g73
I4
ssg74
Nsg67
(lp1350
sbasbasbasbag60
(g76
g62
NtRp1351
(dp1352
g65
(dp1353
sg74
g70
sg67
(lp1354
g60
(g81
g62
NtRp1355
(dp1356
g65
(dp1357
g85
g86
ssg74
g1351
sg67
(lp1358
S'wsgi'
p1359
asbag60
(g81
g62
NtRp1360
(dp1361
g65
(dp1362
g92
g93
ssg74
g1351
sg67
(lp1363
S':'
asbag60
(g81
g62
NtRp1364
(dp1365
g65
(dp1366
sg74
g1351
sg67
(lp1367
g60
(g61
g62
NtRp1368
(dp1369
g65
(dp1370
g73
I5
ssg74
g1364
sg67
(lp1371
g60
(g69
g62
NtRp1372
(dp1373
g65
(dp1374
g73
I4
ssg74
Nsg67
(lp1375
g60
(g76
g62
NtRp1376
(dp1377
g65
(dp1378
sg74
g1372
sg67
(lp1379
g60
(g81
g62
NtRp1380
(dp1381
g65
(dp1382
g85
g86
ssg74
g1376
sg67
(lp1383
S'environ'
p1384
asbag60
(g81
g62
NtRp1385
(dp1386
g65
(dp1387
g92
g93
ssg74
g1376
sg67
(lp1388
S':'
asbag60
(g81
g62
NtRp1389
(dp1390
g65
(dp1391
sg74
g1376
sg67
(lp1392
g60
(g61
g62
NtRp1393
(dp1394
g65
(dp1395
g73
I4
ssg74
g1389
sg67
(lp1396
g60
(g69
g62
NtRp1397
(dp1398
g65
(dp1399
g73
I3
ssg74
Nsg67
(lp1400
g60
(g76
g62
NtRp1401
(dp1402
g65
(dp1403
sg74
g1397
sg67
(lp1404
g60
(g81
g62
NtRp1405
(dp1406
g65
(dp1407
g85
g86
ssg74
g1401
sg67
(lp1408
S'HTTP_ACCEPT'
p1409
asbag60
(g81
g62
NtRp1410
(dp1411
g65
(dp1412
g92
g93
ssg74
g1401
sg67
(lp1413
S':'
asbag60
(g81
g62
NtRp1414
(dp1415
g65
(dp1416
sg74
g1401
sg67
(lp1417
g60
(g61
g62
NtRp1418
(dp1419
g65
(dp1420
g73
I3
ssg74
g1414
sg67
(lp1421
g443
asbasbasbag60
(g76
g62
NtRp1422
(dp1423
g65
(dp1424
sg74
g1397
sg67
(lp1425
g60
(g81
g62
NtRp1426
(dp1427
g65
(dp1428
g85
g86
ssg74
g1422
sg67
(lp1429
S'HTTP_ACCEPT_CHARSET'
p1430
asbag60
(g81
g62
NtRp1431
(dp1432
g65
(dp1433
g92
g93
ssg74
g1422
sg67
(lp1434
S':'
asbag60
(g81
g62
NtRp1435
(dp1436
g65
(dp1437
sg74
g1422
sg67
(lp1438
g60
(g61
g62
NtRp1439
(dp1440
g65
(dp1441
g73
I3
ssg74
g1435
sg67
(lp1442
g465
asbasbasbag60
(g76
g62
NtRp1443
(dp1444
g65
(dp1445
sg74
g1397
sg67
(lp1446
g60
(g81
g62
NtRp1447
(dp1448
g65
(dp1449
g85
g86
ssg74
g1443
sg67
(lp1450
S'HTTP_ACCEPT_ENCODING'
p1451
asbag60
(g81
g62
NtRp1452
(dp1453
g65
(dp1454
g92
g93
ssg74
g1443
sg67
(lp1455
S':'
asbag60
(g81
g62
NtRp1456
(dp1457
g65
(dp1458
sg74
g1443
sg67
(lp1459
g60
(g61
g62
NtRp1460
(dp1461
g65
(dp1462
g73
I3
ssg74
g1456
sg67
(lp1463
g487
asbasbasbag60
(g76
g62
NtRp1464
(dp1465
g65
(dp1466
sg74
g1397
sg67
(lp1467
g60
(g81
g62
NtRp1468
(dp1469
g65
(dp1470
g85
g86
ssg74
g1464
sg67
(lp1471
S'HTTP_ACCEPT_LANGUAGE'
p1472
asbag60
(g81
g62
NtRp1473
(dp1474
g65
(dp1475
g92
g93
ssg74
g1464
sg67
(lp1476
S':'
asbag60
(g81
g62
NtRp1477
(dp1478
g65
(dp1479
sg74
g1464
sg67
(lp1480
g60
(g61
g62
NtRp1481
(dp1482
g65
(dp1483
g73
I3
ssg74
g1477
sg67
(lp1484
g509
asbasbasbag60
(g76
g62
NtRp1485
(dp1486
g65
(dp1487
sg74
g1397
sg67
(lp1488
g60
(g81
g62
NtRp1489
(dp1490
g65
(dp1491
g85
g86
ssg74
g1485
sg67
(lp1492
S'HTTP_CONNECTION'
p1493
asbag60
(g81
g62
NtRp1494
(dp1495
g65
(dp1496
g92
g93
ssg74
g1485
sg67
(lp1497
S':'
asbag60
(g81
g62
NtRp1498
(dp1499
g65
(dp1500
sg74
g1485
sg67
(lp1501
g60
(g61
g62
NtRp1502
(dp1503
g65
(dp1504
g73
I3
ssg74
g1498
sg67
(lp1505
g531
asbasbasbag60
(g76
g62
NtRp1506
(dp1507
g65
(dp1508
sg74
g1397
sg67
(lp1509
g60
(g81
g62
NtRp1510
(dp1511
g65
(dp1512
g85
g86
ssg74
g1506
sg67
(lp1513
S'HTTP_HOST'
p1514
asbag60
(g81
g62
NtRp1515
(dp1516
g65
(dp1517
g92
g93
ssg74
g1506
sg67
(lp1518
S':'
asbag60
(g81
g62
NtRp1519
(dp1520
g65
(dp1521
sg74
g1506
sg67
(lp1522
g60
(g61
g62
NtRp1523
(dp1524
g65
(dp1525
g73
I3
ssg74
g1519
sg67
(lp1526
g553
asbasbasbag60
(g76
g62
NtRp1527
(dp1528
g65
(dp1529
sg74
g1397
sg67
(lp1530
g60
(g81
g62
NtRp1531
(dp1532
g65
(dp1533
g85
g86
ssg74
g1527
sg67
(lp1534
S'HTTP_KEEP_ALIVE'
p1535
asbag60
(g81
g62
NtRp1536
(dp1537
g65
(dp1538
g92
g93
ssg74
g1527
sg67
(lp1539
S':'
asbag60
(g81
g62
NtRp1540
(dp1541
g65
(dp1542
sg74
g1527
sg67
(lp1543
g60
(g61
g62
NtRp1544
(dp1545
g65
(dp1546
g73
I3
ssg74
g1540
sg67
(lp1547
g575
asbasbasbag60
(g76
g62
NtRp1548
(dp1549
g65
(dp1550
sg74
g1397
sg67
(lp1551
g60
(g81
g62
NtRp1552
(dp1553
g65
(dp1554
g85
g86
ssg74
g1548
sg67
(lp1555
S'HTTP_USER_AGENT'
p1556
asbag60
(g81
g62
NtRp1557
(dp1558
g65
(dp1559
g92
g93
ssg74
g1548
sg67
(lp1560
S':'
asbag60
(g81
g62
NtRp1561
(dp1562
g65
(dp1563
sg74
g1548
sg67
(lp1564
g60
(g61
g62
NtRp1565
(dp1566
g65
(dp1567
g73
I3
ssg74
g1561
sg67
(lp1568
g597
asbasbasbag60
(g76
g62
NtRp1569
(dp1570
g65
(dp1571
sg74
g1397
sg67
(lp1572
g60
(g81
g62
NtRp1573
(dp1574
g65
(dp1575
g85
g86
ssg74
g1569
sg67
(lp1576
S'PATH_INFO'
p1577
asbag60
(g81
g62
NtRp1578
(dp1579
g65
(dp1580
g92
g93
ssg74
g1569
sg67
(lp1581
S':'
asbag60
(g81
g62
NtRp1582
(dp1583
g65
(dp1584
sg74
g1569
sg67
(lp1585
g60
(g61
g62
NtRp1586
(dp1587
g65
(dp1588
g73
I3
ssg74
g1582
sg67
(lp1589
g619
asbasbasbag60
(g76
g62
NtRp1590
(dp1591
g65
(dp1592
sg74
g1397
sg67
(lp1593
g60
(g81
g62
NtRp1594
(dp1595
g65
(dp1596
g85
g86
ssg74
g1590
sg67
(lp1597
S'QUERY_STRING'
p1598
asbag60
(g81
g62
NtRp1599
(dp1600
g65
(dp1601
g92
g93
ssg74
g1590
sg67
(lp1602
S':'
asbag60
(g81
g62
NtRp1603
(dp1604
g65
(dp1605
sg74
g1590
sg67
(lp1606
g60
(g61
g62
NtRp1607
(dp1608
g65
(dp1609
g73
I3
ssg74
g1603
sg67
(lp1610
S''
asbasbasbag60
(g76
g62
NtRp1611
(dp1612
g65
(dp1613
sg74
g1397
sg67
(lp1614
g60
(g81
g62
NtRp1615
(dp1616
g65
(dp1617
g85
g86
ssg74
g1611
sg67
(lp1618
S'REMOTE_ADDR'
p1619
asbag60
(g81
g62
NtRp1620
(dp1621
g65
(dp1622
g92
g93
ssg74
g1611
sg67
(lp1623
S':'
asbag60
(g81
g62
NtRp1624
(dp1625
g65
(dp1626
sg74
g1611
sg67
(lp1627
g60
(g61
g62
NtRp1628
(dp1629
g65
(dp1630
g73
I3
ssg74
g1624
sg67
(lp1631
g193
asbasbasbag60
(g76
g62
NtRp1632
(dp1633
g65
(dp1634
sg74
g1397
sg67
(lp1635
g60
(g81
g62
NtRp1636
(dp1637
g65
(dp1638
g85
g86
ssg74
g1632
sg67
(lp1639
S'REMOTE_PORT'
p1640
asbag60
(g81
g62
NtRp1641
(dp1642
g65
(dp1643
g92
g93
ssg74
g1632
sg67
(lp1644
S':'
asbag60
(g81
g62
NtRp1645
(dp1646
g65
(dp1647
sg74
g1632
sg67
(lp1648
g60
(g61
g62
NtRp1649
(dp1650
g65
(dp1651
g73
I3
ssg74
g1645
sg67
(lp1652
g683
asbasbasbag60
(g76
g62
NtRp1653
(dp1654
g65
(dp1655
sg74
g1397
sg67
(lp1656
g60
(g81
g62
NtRp1657
(dp1658
g65
(dp1659
g85
g86
ssg74
g1653
sg67
(lp1660
S'REQUEST_METHOD'
p1661
asbag60
(g81
g62
NtRp1662
(dp1663
g65
(dp1664
g92
g93
ssg74
g1653
sg67
(lp1665
S':'
asbag60
(g81
g62
NtRp1666
(dp1667
g65
(dp1668
sg74
g1653
sg67
(lp1669
g60
(g61
g62
NtRp1670
(dp1671
g65
(dp1672
g73
I3
ssg74
g1666
sg67
(lp1673
g705
asbasbasbag60
(g76
g62
NtRp1674
(dp1675
g65
(dp1676
sg74
g1397
sg67
(lp1677
g60
(g81
g62
NtRp1678
(dp1679
g65
(dp1680
g85
g86
ssg74
g1674
sg67
(lp1681
S'SCRIPT_NAME'
p1682
asbag60
(g81
g62
NtRp1683
(dp1684
g65
(dp1685
g92
g93
ssg74
g1674
sg67
(lp1686
S':'
asbag60
(g81
g62
NtRp1687
(dp1688
g65
(dp1689
sg74
g1674
sg67
(lp1690
g60
(g61
g62
NtRp1691
(dp1692
g65
(dp1693
g73
I3
ssg74
g1687
sg67
(lp1694
S''
asbasbasbag60
(g76
g62
NtRp1695
(dp1696
g65
(dp1697
sg74
g1397
sg67
(lp1698
g60
(g81
g62
NtRp1699
(dp1700
g65
(dp1701
g85
g86
ssg74
g1695
sg67
(lp1702
S'SERVER_NAME'
p1703
asbag60
(g81
g62
NtRp1704
(dp1705
g65
(dp1706
g92
g93
ssg74
g1695
sg67
(lp1707
S':'
asbag60
(g81
g62
NtRp1708
(dp1709
g65
(dp1710
sg74
g1695
sg67
(lp1711
g60
(g61
g62
NtRp1712
(dp1713
g65
(dp1714
g73
I3
ssg74
g1708
sg67
(lp1715
g748
asbasbasbag60
(g76
g62
NtRp1716
(dp1717
g65
(dp1718
sg74
g1397
sg67
(lp1719
g60
(g81
g62
NtRp1720
(dp1721
g65
(dp1722
g85
g86
ssg74
g1716
sg67
(lp1723
S'SERVER_PORT'
p1724
asbag60
(g81
g62
NtRp1725
(dp1726
g65
(dp1727
g92
g93
ssg74
g1716
sg67
(lp1728
S':'
asbag60
(g81
g62
NtRp1729
(dp1730
g65
(dp1731
sg74
g1716
sg67
(lp1732
g60
(g61
g62
NtRp1733
(dp1734
g65
(dp1735
g73
I3
ssg74
g1729
sg67
(lp1736
g770
asbasbasbag60
(g76
g62
NtRp1737
(dp1738
g65
(dp1739
sg74
g1397
sg67
(lp1740
g60
(g81
g62
NtRp1741
(dp1742
g65
(dp1743
g85
g86
ssg74
g1737
sg67
(lp1744
S'SERVER_PROTOCOL'
p1745
asbag60
(g81
g62
NtRp1746
(dp1747
g65
(dp1748
g92
g93
ssg74
g1737
sg67
(lp1749
S':'
asbag60
(g81
g62
NtRp1750
(dp1751
g65
(dp1752
sg74
g1737
sg67
(lp1753
g60
(g61
g62
NtRp1754
(dp1755
g65
(dp1756
g73
I3
ssg74
g1750
sg67
(lp1757
g792
asbasbasbag60
(g76
g62
NtRp1758
(dp1759
g65
(dp1760
sg74
g1397
sg67
(lp1761
g60
(g81
g62
NtRp1762
(dp1763
g65
(dp1764
g85
g86
ssg74
g1758
sg67
(lp1765
S'SERVER_SOFTWARE'
p1766
asbag60
(g81
g62
NtRp1767
(dp1768
g65
(dp1769
g92
g93
ssg74
g1758
sg67
(lp1770
S':'
asbag60
(g81
g62
NtRp1771
(dp1772
g65
(dp1773
sg74
g1758
sg67
(lp1774
g60
(g61
g62
NtRp1775
(dp1776
g65
(dp1777
g73
I3
ssg74
g1771
sg67
(lp1778
g814
asbasbasbag60
(g76
g62
NtRp1779
(dp1780
g65
(dp1781
sg74
g1397
sg67
(lp1782
g60
(g81
g62
NtRp1783
(dp1784
g65
(dp1785
g85
g86
ssg74
g1779
sg67
(lp1786
S'wsgi.errors'
p1787
asbag60
(g81
g62
NtRp1788
(dp1789
g65
(dp1790
g92
g93
ssg74
g1779
sg67
(lp1791
S':'
asbag60
(g81
g62
NtRp1792
(dp1793
g65
(dp1794
sg74
g1779
sg67
(lp1795
g60
(g61
g62
NtRp1796
(dp1797
g65
(dp1798
g73
I3
ssg74
g1792
sg67
(lp1799
S"<open file '<stderr>', mode 'w' at 0x7f88635761e0>"
p1800
asbasbasbag60
(g76
g62
NtRp1801
(dp1802
g65
(dp1803
sg74
g1397
sg67
(lp1804
g60
(g81
g62
NtRp1805
(dp1806
g65
(dp1807
g85
g86
ssg74
g1801
sg67
(lp1808
S'wsgi.file_wrapper'
p1809
asbag60
(g81
g62
NtRp1810
(dp1811
g65
(dp1812
g92
g93
ssg74
g1801
sg67
(lp1813
S':'
asbag60
(g81
g62
NtRp1814
(dp1815
g65
(dp1816
sg74
g1801
sg67
(lp1817
g60
(g61
g62
NtRp1818
(dp1819
g65
(dp1820
g73
I3
ssg74
g1814
sg67
(lp1821
S'<class gluon.rocket.FileWrapper at 0x21aa3b0>'
p1822
asbasbasbag60
(g76
g62
NtRp1823
(dp1824
g65
(dp1825
sg74
g1397
sg67
(lp1826
g60
(g81
g62
NtRp1827
(dp1828
g65
(dp1829
g85
g86
ssg74
g1823
sg67
(lp1830
S'wsgi.input'
p1831
asbag60
(g81
g62
NtRp1832
(dp1833
g65
(dp1834
g92
g93
ssg74
g1823
sg67
(lp1835
S':'
asbag60
(g81
g62
NtRp1836
(dp1837
g65
(dp1838
sg74
g1823
sg67
(lp1839
g60
(g61
g62
NtRp1840
(dp1841
g65
(dp1842
g73
I3
ssg74
g1836
sg67
(lp1843
S'<cStringIO.StringO object at 0x2332b90>'
p1844
asbasbasbag60
(g76
g62
NtRp1845
(dp1846
g65
(dp1847
sg74
g1397
sg67
(lp1848
g60
(g81
g62
NtRp1849
(dp1850
g65
(dp1851
g85
g86
ssg74
g1845
sg67
(lp1852
S'wsgi.multiprocess'
p1853
asbag60
(g81
g62
NtRp1854
(dp1855
g65
(dp1856
g92
g93
ssg74
g1845
sg67
(lp1857
S':'
asbag60
(g81
g62
NtRp1858
(dp1859
g65
(dp1860
sg74
g1845
sg67
(lp1861
g60
(g61
g62
NtRp1862
(dp1863
g65
(dp1864
g73
I3
ssg74
g1858
sg67
(lp1865
g103
asbasbasbag60
(g76
g62
NtRp1866
(dp1867
g65
(dp1868
sg74
g1397
sg67
(lp1869
g60
(g81
g62
NtRp1870
(dp1871
g65
(dp1872
g85
g86
ssg74
g1866
sg67
(lp1873
S'wsgi.multithread'
p1874
asbag60
(g81
g62
NtRp1875
(dp1876
g65
(dp1877
g92
g93
ssg74
g1866
sg67
(lp1878
S':'
asbag60
(g81
g62
NtRp1879
(dp1880
g65
(dp1881
sg74
g1866
sg67
(lp1882
g60
(g61
g62
NtRp1883
(dp1884
g65
(dp1885
g73
I3
ssg74
g1879
sg67
(lp1886
g988
asbasbasbag60
(g76
g62
NtRp1887
(dp1888
g65
(dp1889
sg74
g1397
sg67
(lp1890
g60
(g81
g62
NtRp1891
(dp1892
g65
(dp1893
g85
g86
ssg74
g1887
sg67
(lp1894
S'wsgi.run_once'
p1895
asbag60
(g81
g62
NtRp1896
(dp1897
g65
(dp1898
g92
g93
ssg74
g1887
sg67
(lp1899
S':'
asbag60
(g81
g62
NtRp1900
(dp1901
g65
(dp1902
sg74
g1887
sg67
(lp1903
g60
(g61
g62
NtRp1904
(dp1905
g65
(dp1906
g73
I3
ssg74
g1900
sg67
(lp1907
g103
asbasbasbag60
(g76
g62
NtRp1908
(dp1909
g65
(dp1910
sg74
g1397
sg67
(lp1911
g60
(g81
g62
NtRp1912
(dp1913
g65
(dp1914
g85
g86
ssg74
g1908
sg67
(lp1915
S'wsgi.url_scheme'
p1916
asbag60
(g81
g62
NtRp1917
(dp1918
g65
(dp1919
g92
g93
ssg74
g1908
sg67
(lp1920
S':'
asbag60
(g81
g62
NtRp1921
(dp1922
g65
(dp1923
sg74
g1908
sg67
(lp1924
g60
(g61
g62
NtRp1925
(dp1926
g65
(dp1927
g73
I3
ssg74
g1921
sg67
(lp1928
g1031
asbasbasbag60
(g76
g62
NtRp1929
(dp1930
g65
(dp1931
sg74
g1397
sg67
(lp1932
g60
(g81
g62
NtRp1933
(dp1934
g65
(dp1935
g85
g86
ssg74
g1929
sg67
(lp1936
S'wsgi.version'
p1937
asbag60
(g81
g62
NtRp1938
(dp1939
g65
(dp1940
g92
g93
ssg74
g1929
sg67
(lp1941
S':'
asbag60
(g81
g62
NtRp1942
(dp1943
g65
(dp1944
sg74
g1929
sg67
(lp1945
g60
(g61
g62
NtRp1946
(dp1947
g65
(dp1948
g73
I3
ssg74
g1942
sg67
(lp1949
S'1'
asbasbasbasbasbasbasbasbasbasbasbasbasbsS'frames'
p1950
(lp1951
(dp1952
S'file'
p1953
S'/home/marco/proyectos/web2py-trunk/gluon/restricted.py'
p1954
sS'dump'
p1955
(dp1956
S'environment'
p1957
S"{'A': <class 'gluon.html.A'>, 'Auth': <class 'gluon.tools.Auth'>, 'B': <class 'gluon.html.B'>, 'BEAUTIFY': <class 'gluon.html.BEAUTIFY'>, 'BODY': <class 'gluon.html.BODY'>, 'BR': <class 'gluon.html.BR'>, 'BUTTON': <class 'gluon.html.BUTTON'>, 'CENTER': <class 'gluon.html.CENTER'>, 'CLEANUP': <class 'gluon.validators.CLEANUP'>, 'CODE': <class 'gluon.html.CODE'>, ...}"
p1958
sS'ccode'
p1959
S'<code object <module> at 0x235af30, file "/home/...trunk/applications/mvstore/models/db.py", line 8>'
p1960
ssS'lnum'
p1961
I192
sS'lines'
p1962
(dp1963
I192
S'        exec ccode in environment'
p1964
sI193
S'    except HTTP:'
p1965
sI194
S'        raise'
p1966
sI195
S'    except Exception:'
p1967
sI196
S'        # XXX Show exception in Wing IDE if running in debugger'
p1968
sI187
S'    try:'
p1969
sI188
S'        if type(code) == types.CodeType:'
p1970
sI189
S'            ccode = code'
p1971
sI190
S'        else:'
p1972
sI191
S'            ccode = compile2(code,layer)'
p1973
ssS'call'
p1974
S'(code=\'# -*- coding: utf-8 -*-\\n# this file is released ...cargo que se aplica es de $2 por dia")\\n        )\\n\', environment={\'A\': <class \'gluon.html.A\'>, \'Auth\': <class \'gluon.tools.Auth\'>, \'B\': <class \'gluon.html.B\'>, \'BEAUTIFY\': <class \'gluon.html.BEAUTIFY\'>, \'BODY\': <class \'gluon.html.BODY\'>, \'BR\': <class \'gluon.html.BR\'>, \'BUTTON\': <class \'gluon.html.BUTTON\'>, \'CENTER\': <class \'gluon.html.CENTER\'>, \'CLEANUP\': <class \'gluon.validators.CLEANUP\'>, \'CODE\': <class \'gluon.html.CODE\'>, ...}, layer=\'/home/marco/proyectos/web2py-trunk/applications/mvstore/models/db.py\')'
p1975
sS'func'
p1976
S'restricted'
p1977
sa(dp1978
g1953
S'/home/marco/proyectos/web2py-trunk/applications/mvstore/models/db.py'
p1979
sg1955
(dp1980
S'builtinformat'
p1981
S'<built-in function format>'
p1982
ssg1961
I112
sg1962
(dp1983
I107
S"        Field('anio','integer'),"
p1984
sI108
S"        Field('sinopsis','text'),"
p1985
sI109
S"        Field('tapa','upload'),"
p1986
sI110
S"        Field('unidades','integer'),"
p1987
sI111
S"        Field('fecha_ing','date'),"
p1988
sI112
S"        format='%(titulo)s',"
p1989
sI113
S'        )'
p1990
sI114
S''
sI115
S"db.define_table('prestamos',"
p1991
sI116
S"        Field('id_prestamo', 'integer', required=True, unique=True),"
p1992
ssg1974
S'()'
p1993
sg1976
S'<module>'
p1994
sa(dp1995
g1953
S'/home/marco/proyectos/web2py-trunk/gluon/dal.py'
p1996
sg1955
(dp1997
S'polymodel'
p1998
S'None'
p1999
ssg1961
I4235
sg1962
(dp2000
I4230
S"        if migrate or self._adapter.dbengine=='google:datastore':"
p2001
sI4231
S'            try:'
p2002
sI4232
S'                sql_locker.acquire()'
p2003
sI4233
S'                self._adapter.create_table(t,migrate=migrate,'
p2004
sI4234
S'                                           fake_migrate=fake_migrate,'
p2005
sI4235
S'                                           polymodel=polymodel)'
p2006
sI4236
S'            finally:'
p2007
sI4237
S'                sql_locker.release()'
p2008
sI4238
S'        else:'
p2009
sI4239
S'            t._dbt = None'
p2010
ssg1974
S"(self=<DAL {'auth_event': <Table {'origin': <gluon.dal..., 'id': <gluon.dal.Field object at 0x250b990>}>}>, tablename='peliculas', *fields=(<gluon.dal.Field object>, <gluon.dal.Field object>, <gluon.dal.Field object>, <gluon.dal.Field object>, <gluon.dal.Field object>, <gluon.dal.Field object>, <gluon.dal.Field object>, <gluon.dal.Field object>), **args={'format': '%(titulo)s'})"
p2011
sg1976
S'define_table'
p2012
sa(dp2013
g1953
S'/home/marco/proyectos/web2py-trunk/gluon/dal.py'
p2014
sg1955
(dp2015
S'fake_migrate'
p2016
g103
ssg1961
I659
sg1962
(dp2017
I654
S'            self.file_close(tfile)'
p2018
sI655
S'            if sql_fields != sql_fields_old:'
p2019
sI656
S'                self.migrate_table(table,'
p2020
sI657
S'                                   sql_fields, sql_fields_old,'
p2021
sI658
S'                                   sql_fields_aux, logfile,'
p2022
sI659
S'                                   fake_migrate=fake_migrate)'
p2023
sI660
S'        self.file_close(logfile)'
p2024
sI661
S'        return query'
p2025
sI662
S''
sI663
S'    def migrate_table('
p2026
ssg1974
S"(self=<gluon.dal.SQLiteAdapter object>, table=<Table {'genero': <gluon.dal.Field object at 0x2...y-trunk/applications/mvstore/databases/sql.log'}>, migrate=True, fake_migrate=False, polymodel=None)"
p2027
sg1976
S'create_table'
p2028
sa(dp2029
g1953
S'/home/marco/proyectos/web2py-trunk/gluon/dal.py'
p2030
sg1955
(dp2031
S'self'
p2032
S'<gluon.dal.SQLiteAdapter object>'
p2033
sS'self.execute'
p2034
S'<bound method SQLiteAdapter.execute of <gluon.dal.SQLiteAdapter object>>'
p2035
sS'sub_query'
p2036
S"'ALTER TABLE peliculas ADD id_pelicula INTEGER UNIQUE;'"
p2037
ssg1961
I747
sg1962
(dp2038
I742
S'                              % datetime.datetime.today().isoformat())'
p2039
sI743
S"                table._db['_lastsql'] = '\\n'.join(query)"
p2040
sI744
S'                for sub_query in query:'
p2041
sI745
S"                    logfile.write(sub_query + '\\n')"
p2042
sI746
S'                    if not fake_migrate:'
p2043
sI747
S'                        self.execute(sub_query)'
p2044
sI748
S'                        # caveat. mysql, oracle and firebird do not allow multiple alter table'
p2045
sI749
S'                        # in one transaction so we must commit partial transactions and'
p2046
sI750
S'                        # update table._dbt after alter table.'
p2047
sI751
S'                        if table._db._adapter.commit_on_alter_table:'
p2048
ssg1974
S"(self=<gluon.dal.SQLiteAdapter object>, table=<Table {'genero': <gluon.dal.Field object at 0x2...y-trunk/applications/mvstore/databases/sql.log'}>, sql_fields={'anio': {'sortable': 5, 'sql': 'INTEGER', 'type': 'integer'}, 'fecha_ing': {'sortable': 9, 'sql': 'DATE', 'type': 'date'}, 'genero': {'sortable': 4, 'sql': 'CHAR(512)', 'type': 'string'}, 'id': {'sortable': 1, 'sql': 'INTEGER PRIMARY KEY AUTOINCREMENT', 'type': 'id'}, 'id_pelicula': {'sortable': 2, 'sql': 'INTEGER UNIQUE', 'type': 'integer'}, 'sinopsis': {'sortable': 6, 'sql': 'TEXT', 'type': 'text'}, 'tapa': {'sortable': 7, 'sql': 'CHAR(512)', 'type': 'upload'}, 'titulo': {'sortable': 3, 'sql': 'CHAR(512)', 'type': 'string'}, 'unidades': {'sortable': 8, 'sql': 'INTEGER', 'type': 'integer'}}, sql_fields_old={'anio': {'sortable': 4, 'sql': 'INTEGER', 'type': 'integer'}, 'fecha_ing': {'sortable': 8, 'sql': 'DATE', 'type': 'date'}, 'genero': {'sortable': 3, 'sql': 'CHAR(512)', 'type': 'string'}, 'id': {'sortable': 1, 'sql': 'INTEGER PRIMARY KEY AUTOINCREMENT', 'type': 'id'}, 'sinopsis': {'sortable': 5, 'sql': 'TEXT', 'type': 'text'}, 'tapa': {'sortable': 6, 'sql': 'CHAR(512)', 'type': 'upload'}, 'titulo': {'sortable': 2, 'sql': 'CHAR(512)', 'type': 'string'}, 'unidades': {'sortable': 7, 'sql': 'INTEGER', 'type': 'integer'}}, sql_fields_aux={'anio': {'sql': 'INTEGER'}, 'fecha_ing': {'sql': 'DATE'}, 'genero': {'sql': 'CHAR(512)'}, 'id': {'sql': 'INTEGER PRIMARY KEY AUTOINCREMENT'}, 'id_pelicula': {'sql': 'INTEGER UNIQUE'}, 'sinopsis': {'sql': 'TEXT'}, 'tapa': {'sql': 'CHAR(512)'}, 'titulo': {'sql': 'CHAR(512)'}, 'unidades': {'sql': 'INTEGER'}}, logfile=<open file '/home/marco/proyectos/web2py-trunk/applications/mvstore/databases/sql.log', mode 'a'>, fake_migrate=False)"
p2049
sg1976
S'migrate_table'
p2050
sa(dp2051
g1953
S'/home/marco/proyectos/web2py-trunk/gluon/dal.py'
p2052
sg1955
(dp2053
S'a'
S"('ALTER TABLE peliculas ADD id_pelicula INTEGER UNIQUE;',)"
p2054
sS'self'
p2055
S'<gluon.dal.SQLiteAdapter object>'
p2056
sS'b'
g20
sS'self.log_execute'
p2057
S'<bound method SQLiteAdapter.log_execute of <gluon.dal.SQLiteAdapter object>>'
p2058
ssg1961
I1251
sg1962
(dp2059
I1248
S'        return ret'
p2060
sI1249
S''
sI1250
S'    def execute(self,*a,**b):'
p2061
sI1251
S'        return self.log_execute(*a, **b)'
p2062
sI1252
S''
sI1253
S'    def represent(self, obj, fieldtype):'
p2063
sI1254
S'        if isinstance(obj,CALLABLETYPES):'
p2064
sI1255
S'            obj = obj()'
p2065
sI1246
S'        ret = self.cursor.execute(*a,**b)'
p2066
sI1247
S'        self.db._timings.append((a[0],time.time()-t0))'
p2067
ssg1974
S"(self=<gluon.dal.SQLiteAdapter object>, *a=('ALTER TABLE peliculas ADD id_pelicula INTEGER UNIQUE;',), **b={})"
p2068
sg1976
S'execute'
p2069
sa(dp2070
g1953
S'/home/marco/proyectos/web2py-trunk/gluon/dal.py'
p2071
sg1955
(dp2072
S'a'
S"('ALTER TABLE peliculas ADD id_pelicula INTEGER UNIQUE;',)"
p2073
sS'b'
g20
sS'self'
p2074
S'<gluon.dal.SQLiteAdapter object>'
p2075
sS'ret'
p2076
S'undefined'
p2077
sS'self.cursor'
p2078
S'<pysqlite2.dbapi2.Cursor object>'
p2079
sS'self.cursor.execute'
p2080
S'<built-in method execute of pysqlite2.dbapi2.Cursor object>'
p2081
ssg1961
I1246
sg1962
(dp2082
I1248
S'        return ret'
p2083
sI1249
S''
sI1250
S'    def execute(self,*a,**b):'
p2084
sI1241
S'        self.execute(query)'
p2085
sI1242
S''
sI1243
S'    def log_execute(self,*a,**b):'
p2086
sI1244
S'        self.db._lastsql = a[0]'
p2087
sI1245
S'        t0 = time.time()'
p2088
sI1246
S'        ret = self.cursor.execute(*a,**b)'
p2089
sI1247
S'        self.db._timings.append((a[0],time.time()-t0))'
p2090
ssg1974
S"(self=<gluon.dal.SQLiteAdapter object>, *a=('ALTER TABLE peliculas ADD id_pelicula INTEGER UNIQUE;',), **b={})"
p2091
sg1976
S'log_execute'
p2092
sasS'pyver'
p2093
S'Python 2.6.6: /usr/bin/python'
p2094
sS'session'
p2095
g60
(g61
g62
NtRp2096
(dp2097
g65
(dp2098
sg67
(lp2099
g60
(g69
g62
NtRp2100
(dp2101
g65
(dp2102
g73
I5
ssg74
Nsg67
(lp2103
sbasbsS'etype'
p2104
S"<class 'pysqlite2.dbapi2.OperationalError'>"
p2105
sS'date'
p2106
S'Mon Jun 20 02:59:04 2011'
p2107
sS'response'
p2108
g60
(g61
g62
NtRp2109
(dp2110
g65
(dp2111
sg67
(lp2112
g60
(g69
g62
NtRp2113
(dp2114
g65
(dp2115
g73
I5
ssg74
Nsg67
(lp2116
g60
(g76
g62
NtRp2117
(dp2118
g65
(dp2119
sg74
g2113
sg67
(lp2120
g60
(g81
g62
NtRp2121
(dp2122
g65
(dp2123
g85
g86
ssg74
g2117
sg67
(lp2124
g158
asbag60
(g81
g62
NtRp2125
(dp2126
g65
(dp2127
g92
g93
ssg74
g2117
sg67
(lp2128
S':'
asbag60
(g81
g62
NtRp2129
(dp2130
g65
(dp2131
sg74
g2117
sg67
(lp2132
g60
(g61
g62
NtRp2133
(dp2134
g65
(dp2135
g73
I5
ssg74
g2129
sg67
(lp2136
S'<cStringIO.StringO object at 0x2332650>'
p2137
asbasbasbag60
(g76
g62
NtRp2138
(dp2139
g65
(dp2140
sg74
g2113
sg67
(lp2141
g60
(g81
g62
NtRp2142
(dp2143
g65
(dp2144
g85
g86
ssg74
g2138
sg67
(lp2145
g224
asbag60
(g81
g62
NtRp2146
(dp2147
g65
(dp2148
g92
g93
ssg74
g2138
sg67
(lp2149
S':'
asbag60
(g81
g62
NtRp2150
(dp2151
g65
(dp2152
sg74
g2138
sg67
(lp2153
g60
(g61
g62
NtRp2154
(dp2155
g65
(dp2156
g73
I5
ssg74
g2150
sg67
(lp2157
g60
(g69
g62
NtRp2158
(dp2159
g65
(dp2160
g73
I4
ssg74
Nsg67
(lp2161
g60
(g76
g62
NtRp2162
(dp2163
g65
(dp2164
sg74
g2158
sg67
(lp2165
g60
(g81
g62
NtRp2166
(dp2167
g65
(dp2168
g85
g86
ssg74
g2162
sg67
(lp2169
S'session_id_mvstore'
p2170
asbag60
(g81
g62
NtRp2171
(dp2172
g65
(dp2173
g92
g93
ssg74
g2162
sg67
(lp2174
S':'
asbag60
(g81
g62
NtRp2175
(dp2176
g65
(dp2177
sg74
g2162
sg67
(lp2178
g60
(g61
g62
NtRp2179
(dp2180
g65
(dp2181
g73
I4
ssg74
g2175
sg67
(lp2182
g60
(g69
g62
NtRp2183
(dp2184
g65
(dp2185
g73
I3
ssg74
Nsg67
(lp2186
g60
(g76
g62
NtRp2187
(dp2188
g65
(dp2189
sg74
g2183
sg67
(lp2190
g60
(g81
g62
NtRp2191
(dp2192
g65
(dp2193
g85
g86
ssg74
g2187
sg67
(lp2194
S'comment'
p2195
asbag60
(g81
g62
NtRp2196
(dp2197
g65
(dp2198
g92
g93
ssg74
g2187
sg67
(lp2199
S':'
asbag60
(g81
g62
NtRp2200
(dp2201
g65
(dp2202
sg74
g2187
sg67
(lp2203
g60
(g61
g62
NtRp2204
(dp2205
g65
(dp2206
g73
I3
ssg74
g2200
sg67
(lp2207
S''
asbasbasbag60
(g76
g62
NtRp2208
(dp2209
g65
(dp2210
sg74
g2183
sg67
(lp2211
g60
(g81
g62
NtRp2212
(dp2213
g65
(dp2214
g85
g86
ssg74
g2208
sg67
(lp2215
S'domain'
p2216
asbag60
(g81
g62
NtRp2217
(dp2218
g65
(dp2219
g92
g93
ssg74
g2208
sg67
(lp2220
S':'
asbag60
(g81
g62
NtRp2221
(dp2222
g65
(dp2223
sg74
g2208
sg67
(lp2224
g60
(g61
g62
NtRp2225
(dp2226
g65
(dp2227
g73
I3
ssg74
g2221
sg67
(lp2228
S''
asbasbasbag60
(g76
g62
NtRp2229
(dp2230
g65
(dp2231
sg74
g2183
sg67
(lp2232
g60
(g81
g62
NtRp2233
(dp2234
g65
(dp2235
g85
g86
ssg74
g2229
sg67
(lp2236
S'expires'
p2237
asbag60
(g81
g62
NtRp2238
(dp2239
g65
(dp2240
g92
g93
ssg74
g2229
sg67
(lp2241
S':'
asbag60
(g81
g62
NtRp2242
(dp2243
g65
(dp2244
sg74
g2229
sg67
(lp2245
g60
(g61
g62
NtRp2246
(dp2247
g65
(dp2248
g73
I3
ssg74
g2242
sg67
(lp2249
S''
asbasbasbag60
(g76
g62
NtRp2250
(dp2251
g65
(dp2252
sg74
g2183
sg67
(lp2253
g60
(g81
g62
NtRp2254
(dp2255
g65
(dp2256
g85
g86
ssg74
g2250
sg67
(lp2257
S'httponly'
p2258
asbag60
(g81
g62
NtRp2259
(dp2260
g65
(dp2261
g92
g93
ssg74
g2250
sg67
(lp2262
S':'
asbag60
(g81
g62
NtRp2263
(dp2264
g65
(dp2265
sg74
g2250
sg67
(lp2266
g60
(g61
g62
NtRp2267
(dp2268
g65
(dp2269
g73
I3
ssg74
g2263
sg67
(lp2270
S''
asbasbasbag60
(g76
g62
NtRp2271
(dp2272
g65
(dp2273
sg74
g2183
sg67
(lp2274
g60
(g81
g62
NtRp2275
(dp2276
g65
(dp2277
g85
g86
ssg74
g2271
sg67
(lp2278
S'max-age'
p2279
asbag60
(g81
g62
NtRp2280
(dp2281
g65
(dp2282
g92
g93
ssg74
g2271
sg67
(lp2283
S':'
asbag60
(g81
g62
NtRp2284
(dp2285
g65
(dp2286
sg74
g2271
sg67
(lp2287
g60
(g61
g62
NtRp2288
(dp2289
g65
(dp2290
g73
I3
ssg74
g2284
sg67
(lp2291
S''
asbasbasbag60
(g76
g62
NtRp2292
(dp2293
g65
(dp2294
sg74
g2183
sg67
(lp2295
g60
(g81
g62
NtRp2296
(dp2297
g65
(dp2298
g85
g86
ssg74
g2292
sg67
(lp2299
S'path'
p2300
asbag60
(g81
g62
NtRp2301
(dp2302
g65
(dp2303
g92
g93
ssg74
g2292
sg67
(lp2304
S':'
asbag60
(g81
g62
NtRp2305
(dp2306
g65
(dp2307
sg74
g2292
sg67
(lp2308
g60
(g61
g62
NtRp2309
(dp2310
g65
(dp2311
g73
I3
ssg74
g2305
sg67
(lp2312
S'/'
asbasbasbag60
(g76
g62
NtRp2313
(dp2314
g65
(dp2315
sg74
g2183
sg67
(lp2316
g60
(g81
g62
NtRp2317
(dp2318
g65
(dp2319
g85
g86
ssg74
g2313
sg67
(lp2320
S'secure'
p2321
asbag60
(g81
g62
NtRp2322
(dp2323
g65
(dp2324
g92
g93
ssg74
g2313
sg67
(lp2325
S':'
asbag60
(g81
g62
NtRp2326
(dp2327
g65
(dp2328
sg74
g2313
sg67
(lp2329
g60
(g61
g62
NtRp2330
(dp2331
g65
(dp2332
g73
I3
ssg74
g2326
sg67
(lp2333
S''
asbasbasbag60
(g76
g62
NtRp2334
(dp2335
g65
(dp2336
sg74
g2183
sg67
(lp2337
g60
(g81
g62
NtRp2338
(dp2339
g65
(dp2340
g85
g86
ssg74
g2334
sg67
(lp2341
S'version'
p2342
asbag60
(g81
g62
NtRp2343
(dp2344
g65
(dp2345
g92
g93
ssg74
g2334
sg67
(lp2346
S':'
asbag60
(g81
g62
NtRp2347
(dp2348
g65
(dp2349
sg74
g2334
sg67
(lp2350
g60
(g61
g62
NtRp2351
(dp2352
g65
(dp2353
g73
I3
ssg74
g2347
sg67
(lp2354
S''
asbasbasbasbasbasbasbasbasbasbasbag60
(g76
g62
NtRp2355
(dp2356
g65
(dp2357
sg74
g2113
sg67
(lp2358
g60
(g81
g62
NtRp2359
(dp2360
g65
(dp2361
g85
g86
ssg74
g2355
sg67
(lp2362
S'files'
p2363
asbag60
(g81
g62
NtRp2364
(dp2365
g65
(dp2366
g92
g93
ssg74
g2355
sg67
(lp2367
S':'
asbag60
(g81
g62
NtRp2368
(dp2369
g65
(dp2370
sg74
g2355
sg67
(lp2371
g60
(g61
g62
NtRp2372
(dp2373
g65
(dp2374
g73
I5
ssg74
g2368
sg67
(lp2375
g60
(g69
g62
NtRp2376
(dp2377
g65
(dp2378
g73
I4
ssg74
Nsg67
(lp2379
sbasbasbasbag60
(g76
g62
NtRp2380
(dp2381
g65
(dp2382
sg74
g2113
sg67
(lp2383
g60
(g81
g62
NtRp2384
(dp2385
g65
(dp2386
g85
g86
ssg74
g2380
sg67
(lp2387
S'flash'
p2388
asbag60
(g81
g62
NtRp2389
(dp2390
g65
(dp2391
g92
g93
ssg74
g2380
sg67
(lp2392
S':'
asbag60
(g81
g62
NtRp2393
(dp2394
g65
(dp2395
sg74
g2380
sg67
(lp2396
g60
(g61
g62
NtRp2397
(dp2398
g65
(dp2399
g73
I5
ssg74
g2393
sg67
(lp2400
S''
asbasbasbag60
(g76
g62
NtRp2401
(dp2402
g65
(dp2403
sg74
g2113
sg67
(lp2404
g60
(g81
g62
NtRp2405
(dp2406
g65
(dp2407
g85
g86
ssg74
g2401
sg67
(lp2408
S'headers'
p2409
asbag60
(g81
g62
NtRp2410
(dp2411
g65
(dp2412
g92
g93
ssg74
g2401
sg67
(lp2413
S':'
asbag60
(g81
g62
NtRp2414
(dp2415
g65
(dp2416
sg74
g2401
sg67
(lp2417
g60
(g61
g62
NtRp2418
(dp2419
g65
(dp2420
g73
I5
ssg74
g2414
sg67
(lp2421
g60
(g69
g62
NtRp2422
(dp2423
g65
(dp2424
g73
I4
ssg74
Nsg67
(lp2425
g60
(g76
g62
NtRp2426
(dp2427
g65
(dp2428
sg74
g2422
sg67
(lp2429
g60
(g81
g62
NtRp2430
(dp2431
g65
(dp2432
g85
g86
ssg74
g2426
sg67
(lp2433
S'Cache-Control'
p2434
asbag60
(g81
g62
NtRp2435
(dp2436
g65
(dp2437
g92
g93
ssg74
g2426
sg67
(lp2438
S':'
asbag60
(g81
g62
NtRp2439
(dp2440
g65
(dp2441
sg74
g2426
sg67
(lp2442
g60
(g61
g62
NtRp2443
(dp2444
g65
(dp2445
g73
I4
ssg74
g2439
sg67
(lp2446
S'no-store, no-cache, must-revalidate, post-check=0, pre-check=0'
p2447
asbasbasbag60
(g76
g62
NtRp2448
(dp2449
g65
(dp2450
sg74
g2422
sg67
(lp2451
g60
(g81
g62
NtRp2452
(dp2453
g65
(dp2454
g85
g86
ssg74
g2448
sg67
(lp2455
S'Content-Type'
p2456
asbag60
(g81
g62
NtRp2457
(dp2458
g65
(dp2459
g92
g93
ssg74
g2448
sg67
(lp2460
S':'
asbag60
(g81
g62
NtRp2461
(dp2462
g65
(dp2463
sg74
g2448
sg67
(lp2464
g60
(g61
g62
NtRp2465
(dp2466
g65
(dp2467
g73
I4
ssg74
g2461
sg67
(lp2468
S'text/html; charset=utf-8'
p2469
asbasbasbag60
(g76
g62
NtRp2470
(dp2471
g65
(dp2472
sg74
g2422
sg67
(lp2473
g60
(g81
g62
NtRp2474
(dp2475
g65
(dp2476
g85
g86
ssg74
g2470
sg67
(lp2477
S'Expires'
p2478
asbag60
(g81
g62
NtRp2479
(dp2480
g65
(dp2481
g92
g93
ssg74
g2470
sg67
(lp2482
S':'
asbag60
(g81
g62
NtRp2483
(dp2484
g65
(dp2485
sg74
g2470
sg67
(lp2486
g60
(g61
g62
NtRp2487
(dp2488
g65
(dp2489
g73
I4
ssg74
g2483
sg67
(lp2490
S'Mon, 20 Jun 2011 05:59:03 GMT'
p2491
asbasbasbag60
(g76
g62
NtRp2492
(dp2493
g65
(dp2494
sg74
g2422
sg67
(lp2495
g60
(g81
g62
NtRp2496
(dp2497
g65
(dp2498
g85
g86
ssg74
g2492
sg67
(lp2499
S'Pragma'
p2500
asbag60
(g81
g62
NtRp2501
(dp2502
g65
(dp2503
g92
g93
ssg74
g2492
sg67
(lp2504
S':'
asbag60
(g81
g62
NtRp2505
(dp2506
g65
(dp2507
sg74
g2492
sg67
(lp2508
g60
(g61
g62
NtRp2509
(dp2510
g65
(dp2511
g73
I4
ssg74
g2505
sg67
(lp2512
S'no-cache'
p2513
asbasbasbag60
(g76
g62
NtRp2514
(dp2515
g65
(dp2516
sg74
g2422
sg67
(lp2517
g60
(g81
g62
NtRp2518
(dp2519
g65
(dp2520
g85
g86
ssg74
g2514
sg67
(lp2521
S'X-Powered-By'
p2522
asbag60
(g81
g62
NtRp2523
(dp2524
g65
(dp2525
g92
g93
ssg74
g2514
sg67
(lp2526
S':'
asbag60
(g81
g62
NtRp2527
(dp2528
g65
(dp2529
sg74
g2514
sg67
(lp2530
g60
(g61
g62
NtRp2531
(dp2532
g65
(dp2533
g73
I4
ssg74
g2527
sg67
(lp2534
S'web2py'
p2535
asbasbasbasbasbasbasbag60
(g76
g62
NtRp2536
(dp2537
g65
(dp2538
sg74
g2113
sg67
(lp2539
g60
(g81
g62
NtRp2540
(dp2541
g65
(dp2542
g85
g86
ssg74
g2536
sg67
(lp2543
S'menu'
p2544
asbag60
(g81
g62
NtRp2545
(dp2546
g65
(dp2547
g92
g93
ssg74
g2536
sg67
(lp2548
S':'
asbag60
(g81
g62
NtRp2549
(dp2550
g65
(dp2551
sg74
g2536
sg67
(lp2552
g60
(g61
g62
NtRp2553
(dp2554
g65
(dp2555
g73
I5
ssg74
g2549
sg67
(lp2556
g60
(g69
g62
NtRp2557
(dp2558
g65
(dp2559
g73
I4
ssg74
Nsg67
(lp2560
sbasbasbasbag60
(g76
g62
NtRp2561
(dp2562
g65
(dp2563
sg74
g2113
sg67
(lp2564
g60
(g81
g62
NtRp2565
(dp2566
g65
(dp2567
g85
g86
ssg74
g2561
sg67
(lp2568
S'meta'
p2569
asbag60
(g81
g62
NtRp2570
(dp2571
g65
(dp2572
g92
g93
ssg74
g2561
sg67
(lp2573
S':'
asbag60
(g81
g62
NtRp2574
(dp2575
g65
(dp2576
sg74
g2561
sg67
(lp2577
g60
(g61
g62
NtRp2578
(dp2579
g65
(dp2580
g73
I5
ssg74
g2574
sg67
(lp2581
g60
(g69
g62
NtRp2582
(dp2583
g65
(dp2584
g73
I4
ssg74
Nsg67
(lp2585
sbasbasbasbag60
(g76
g62
NtRp2586
(dp2587
g65
(dp2588
sg74
g2113
sg67
(lp2589
g60
(g81
g62
NtRp2590
(dp2591
g65
(dp2592
g85
g86
ssg74
g2586
sg67
(lp2593
S'postprocessing'
p2594
asbag60
(g81
g62
NtRp2595
(dp2596
g65
(dp2597
g92
g93
ssg74
g2586
sg67
(lp2598
S':'
asbag60
(g81
g62
NtRp2599
(dp2600
g65
(dp2601
sg74
g2586
sg67
(lp2602
g60
(g61
g62
NtRp2603
(dp2604
g65
(dp2605
g73
I5
ssg74
g2599
sg67
(lp2606
g60
(g69
g62
NtRp2607
(dp2608
g65
(dp2609
g73
I4
ssg74
Nsg67
(lp2610
sbasbasbasbag60
(g76
g62
NtRp2611
(dp2612
g65
(dp2613
sg74
g2113
sg67
(lp2614
g60
(g81
g62
NtRp2615
(dp2616
g65
(dp2617
g85
g86
ssg74
g2611
sg67
(lp2618
S'session_filename'
p2619
asbag60
(g81
g62
NtRp2620
(dp2621
g65
(dp2622
g92
g93
ssg74
g2611
sg67
(lp2623
S':'
asbag60
(g81
g62
NtRp2624
(dp2625
g65
(dp2626
sg74
g2611
sg67
(lp2627
g60
(g61
g62
NtRp2628
(dp2629
g65
(dp2630
g73
I5
ssg74
g2624
sg67
(lp2631
S'/home/marco/proyectos/web2py-trunk/applications/mvstore/sessions/127.0.0.1-581ce224-8ed8-4430-acf8-911a2202e14b'
p2632
asbasbasbag60
(g76
g62
NtRp2633
(dp2634
g65
(dp2635
sg74
g2113
sg67
(lp2636
g60
(g81
g62
NtRp2637
(dp2638
g65
(dp2639
g85
g86
ssg74
g2633
sg67
(lp2640
S'session_id'
p2641
asbag60
(g81
g62
NtRp2642
(dp2643
g65
(dp2644
g92
g93
ssg74
g2633
sg67
(lp2645
S':'
asbag60
(g81
g62
NtRp2646
(dp2647
g65
(dp2648
sg74
g2633
sg67
(lp2649
g60
(g61
g62
NtRp2650
(dp2651
g65
(dp2652
g73
I5
ssg74
g2646
sg67
(lp2653
S'127.0.0.1-581ce224-8ed8-4430-acf8-911a2202e14b'
p2654
asbasbasbag60
(g76
g62
NtRp2655
(dp2656
g65
(dp2657
sg74
g2113
sg67
(lp2658
g60
(g81
g62
NtRp2659
(dp2660
g65
(dp2661
g85
g86
ssg74
g2655
sg67
(lp2662
S'session_id_name'
p2663
asbag60
(g81
g62
NtRp2664
(dp2665
g65
(dp2666
g92
g93
ssg74
g2655
sg67
(lp2667
S':'
asbag60
(g81
g62
NtRp2668
(dp2669
g65
(dp2670
sg74
g2655
sg67
(lp2671
g60
(g61
g62
NtRp2672
(dp2673
g65
(dp2674
g73
I5
ssg74
g2668
sg67
(lp2675
g2170
asbasbasbag60
(g76
g62
NtRp2676
(dp2677
g65
(dp2678
sg74
g2113
sg67
(lp2679
g60
(g81
g62
NtRp2680
(dp2681
g65
(dp2682
g85
g86
ssg74
g2676
sg67
(lp2683
S'session_new'
p2684
asbag60
(g81
g62
NtRp2685
(dp2686
g65
(dp2687
g92
g93
ssg74
g2676
sg67
(lp2688
S':'
asbag60
(g81
g62
NtRp2689
(dp2690
g65
(dp2691
sg74
g2676
sg67
(lp2692
g60
(g61
g62
NtRp2693
(dp2694
g65
(dp2695
g73
I5
ssg74
g2689
sg67
(lp2696
g988
asbasbasbag60
(g76
g62
NtRp2697
(dp2698
g65
(dp2699
sg74
g2113
sg67
(lp2700
g60
(g81
g62
NtRp2701
(dp2702
g65
(dp2703
g85
g86
ssg74
g2697
sg67
(lp2704
S'status'
p2705
asbag60
(g81
g62
NtRp2706
(dp2707
g65
(dp2708
g92
g93
ssg74
g2697
sg67
(lp2709
S':'
asbag60
(g81
g62
NtRp2710
(dp2711
g65
(dp2712
sg74
g2697
sg67
(lp2713
g60
(g61
g62
NtRp2714
(dp2715
g65
(dp2716
g73
I5
ssg74
g2710
sg67
(lp2717
S'200'
p2718
asbasbasbag60
(g76
g62
NtRp2719
(dp2720
g65
(dp2721
sg74
g2113
sg67
(lp2722
g60
(g81
g62
NtRp2723
(dp2724
g65
(dp2725
g85
g86
ssg74
g2719
sg67
(lp2726
g1312
asbag60
(g81
g62
NtRp2727
(dp2728
g65
(dp2729
g92
g93
ssg74
g2719
sg67
(lp2730
S':'
asbag60
(g81
g62
NtRp2731
(dp2732
g65
(dp2733
sg74
g2719
sg67
(lp2734
g60
(g61
g62
NtRp2735
(dp2736
g65
(dp2737
g73
I5
ssg74
g2731
sg67
(lp2738
g1325
asbasbasbag60
(g76
g62
NtRp2739
(dp2740
g65
(dp2741
sg74
g2113
sg67
(lp2742
g60
(g81
g62
NtRp2743
(dp2744
g65
(dp2745
g85
g86
ssg74
g2739
sg67
(lp2746
S'view'
p2747
asbag60
(g81
g62
NtRp2748
(dp2749
g65
(dp2750
g92
g93
ssg74
g2739
sg67
(lp2751
S':'
asbag60
(g81
g62
NtRp2752
(dp2753
g65
(dp2754
sg74
g2739
sg67
(lp2755
g60
(g61
g62
NtRp2756
(dp2757
g65
(dp2758
g73
I5
ssg74
g2752
sg67
(lp2759
S'default/index.html'
p2760
asbasbasbasbasbsS'locals'
p2761
(dp2762
S'a'
S"('ALTER TABLE peliculas ADD id_pelicula INTEGER UNIQUE;',)"
p2763
sS'self'
p2764
S'<gluon.dal.SQLiteAdapter object>'
p2765
sS'b'
g20
sS't0'
p2766
S'1308549544.008637'
p2767
sssS'traceback'
p2768
S'Traceback (most recent call last):\n  File "/home/marco/proyectos/web2py-trunk/gluon/restricted.py", line 192, in restricted\n    exec ccode in environment\n  File "/home/marco/proyectos/web2py-trunk/applications/mvstore/models/db.py", line 112, in <module>\n    format=\'%(titulo)s\',\n  File "/home/marco/proyectos/web2py-trunk/gluon/dal.py", line 4235, in define_table\n    polymodel=polymodel)\n  File "/home/marco/proyectos/web2py-trunk/gluon/dal.py", line 659, in create_table\n    fake_migrate=fake_migrate)\n  File "/home/marco/proyectos/web2py-trunk/gluon/dal.py", line 747, in migrate_table\n    self.execute(sub_query)\n  File "/home/marco/proyectos/web2py-trunk/gluon/dal.py", line 1251, in execute\n    return self.log_execute(*a, **b)\n  File "/home/marco/proyectos/web2py-trunk/gluon/dal.py", line 1246, in log_execute\n    ret = self.cursor.execute(*a,**b)\nOperationalError: Cannot add a UNIQUE column\n'
p2769
s.