(dp1
S'output'
p2
S''
sS'layer'
p3
S'/home/marco/proyectos/web2py-trunk/applications/mvstore/models/db.py'
p4
sS'code'
p5
S'# -*- coding: utf-8 -*-\n# this file is released under public domain and you can use without limitations\n\n#########################################################################\n## This scaffolding model makes your app work on Google App Engine too\n#########################################################################\n\nif request.env.web2py_runtime_gae:            # if running on Google App Engine\n    db = DAL(\'gae\')                           # connect to Google BigTable\n                                              # optional DAL(\'gae://namespace\')\n    session.connect(request, response, db = db) # and store sessions and tickets there\n    ### or use the following lines to store sessions in Memcache\n    # from gluon.contrib.memdb import MEMDB\n    # from google.appengine.api.memcache import Client\n    # session.connect(request, response, db = MEMDB(Client()))\nelse:                                         # else use a normal relational database\n    db = DAL(\'sqlite://storage.sqlite\')       # if not, use SQLite or other DB\n## if no need for session\n# session.forget()\n\n#########################################################################\n## Here is sample code if you need for\n## - email capabilities\n## - authentication (registration, login, logout, ... )\n## - authorization (role based authorization)\n## - services (xml, csv, json, xmlrpc, jsonrpc, amf, rss)\n## - crud actions\n## (more options discussed in gluon/tools.py)\n#########################################################################\n\nfrom gluon.tools import *\nmail = Mail()                                  # mailer\nauth = Auth(globals(),db)                      # authentication/authorization\ncrud = Crud(globals(),db)                      # for CRUD helpers using auth\nservice = Service(globals())                   # for json, xml, jsonrpc, xmlrpc, amfrpc\nplugins = PluginManager()\n\nmail.settings.server = \'logging\' or \'smtp.gmail.com:587\'  # your SMTP server\nmail.settings.sender = \'you@gmail.com\'         # your email\nmail.settings.login = \'username:password\'      # your credentials or None\n\nauth.settings.hmac_key = \'sha512:7fbe918c-a556-4879-a996-7618f8e7c6aa\'   # before define_tables()\nauth.define_tables()                           # creates all needed tables\nauth.settings.mailer = mail                    # for user email verification\nauth.settings.registration_requires_verification = False\nauth.settings.registration_requires_approval = False\nauth.messages.verify_email = \'Click on the link http://\'+request.env.http_host+URL(\'default\',\'user\',args=[\'verify_email\'])+\'/%(key)s to verify your email\'\nauth.settings.reset_password_requires_verification = True\nauth.messages.reset_password = \'Click on the link http://\'+request.env.http_host+URL(\'default\',\'user\',args=[\'reset_password\'])+\'/%(key)s to reset your password\'\n\n#########################################################################\n## If you need to use OpenID, Facebook, MySpace, Twitter, Linkedin, etc.\n## register with janrain.com, uncomment and customize following\n# from gluon.contrib.login_methods.rpx_account import RPXAccount\n# auth.settings.actions_disabled=[\'register\',\'change_password\',\'request_reset_password\']\n# auth.settings.login_form = RPXAccount(request, api_key=\'...\',domain=\'...\',\n#    url = "http://localhost:8000/%s/default/user/login" % request.application)\n## other login methods are in gluon/contrib/login_methods\n#########################################################################\n\ncrud.settings.auth = None                      # =auth to enforce authorization on crud\n\n#########################################################################\n## Define your tables below (or better in another model file) for example\n##\n## >>> db.define_table(\'mytable\',Field(\'myfield\',\'string\'))\n##\n## Fields can be \'string\',\'text\',\'password\',\'integer\',\'double\',\'boolean\'\n##       \'date\',\'time\',\'datetime\',\'blob\',\'upload\', \'reference TABLENAME\'\n## There is an implicit \'id integer autoincrement\' field\n## Consult manual for more options, validators, etc.\n##\n## More API examples for controllers:\n##\n## >>> db.mytable.insert(myfield=\'value\')\n## >>> rows=db(db.mytable.myfield==\'value\').select(db.mytable.ALL)\n## >>> for row in rows: print row.id, row.myfield\n#########################################################################\n\nfields=[\n        Field(\'documento\',\'string\'),\n        Field(\'nombre\',\'string\'),\n        Field(\'apellido\',\'string\'),\n        Field(\'foto\',\'upload\'),\n        Field(\'domicilio\',\'string\'),\n        Field(\'telefono\',\'string\'),\n        Field(\'fecha_load\',\'date\')\n        ]\n\ndb.define_table(\'empleados\',\n        format=\'%(first_name)s %(last_name)s\',\n        *fields\n        )\n\ndb.define_table(\'clientes\',\n        format=\'%(first_name)s %(last_name)s\',\n        *fields\n        )\n\ndb.define_table(\'peliculas\',\n        Field(\'titulo\',\'string\'),\n        Field(\'genero\',\'string\'),\n        Field(\'anio\',\'integer\'),\n        Field(\'sinopsis\',\'text\'),\n        Field(\'unidades\',\'integer\')\n        )\n\ndb.define_table(\'prestamos\',\n        Field(\'titulo\',\'peliculas\'),\n        Field(\'cliente\',\'clientes\'),\n        Field(\'empleado\',\'empleados\'),\n        Field(\'fecha\',\'datetime\'),\n        Field(\'devol\',\'datetime\'),\n        )\n\n'
p6
sS'snapshot'
p7
(dp8
S'exception'
p9
(dp10
S'__getslice__'
p11
S"<method-wrapper '__getslice__' of exceptions.SyntaxError object>"
p12
sS'text'
p13
S'None'
p14
sS'__str__'
p15
S"<method-wrapper '__str__' of exceptions.SyntaxError object>"
p16
sS'__reduce__'
p17
S'<built-in method __reduce__ of exceptions.SyntaxError object>'
p18
sS'__dict__'
p19
S'{}'
p20
sS'__sizeof__'
p21
S'<built-in method __sizeof__ of exceptions.SyntaxError object>'
p22
sS'__init__'
p23
S"<method-wrapper '__init__' of exceptions.SyntaxError object>"
p24
sS'__setattr__'
p25
S"<method-wrapper '__setattr__' of exceptions.SyntaxError object>"
p26
sS'__reduce_ex__'
p27
S'<built-in method __reduce_ex__ of exceptions.SyntaxError object>'
p28
sS'__new__'
p29
S'<built-in method __new__ of type object>'
p30
sS'__format__'
p31
S'<built-in method __format__ of exceptions.SyntaxError object>'
p32
sS'__class__'
p33
S"<type 'exceptions.SyntaxError'>"
p34
sS'filename'
p35
S'None'
p36
sS'lineno'
p37
S'None'
p38
sS'msg'
p39
S"'Field: unknown field type: peliculas for titulo'"
p40
sS'__doc__'
p41
S"'Invalid syntax.'"
p42
sS'__getitem__'
p43
S"<method-wrapper '__getitem__' of exceptions.SyntaxError object>"
p44
sS'__setstate__'
p45
S'<built-in method __setstate__ of exceptions.SyntaxError object>'
p46
sS'__getattribute__'
p47
S"<method-wrapper '__getattribute__' of exceptions.SyntaxError object>"
p48
sS'print_file_and_line'
p49
S'None'
p50
sS'args'
p51
S"('Field: unknown field type: peliculas for titulo',)"
p52
sS'__subclasshook__'
p53
S'<built-in method __subclasshook__ of type object>'
p54
sS'offset'
p55
S'None'
p56
sS'__unicode__'
p57
S'<built-in method __unicode__ of exceptions.SyntaxError object>'
p58
sS'__delattr__'
p59
S"<method-wrapper '__delattr__' of exceptions.SyntaxError object>"
p60
sS'__repr__'
p61
S"<method-wrapper '__repr__' of exceptions.SyntaxError object>"
p62
sS'__hash__'
p63
S"<method-wrapper '__hash__' of exceptions.SyntaxError object>"
p64
ssS'evalue'
p65
S'Field: unknown field type: peliculas for titulo'
p66
sS'request'
p67
ccopy_reg
_reconstructor
p68
(cgluon.html
BEAUTIFY
p69
c__builtin__
object
p70
NtRp71
(dp72
S'attributes'
p73
(dp74
sS'components'
p75
(lp76
g68
(cgluon.html
TABLE
p77
g70
NtRp78
(dp79
g73
(dp80
S'level'
p81
I5
ssS'parent'
p82
Nsg75
(lp83
g68
(cgluon.html
TR
p84
g70
NtRp85
(dp86
g73
(dp87
sg82
g78
sg75
(lp88
g68
(cgluon.html
TD
p89
g70
NtRp90
(dp91
g73
(dp92
S'_style'
p93
S'font-weight:bold;'
p94
ssg82
g85
sg75
(lp95
S'ajax'
p96
asbag68
(g89
g70
NtRp97
(dp98
g73
(dp99
S'_valign'
p100
S'top'
p101
ssg82
g85
sg75
(lp102
S':'
asbag68
(g89
g70
NtRp103
(dp104
g73
(dp105
sg82
g85
sg75
(lp106
g68
(g69
g70
NtRp107
(dp108
g73
(dp109
g81
I5
ssg82
g103
sg75
(lp110
S'False'
p111
asbasbasbag68
(g84
g70
NtRp112
(dp113
g73
(dp114
sg82
g78
sg75
(lp115
g68
(g89
g70
NtRp116
(dp117
g73
(dp118
g93
g94
ssg82
g112
sg75
(lp119
S'application'
p120
asbag68
(g89
g70
NtRp121
(dp122
g73
(dp123
g100
g101
ssg82
g112
sg75
(lp124
S':'
asbag68
(g89
g70
NtRp125
(dp126
g73
(dp127
sg82
g112
sg75
(lp128
g68
(g69
g70
NtRp129
(dp130
g73
(dp131
g81
I5
ssg82
g125
sg75
(lp132
S'mvstore'
p133
asbasbasbag68
(g84
g70
NtRp134
(dp135
g73
(dp136
sg82
g78
sg75
(lp137
g68
(g89
g70
NtRp138
(dp139
g73
(dp140
g93
g94
ssg82
g134
sg75
(lp141
g51
asbag68
(g89
g70
NtRp142
(dp143
g73
(dp144
g100
g101
ssg82
g134
sg75
(lp145
S':'
asbag68
(g89
g70
NtRp146
(dp147
g73
(dp148
sg82
g134
sg75
(lp149
g68
(g69
g70
NtRp150
(dp151
g73
(dp152
g81
I5
ssg82
g146
sg75
(lp153
g68
(g77
g70
NtRp154
(dp155
g73
(dp156
g81
I4
ssg82
Nsg75
(lp157
sbasbasbasbag68
(g84
g70
NtRp158
(dp159
g73
(dp160
sg82
g78
sg75
(lp161
g68
(g89
g70
NtRp162
(dp163
g73
(dp164
g93
g94
ssg82
g158
sg75
(lp165
S'body'
p166
asbag68
(g89
g70
NtRp167
(dp168
g73
(dp169
g100
g101
ssg82
g158
sg75
(lp170
S':'
asbag68
(g89
g70
NtRp171
(dp172
g73
(dp173
sg82
g158
sg75
(lp174
g68
(g69
g70
NtRp175
(dp176
g73
(dp177
g81
I5
ssg82
g171
sg75
(lp178
S'<cStringIO.StringO object at 0x37bf308>'
p179
asbasbasbag68
(g84
g70
NtRp180
(dp181
g73
(dp182
sg82
g78
sg75
(lp183
g68
(g89
g70
NtRp184
(dp185
g73
(dp186
g93
g94
ssg82
g180
sg75
(lp187
S'client'
p188
asbag68
(g89
g70
NtRp189
(dp190
g73
(dp191
g100
g101
ssg82
g180
sg75
(lp192
S':'
asbag68
(g89
g70
NtRp193
(dp194
g73
(dp195
sg82
g180
sg75
(lp196
g68
(g69
g70
NtRp197
(dp198
g73
(dp199
g81
I5
ssg82
g193
sg75
(lp200
S'127.0.0.1'
p201
asbasbasbag68
(g84
g70
NtRp202
(dp203
g73
(dp204
sg82
g78
sg75
(lp205
g68
(g89
g70
NtRp206
(dp207
g73
(dp208
g93
g94
ssg82
g202
sg75
(lp209
S'controller'
p210
asbag68
(g89
g70
NtRp211
(dp212
g73
(dp213
g100
g101
ssg82
g202
sg75
(lp214
S':'
asbag68
(g89
g70
NtRp215
(dp216
g73
(dp217
sg82
g202
sg75
(lp218
g68
(g69
g70
NtRp219
(dp220
g73
(dp221
g81
I5
ssg82
g215
sg75
(lp222
S'default'
p223
asbasbasbag68
(g84
g70
NtRp224
(dp225
g73
(dp226
sg82
g78
sg75
(lp227
g68
(g89
g70
NtRp228
(dp229
g73
(dp230
g93
g94
ssg82
g224
sg75
(lp231
S'cookies'
p232
asbag68
(g89
g70
NtRp233
(dp234
g73
(dp235
g100
g101
ssg82
g224
sg75
(lp236
S':'
asbag68
(g89
g70
NtRp237
(dp238
g73
(dp239
sg82
g224
sg75
(lp240
g68
(g69
g70
NtRp241
(dp242
g73
(dp243
g81
I5
ssg82
g237
sg75
(lp244
g68
(g77
g70
NtRp245
(dp246
g73
(dp247
g81
I4
ssg82
Nsg75
(lp248
g68
(g84
g70
NtRp249
(dp250
g73
(dp251
sg82
g245
sg75
(lp252
g68
(g89
g70
NtRp253
(dp254
g73
(dp255
g93
g94
ssg82
g249
sg75
(lp256
S'session_id_admin'
p257
asbag68
(g89
g70
NtRp258
(dp259
g73
(dp260
g100
g101
ssg82
g249
sg75
(lp261
S':'
asbag68
(g89
g70
NtRp262
(dp263
g73
(dp264
sg82
g249
sg75
(lp265
g68
(g69
g70
NtRp266
(dp267
g73
(dp268
g81
I4
ssg82
g262
sg75
(lp269
g68
(g77
g70
NtRp270
(dp271
g73
(dp272
g81
I3
ssg82
Nsg75
(lp273
g68
(g84
g70
NtRp274
(dp275
g73
(dp276
sg82
g270
sg75
(lp277
g68
(g89
g70
NtRp278
(dp279
g73
(dp280
g93
g94
ssg82
g274
sg75
(lp281
S'comment'
p282
asbag68
(g89
g70
NtRp283
(dp284
g73
(dp285
g100
g101
ssg82
g274
sg75
(lp286
S':'
asbag68
(g89
g70
NtRp287
(dp288
g73
(dp289
sg82
g274
sg75
(lp290
g68
(g69
g70
NtRp291
(dp292
g73
(dp293
g81
I3
ssg82
g287
sg75
(lp294
S''
asbasbasbag68
(g84
g70
NtRp295
(dp296
g73
(dp297
sg82
g270
sg75
(lp298
g68
(g89
g70
NtRp299
(dp300
g73
(dp301
g93
g94
ssg82
g295
sg75
(lp302
S'domain'
p303
asbag68
(g89
g70
NtRp304
(dp305
g73
(dp306
g100
g101
ssg82
g295
sg75
(lp307
S':'
asbag68
(g89
g70
NtRp308
(dp309
g73
(dp310
sg82
g295
sg75
(lp311
g68
(g69
g70
NtRp312
(dp313
g73
(dp314
g81
I3
ssg82
g308
sg75
(lp315
S''
asbasbasbag68
(g84
g70
NtRp316
(dp317
g73
(dp318
sg82
g270
sg75
(lp319
g68
(g89
g70
NtRp320
(dp321
g73
(dp322
g93
g94
ssg82
g316
sg75
(lp323
S'expires'
p324
asbag68
(g89
g70
NtRp325
(dp326
g73
(dp327
g100
g101
ssg82
g316
sg75
(lp328
S':'
asbag68
(g89
g70
NtRp329
(dp330
g73
(dp331
sg82
g316
sg75
(lp332
g68
(g69
g70
NtRp333
(dp334
g73
(dp335
g81
I3
ssg82
g329
sg75
(lp336
S''
asbasbasbag68
(g84
g70
NtRp337
(dp338
g73
(dp339
sg82
g270
sg75
(lp340
g68
(g89
g70
NtRp341
(dp342
g73
(dp343
g93
g94
ssg82
g337
sg75
(lp344
S'httponly'
p345
asbag68
(g89
g70
NtRp346
(dp347
g73
(dp348
g100
g101
ssg82
g337
sg75
(lp349
S':'
asbag68
(g89
g70
NtRp350
(dp351
g73
(dp352
sg82
g337
sg75
(lp353
g68
(g69
g70
NtRp354
(dp355
g73
(dp356
g81
I3
ssg82
g350
sg75
(lp357
S''
asbasbasbag68
(g84
g70
NtRp358
(dp359
g73
(dp360
sg82
g270
sg75
(lp361
g68
(g89
g70
NtRp362
(dp363
g73
(dp364
g93
g94
ssg82
g358
sg75
(lp365
S'max-age'
p366
asbag68
(g89
g70
NtRp367
(dp368
g73
(dp369
g100
g101
ssg82
g358
sg75
(lp370
S':'
asbag68
(g89
g70
NtRp371
(dp372
g73
(dp373
sg82
g358
sg75
(lp374
g68
(g69
g70
NtRp375
(dp376
g73
(dp377
g81
I3
ssg82
g371
sg75
(lp378
S''
asbasbasbag68
(g84
g70
NtRp379
(dp380
g73
(dp381
sg82
g270
sg75
(lp382
g68
(g89
g70
NtRp383
(dp384
g73
(dp385
g93
g94
ssg82
g379
sg75
(lp386
S'path'
p387
asbag68
(g89
g70
NtRp388
(dp389
g73
(dp390
g100
g101
ssg82
g379
sg75
(lp391
S':'
asbag68
(g89
g70
NtRp392
(dp393
g73
(dp394
sg82
g379
sg75
(lp395
g68
(g69
g70
NtRp396
(dp397
g73
(dp398
g81
I3
ssg82
g392
sg75
(lp399
S''
asbasbasbag68
(g84
g70
NtRp400
(dp401
g73
(dp402
sg82
g270
sg75
(lp403
g68
(g89
g70
NtRp404
(dp405
g73
(dp406
g93
g94
ssg82
g400
sg75
(lp407
S'secure'
p408
asbag68
(g89
g70
NtRp409
(dp410
g73
(dp411
g100
g101
ssg82
g400
sg75
(lp412
S':'
asbag68
(g89
g70
NtRp413
(dp414
g73
(dp415
sg82
g400
sg75
(lp416
g68
(g69
g70
NtRp417
(dp418
g73
(dp419
g81
I3
ssg82
g413
sg75
(lp420
S''
asbasbasbag68
(g84
g70
NtRp421
(dp422
g73
(dp423
sg82
g270
sg75
(lp424
g68
(g89
g70
NtRp425
(dp426
g73
(dp427
g93
g94
ssg82
g421
sg75
(lp428
S'version'
p429
asbag68
(g89
g70
NtRp430
(dp431
g73
(dp432
g100
g101
ssg82
g421
sg75
(lp433
S':'
asbag68
(g89
g70
NtRp434
(dp435
g73
(dp436
sg82
g421
sg75
(lp437
g68
(g69
g70
NtRp438
(dp439
g73
(dp440
g81
I3
ssg82
g434
sg75
(lp441
S''
asbasbasbasbasbasbasbag68
(g84
g70
NtRp442
(dp443
g73
(dp444
sg82
g245
sg75
(lp445
g68
(g89
g70
NtRp446
(dp447
g73
(dp448
g93
g94
ssg82
g442
sg75
(lp449
S'session_id_jornadasdemo'
p450
asbag68
(g89
g70
NtRp451
(dp452
g73
(dp453
g100
g101
ssg82
g442
sg75
(lp454
S':'
asbag68
(g89
g70
NtRp455
(dp456
g73
(dp457
sg82
g442
sg75
(lp458
g68
(g69
g70
NtRp459
(dp460
g73
(dp461
g81
I4
ssg82
g455
sg75
(lp462
g68
(g77
g70
NtRp463
(dp464
g73
(dp465
g81
I3
ssg82
Nsg75
(lp466
g68
(g84
g70
NtRp467
(dp468
g73
(dp469
sg82
g463
sg75
(lp470
g68
(g89
g70
NtRp471
(dp472
g73
(dp473
g93
g94
ssg82
g467
sg75
(lp474
g282
asbag68
(g89
g70
NtRp475
(dp476
g73
(dp477
g100
g101
ssg82
g467
sg75
(lp478
S':'
asbag68
(g89
g70
NtRp479
(dp480
g73
(dp481
sg82
g467
sg75
(lp482
g68
(g69
g70
NtRp483
(dp484
g73
(dp485
g81
I3
ssg82
g479
sg75
(lp486
S''
asbasbasbag68
(g84
g70
NtRp487
(dp488
g73
(dp489
sg82
g463
sg75
(lp490
g68
(g89
g70
NtRp491
(dp492
g73
(dp493
g93
g94
ssg82
g487
sg75
(lp494
g303
asbag68
(g89
g70
NtRp495
(dp496
g73
(dp497
g100
g101
ssg82
g487
sg75
(lp498
S':'
asbag68
(g89
g70
NtRp499
(dp500
g73
(dp501
sg82
g487
sg75
(lp502
g68
(g69
g70
NtRp503
(dp504
g73
(dp505
g81
I3
ssg82
g499
sg75
(lp506
S''
asbasbasbag68
(g84
g70
NtRp507
(dp508
g73
(dp509
sg82
g463
sg75
(lp510
g68
(g89
g70
NtRp511
(dp512
g73
(dp513
g93
g94
ssg82
g507
sg75
(lp514
g324
asbag68
(g89
g70
NtRp515
(dp516
g73
(dp517
g100
g101
ssg82
g507
sg75
(lp518
S':'
asbag68
(g89
g70
NtRp519
(dp520
g73
(dp521
sg82
g507
sg75
(lp522
g68
(g69
g70
NtRp523
(dp524
g73
(dp525
g81
I3
ssg82
g519
sg75
(lp526
S''
asbasbasbag68
(g84
g70
NtRp527
(dp528
g73
(dp529
sg82
g463
sg75
(lp530
g68
(g89
g70
NtRp531
(dp532
g73
(dp533
g93
g94
ssg82
g527
sg75
(lp534
g345
asbag68
(g89
g70
NtRp535
(dp536
g73
(dp537
g100
g101
ssg82
g527
sg75
(lp538
S':'
asbag68
(g89
g70
NtRp539
(dp540
g73
(dp541
sg82
g527
sg75
(lp542
g68
(g69
g70
NtRp543
(dp544
g73
(dp545
g81
I3
ssg82
g539
sg75
(lp546
S''
asbasbasbag68
(g84
g70
NtRp547
(dp548
g73
(dp549
sg82
g463
sg75
(lp550
g68
(g89
g70
NtRp551
(dp552
g73
(dp553
g93
g94
ssg82
g547
sg75
(lp554
g366
asbag68
(g89
g70
NtRp555
(dp556
g73
(dp557
g100
g101
ssg82
g547
sg75
(lp558
S':'
asbag68
(g89
g70
NtRp559
(dp560
g73
(dp561
sg82
g547
sg75
(lp562
g68
(g69
g70
NtRp563
(dp564
g73
(dp565
g81
I3
ssg82
g559
sg75
(lp566
S''
asbasbasbag68
(g84
g70
NtRp567
(dp568
g73
(dp569
sg82
g463
sg75
(lp570
g68
(g89
g70
NtRp571
(dp572
g73
(dp573
g93
g94
ssg82
g567
sg75
(lp574
g387
asbag68
(g89
g70
NtRp575
(dp576
g73
(dp577
g100
g101
ssg82
g567
sg75
(lp578
S':'
asbag68
(g89
g70
NtRp579
(dp580
g73
(dp581
sg82
g567
sg75
(lp582
g68
(g69
g70
NtRp583
(dp584
g73
(dp585
g81
I3
ssg82
g579
sg75
(lp586
S''
asbasbasbag68
(g84
g70
NtRp587
(dp588
g73
(dp589
sg82
g463
sg75
(lp590
g68
(g89
g70
NtRp591
(dp592
g73
(dp593
g93
g94
ssg82
g587
sg75
(lp594
g408
asbag68
(g89
g70
NtRp595
(dp596
g73
(dp597
g100
g101
ssg82
g587
sg75
(lp598
S':'
asbag68
(g89
g70
NtRp599
(dp600
g73
(dp601
sg82
g587
sg75
(lp602
g68
(g69
g70
NtRp603
(dp604
g73
(dp605
g81
I3
ssg82
g599
sg75
(lp606
S''
asbasbasbag68
(g84
g70
NtRp607
(dp608
g73
(dp609
sg82
g463
sg75
(lp610
g68
(g89
g70
NtRp611
(dp612
g73
(dp613
g93
g94
ssg82
g607
sg75
(lp614
g429
asbag68
(g89
g70
NtRp615
(dp616
g73
(dp617
g100
g101
ssg82
g607
sg75
(lp618
S':'
asbag68
(g89
g70
NtRp619
(dp620
g73
(dp621
sg82
g607
sg75
(lp622
g68
(g69
g70
NtRp623
(dp624
g73
(dp625
g81
I3
ssg82
g619
sg75
(lp626
S''
asbasbasbasbasbasbasbag68
(g84
g70
NtRp627
(dp628
g73
(dp629
sg82
g245
sg75
(lp630
g68
(g89
g70
NtRp631
(dp632
g73
(dp633
g93
g94
ssg82
g627
sg75
(lp634
S'session_id_moviestore'
p635
asbag68
(g89
g70
NtRp636
(dp637
g73
(dp638
g100
g101
ssg82
g627
sg75
(lp639
S':'
asbag68
(g89
g70
NtRp640
(dp641
g73
(dp642
sg82
g627
sg75
(lp643
g68
(g69
g70
NtRp644
(dp645
g73
(dp646
g81
I4
ssg82
g640
sg75
(lp647
g68
(g77
g70
NtRp648
(dp649
g73
(dp650
g81
I3
ssg82
Nsg75
(lp651
g68
(g84
g70
NtRp652
(dp653
g73
(dp654
sg82
g648
sg75
(lp655
g68
(g89
g70
NtRp656
(dp657
g73
(dp658
g93
g94
ssg82
g652
sg75
(lp659
g282
asbag68
(g89
g70
NtRp660
(dp661
g73
(dp662
g100
g101
ssg82
g652
sg75
(lp663
S':'
asbag68
(g89
g70
NtRp664
(dp665
g73
(dp666
sg82
g652
sg75
(lp667
g68
(g69
g70
NtRp668
(dp669
g73
(dp670
g81
I3
ssg82
g664
sg75
(lp671
S''
asbasbasbag68
(g84
g70
NtRp672
(dp673
g73
(dp674
sg82
g648
sg75
(lp675
g68
(g89
g70
NtRp676
(dp677
g73
(dp678
g93
g94
ssg82
g672
sg75
(lp679
g303
asbag68
(g89
g70
NtRp680
(dp681
g73
(dp682
g100
g101
ssg82
g672
sg75
(lp683
S':'
asbag68
(g89
g70
NtRp684
(dp685
g73
(dp686
sg82
g672
sg75
(lp687
g68
(g69
g70
NtRp688
(dp689
g73
(dp690
g81
I3
ssg82
g684
sg75
(lp691
S''
asbasbasbag68
(g84
g70
NtRp692
(dp693
g73
(dp694
sg82
g648
sg75
(lp695
g68
(g89
g70
NtRp696
(dp697
g73
(dp698
g93
g94
ssg82
g692
sg75
(lp699
g324
asbag68
(g89
g70
NtRp700
(dp701
g73
(dp702
g100
g101
ssg82
g692
sg75
(lp703
S':'
asbag68
(g89
g70
NtRp704
(dp705
g73
(dp706
sg82
g692
sg75
(lp707
g68
(g69
g70
NtRp708
(dp709
g73
(dp710
g81
I3
ssg82
g704
sg75
(lp711
S''
asbasbasbag68
(g84
g70
NtRp712
(dp713
g73
(dp714
sg82
g648
sg75
(lp715
g68
(g89
g70
NtRp716
(dp717
g73
(dp718
g93
g94
ssg82
g712
sg75
(lp719
g345
asbag68
(g89
g70
NtRp720
(dp721
g73
(dp722
g100
g101
ssg82
g712
sg75
(lp723
S':'
asbag68
(g89
g70
NtRp724
(dp725
g73
(dp726
sg82
g712
sg75
(lp727
g68
(g69
g70
NtRp728
(dp729
g73
(dp730
g81
I3
ssg82
g724
sg75
(lp731
S''
asbasbasbag68
(g84
g70
NtRp732
(dp733
g73
(dp734
sg82
g648
sg75
(lp735
g68
(g89
g70
NtRp736
(dp737
g73
(dp738
g93
g94
ssg82
g732
sg75
(lp739
g366
asbag68
(g89
g70
NtRp740
(dp741
g73
(dp742
g100
g101
ssg82
g732
sg75
(lp743
S':'
asbag68
(g89
g70
NtRp744
(dp745
g73
(dp746
sg82
g732
sg75
(lp747
g68
(g69
g70
NtRp748
(dp749
g73
(dp750
g81
I3
ssg82
g744
sg75
(lp751
S''
asbasbasbag68
(g84
g70
NtRp752
(dp753
g73
(dp754
sg82
g648
sg75
(lp755
g68
(g89
g70
NtRp756
(dp757
g73
(dp758
g93
g94
ssg82
g752
sg75
(lp759
g387
asbag68
(g89
g70
NtRp760
(dp761
g73
(dp762
g100
g101
ssg82
g752
sg75
(lp763
S':'
asbag68
(g89
g70
NtRp764
(dp765
g73
(dp766
sg82
g752
sg75
(lp767
g68
(g69
g70
NtRp768
(dp769
g73
(dp770
g81
I3
ssg82
g764
sg75
(lp771
S''
asbasbasbag68
(g84
g70
NtRp772
(dp773
g73
(dp774
sg82
g648
sg75
(lp775
g68
(g89
g70
NtRp776
(dp777
g73
(dp778
g93
g94
ssg82
g772
sg75
(lp779
g408
asbag68
(g89
g70
NtRp780
(dp781
g73
(dp782
g100
g101
ssg82
g772
sg75
(lp783
S':'
asbag68
(g89
g70
NtRp784
(dp785
g73
(dp786
sg82
g772
sg75
(lp787
g68
(g69
g70
NtRp788
(dp789
g73
(dp790
g81
I3
ssg82
g784
sg75
(lp791
S''
asbasbasbag68
(g84
g70
NtRp792
(dp793
g73
(dp794
sg82
g648
sg75
(lp795
g68
(g89
g70
NtRp796
(dp797
g73
(dp798
g93
g94
ssg82
g792
sg75
(lp799
g429
asbag68
(g89
g70
NtRp800
(dp801
g73
(dp802
g100
g101
ssg82
g792
sg75
(lp803
S':'
asbag68
(g89
g70
NtRp804
(dp805
g73
(dp806
sg82
g792
sg75
(lp807
g68
(g69
g70
NtRp808
(dp809
g73
(dp810
g81
I3
ssg82
g804
sg75
(lp811
S''
asbasbasbasbasbasbasbag68
(g84
g70
NtRp812
(dp813
g73
(dp814
sg82
g245
sg75
(lp815
g68
(g89
g70
NtRp816
(dp817
g73
(dp818
g93
g94
ssg82
g812
sg75
(lp819
S'session_id_mvstore'
p820
asbag68
(g89
g70
NtRp821
(dp822
g73
(dp823
g100
g101
ssg82
g812
sg75
(lp824
S':'
asbag68
(g89
g70
NtRp825
(dp826
g73
(dp827
sg82
g812
sg75
(lp828
g68
(g69
g70
NtRp829
(dp830
g73
(dp831
g81
I4
ssg82
g825
sg75
(lp832
g68
(g77
g70
NtRp833
(dp834
g73
(dp835
g81
I3
ssg82
Nsg75
(lp836
g68
(g84
g70
NtRp837
(dp838
g73
(dp839
sg82
g833
sg75
(lp840
g68
(g89
g70
NtRp841
(dp842
g73
(dp843
g93
g94
ssg82
g837
sg75
(lp844
g282
asbag68
(g89
g70
NtRp845
(dp846
g73
(dp847
g100
g101
ssg82
g837
sg75
(lp848
S':'
asbag68
(g89
g70
NtRp849
(dp850
g73
(dp851
sg82
g837
sg75
(lp852
g68
(g69
g70
NtRp853
(dp854
g73
(dp855
g81
I3
ssg82
g849
sg75
(lp856
S''
asbasbasbag68
(g84
g70
NtRp857
(dp858
g73
(dp859
sg82
g833
sg75
(lp860
g68
(g89
g70
NtRp861
(dp862
g73
(dp863
g93
g94
ssg82
g857
sg75
(lp864
g303
asbag68
(g89
g70
NtRp865
(dp866
g73
(dp867
g100
g101
ssg82
g857
sg75
(lp868
S':'
asbag68
(g89
g70
NtRp869
(dp870
g73
(dp871
sg82
g857
sg75
(lp872
g68
(g69
g70
NtRp873
(dp874
g73
(dp875
g81
I3
ssg82
g869
sg75
(lp876
S''
asbasbasbag68
(g84
g70
NtRp877
(dp878
g73
(dp879
sg82
g833
sg75
(lp880
g68
(g89
g70
NtRp881
(dp882
g73
(dp883
g93
g94
ssg82
g877
sg75
(lp884
g324
asbag68
(g89
g70
NtRp885
(dp886
g73
(dp887
g100
g101
ssg82
g877
sg75
(lp888
S':'
asbag68
(g89
g70
NtRp889
(dp890
g73
(dp891
sg82
g877
sg75
(lp892
g68
(g69
g70
NtRp893
(dp894
g73
(dp895
g81
I3
ssg82
g889
sg75
(lp896
S''
asbasbasbag68
(g84
g70
NtRp897
(dp898
g73
(dp899
sg82
g833
sg75
(lp900
g68
(g89
g70
NtRp901
(dp902
g73
(dp903
g93
g94
ssg82
g897
sg75
(lp904
g345
asbag68
(g89
g70
NtRp905
(dp906
g73
(dp907
g100
g101
ssg82
g897
sg75
(lp908
S':'
asbag68
(g89
g70
NtRp909
(dp910
g73
(dp911
sg82
g897
sg75
(lp912
g68
(g69
g70
NtRp913
(dp914
g73
(dp915
g81
I3
ssg82
g909
sg75
(lp916
S''
asbasbasbag68
(g84
g70
NtRp917
(dp918
g73
(dp919
sg82
g833
sg75
(lp920
g68
(g89
g70
NtRp921
(dp922
g73
(dp923
g93
g94
ssg82
g917
sg75
(lp924
g366
asbag68
(g89
g70
NtRp925
(dp926
g73
(dp927
g100
g101
ssg82
g917
sg75
(lp928
S':'
asbag68
(g89
g70
NtRp929
(dp930
g73
(dp931
sg82
g917
sg75
(lp932
g68
(g69
g70
NtRp933
(dp934
g73
(dp935
g81
I3
ssg82
g929
sg75
(lp936
S''
asbasbasbag68
(g84
g70
NtRp937
(dp938
g73
(dp939
sg82
g833
sg75
(lp940
g68
(g89
g70
NtRp941
(dp942
g73
(dp943
g93
g94
ssg82
g937
sg75
(lp944
g387
asbag68
(g89
g70
NtRp945
(dp946
g73
(dp947
g100
g101
ssg82
g937
sg75
(lp948
S':'
asbag68
(g89
g70
NtRp949
(dp950
g73
(dp951
sg82
g937
sg75
(lp952
g68
(g69
g70
NtRp953
(dp954
g73
(dp955
g81
I3
ssg82
g949
sg75
(lp956
S''
asbasbasbag68
(g84
g70
NtRp957
(dp958
g73
(dp959
sg82
g833
sg75
(lp960
g68
(g89
g70
NtRp961
(dp962
g73
(dp963
g93
g94
ssg82
g957
sg75
(lp964
g408
asbag68
(g89
g70
NtRp965
(dp966
g73
(dp967
g100
g101
ssg82
g957
sg75
(lp968
S':'
asbag68
(g89
g70
NtRp969
(dp970
g73
(dp971
sg82
g957
sg75
(lp972
g68
(g69
g70
NtRp973
(dp974
g73
(dp975
g81
I3
ssg82
g969
sg75
(lp976
S''
asbasbasbag68
(g84
g70
NtRp977
(dp978
g73
(dp979
sg82
g833
sg75
(lp980
g68
(g89
g70
NtRp981
(dp982
g73
(dp983
g93
g94
ssg82
g977
sg75
(lp984
g429
asbag68
(g89
g70
NtRp985
(dp986
g73
(dp987
g100
g101
ssg82
g977
sg75
(lp988
S':'
asbag68
(g89
g70
NtRp989
(dp990
g73
(dp991
sg82
g977
sg75
(lp992
g68
(g69
g70
NtRp993
(dp994
g73
(dp995
g81
I3
ssg82
g989
sg75
(lp996
S''
asbasbasbasbasbasbasbag68
(g84
g70
NtRp997
(dp998
g73
(dp999
sg82
g245
sg75
(lp1000
g68
(g89
g70
NtRp1001
(dp1002
g73
(dp1003
g93
g94
ssg82
g997
sg75
(lp1004
S'session_id_napp'
p1005
asbag68
(g89
g70
NtRp1006
(dp1007
g73
(dp1008
g100
g101
ssg82
g997
sg75
(lp1009
S':'
asbag68
(g89
g70
NtRp1010
(dp1011
g73
(dp1012
sg82
g997
sg75
(lp1013
g68
(g69
g70
NtRp1014
(dp1015
g73
(dp1016
g81
I4
ssg82
g1010
sg75
(lp1017
g68
(g77
g70
NtRp1018
(dp1019
g73
(dp1020
g81
I3
ssg82
Nsg75
(lp1021
g68
(g84
g70
NtRp1022
(dp1023
g73
(dp1024
sg82
g1018
sg75
(lp1025
g68
(g89
g70
NtRp1026
(dp1027
g73
(dp1028
g93
g94
ssg82
g1022
sg75
(lp1029
g282
asbag68
(g89
g70
NtRp1030
(dp1031
g73
(dp1032
g100
g101
ssg82
g1022
sg75
(lp1033
S':'
asbag68
(g89
g70
NtRp1034
(dp1035
g73
(dp1036
sg82
g1022
sg75
(lp1037
g68
(g69
g70
NtRp1038
(dp1039
g73
(dp1040
g81
I3
ssg82
g1034
sg75
(lp1041
S''
asbasbasbag68
(g84
g70
NtRp1042
(dp1043
g73
(dp1044
sg82
g1018
sg75
(lp1045
g68
(g89
g70
NtRp1046
(dp1047
g73
(dp1048
g93
g94
ssg82
g1042
sg75
(lp1049
g303
asbag68
(g89
g70
NtRp1050
(dp1051
g73
(dp1052
g100
g101
ssg82
g1042
sg75
(lp1053
S':'
asbag68
(g89
g70
NtRp1054
(dp1055
g73
(dp1056
sg82
g1042
sg75
(lp1057
g68
(g69
g70
NtRp1058
(dp1059
g73
(dp1060
g81
I3
ssg82
g1054
sg75
(lp1061
S''
asbasbasbag68
(g84
g70
NtRp1062
(dp1063
g73
(dp1064
sg82
g1018
sg75
(lp1065
g68
(g89
g70
NtRp1066
(dp1067
g73
(dp1068
g93
g94
ssg82
g1062
sg75
(lp1069
g324
asbag68
(g89
g70
NtRp1070
(dp1071
g73
(dp1072
g100
g101
ssg82
g1062
sg75
(lp1073
S':'
asbag68
(g89
g70
NtRp1074
(dp1075
g73
(dp1076
sg82
g1062
sg75
(lp1077
g68
(g69
g70
NtRp1078
(dp1079
g73
(dp1080
g81
I3
ssg82
g1074
sg75
(lp1081
S''
asbasbasbag68
(g84
g70
NtRp1082
(dp1083
g73
(dp1084
sg82
g1018
sg75
(lp1085
g68
(g89
g70
NtRp1086
(dp1087
g73
(dp1088
g93
g94
ssg82
g1082
sg75
(lp1089
g345
asbag68
(g89
g70
NtRp1090
(dp1091
g73
(dp1092
g100
g101
ssg82
g1082
sg75
(lp1093
S':'
asbag68
(g89
g70
NtRp1094
(dp1095
g73
(dp1096
sg82
g1082
sg75
(lp1097
g68
(g69
g70
NtRp1098
(dp1099
g73
(dp1100
g81
I3
ssg82
g1094
sg75
(lp1101
S''
asbasbasbag68
(g84
g70
NtRp1102
(dp1103
g73
(dp1104
sg82
g1018
sg75
(lp1105
g68
(g89
g70
NtRp1106
(dp1107
g73
(dp1108
g93
g94
ssg82
g1102
sg75
(lp1109
g366
asbag68
(g89
g70
NtRp1110
(dp1111
g73
(dp1112
g100
g101
ssg82
g1102
sg75
(lp1113
S':'
asbag68
(g89
g70
NtRp1114
(dp1115
g73
(dp1116
sg82
g1102
sg75
(lp1117
g68
(g69
g70
NtRp1118
(dp1119
g73
(dp1120
g81
I3
ssg82
g1114
sg75
(lp1121
S''
asbasbasbag68
(g84
g70
NtRp1122
(dp1123
g73
(dp1124
sg82
g1018
sg75
(lp1125
g68
(g89
g70
NtRp1126
(dp1127
g73
(dp1128
g93
g94
ssg82
g1122
sg75
(lp1129
g387
asbag68
(g89
g70
NtRp1130
(dp1131
g73
(dp1132
g100
g101
ssg82
g1122
sg75
(lp1133
S':'
asbag68
(g89
g70
NtRp1134
(dp1135
g73
(dp1136
sg82
g1122
sg75
(lp1137
g68
(g69
g70
NtRp1138
(dp1139
g73
(dp1140
g81
I3
ssg82
g1134
sg75
(lp1141
S''
asbasbasbag68
(g84
g70
NtRp1142
(dp1143
g73
(dp1144
sg82
g1018
sg75
(lp1145
g68
(g89
g70
NtRp1146
(dp1147
g73
(dp1148
g93
g94
ssg82
g1142
sg75
(lp1149
g408
asbag68
(g89
g70
NtRp1150
(dp1151
g73
(dp1152
g100
g101
ssg82
g1142
sg75
(lp1153
S':'
asbag68
(g89
g70
NtRp1154
(dp1155
g73
(dp1156
sg82
g1142
sg75
(lp1157
g68
(g69
g70
NtRp1158
(dp1159
g73
(dp1160
g81
I3
ssg82
g1154
sg75
(lp1161
S''
asbasbasbag68
(g84
g70
NtRp1162
(dp1163
g73
(dp1164
sg82
g1018
sg75
(lp1165
g68
(g89
g70
NtRp1166
(dp1167
g73
(dp1168
g93
g94
ssg82
g1162
sg75
(lp1169
g429
asbag68
(g89
g70
NtRp1170
(dp1171
g73
(dp1172
g100
g101
ssg82
g1162
sg75
(lp1173
S':'
asbag68
(g89
g70
NtRp1174
(dp1175
g73
(dp1176
sg82
g1162
sg75
(lp1177
g68
(g69
g70
NtRp1178
(dp1179
g73
(dp1180
g81
I3
ssg82
g1174
sg75
(lp1181
S''
asbasbasbasbasbasbasbag68
(g84
g70
NtRp1182
(dp1183
g73
(dp1184
sg82
g245
sg75
(lp1185
g68
(g89
g70
NtRp1186
(dp1187
g73
(dp1188
g93
g94
ssg82
g1182
sg75
(lp1189
S'session_id_welcome'
p1190
asbag68
(g89
g70
NtRp1191
(dp1192
g73
(dp1193
g100
g101
ssg82
g1182
sg75
(lp1194
S':'
asbag68
(g89
g70
NtRp1195
(dp1196
g73
(dp1197
sg82
g1182
sg75
(lp1198
g68
(g69
g70
NtRp1199
(dp1200
g73
(dp1201
g81
I4
ssg82
g1195
sg75
(lp1202
g68
(g77
g70
NtRp1203
(dp1204
g73
(dp1205
g81
I3
ssg82
Nsg75
(lp1206
g68
(g84
g70
NtRp1207
(dp1208
g73
(dp1209
sg82
g1203
sg75
(lp1210
g68
(g89
g70
NtRp1211
(dp1212
g73
(dp1213
g93
g94
ssg82
g1207
sg75
(lp1214
g282
asbag68
(g89
g70
NtRp1215
(dp1216
g73
(dp1217
g100
g101
ssg82
g1207
sg75
(lp1218
S':'
asbag68
(g89
g70
NtRp1219
(dp1220
g73
(dp1221
sg82
g1207
sg75
(lp1222
g68
(g69
g70
NtRp1223
(dp1224
g73
(dp1225
g81
I3
ssg82
g1219
sg75
(lp1226
S''
asbasbasbag68
(g84
g70
NtRp1227
(dp1228
g73
(dp1229
sg82
g1203
sg75
(lp1230
g68
(g89
g70
NtRp1231
(dp1232
g73
(dp1233
g93
g94
ssg82
g1227
sg75
(lp1234
g303
asbag68
(g89
g70
NtRp1235
(dp1236
g73
(dp1237
g100
g101
ssg82
g1227
sg75
(lp1238
S':'
asbag68
(g89
g70
NtRp1239
(dp1240
g73
(dp1241
sg82
g1227
sg75
(lp1242
g68
(g69
g70
NtRp1243
(dp1244
g73
(dp1245
g81
I3
ssg82
g1239
sg75
(lp1246
S''
asbasbasbag68
(g84
g70
NtRp1247
(dp1248
g73
(dp1249
sg82
g1203
sg75
(lp1250
g68
(g89
g70
NtRp1251
(dp1252
g73
(dp1253
g93
g94
ssg82
g1247
sg75
(lp1254
g324
asbag68
(g89
g70
NtRp1255
(dp1256
g73
(dp1257
g100
g101
ssg82
g1247
sg75
(lp1258
S':'
asbag68
(g89
g70
NtRp1259
(dp1260
g73
(dp1261
sg82
g1247
sg75
(lp1262
g68
(g69
g70
NtRp1263
(dp1264
g73
(dp1265
g81
I3
ssg82
g1259
sg75
(lp1266
S''
asbasbasbag68
(g84
g70
NtRp1267
(dp1268
g73
(dp1269
sg82
g1203
sg75
(lp1270
g68
(g89
g70
NtRp1271
(dp1272
g73
(dp1273
g93
g94
ssg82
g1267
sg75
(lp1274
g345
asbag68
(g89
g70
NtRp1275
(dp1276
g73
(dp1277
g100
g101
ssg82
g1267
sg75
(lp1278
S':'
asbag68
(g89
g70
NtRp1279
(dp1280
g73
(dp1281
sg82
g1267
sg75
(lp1282
g68
(g69
g70
NtRp1283
(dp1284
g73
(dp1285
g81
I3
ssg82
g1279
sg75
(lp1286
S''
asbasbasbag68
(g84
g70
NtRp1287
(dp1288
g73
(dp1289
sg82
g1203
sg75
(lp1290
g68
(g89
g70
NtRp1291
(dp1292
g73
(dp1293
g93
g94
ssg82
g1287
sg75
(lp1294
g366
asbag68
(g89
g70
NtRp1295
(dp1296
g73
(dp1297
g100
g101
ssg82
g1287
sg75
(lp1298
S':'
asbag68
(g89
g70
NtRp1299
(dp1300
g73
(dp1301
sg82
g1287
sg75
(lp1302
g68
(g69
g70
NtRp1303
(dp1304
g73
(dp1305
g81
I3
ssg82
g1299
sg75
(lp1306
S''
asbasbasbag68
(g84
g70
NtRp1307
(dp1308
g73
(dp1309
sg82
g1203
sg75
(lp1310
g68
(g89
g70
NtRp1311
(dp1312
g73
(dp1313
g93
g94
ssg82
g1307
sg75
(lp1314
g387
asbag68
(g89
g70
NtRp1315
(dp1316
g73
(dp1317
g100
g101
ssg82
g1307
sg75
(lp1318
S':'
asbag68
(g89
g70
NtRp1319
(dp1320
g73
(dp1321
sg82
g1307
sg75
(lp1322
g68
(g69
g70
NtRp1323
(dp1324
g73
(dp1325
g81
I3
ssg82
g1319
sg75
(lp1326
S''
asbasbasbag68
(g84
g70
NtRp1327
(dp1328
g73
(dp1329
sg82
g1203
sg75
(lp1330
g68
(g89
g70
NtRp1331
(dp1332
g73
(dp1333
g93
g94
ssg82
g1327
sg75
(lp1334
g408
asbag68
(g89
g70
NtRp1335
(dp1336
g73
(dp1337
g100
g101
ssg82
g1327
sg75
(lp1338
S':'
asbag68
(g89
g70
NtRp1339
(dp1340
g73
(dp1341
sg82
g1327
sg75
(lp1342
g68
(g69
g70
NtRp1343
(dp1344
g73
(dp1345
g81
I3
ssg82
g1339
sg75
(lp1346
S''
asbasbasbag68
(g84
g70
NtRp1347
(dp1348
g73
(dp1349
sg82
g1203
sg75
(lp1350
g68
(g89
g70
NtRp1351
(dp1352
g73
(dp1353
g93
g94
ssg82
g1347
sg75
(lp1354
g429
asbag68
(g89
g70
NtRp1355
(dp1356
g73
(dp1357
g100
g101
ssg82
g1347
sg75
(lp1358
S':'
asbag68
(g89
g70
NtRp1359
(dp1360
g73
(dp1361
sg82
g1347
sg75
(lp1362
g68
(g69
g70
NtRp1363
(dp1364
g73
(dp1365
g81
I3
ssg82
g1359
sg75
(lp1366
S''
asbasbasbasbasbasbasbasbasbasbasbag68
(g84
g70
NtRp1367
(dp1368
g73
(dp1369
sg82
g78
sg75
(lp1370
g68
(g89
g70
NtRp1371
(dp1372
g73
(dp1373
g93
g94
ssg82
g1367
sg75
(lp1374
S'env'
p1375
asbag68
(g89
g70
NtRp1376
(dp1377
g73
(dp1378
g100
g101
ssg82
g1367
sg75
(lp1379
S':'
asbag68
(g89
g70
NtRp1380
(dp1381
g73
(dp1382
sg82
g1367
sg75
(lp1383
g68
(g69
g70
NtRp1384
(dp1385
g73
(dp1386
g81
I5
ssg82
g1380
sg75
(lp1387
g68
(g77
g70
NtRp1388
(dp1389
g73
(dp1390
g81
I4
ssg82
Nsg75
(lp1391
g68
(g84
g70
NtRp1392
(dp1393
g73
(dp1394
sg82
g1388
sg75
(lp1395
g68
(g89
g70
NtRp1396
(dp1397
g73
(dp1398
g93
g94
ssg82
g1392
sg75
(lp1399
S'app_folders'
p1400
asbag68
(g89
g70
NtRp1401
(dp1402
g73
(dp1403
g100
g101
ssg82
g1392
sg75
(lp1404
S':'
asbag68
(g89
g70
NtRp1405
(dp1406
g73
(dp1407
sg82
g1392
sg75
(lp1408
g68
(g69
g70
NtRp1409
(dp1410
g73
(dp1411
g81
I4
ssg82
g1405
sg75
(lp1412
S"set(['/home/marco/proyectos/web2py-trunk/applications/mvstore/', '/home/marco/proyectos/web2py-trunk/applications/admin/', '/home/marco/proyectos/web2py-trunk/applications/jornadasdemo/', '/home/marco/proyectos/web2py-trunk/applications/welcome/', '/home/marco/proyectos/web2py-trunk/applications/napp/', '/home/marco/proyectos/web2py-trunk/applications/conf2py/', '/home/marco/proyectos/web2py-trunk/applications/moviestore/'])"
p1413
asbasbasbag68
(g84
g70
NtRp1414
(dp1415
g73
(dp1416
sg82
g1388
sg75
(lp1417
g68
(g89
g70
NtRp1418
(dp1419
g73
(dp1420
g93
g94
ssg82
g1414
sg75
(lp1421
S'applications_parent'
p1422
asbag68
(g89
g70
NtRp1423
(dp1424
g73
(dp1425
g100
g101
ssg82
g1414
sg75
(lp1426
S':'
asbag68
(g89
g70
NtRp1427
(dp1428
g73
(dp1429
sg82
g1414
sg75
(lp1430
g68
(g69
g70
NtRp1431
(dp1432
g73
(dp1433
g81
I4
ssg82
g1427
sg75
(lp1434
S'/home/marco/proyectos/web2py-trunk'
p1435
asbasbasbag68
(g84
g70
NtRp1436
(dp1437
g73
(dp1438
sg82
g1388
sg75
(lp1439
g68
(g89
g70
NtRp1440
(dp1441
g73
(dp1442
g93
g94
ssg82
g1436
sg75
(lp1443
S'cmd_args'
p1444
asbag68
(g89
g70
NtRp1445
(dp1446
g73
(dp1447
g100
g101
ssg82
g1436
sg75
(lp1448
S':'
asbag68
(g89
g70
NtRp1449
(dp1450
g73
(dp1451
sg82
g1436
sg75
(lp1452
g68
(g69
g70
NtRp1453
(dp1454
g73
(dp1455
g81
I4
ssg82
g1449
sg75
(lp1456
g68
(g77
g70
NtRp1457
(dp1458
g73
(dp1459
g81
I3
ssg82
Nsg75
(lp1460
sbasbasbasbag68
(g84
g70
NtRp1461
(dp1462
g73
(dp1463
sg82
g1388
sg75
(lp1464
g68
(g89
g70
NtRp1465
(dp1466
g73
(dp1467
g93
g94
ssg82
g1461
sg75
(lp1468
S'cmd_options'
p1469
asbag68
(g89
g70
NtRp1470
(dp1471
g73
(dp1472
g100
g101
ssg82
g1461
sg75
(lp1473
S':'
asbag68
(g89
g70
NtRp1474
(dp1475
g73
(dp1476
sg82
g1461
sg75
(lp1477
g68
(g69
g70
NtRp1478
(dp1479
g73
(dp1480
g81
I4
ssg82
g1474
sg75
(lp1481
S"<Values at 0x1ffcb90: {'verbose': False, 'ip': '127.0.0.1', 'shutdown_timeout': 5, 'taskbar': False, 'port': 8000, 'maxthreads': None, 'softcron': False, 'server_name': 'kiki', 'bpython': False, 'nogui': False, 'nocron': False, 'extcron': False, 'debuglevel': 30, 'test': None, 'folder': '/home/marco/proyectos/web2py-trunk', 'config': '', 'import_models': False, 'winservice': '', 'shell': None, 'run': '', 'log_filename': 'httpserver.log', 'args': [''], 'profiler_filename': None, 'ssl_private_key': '', 'password': '<ask>', 'request_queue_size': 5, 'ssl_certificate': '', 'cronjob': False, 'plain': False, 'quiet': False, 'interfaces': None, 'minthreads': None, 'timeout': 10, 'numthreads': None, 'nobanner': False, 'pid_filename': 'httpserver.pid'}>"
p1482
asbasbasbag68
(g84
g70
NtRp1483
(dp1484
g73
(dp1485
sg82
g1388
sg75
(lp1486
g68
(g89
g70
NtRp1487
(dp1488
g73
(dp1489
g93
g94
ssg82
g1483
sg75
(lp1490
S'db_sessions'
p1491
asbag68
(g89
g70
NtRp1492
(dp1493
g73
(dp1494
g100
g101
ssg82
g1483
sg75
(lp1495
S':'
asbag68
(g89
g70
NtRp1496
(dp1497
g73
(dp1498
sg82
g1483
sg75
(lp1499
g68
(g69
g70
NtRp1500
(dp1501
g73
(dp1502
g81
I4
ssg82
g1496
sg75
(lp1503
S'set([])'
p1504
asbasbasbag68
(g84
g70
NtRp1505
(dp1506
g73
(dp1507
sg82
g1388
sg75
(lp1508
g68
(g89
g70
NtRp1509
(dp1510
g73
(dp1511
g93
g94
ssg82
g1505
sg75
(lp1512
S'debugging'
p1513
asbag68
(g89
g70
NtRp1514
(dp1515
g73
(dp1516
g100
g101
ssg82
g1505
sg75
(lp1517
S':'
asbag68
(g89
g70
NtRp1518
(dp1519
g73
(dp1520
sg82
g1505
sg75
(lp1521
g68
(g69
g70
NtRp1522
(dp1523
g73
(dp1524
g81
I4
ssg82
g1518
sg75
(lp1525
g111
asbasbasbag68
(g84
g70
NtRp1526
(dp1527
g73
(dp1528
sg82
g1388
sg75
(lp1529
g68
(g89
g70
NtRp1530
(dp1531
g73
(dp1532
g93
g94
ssg82
g1526
sg75
(lp1533
S'gluon_parent'
p1534
asbag68
(g89
g70
NtRp1535
(dp1536
g73
(dp1537
g100
g101
ssg82
g1526
sg75
(lp1538
S':'
asbag68
(g89
g70
NtRp1539
(dp1540
g73
(dp1541
sg82
g1526
sg75
(lp1542
g68
(g69
g70
NtRp1543
(dp1544
g73
(dp1545
g81
I4
ssg82
g1539
sg75
(lp1546
S'/home/marco/proyectos/web2py-trunk'
p1547
asbasbasbag68
(g84
g70
NtRp1548
(dp1549
g73
(dp1550
sg82
g1388
sg75
(lp1551
g68
(g89
g70
NtRp1552
(dp1553
g73
(dp1554
g93
g94
ssg82
g1548
sg75
(lp1555
S'http_accept'
p1556
asbag68
(g89
g70
NtRp1557
(dp1558
g73
(dp1559
g100
g101
ssg82
g1548
sg75
(lp1560
S':'
asbag68
(g89
g70
NtRp1561
(dp1562
g73
(dp1563
sg82
g1548
sg75
(lp1564
g68
(g69
g70
NtRp1565
(dp1566
g73
(dp1567
g81
I4
ssg82
g1561
sg75
(lp1568
S'application/xml,application/xhtml+xml,text/html;q=0.9,text/plain;q=0.8,image/png,*/*;q=0.5'
p1569
asbasbasbag68
(g84
g70
NtRp1570
(dp1571
g73
(dp1572
sg82
g1388
sg75
(lp1573
g68
(g89
g70
NtRp1574
(dp1575
g73
(dp1576
g93
g94
ssg82
g1570
sg75
(lp1577
S'http_accept_charset'
p1578
asbag68
(g89
g70
NtRp1579
(dp1580
g73
(dp1581
g100
g101
ssg82
g1570
sg75
(lp1582
S':'
asbag68
(g89
g70
NtRp1583
(dp1584
g73
(dp1585
sg82
g1570
sg75
(lp1586
g68
(g69
g70
NtRp1587
(dp1588
g73
(dp1589
g81
I4
ssg82
g1583
sg75
(lp1590
S'ISO-8859-1,utf-8;q=0.7,*;q=0.3'
p1591
asbasbasbag68
(g84
g70
NtRp1592
(dp1593
g73
(dp1594
sg82
g1388
sg75
(lp1595
g68
(g89
g70
NtRp1596
(dp1597
g73
(dp1598
g93
g94
ssg82
g1592
sg75
(lp1599
S'http_accept_encoding'
p1600
asbag68
(g89
g70
NtRp1601
(dp1602
g73
(dp1603
g100
g101
ssg82
g1592
sg75
(lp1604
S':'
asbag68
(g89
g70
NtRp1605
(dp1606
g73
(dp1607
sg82
g1592
sg75
(lp1608
g68
(g69
g70
NtRp1609
(dp1610
g73
(dp1611
g81
I4
ssg82
g1605
sg75
(lp1612
S'gzip,deflate,sdch'
p1613
asbasbasbag68
(g84
g70
NtRp1614
(dp1615
g73
(dp1616
sg82
g1388
sg75
(lp1617
g68
(g89
g70
NtRp1618
(dp1619
g73
(dp1620
g93
g94
ssg82
g1614
sg75
(lp1621
S'http_accept_language'
p1622
asbag68
(g89
g70
NtRp1623
(dp1624
g73
(dp1625
g100
g101
ssg82
g1614
sg75
(lp1626
S':'
asbag68
(g89
g70
NtRp1627
(dp1628
g73
(dp1629
sg82
g1614
sg75
(lp1630
g68
(g69
g70
NtRp1631
(dp1632
g73
(dp1633
g81
I4
ssg82
g1627
sg75
(lp1634
S'es-419,es;q=0.8'
p1635
asbasbasbag68
(g84
g70
NtRp1636
(dp1637
g73
(dp1638
sg82
g1388
sg75
(lp1639
g68
(g89
g70
NtRp1640
(dp1641
g73
(dp1642
g93
g94
ssg82
g1636
sg75
(lp1643
S'http_connection'
p1644
asbag68
(g89
g70
NtRp1645
(dp1646
g73
(dp1647
g100
g101
ssg82
g1636
sg75
(lp1648
S':'
asbag68
(g89
g70
NtRp1649
(dp1650
g73
(dp1651
sg82
g1636
sg75
(lp1652
g68
(g69
g70
NtRp1653
(dp1654
g73
(dp1655
g81
I4
ssg82
g1649
sg75
(lp1656
S'keep-alive'
p1657
asbasbasbag68
(g84
g70
NtRp1658
(dp1659
g73
(dp1660
sg82
g1388
sg75
(lp1661
g68
(g89
g70
NtRp1662
(dp1663
g73
(dp1664
g93
g94
ssg82
g1658
sg75
(lp1665
S'http_cookie'
p1666
asbag68
(g89
g70
NtRp1667
(dp1668
g73
(dp1669
g100
g101
ssg82
g1658
sg75
(lp1670
S':'
asbag68
(g89
g70
NtRp1671
(dp1672
g73
(dp1673
sg82
g1658
sg75
(lp1674
g68
(g69
g70
NtRp1675
(dp1676
g73
(dp1677
g81
I4
ssg82
g1671
sg75
(lp1678
S'session_id_welcome=127.0.0.1-42aeeffb-91ad-41cf-a19a-c542b618bc3b; session_id_jornadasdemo=127.0.0.1-c2aedcb7-3cda-4472-95a7-e206025ae0aa; session_id_moviestore=127.0.0.1-b659915f-a893-4edf-9389-3d1d816b6d14; session_id_napp=127.0.0.1-5892b436-4013-46df-be21-176a66b88855; session_id_mvstore=127.0.0.1-0b059b4c-5741-4722-be03-f31fed87a8d7; session_id_admin=127.0.0.1-6d5f70af-c182-4a4b-bb48-a3442921674a'
p1679
asbasbasbag68
(g84
g70
NtRp1680
(dp1681
g73
(dp1682
sg82
g1388
sg75
(lp1683
g68
(g89
g70
NtRp1684
(dp1685
g73
(dp1686
g93
g94
ssg82
g1680
sg75
(lp1687
S'http_host'
p1688
asbag68
(g89
g70
NtRp1689
(dp1690
g73
(dp1691
g100
g101
ssg82
g1680
sg75
(lp1692
S':'
asbag68
(g89
g70
NtRp1693
(dp1694
g73
(dp1695
sg82
g1680
sg75
(lp1696
g68
(g69
g70
NtRp1697
(dp1698
g73
(dp1699
g81
I4
ssg82
g1693
sg75
(lp1700
S'127.0.0.1:8000'
p1701
asbasbasbag68
(g84
g70
NtRp1702
(dp1703
g73
(dp1704
sg82
g1388
sg75
(lp1705
g68
(g89
g70
NtRp1706
(dp1707
g73
(dp1708
g93
g94
ssg82
g1702
sg75
(lp1709
S'http_referer'
p1710
asbag68
(g89
g70
NtRp1711
(dp1712
g73
(dp1713
g100
g101
ssg82
g1702
sg75
(lp1714
S':'
asbag68
(g89
g70
NtRp1715
(dp1716
g73
(dp1717
sg82
g1702
sg75
(lp1718
g68
(g69
g70
NtRp1719
(dp1720
g73
(dp1721
g81
I4
ssg82
g1715
sg75
(lp1722
S'http://127.0.0.1:8000/admin/default/design/mvstore'
p1723
asbasbasbag68
(g84
g70
NtRp1724
(dp1725
g73
(dp1726
sg82
g1388
sg75
(lp1727
g68
(g89
g70
NtRp1728
(dp1729
g73
(dp1730
g93
g94
ssg82
g1724
sg75
(lp1731
S'http_user_agent'
p1732
asbag68
(g89
g70
NtRp1733
(dp1734
g73
(dp1735
g100
g101
ssg82
g1724
sg75
(lp1736
S':'
asbag68
(g89
g70
NtRp1737
(dp1738
g73
(dp1739
sg82
g1724
sg75
(lp1740
g68
(g69
g70
NtRp1741
(dp1742
g73
(dp1743
g81
I4
ssg82
g1737
sg75
(lp1744
S'Mozilla/5.0 (X11; Linux x86_64) AppleWebKit/534.24 (KHTML, like Gecko) Chrome/11.0.696.71 Safari/534.24'
p1745
asbasbasbag68
(g84
g70
NtRp1746
(dp1747
g73
(dp1748
sg82
g1388
sg75
(lp1749
g68
(g89
g70
NtRp1750
(dp1751
g73
(dp1752
g93
g94
ssg82
g1746
sg75
(lp1753
S'path_info'
p1754
asbag68
(g89
g70
NtRp1755
(dp1756
g73
(dp1757
g100
g101
ssg82
g1746
sg75
(lp1758
S':'
asbag68
(g89
g70
NtRp1759
(dp1760
g73
(dp1761
sg82
g1746
sg75
(lp1762
g68
(g69
g70
NtRp1763
(dp1764
g73
(dp1765
g81
I4
ssg82
g1759
sg75
(lp1766
S'/mvstore/default/prestamos'
p1767
asbasbasbag68
(g84
g70
NtRp1768
(dp1769
g73
(dp1770
sg82
g1388
sg75
(lp1771
g68
(g89
g70
NtRp1772
(dp1773
g73
(dp1774
g93
g94
ssg82
g1768
sg75
(lp1775
S'query_string'
p1776
asbag68
(g89
g70
NtRp1777
(dp1778
g73
(dp1779
g100
g101
ssg82
g1768
sg75
(lp1780
S':'
asbag68
(g89
g70
NtRp1781
(dp1782
g73
(dp1783
sg82
g1768
sg75
(lp1784
g68
(g69
g70
NtRp1785
(dp1786
g73
(dp1787
g81
I4
ssg82
g1781
sg75
(lp1788
S''
asbasbasbag68
(g84
g70
NtRp1789
(dp1790
g73
(dp1791
sg82
g1388
sg75
(lp1792
g68
(g89
g70
NtRp1793
(dp1794
g73
(dp1795
g93
g94
ssg82
g1789
sg75
(lp1796
S'remote_addr'
p1797
asbag68
(g89
g70
NtRp1798
(dp1799
g73
(dp1800
g100
g101
ssg82
g1789
sg75
(lp1801
S':'
asbag68
(g89
g70
NtRp1802
(dp1803
g73
(dp1804
sg82
g1789
sg75
(lp1805
g68
(g69
g70
NtRp1806
(dp1807
g73
(dp1808
g81
I4
ssg82
g1802
sg75
(lp1809
g201
asbasbasbag68
(g84
g70
NtRp1810
(dp1811
g73
(dp1812
sg82
g1388
sg75
(lp1813
g68
(g89
g70
NtRp1814
(dp1815
g73
(dp1816
g93
g94
ssg82
g1810
sg75
(lp1817
S'remote_port'
p1818
asbag68
(g89
g70
NtRp1819
(dp1820
g73
(dp1821
g100
g101
ssg82
g1810
sg75
(lp1822
S':'
asbag68
(g89
g70
NtRp1823
(dp1824
g73
(dp1825
sg82
g1810
sg75
(lp1826
g68
(g69
g70
NtRp1827
(dp1828
g73
(dp1829
g81
I4
ssg82
g1823
sg75
(lp1830
S'43663'
p1831
asbasbasbag68
(g84
g70
NtRp1832
(dp1833
g73
(dp1834
sg82
g1388
sg75
(lp1835
g68
(g89
g70
NtRp1836
(dp1837
g73
(dp1838
g93
g94
ssg82
g1832
sg75
(lp1839
S'request_method'
p1840
asbag68
(g89
g70
NtRp1841
(dp1842
g73
(dp1843
g100
g101
ssg82
g1832
sg75
(lp1844
S':'
asbag68
(g89
g70
NtRp1845
(dp1846
g73
(dp1847
sg82
g1832
sg75
(lp1848
g68
(g69
g70
NtRp1849
(dp1850
g73
(dp1851
g81
I4
ssg82
g1845
sg75
(lp1852
S'GET'
p1853
asbasbasbag68
(g84
g70
NtRp1854
(dp1855
g73
(dp1856
sg82
g1388
sg75
(lp1857
g68
(g89
g70
NtRp1858
(dp1859
g73
(dp1860
g93
g94
ssg82
g1854
sg75
(lp1861
S'script_name'
p1862
asbag68
(g89
g70
NtRp1863
(dp1864
g73
(dp1865
g100
g101
ssg82
g1854
sg75
(lp1866
S':'
asbag68
(g89
g70
NtRp1867
(dp1868
g73
(dp1869
sg82
g1854
sg75
(lp1870
g68
(g69
g70
NtRp1871
(dp1872
g73
(dp1873
g81
I4
ssg82
g1867
sg75
(lp1874
S''
asbasbasbag68
(g84
g70
NtRp1875
(dp1876
g73
(dp1877
sg82
g1388
sg75
(lp1878
g68
(g89
g70
NtRp1879
(dp1880
g73
(dp1881
g93
g94
ssg82
g1875
sg75
(lp1882
S'server_name'
p1883
asbag68
(g89
g70
NtRp1884
(dp1885
g73
(dp1886
g100
g101
ssg82
g1875
sg75
(lp1887
S':'
asbag68
(g89
g70
NtRp1888
(dp1889
g73
(dp1890
sg82
g1875
sg75
(lp1891
g68
(g69
g70
NtRp1892
(dp1893
g73
(dp1894
g81
I4
ssg82
g1888
sg75
(lp1895
S'kiki'
p1896
asbasbasbag68
(g84
g70
NtRp1897
(dp1898
g73
(dp1899
sg82
g1388
sg75
(lp1900
g68
(g89
g70
NtRp1901
(dp1902
g73
(dp1903
g93
g94
ssg82
g1897
sg75
(lp1904
S'server_port'
p1905
asbag68
(g89
g70
NtRp1906
(dp1907
g73
(dp1908
g100
g101
ssg82
g1897
sg75
(lp1909
S':'
asbag68
(g89
g70
NtRp1910
(dp1911
g73
(dp1912
sg82
g1897
sg75
(lp1913
g68
(g69
g70
NtRp1914
(dp1915
g73
(dp1916
g81
I4
ssg82
g1910
sg75
(lp1917
S'8000'
p1918
asbasbasbag68
(g84
g70
NtRp1919
(dp1920
g73
(dp1921
sg82
g1388
sg75
(lp1922
g68
(g89
g70
NtRp1923
(dp1924
g73
(dp1925
g93
g94
ssg82
g1919
sg75
(lp1926
S'server_protocol'
p1927
asbag68
(g89
g70
NtRp1928
(dp1929
g73
(dp1930
g100
g101
ssg82
g1919
sg75
(lp1931
S':'
asbag68
(g89
g70
NtRp1932
(dp1933
g73
(dp1934
sg82
g1919
sg75
(lp1935
g68
(g69
g70
NtRp1936
(dp1937
g73
(dp1938
g81
I4
ssg82
g1932
sg75
(lp1939
S'HTTP/1.1'
p1940
asbasbasbag68
(g84
g70
NtRp1941
(dp1942
g73
(dp1943
sg82
g1388
sg75
(lp1944
g68
(g89
g70
NtRp1945
(dp1946
g73
(dp1947
g93
g94
ssg82
g1941
sg75
(lp1948
S'server_software'
p1949
asbag68
(g89
g70
NtRp1950
(dp1951
g73
(dp1952
g100
g101
ssg82
g1941
sg75
(lp1953
S':'
asbag68
(g89
g70
NtRp1954
(dp1955
g73
(dp1956
sg82
g1941
sg75
(lp1957
g68
(g69
g70
NtRp1958
(dp1959
g73
(dp1960
g81
I4
ssg82
g1954
sg75
(lp1961
S'Rocket 1.2.2'
p1962
asbasbasbag68
(g84
g70
NtRp1963
(dp1964
g73
(dp1965
sg82
g1388
sg75
(lp1966
g68
(g89
g70
NtRp1967
(dp1968
g73
(dp1969
g93
g94
ssg82
g1963
sg75
(lp1970
S'web2py_crontype'
p1971
asbag68
(g89
g70
NtRp1972
(dp1973
g73
(dp1974
g100
g101
ssg82
g1963
sg75
(lp1975
S':'
asbag68
(g89
g70
NtRp1976
(dp1977
g73
(dp1978
sg82
g1963
sg75
(lp1979
g68
(g69
g70
NtRp1980
(dp1981
g73
(dp1982
g81
I4
ssg82
g1976
sg75
(lp1983
S'hard'
p1984
asbasbasbag68
(g84
g70
NtRp1985
(dp1986
g73
(dp1987
sg82
g1388
sg75
(lp1988
g68
(g89
g70
NtRp1989
(dp1990
g73
(dp1991
g93
g94
ssg82
g1985
sg75
(lp1992
S'web2py_path'
p1993
asbag68
(g89
g70
NtRp1994
(dp1995
g73
(dp1996
g100
g101
ssg82
g1985
sg75
(lp1997
S':'
asbag68
(g89
g70
NtRp1998
(dp1999
g73
(dp2000
sg82
g1985
sg75
(lp2001
g68
(g69
g70
NtRp2002
(dp2003
g73
(dp2004
g81
I4
ssg82
g1998
sg75
(lp2005
g1435
asbasbasbag68
(g84
g70
NtRp2006
(dp2007
g73
(dp2008
sg82
g1388
sg75
(lp2009
g68
(g89
g70
NtRp2010
(dp2011
g73
(dp2012
g93
g94
ssg82
g2006
sg75
(lp2013
S'web2py_version'
p2014
asbag68
(g89
g70
NtRp2015
(dp2016
g73
(dp2017
g100
g101
ssg82
g2006
sg75
(lp2018
S':'
asbag68
(g89
g70
NtRp2019
(dp2020
g73
(dp2021
sg82
g2006
sg75
(lp2022
g68
(g69
g70
NtRp2023
(dp2024
g73
(dp2025
g81
I4
ssg82
g2019
sg75
(lp2026
S'        iersion 1.94.1 (2011-03-17 16:30:58)\n'
p2027
asbasbasbag68
(g84
g70
NtRp2028
(dp2029
g73
(dp2030
sg82
g1388
sg75
(lp2031
g68
(g89
g70
NtRp2032
(dp2033
g73
(dp2034
g93
g94
ssg82
g2028
sg75
(lp2035
S'wsgi_errors'
p2036
asbag68
(g89
g70
NtRp2037
(dp2038
g73
(dp2039
g100
g101
ssg82
g2028
sg75
(lp2040
S':'
asbag68
(g89
g70
NtRp2041
(dp2042
g73
(dp2043
sg82
g2028
sg75
(lp2044
g68
(g69
g70
NtRp2045
(dp2046
g73
(dp2047
g81
I4
ssg82
g2041
sg75
(lp2048
S"<open file '<stderr>', mode 'w' at 0x7f8a1045a1e0>"
p2049
asbasbasbag68
(g84
g70
NtRp2050
(dp2051
g73
(dp2052
sg82
g1388
sg75
(lp2053
g68
(g89
g70
NtRp2054
(dp2055
g73
(dp2056
g93
g94
ssg82
g2050
sg75
(lp2057
S'wsgi_file_wrapper'
p2058
asbag68
(g89
g70
NtRp2059
(dp2060
g73
(dp2061
g100
g101
ssg82
g2050
sg75
(lp2062
S':'
asbag68
(g89
g70
NtRp2063
(dp2064
g73
(dp2065
sg82
g2050
sg75
(lp2066
g68
(g69
g70
NtRp2067
(dp2068
g73
(dp2069
g81
I4
ssg82
g2063
sg75
(lp2070
S'<class gluon.rocket.FileWrapper at 0x1e6f3b0>'
p2071
asbasbasbag68
(g84
g70
NtRp2072
(dp2073
g73
(dp2074
sg82
g1388
sg75
(lp2075
g68
(g89
g70
NtRp2076
(dp2077
g73
(dp2078
g93
g94
ssg82
g2072
sg75
(lp2079
S'wsgi_input'
p2080
asbag68
(g89
g70
NtRp2081
(dp2082
g73
(dp2083
g100
g101
ssg82
g2072
sg75
(lp2084
S':'
asbag68
(g89
g70
NtRp2085
(dp2086
g73
(dp2087
sg82
g2072
sg75
(lp2088
g68
(g69
g70
NtRp2089
(dp2090
g73
(dp2091
g81
I4
ssg82
g2085
sg75
(lp2092
S'<socket._fileobject object at 0x200b9d0>'
p2093
asbasbasbag68
(g84
g70
NtRp2094
(dp2095
g73
(dp2096
sg82
g1388
sg75
(lp2097
g68
(g89
g70
NtRp2098
(dp2099
g73
(dp2100
g93
g94
ssg82
g2094
sg75
(lp2101
S'wsgi_multiprocess'
p2102
asbag68
(g89
g70
NtRp2103
(dp2104
g73
(dp2105
g100
g101
ssg82
g2094
sg75
(lp2106
S':'
asbag68
(g89
g70
NtRp2107
(dp2108
g73
(dp2109
sg82
g2094
sg75
(lp2110
g68
(g69
g70
NtRp2111
(dp2112
g73
(dp2113
g81
I4
ssg82
g2107
sg75
(lp2114
g111
asbasbasbag68
(g84
g70
NtRp2115
(dp2116
g73
(dp2117
sg82
g1388
sg75
(lp2118
g68
(g89
g70
NtRp2119
(dp2120
g73
(dp2121
g93
g94
ssg82
g2115
sg75
(lp2122
S'wsgi_multithread'
p2123
asbag68
(g89
g70
NtRp2124
(dp2125
g73
(dp2126
g100
g101
ssg82
g2115
sg75
(lp2127
S':'
asbag68
(g89
g70
NtRp2128
(dp2129
g73
(dp2130
sg82
g2115
sg75
(lp2131
g68
(g69
g70
NtRp2132
(dp2133
g73
(dp2134
g81
I4
ssg82
g2128
sg75
(lp2135
S'True'
p2136
asbasbasbag68
(g84
g70
NtRp2137
(dp2138
g73
(dp2139
sg82
g1388
sg75
(lp2140
g68
(g89
g70
NtRp2141
(dp2142
g73
(dp2143
g93
g94
ssg82
g2137
sg75
(lp2144
S'wsgi_run_once'
p2145
asbag68
(g89
g70
NtRp2146
(dp2147
g73
(dp2148
g100
g101
ssg82
g2137
sg75
(lp2149
S':'
asbag68
(g89
g70
NtRp2150
(dp2151
g73
(dp2152
sg82
g2137
sg75
(lp2153
g68
(g69
g70
NtRp2154
(dp2155
g73
(dp2156
g81
I4
ssg82
g2150
sg75
(lp2157
g111
asbasbasbag68
(g84
g70
NtRp2158
(dp2159
g73
(dp2160
sg82
g1388
sg75
(lp2161
g68
(g89
g70
NtRp2162
(dp2163
g73
(dp2164
g93
g94
ssg82
g2158
sg75
(lp2165
S'wsgi_url_scheme'
p2166
asbag68
(g89
g70
NtRp2167
(dp2168
g73
(dp2169
g100
g101
ssg82
g2158
sg75
(lp2170
S':'
asbag68
(g89
g70
NtRp2171
(dp2172
g73
(dp2173
sg82
g2158
sg75
(lp2174
g68
(g69
g70
NtRp2175
(dp2176
g73
(dp2177
g81
I4
ssg82
g2171
sg75
(lp2178
S'http'
p2179
asbasbasbag68
(g84
g70
NtRp2180
(dp2181
g73
(dp2182
sg82
g1388
sg75
(lp2183
g68
(g89
g70
NtRp2184
(dp2185
g73
(dp2186
g93
g94
ssg82
g2180
sg75
(lp2187
S'wsgi_version'
p2188
asbag68
(g89
g70
NtRp2189
(dp2190
g73
(dp2191
g100
g101
ssg82
g2180
sg75
(lp2192
S':'
asbag68
(g89
g70
NtRp2193
(dp2194
g73
(dp2195
sg82
g2180
sg75
(lp2196
g68
(g69
g70
NtRp2197
(dp2198
g73
(dp2199
g81
I4
ssg82
g2193
sg75
(lp2200
g68
(g77
g70
NtRp2201
(dp2202
g73
(dp2203
g81
I3
ssg82
Nsg75
(lp2204
g68
(g84
g70
NtRp2205
(dp2206
g73
(dp2207
sg82
g2201
sg75
(lp2208
g68
(g89
g70
NtRp2209
(dp2210
g73
(dp2211
sg82
g2205
sg75
(lp2212
g68
(g69
g70
NtRp2213
(dp2214
g73
(dp2215
g81
I3
ssg82
g2209
sg75
(lp2216
S'1'
asbasbasbag68
(g84
g70
NtRp2217
(dp2218
g73
(dp2219
sg82
g2201
sg75
(lp2220
g68
(g89
g70
NtRp2221
(dp2222
g73
(dp2223
sg82
g2217
sg75
(lp2224
g68
(g69
g70
NtRp2225
(dp2226
g73
(dp2227
g81
I3
ssg82
g2221
sg75
(lp2228
S'0'
asbasbasbasbasbasbasbasbasbasbasbag68
(g84
g70
NtRp2229
(dp2230
g73
(dp2231
sg82
g78
sg75
(lp2232
g68
(g89
g70
NtRp2233
(dp2234
g73
(dp2235
g93
g94
ssg82
g2229
sg75
(lp2236
S'extension'
p2237
asbag68
(g89
g70
NtRp2238
(dp2239
g73
(dp2240
g100
g101
ssg82
g2229
sg75
(lp2241
S':'
asbag68
(g89
g70
NtRp2242
(dp2243
g73
(dp2244
sg82
g2229
sg75
(lp2245
g68
(g69
g70
NtRp2246
(dp2247
g73
(dp2248
g81
I5
ssg82
g2242
sg75
(lp2249
S'html'
p2250
asbasbasbag68
(g84
g70
NtRp2251
(dp2252
g73
(dp2253
sg82
g78
sg75
(lp2254
g68
(g89
g70
NtRp2255
(dp2256
g73
(dp2257
g93
g94
ssg82
g2251
sg75
(lp2258
S'folder'
p2259
asbag68
(g89
g70
NtRp2260
(dp2261
g73
(dp2262
g100
g101
ssg82
g2251
sg75
(lp2263
S':'
asbag68
(g89
g70
NtRp2264
(dp2265
g73
(dp2266
sg82
g2251
sg75
(lp2267
g68
(g69
g70
NtRp2268
(dp2269
g73
(dp2270
g81
I5
ssg82
g2264
sg75
(lp2271
S'/home/marco/proyectos/web2py-trunk/applications/mvstore/'
p2272
asbasbasbag68
(g84
g70
NtRp2273
(dp2274
g73
(dp2275
sg82
g78
sg75
(lp2276
g68
(g89
g70
NtRp2277
(dp2278
g73
(dp2279
g93
g94
ssg82
g2273
sg75
(lp2280
S'function'
p2281
asbag68
(g89
g70
NtRp2282
(dp2283
g73
(dp2284
g100
g101
ssg82
g2273
sg75
(lp2285
S':'
asbag68
(g89
g70
NtRp2286
(dp2287
g73
(dp2288
sg82
g2273
sg75
(lp2289
g68
(g69
g70
NtRp2290
(dp2291
g73
(dp2292
g81
I5
ssg82
g2286
sg75
(lp2293
S'prestamos'
p2294
asbasbasbag68
(g84
g70
NtRp2295
(dp2296
g73
(dp2297
sg82
g78
sg75
(lp2298
g68
(g89
g70
NtRp2299
(dp2300
g73
(dp2301
g93
g94
ssg82
g2295
sg75
(lp2302
S'get_vars'
p2303
asbag68
(g89
g70
NtRp2304
(dp2305
g73
(dp2306
g100
g101
ssg82
g2295
sg75
(lp2307
S':'
asbag68
(g89
g70
NtRp2308
(dp2309
g73
(dp2310
sg82
g2295
sg75
(lp2311
g68
(g69
g70
NtRp2312
(dp2313
g73
(dp2314
g81
I5
ssg82
g2308
sg75
(lp2315
g68
(g77
g70
NtRp2316
(dp2317
g73
(dp2318
g81
I4
ssg82
Nsg75
(lp2319
sbasbasbasbag68
(g84
g70
NtRp2320
(dp2321
g73
(dp2322
sg82
g78
sg75
(lp2323
g68
(g89
g70
NtRp2324
(dp2325
g73
(dp2326
g93
g94
ssg82
g2320
sg75
(lp2327
S'is_https'
p2328
asbag68
(g89
g70
NtRp2329
(dp2330
g73
(dp2331
g100
g101
ssg82
g2320
sg75
(lp2332
S':'
asbag68
(g89
g70
NtRp2333
(dp2334
g73
(dp2335
sg82
g2320
sg75
(lp2336
g68
(g69
g70
NtRp2337
(dp2338
g73
(dp2339
g81
I5
ssg82
g2333
sg75
(lp2340
g111
asbasbasbag68
(g84
g70
NtRp2341
(dp2342
g73
(dp2343
sg82
g78
sg75
(lp2344
g68
(g89
g70
NtRp2345
(dp2346
g73
(dp2347
g93
g94
ssg82
g2341
sg75
(lp2348
S'is_local'
p2349
asbag68
(g89
g70
NtRp2350
(dp2351
g73
(dp2352
g100
g101
ssg82
g2341
sg75
(lp2353
S':'
asbag68
(g89
g70
NtRp2354
(dp2355
g73
(dp2356
sg82
g2341
sg75
(lp2357
g68
(g69
g70
NtRp2358
(dp2359
g73
(dp2360
g81
I5
ssg82
g2354
sg75
(lp2361
g2136
asbasbasbag68
(g84
g70
NtRp2362
(dp2363
g73
(dp2364
sg82
g78
sg75
(lp2365
g68
(g89
g70
NtRp2366
(dp2367
g73
(dp2368
g93
g94
ssg82
g2362
sg75
(lp2369
S'is_restful'
p2370
asbag68
(g89
g70
NtRp2371
(dp2372
g73
(dp2373
g100
g101
ssg82
g2362
sg75
(lp2374
S':'
asbag68
(g89
g70
NtRp2375
(dp2376
g73
(dp2377
sg82
g2362
sg75
(lp2378
g68
(g69
g70
NtRp2379
(dp2380
g73
(dp2381
g81
I5
ssg82
g2375
sg75
(lp2382
g111
asbasbasbag68
(g84
g70
NtRp2383
(dp2384
g73
(dp2385
sg82
g78
sg75
(lp2386
g68
(g89
g70
NtRp2387
(dp2388
g73
(dp2389
g93
g94
ssg82
g2383
sg75
(lp2390
S'now'
p2391
asbag68
(g89
g70
NtRp2392
(dp2393
g73
(dp2394
g100
g101
ssg82
g2383
sg75
(lp2395
S':'
asbag68
(g89
g70
NtRp2396
(dp2397
g73
(dp2398
sg82
g2383
sg75
(lp2399
g68
(g69
g70
NtRp2400
(dp2401
g73
(dp2402
g81
I5
ssg82
g2396
sg75
(lp2403
S'datetime.datetime(2011, 6, 18, 0, 30, 8, 255928)'
p2404
asbasbasbag68
(g84
g70
NtRp2405
(dp2406
g73
(dp2407
sg82
g78
sg75
(lp2408
g68
(g89
g70
NtRp2409
(dp2410
g73
(dp2411
g93
g94
ssg82
g2405
sg75
(lp2412
S'post_vars'
p2413
asbag68
(g89
g70
NtRp2414
(dp2415
g73
(dp2416
g100
g101
ssg82
g2405
sg75
(lp2417
S':'
asbag68
(g89
g70
NtRp2418
(dp2419
g73
(dp2420
sg82
g2405
sg75
(lp2421
g68
(g69
g70
NtRp2422
(dp2423
g73
(dp2424
g81
I5
ssg82
g2418
sg75
(lp2425
g68
(g77
g70
NtRp2426
(dp2427
g73
(dp2428
g81
I4
ssg82
Nsg75
(lp2429
sbasbasbasbag68
(g84
g70
NtRp2430
(dp2431
g73
(dp2432
sg82
g78
sg75
(lp2433
g68
(g89
g70
NtRp2434
(dp2435
g73
(dp2436
g93
g94
ssg82
g2430
sg75
(lp2437
S'url'
p2438
asbag68
(g89
g70
NtRp2439
(dp2440
g73
(dp2441
g100
g101
ssg82
g2430
sg75
(lp2442
S':'
asbag68
(g89
g70
NtRp2443
(dp2444
g73
(dp2445
sg82
g2430
sg75
(lp2446
g68
(g69
g70
NtRp2447
(dp2448
g73
(dp2449
g81
I5
ssg82
g2443
sg75
(lp2450
S'/mvstore/default/prestamos'
p2451
asbasbasbag68
(g84
g70
NtRp2452
(dp2453
g73
(dp2454
sg82
g78
sg75
(lp2455
g68
(g89
g70
NtRp2456
(dp2457
g73
(dp2458
g93
g94
ssg82
g2452
sg75
(lp2459
S'uuid'
p2460
asbag68
(g89
g70
NtRp2461
(dp2462
g73
(dp2463
g100
g101
ssg82
g2452
sg75
(lp2464
S':'
asbag68
(g89
g70
NtRp2465
(dp2466
g73
(dp2467
sg82
g2452
sg75
(lp2468
g68
(g69
g70
NtRp2469
(dp2470
g73
(dp2471
g81
I5
ssg82
g2465
sg75
(lp2472
S'mvstore/127.0.0.1.2011-06-18.00-30-08.be1baeba-3e19-44db-b2dd-63e1fee6f0e4'
p2473
asbasbasbag68
(g84
g70
NtRp2474
(dp2475
g73
(dp2476
sg82
g78
sg75
(lp2477
g68
(g89
g70
NtRp2478
(dp2479
g73
(dp2480
g93
g94
ssg82
g2474
sg75
(lp2481
S'vars'
p2482
asbag68
(g89
g70
NtRp2483
(dp2484
g73
(dp2485
g100
g101
ssg82
g2474
sg75
(lp2486
S':'
asbag68
(g89
g70
NtRp2487
(dp2488
g73
(dp2489
sg82
g2474
sg75
(lp2490
g68
(g69
g70
NtRp2491
(dp2492
g73
(dp2493
g81
I5
ssg82
g2487
sg75
(lp2494
g68
(g77
g70
NtRp2495
(dp2496
g73
(dp2497
g81
I4
ssg82
Nsg75
(lp2498
sbasbasbasbag68
(g84
g70
NtRp2499
(dp2500
g73
(dp2501
sg82
g78
sg75
(lp2502
g68
(g89
g70
NtRp2503
(dp2504
g73
(dp2505
g93
g94
ssg82
g2499
sg75
(lp2506
S'wsgi'
p2507
asbag68
(g89
g70
NtRp2508
(dp2509
g73
(dp2510
g100
g101
ssg82
g2499
sg75
(lp2511
S':'
asbag68
(g89
g70
NtRp2512
(dp2513
g73
(dp2514
sg82
g2499
sg75
(lp2515
g68
(g69
g70
NtRp2516
(dp2517
g73
(dp2518
g81
I5
ssg82
g2512
sg75
(lp2519
g68
(g77
g70
NtRp2520
(dp2521
g73
(dp2522
g81
I4
ssg82
Nsg75
(lp2523
g68
(g84
g70
NtRp2524
(dp2525
g73
(dp2526
sg82
g2520
sg75
(lp2527
g68
(g89
g70
NtRp2528
(dp2529
g73
(dp2530
g93
g94
ssg82
g2524
sg75
(lp2531
S'environ'
p2532
asbag68
(g89
g70
NtRp2533
(dp2534
g73
(dp2535
g100
g101
ssg82
g2524
sg75
(lp2536
S':'
asbag68
(g89
g70
NtRp2537
(dp2538
g73
(dp2539
sg82
g2524
sg75
(lp2540
g68
(g69
g70
NtRp2541
(dp2542
g73
(dp2543
g81
I4
ssg82
g2537
sg75
(lp2544
g68
(g77
g70
NtRp2545
(dp2546
g73
(dp2547
g81
I3
ssg82
Nsg75
(lp2548
g68
(g84
g70
NtRp2549
(dp2550
g73
(dp2551
sg82
g2545
sg75
(lp2552
g68
(g89
g70
NtRp2553
(dp2554
g73
(dp2555
g93
g94
ssg82
g2549
sg75
(lp2556
S'HTTP_ACCEPT'
p2557
asbag68
(g89
g70
NtRp2558
(dp2559
g73
(dp2560
g100
g101
ssg82
g2549
sg75
(lp2561
S':'
asbag68
(g89
g70
NtRp2562
(dp2563
g73
(dp2564
sg82
g2549
sg75
(lp2565
g68
(g69
g70
NtRp2566
(dp2567
g73
(dp2568
g81
I3
ssg82
g2562
sg75
(lp2569
g1569
asbasbasbag68
(g84
g70
NtRp2570
(dp2571
g73
(dp2572
sg82
g2545
sg75
(lp2573
g68
(g89
g70
NtRp2574
(dp2575
g73
(dp2576
g93
g94
ssg82
g2570
sg75
(lp2577
S'HTTP_ACCEPT_CHARSET'
p2578
asbag68
(g89
g70
NtRp2579
(dp2580
g73
(dp2581
g100
g101
ssg82
g2570
sg75
(lp2582
S':'
asbag68
(g89
g70
NtRp2583
(dp2584
g73
(dp2585
sg82
g2570
sg75
(lp2586
g68
(g69
g70
NtRp2587
(dp2588
g73
(dp2589
g81
I3
ssg82
g2583
sg75
(lp2590
g1591
asbasbasbag68
(g84
g70
NtRp2591
(dp2592
g73
(dp2593
sg82
g2545
sg75
(lp2594
g68
(g89
g70
NtRp2595
(dp2596
g73
(dp2597
g93
g94
ssg82
g2591
sg75
(lp2598
S'HTTP_ACCEPT_ENCODING'
p2599
asbag68
(g89
g70
NtRp2600
(dp2601
g73
(dp2602
g100
g101
ssg82
g2591
sg75
(lp2603
S':'
asbag68
(g89
g70
NtRp2604
(dp2605
g73
(dp2606
sg82
g2591
sg75
(lp2607
g68
(g69
g70
NtRp2608
(dp2609
g73
(dp2610
g81
I3
ssg82
g2604
sg75
(lp2611
g1613
asbasbasbag68
(g84
g70
NtRp2612
(dp2613
g73
(dp2614
sg82
g2545
sg75
(lp2615
g68
(g89
g70
NtRp2616
(dp2617
g73
(dp2618
g93
g94
ssg82
g2612
sg75
(lp2619
S'HTTP_ACCEPT_LANGUAGE'
p2620
asbag68
(g89
g70
NtRp2621
(dp2622
g73
(dp2623
g100
g101
ssg82
g2612
sg75
(lp2624
S':'
asbag68
(g89
g70
NtRp2625
(dp2626
g73
(dp2627
sg82
g2612
sg75
(lp2628
g68
(g69
g70
NtRp2629
(dp2630
g73
(dp2631
g81
I3
ssg82
g2625
sg75
(lp2632
g1635
asbasbasbag68
(g84
g70
NtRp2633
(dp2634
g73
(dp2635
sg82
g2545
sg75
(lp2636
g68
(g89
g70
NtRp2637
(dp2638
g73
(dp2639
g93
g94
ssg82
g2633
sg75
(lp2640
S'HTTP_CONNECTION'
p2641
asbag68
(g89
g70
NtRp2642
(dp2643
g73
(dp2644
g100
g101
ssg82
g2633
sg75
(lp2645
S':'
asbag68
(g89
g70
NtRp2646
(dp2647
g73
(dp2648
sg82
g2633
sg75
(lp2649
g68
(g69
g70
NtRp2650
(dp2651
g73
(dp2652
g81
I3
ssg82
g2646
sg75
(lp2653
g1657
asbasbasbag68
(g84
g70
NtRp2654
(dp2655
g73
(dp2656
sg82
g2545
sg75
(lp2657
g68
(g89
g70
NtRp2658
(dp2659
g73
(dp2660
g93
g94
ssg82
g2654
sg75
(lp2661
S'HTTP_COOKIE'
p2662
asbag68
(g89
g70
NtRp2663
(dp2664
g73
(dp2665
g100
g101
ssg82
g2654
sg75
(lp2666
S':'
asbag68
(g89
g70
NtRp2667
(dp2668
g73
(dp2669
sg82
g2654
sg75
(lp2670
g68
(g69
g70
NtRp2671
(dp2672
g73
(dp2673
g81
I3
ssg82
g2667
sg75
(lp2674
g1679
asbasbasbag68
(g84
g70
NtRp2675
(dp2676
g73
(dp2677
sg82
g2545
sg75
(lp2678
g68
(g89
g70
NtRp2679
(dp2680
g73
(dp2681
g93
g94
ssg82
g2675
sg75
(lp2682
S'HTTP_HOST'
p2683
asbag68
(g89
g70
NtRp2684
(dp2685
g73
(dp2686
g100
g101
ssg82
g2675
sg75
(lp2687
S':'
asbag68
(g89
g70
NtRp2688
(dp2689
g73
(dp2690
sg82
g2675
sg75
(lp2691
g68
(g69
g70
NtRp2692
(dp2693
g73
(dp2694
g81
I3
ssg82
g2688
sg75
(lp2695
g1701
asbasbasbag68
(g84
g70
NtRp2696
(dp2697
g73
(dp2698
sg82
g2545
sg75
(lp2699
g68
(g89
g70
NtRp2700
(dp2701
g73
(dp2702
g93
g94
ssg82
g2696
sg75
(lp2703
S'HTTP_REFERER'
p2704
asbag68
(g89
g70
NtRp2705
(dp2706
g73
(dp2707
g100
g101
ssg82
g2696
sg75
(lp2708
S':'
asbag68
(g89
g70
NtRp2709
(dp2710
g73
(dp2711
sg82
g2696
sg75
(lp2712
g68
(g69
g70
NtRp2713
(dp2714
g73
(dp2715
g81
I3
ssg82
g2709
sg75
(lp2716
g1723
asbasbasbag68
(g84
g70
NtRp2717
(dp2718
g73
(dp2719
sg82
g2545
sg75
(lp2720
g68
(g89
g70
NtRp2721
(dp2722
g73
(dp2723
g93
g94
ssg82
g2717
sg75
(lp2724
S'HTTP_USER_AGENT'
p2725
asbag68
(g89
g70
NtRp2726
(dp2727
g73
(dp2728
g100
g101
ssg82
g2717
sg75
(lp2729
S':'
asbag68
(g89
g70
NtRp2730
(dp2731
g73
(dp2732
sg82
g2717
sg75
(lp2733
g68
(g69
g70
NtRp2734
(dp2735
g73
(dp2736
g81
I3
ssg82
g2730
sg75
(lp2737
g1745
asbasbasbag68
(g84
g70
NtRp2738
(dp2739
g73
(dp2740
sg82
g2545
sg75
(lp2741
g68
(g89
g70
NtRp2742
(dp2743
g73
(dp2744
g93
g94
ssg82
g2738
sg75
(lp2745
S'PATH_INFO'
p2746
asbag68
(g89
g70
NtRp2747
(dp2748
g73
(dp2749
g100
g101
ssg82
g2738
sg75
(lp2750
S':'
asbag68
(g89
g70
NtRp2751
(dp2752
g73
(dp2753
sg82
g2738
sg75
(lp2754
g68
(g69
g70
NtRp2755
(dp2756
g73
(dp2757
g81
I3
ssg82
g2751
sg75
(lp2758
g1767
asbasbasbag68
(g84
g70
NtRp2759
(dp2760
g73
(dp2761
sg82
g2545
sg75
(lp2762
g68
(g89
g70
NtRp2763
(dp2764
g73
(dp2765
g93
g94
ssg82
g2759
sg75
(lp2766
S'QUERY_STRING'
p2767
asbag68
(g89
g70
NtRp2768
(dp2769
g73
(dp2770
g100
g101
ssg82
g2759
sg75
(lp2771
S':'
asbag68
(g89
g70
NtRp2772
(dp2773
g73
(dp2774
sg82
g2759
sg75
(lp2775
g68
(g69
g70
NtRp2776
(dp2777
g73
(dp2778
g81
I3
ssg82
g2772
sg75
(lp2779
S''
asbasbasbag68
(g84
g70
NtRp2780
(dp2781
g73
(dp2782
sg82
g2545
sg75
(lp2783
g68
(g89
g70
NtRp2784
(dp2785
g73
(dp2786
g93
g94
ssg82
g2780
sg75
(lp2787
S'REMOTE_ADDR'
p2788
asbag68
(g89
g70
NtRp2789
(dp2790
g73
(dp2791
g100
g101
ssg82
g2780
sg75
(lp2792
S':'
asbag68
(g89
g70
NtRp2793
(dp2794
g73
(dp2795
sg82
g2780
sg75
(lp2796
g68
(g69
g70
NtRp2797
(dp2798
g73
(dp2799
g81
I3
ssg82
g2793
sg75
(lp2800
g201
asbasbasbag68
(g84
g70
NtRp2801
(dp2802
g73
(dp2803
sg82
g2545
sg75
(lp2804
g68
(g89
g70
NtRp2805
(dp2806
g73
(dp2807
g93
g94
ssg82
g2801
sg75
(lp2808
S'REMOTE_PORT'
p2809
asbag68
(g89
g70
NtRp2810
(dp2811
g73
(dp2812
g100
g101
ssg82
g2801
sg75
(lp2813
S':'
asbag68
(g89
g70
NtRp2814
(dp2815
g73
(dp2816
sg82
g2801
sg75
(lp2817
g68
(g69
g70
NtRp2818
(dp2819
g73
(dp2820
g81
I3
ssg82
g2814
sg75
(lp2821
g1831
asbasbasbag68
(g84
g70
NtRp2822
(dp2823
g73
(dp2824
sg82
g2545
sg75
(lp2825
g68
(g89
g70
NtRp2826
(dp2827
g73
(dp2828
g93
g94
ssg82
g2822
sg75
(lp2829
S'REQUEST_METHOD'
p2830
asbag68
(g89
g70
NtRp2831
(dp2832
g73
(dp2833
g100
g101
ssg82
g2822
sg75
(lp2834
S':'
asbag68
(g89
g70
NtRp2835
(dp2836
g73
(dp2837
sg82
g2822
sg75
(lp2838
g68
(g69
g70
NtRp2839
(dp2840
g73
(dp2841
g81
I3
ssg82
g2835
sg75
(lp2842
g1853
asbasbasbag68
(g84
g70
NtRp2843
(dp2844
g73
(dp2845
sg82
g2545
sg75
(lp2846
g68
(g89
g70
NtRp2847
(dp2848
g73
(dp2849
g93
g94
ssg82
g2843
sg75
(lp2850
S'SCRIPT_NAME'
p2851
asbag68
(g89
g70
NtRp2852
(dp2853
g73
(dp2854
g100
g101
ssg82
g2843
sg75
(lp2855
S':'
asbag68
(g89
g70
NtRp2856
(dp2857
g73
(dp2858
sg82
g2843
sg75
(lp2859
g68
(g69
g70
NtRp2860
(dp2861
g73
(dp2862
g81
I3
ssg82
g2856
sg75
(lp2863
S''
asbasbasbag68
(g84
g70
NtRp2864
(dp2865
g73
(dp2866
sg82
g2545
sg75
(lp2867
g68
(g89
g70
NtRp2868
(dp2869
g73
(dp2870
g93
g94
ssg82
g2864
sg75
(lp2871
S'SERVER_NAME'
p2872
asbag68
(g89
g70
NtRp2873
(dp2874
g73
(dp2875
g100
g101
ssg82
g2864
sg75
(lp2876
S':'
asbag68
(g89
g70
NtRp2877
(dp2878
g73
(dp2879
sg82
g2864
sg75
(lp2880
g68
(g69
g70
NtRp2881
(dp2882
g73
(dp2883
g81
I3
ssg82
g2877
sg75
(lp2884
g1896
asbasbasbag68
(g84
g70
NtRp2885
(dp2886
g73
(dp2887
sg82
g2545
sg75
(lp2888
g68
(g89
g70
NtRp2889
(dp2890
g73
(dp2891
g93
g94
ssg82
g2885
sg75
(lp2892
S'SERVER_PORT'
p2893
asbag68
(g89
g70
NtRp2894
(dp2895
g73
(dp2896
g100
g101
ssg82
g2885
sg75
(lp2897
S':'
asbag68
(g89
g70
NtRp2898
(dp2899
g73
(dp2900
sg82
g2885
sg75
(lp2901
g68
(g69
g70
NtRp2902
(dp2903
g73
(dp2904
g81
I3
ssg82
g2898
sg75
(lp2905
g1918
asbasbasbag68
(g84
g70
NtRp2906
(dp2907
g73
(dp2908
sg82
g2545
sg75
(lp2909
g68
(g89
g70
NtRp2910
(dp2911
g73
(dp2912
g93
g94
ssg82
g2906
sg75
(lp2913
S'SERVER_PROTOCOL'
p2914
asbag68
(g89
g70
NtRp2915
(dp2916
g73
(dp2917
g100
g101
ssg82
g2906
sg75
(lp2918
S':'
asbag68
(g89
g70
NtRp2919
(dp2920
g73
(dp2921
sg82
g2906
sg75
(lp2922
g68
(g69
g70
NtRp2923
(dp2924
g73
(dp2925
g81
I3
ssg82
g2919
sg75
(lp2926
g1940
asbasbasbag68
(g84
g70
NtRp2927
(dp2928
g73
(dp2929
sg82
g2545
sg75
(lp2930
g68
(g89
g70
NtRp2931
(dp2932
g73
(dp2933
g93
g94
ssg82
g2927
sg75
(lp2934
S'SERVER_SOFTWARE'
p2935
asbag68
(g89
g70
NtRp2936
(dp2937
g73
(dp2938
g100
g101
ssg82
g2927
sg75
(lp2939
S':'
asbag68
(g89
g70
NtRp2940
(dp2941
g73
(dp2942
sg82
g2927
sg75
(lp2943
g68
(g69
g70
NtRp2944
(dp2945
g73
(dp2946
g81
I3
ssg82
g2940
sg75
(lp2947
g1962
asbasbasbag68
(g84
g70
NtRp2948
(dp2949
g73
(dp2950
sg82
g2545
sg75
(lp2951
g68
(g89
g70
NtRp2952
(dp2953
g73
(dp2954
g93
g94
ssg82
g2948
sg75
(lp2955
S'wsgi.errors'
p2956
asbag68
(g89
g70
NtRp2957
(dp2958
g73
(dp2959
g100
g101
ssg82
g2948
sg75
(lp2960
S':'
asbag68
(g89
g70
NtRp2961
(dp2962
g73
(dp2963
sg82
g2948
sg75
(lp2964
g68
(g69
g70
NtRp2965
(dp2966
g73
(dp2967
g81
I3
ssg82
g2961
sg75
(lp2968
S"<open file '<stderr>', mode 'w' at 0x7f8a1045a1e0>"
p2969
asbasbasbag68
(g84
g70
NtRp2970
(dp2971
g73
(dp2972
sg82
g2545
sg75
(lp2973
g68
(g89
g70
NtRp2974
(dp2975
g73
(dp2976
g93
g94
ssg82
g2970
sg75
(lp2977
S'wsgi.file_wrapper'
p2978
asbag68
(g89
g70
NtRp2979
(dp2980
g73
(dp2981
g100
g101
ssg82
g2970
sg75
(lp2982
S':'
asbag68
(g89
g70
NtRp2983
(dp2984
g73
(dp2985
sg82
g2970
sg75
(lp2986
g68
(g69
g70
NtRp2987
(dp2988
g73
(dp2989
g81
I3
ssg82
g2983
sg75
(lp2990
S'<class gluon.rocket.FileWrapper at 0x1e6f3b0>'
p2991
asbasbasbag68
(g84
g70
NtRp2992
(dp2993
g73
(dp2994
sg82
g2545
sg75
(lp2995
g68
(g89
g70
NtRp2996
(dp2997
g73
(dp2998
g93
g94
ssg82
g2992
sg75
(lp2999
S'wsgi.input'
p3000
asbag68
(g89
g70
NtRp3001
(dp3002
g73
(dp3003
g100
g101
ssg82
g2992
sg75
(lp3004
S':'
asbag68
(g89
g70
NtRp3005
(dp3006
g73
(dp3007
sg82
g2992
sg75
(lp3008
g68
(g69
g70
NtRp3009
(dp3010
g73
(dp3011
g81
I3
ssg82
g3005
sg75
(lp3012
S'<cStringIO.StringO object at 0x37bf308>'
p3013
asbasbasbag68
(g84
g70
NtRp3014
(dp3015
g73
(dp3016
sg82
g2545
sg75
(lp3017
g68
(g89
g70
NtRp3018
(dp3019
g73
(dp3020
g93
g94
ssg82
g3014
sg75
(lp3021
S'wsgi.multiprocess'
p3022
asbag68
(g89
g70
NtRp3023
(dp3024
g73
(dp3025
g100
g101
ssg82
g3014
sg75
(lp3026
S':'
asbag68
(g89
g70
NtRp3027
(dp3028
g73
(dp3029
sg82
g3014
sg75
(lp3030
g68
(g69
g70
NtRp3031
(dp3032
g73
(dp3033
g81
I3
ssg82
g3027
sg75
(lp3034
g111
asbasbasbag68
(g84
g70
NtRp3035
(dp3036
g73
(dp3037
sg82
g2545
sg75
(lp3038
g68
(g89
g70
NtRp3039
(dp3040
g73
(dp3041
g93
g94
ssg82
g3035
sg75
(lp3042
S'wsgi.multithread'
p3043
asbag68
(g89
g70
NtRp3044
(dp3045
g73
(dp3046
g100
g101
ssg82
g3035
sg75
(lp3047
S':'
asbag68
(g89
g70
NtRp3048
(dp3049
g73
(dp3050
sg82
g3035
sg75
(lp3051
g68
(g69
g70
NtRp3052
(dp3053
g73
(dp3054
g81
I3
ssg82
g3048
sg75
(lp3055
g2136
asbasbasbag68
(g84
g70
NtRp3056
(dp3057
g73
(dp3058
sg82
g2545
sg75
(lp3059
g68
(g89
g70
NtRp3060
(dp3061
g73
(dp3062
g93
g94
ssg82
g3056
sg75
(lp3063
S'wsgi.run_once'
p3064
asbag68
(g89
g70
NtRp3065
(dp3066
g73
(dp3067
g100
g101
ssg82
g3056
sg75
(lp3068
S':'
asbag68
(g89
g70
NtRp3069
(dp3070
g73
(dp3071
sg82
g3056
sg75
(lp3072
g68
(g69
g70
NtRp3073
(dp3074
g73
(dp3075
g81
I3
ssg82
g3069
sg75
(lp3076
g111
asbasbasbag68
(g84
g70
NtRp3077
(dp3078
g73
(dp3079
sg82
g2545
sg75
(lp3080
g68
(g89
g70
NtRp3081
(dp3082
g73
(dp3083
g93
g94
ssg82
g3077
sg75
(lp3084
S'wsgi.url_scheme'
p3085
asbag68
(g89
g70
NtRp3086
(dp3087
g73
(dp3088
g100
g101
ssg82
g3077
sg75
(lp3089
S':'
asbag68
(g89
g70
NtRp3090
(dp3091
g73
(dp3092
sg82
g3077
sg75
(lp3093
g68
(g69
g70
NtRp3094
(dp3095
g73
(dp3096
g81
I3
ssg82
g3090
sg75
(lp3097
g2179
asbasbasbag68
(g84
g70
NtRp3098
(dp3099
g73
(dp3100
sg82
g2545
sg75
(lp3101
g68
(g89
g70
NtRp3102
(dp3103
g73
(dp3104
g93
g94
ssg82
g3098
sg75
(lp3105
S'wsgi.version'
p3106
asbag68
(g89
g70
NtRp3107
(dp3108
g73
(dp3109
g100
g101
ssg82
g3098
sg75
(lp3110
S':'
asbag68
(g89
g70
NtRp3111
(dp3112
g73
(dp3113
sg82
g3098
sg75
(lp3114
g68
(g69
g70
NtRp3115
(dp3116
g73
(dp3117
g81
I3
ssg82
g3111
sg75
(lp3118
S'1'
asbasbasbasbasbasbasbasbasbasbasbasbasbsS'frames'
p3119
(lp3120
(dp3121
S'file'
p3122
S'/home/marco/proyectos/web2py-trunk/gluon/restricted.py'
p3123
sS'dump'
p3124
(dp3125
S'environment'
p3126
S"{'A': <class 'gluon.html.A'>, 'Auth': <class 'gluon.tools.Auth'>, 'B': <class 'gluon.html.B'>, 'BEAUTIFY': <class 'gluon.html.BEAUTIFY'>, 'BODY': <class 'gluon.html.BODY'>, 'BR': <class 'gluon.html.BR'>, 'BUTTON': <class 'gluon.html.BUTTON'>, 'CENTER': <class 'gluon.html.CENTER'>, 'CLEANUP': <class 'gluon.validators.CLEANUP'>, 'CODE': <class 'gluon.html.CODE'>, ...}"
p3127
sS'ccode'
p3128
S'<code object <module> at 0x7f8a0023a8a0, file "/...trunk/applications/mvstore/models/db.py", line 8>'
p3129
ssS'lnum'
p3130
I192
sS'lines'
p3131
(dp3132
I192
S'        exec ccode in environment'
p3133
sI193
S'    except HTTP:'
p3134
sI194
S'        raise'
p3135
sI195
S'    except Exception:'
p3136
sI196
S'        # XXX Show exception in Wing IDE if running in debugger'
p3137
sI187
S'    try:'
p3138
sI188
S'        if type(code) == types.CodeType:'
p3139
sI189
S'            ccode = code'
p3140
sI190
S'        else:'
p3141
sI191
S'            ccode = compile2(code,layer)'
p3142
ssS'call'
p3143
S'(code="# -*- coding: utf-8 -*-\\n# this file is released ...),\\n        Field(\'devol\',\'datetime\'),\\n        )\\n\\n", environment={\'A\': <class \'gluon.html.A\'>, \'Auth\': <class \'gluon.tools.Auth\'>, \'B\': <class \'gluon.html.B\'>, \'BEAUTIFY\': <class \'gluon.html.BEAUTIFY\'>, \'BODY\': <class \'gluon.html.BODY\'>, \'BR\': <class \'gluon.html.BR\'>, \'BUTTON\': <class \'gluon.html.BUTTON\'>, \'CENTER\': <class \'gluon.html.CENTER\'>, \'CLEANUP\': <class \'gluon.validators.CLEANUP\'>, \'CODE\': <class \'gluon.html.CODE\'>, ...}, layer=\'/home/marco/proyectos/web2py-trunk/applications/mvstore/models/db.py\')'
p3144
sS'func'
p3145
S'restricted'
p3146
sa(dp3147
g3122
S'/home/marco/proyectos/web2py-trunk/applications/mvstore/models/db.py'
p3148
sg3124
(dp3149
S'Field'
p3150
S"<class 'gluon.dal.Field'>"
p3151
ssg3130
I113
sg3131
(dp3152
I106
S'        )'
p3153
sI107
S''
sI108
S"db.define_table('prestamos',"
p3154
sI109
S"        Field('titulo','peliculas'),"
p3155
sI110
S"        Field('cliente','clientes'),"
p3156
sI111
S"        Field('empleado','empleados'),"
p3157
sI112
S"        Field('fecha','datetime'),"
p3158
sI113
S"        Field('devol','datetime'),"
p3159
sI114
S'        )'
p3160
sI115
S''
ssg3143
S'()'
p3161
sg3145
S'<module>'
p3162
sa(dp3163
g3122
S'/home/marco/proyectos/web2py-trunk/gluon/dal.py'
p3164
sg3124
(dp3165
S'polymodel'
p3166
S'None'
p3167
ssg3130
I4235
sg3131
(dp3168
I4230
S"        if migrate or self._adapter.dbengine=='google:datastore':"
p3169
sI4231
S'            try:'
p3170
sI4232
S'                sql_locker.acquire()'
p3171
sI4233
S'                self._adapter.create_table(t,migrate=migrate,'
p3172
sI4234
S'                                           fake_migrate=fake_migrate,'
p3173
sI4235
S'                                           polymodel=polymodel)'
p3174
sI4236
S'            finally:'
p3175
sI4237
S'                sql_locker.release()'
p3176
sI4238
S'        else:'
p3177
sI4239
S'            t._dbt = None'
p3178
ssg3143
S"(self=<DAL {'auth_event': <Table {'origin': <gluon.dal...': <gluon.dal.Field object at 0x7f8a0022ac10>}>}>, tablename='prestamos', *fields=(<gluon.dal.Field object>, <gluon.dal.Field object>, <gluon.dal.Field object>, <gluon.dal.Field object>, <gluon.dal.Field object>), **args={})"
p3179
sg3145
S'define_table'
p3180
sa(dp3181
g3122
S'/home/marco/proyectos/web2py-trunk/gluon/dal.py'
p3182
sg3124
(dp3183
S'field.type'
p3184
S"'peliculas'"
p3185
sS'field'
p3186
S'<gluon.dal.Field object>'
p3187
sS'field.name'
p3188
S"'titulo'"
p3189
ssg3130
I554
sg3131
(dp3190
I549
S"                precision, scale = map(int,field.type[8:-1].split(','))"
p3191
sI550
S'                ftype = self.types[field.type[:7]] % \\'
p3192
sI551
S'                    dict(precision=precision,scale=scale)'
p3193
sI552
S'            elif not field.type in self.types:'
p3194
sI553
S"                raise SyntaxError, 'Field: unknown field type: %s for %s' % \\"
p3195
sI554
S'                    (field.type, field.name)'
p3196
sI555
S'            else:'
p3197
sI556
S'                ftype = self.types[field.type]\\'
p3198
sI557
S'                     % dict(length=field.length)'
p3199
sI558
S"            if not field.type.startswith('id') and not field.type.startswith('reference'):"
p3200
ssg3143
S"(self=<gluon.dal.SQLiteAdapter object>, table=<Table {'ALL': <gluon.dal.SQLALL object at 0x39d...0>, 'id': <gluon.dal.Field object at 0x39de110>}>, migrate=True, fake_migrate=False, polymodel=None)"
p3201
sg3145
S'create_table'
p3202
sasS'pyver'
p3203
S'Python 2.6.6: /usr/bin/python'
p3204
sS'session'
p3205
g68
(g69
g70
NtRp3206
(dp3207
g73
(dp3208
sg75
(lp3209
g68
(g77
g70
NtRp3210
(dp3211
g73
(dp3212
g81
I5
ssg82
Nsg75
(lp3213
sbasbsS'etype'
p3214
S"<type 'exceptions.SyntaxError'>"
p3215
sS'date'
p3216
S'Sat Jun 18 00:30:08 2011'
p3217
sS'response'
p3218
g68
(g69
g70
NtRp3219
(dp3220
g73
(dp3221
sg75
(lp3222
g68
(g77
g70
NtRp3223
(dp3224
g73
(dp3225
g81
I5
ssg82
Nsg75
(lp3226
g68
(g84
g70
NtRp3227
(dp3228
g73
(dp3229
sg82
g3223
sg75
(lp3230
g68
(g89
g70
NtRp3231
(dp3232
g73
(dp3233
g93
g94
ssg82
g3227
sg75
(lp3234
g166
asbag68
(g89
g70
NtRp3235
(dp3236
g73
(dp3237
g100
g101
ssg82
g3227
sg75
(lp3238
S':'
asbag68
(g89
g70
NtRp3239
(dp3240
g73
(dp3241
sg82
g3227
sg75
(lp3242
g68
(g69
g70
NtRp3243
(dp3244
g73
(dp3245
g81
I5
ssg82
g3239
sg75
(lp3246
S'<cStringIO.StringO object at 0x26723b0>'
p3247
asbasbasbag68
(g84
g70
NtRp3248
(dp3249
g73
(dp3250
sg82
g3223
sg75
(lp3251
g68
(g89
g70
NtRp3252
(dp3253
g73
(dp3254
g93
g94
ssg82
g3248
sg75
(lp3255
g232
asbag68
(g89
g70
NtRp3256
(dp3257
g73
(dp3258
g100
g101
ssg82
g3248
sg75
(lp3259
S':'
asbag68
(g89
g70
NtRp3260
(dp3261
g73
(dp3262
sg82
g3248
sg75
(lp3263
g68
(g69
g70
NtRp3264
(dp3265
g73
(dp3266
g81
I5
ssg82
g3260
sg75
(lp3267
g68
(g77
g70
NtRp3268
(dp3269
g73
(dp3270
g81
I4
ssg82
Nsg75
(lp3271
g68
(g84
g70
NtRp3272
(dp3273
g73
(dp3274
sg82
g3268
sg75
(lp3275
g68
(g89
g70
NtRp3276
(dp3277
g73
(dp3278
g93
g94
ssg82
g3272
sg75
(lp3279
S'session_id_mvstore'
p3280
asbag68
(g89
g70
NtRp3281
(dp3282
g73
(dp3283
g100
g101
ssg82
g3272
sg75
(lp3284
S':'
asbag68
(g89
g70
NtRp3285
(dp3286
g73
(dp3287
sg82
g3272
sg75
(lp3288
g68
(g69
g70
NtRp3289
(dp3290
g73
(dp3291
g81
I4
ssg82
g3285
sg75
(lp3292
g68
(g77
g70
NtRp3293
(dp3294
g73
(dp3295
g81
I3
ssg82
Nsg75
(lp3296
g68
(g84
g70
NtRp3297
(dp3298
g73
(dp3299
sg82
g3293
sg75
(lp3300
g68
(g89
g70
NtRp3301
(dp3302
g73
(dp3303
g93
g94
ssg82
g3297
sg75
(lp3304
g282
asbag68
(g89
g70
NtRp3305
(dp3306
g73
(dp3307
g100
g101
ssg82
g3297
sg75
(lp3308
S':'
asbag68
(g89
g70
NtRp3309
(dp3310
g73
(dp3311
sg82
g3297
sg75
(lp3312
g68
(g69
g70
NtRp3313
(dp3314
g73
(dp3315
g81
I3
ssg82
g3309
sg75
(lp3316
S''
asbasbasbag68
(g84
g70
NtRp3317
(dp3318
g73
(dp3319
sg82
g3293
sg75
(lp3320
g68
(g89
g70
NtRp3321
(dp3322
g73
(dp3323
g93
g94
ssg82
g3317
sg75
(lp3324
g303
asbag68
(g89
g70
NtRp3325
(dp3326
g73
(dp3327
g100
g101
ssg82
g3317
sg75
(lp3328
S':'
asbag68
(g89
g70
NtRp3329
(dp3330
g73
(dp3331
sg82
g3317
sg75
(lp3332
g68
(g69
g70
NtRp3333
(dp3334
g73
(dp3335
g81
I3
ssg82
g3329
sg75
(lp3336
S''
asbasbasbag68
(g84
g70
NtRp3337
(dp3338
g73
(dp3339
sg82
g3293
sg75
(lp3340
g68
(g89
g70
NtRp3341
(dp3342
g73
(dp3343
g93
g94
ssg82
g3337
sg75
(lp3344
g324
asbag68
(g89
g70
NtRp3345
(dp3346
g73
(dp3347
g100
g101
ssg82
g3337
sg75
(lp3348
S':'
asbag68
(g89
g70
NtRp3349
(dp3350
g73
(dp3351
sg82
g3337
sg75
(lp3352
g68
(g69
g70
NtRp3353
(dp3354
g73
(dp3355
g81
I3
ssg82
g3349
sg75
(lp3356
S''
asbasbasbag68
(g84
g70
NtRp3357
(dp3358
g73
(dp3359
sg82
g3293
sg75
(lp3360
g68
(g89
g70
NtRp3361
(dp3362
g73
(dp3363
g93
g94
ssg82
g3357
sg75
(lp3364
g345
asbag68
(g89
g70
NtRp3365
(dp3366
g73
(dp3367
g100
g101
ssg82
g3357
sg75
(lp3368
S':'
asbag68
(g89
g70
NtRp3369
(dp3370
g73
(dp3371
sg82
g3357
sg75
(lp3372
g68
(g69
g70
NtRp3373
(dp3374
g73
(dp3375
g81
I3
ssg82
g3369
sg75
(lp3376
S''
asbasbasbag68
(g84
g70
NtRp3377
(dp3378
g73
(dp3379
sg82
g3293
sg75
(lp3380
g68
(g89
g70
NtRp3381
(dp3382
g73
(dp3383
g93
g94
ssg82
g3377
sg75
(lp3384
g366
asbag68
(g89
g70
NtRp3385
(dp3386
g73
(dp3387
g100
g101
ssg82
g3377
sg75
(lp3388
S':'
asbag68
(g89
g70
NtRp3389
(dp3390
g73
(dp3391
sg82
g3377
sg75
(lp3392
g68
(g69
g70
NtRp3393
(dp3394
g73
(dp3395
g81
I3
ssg82
g3389
sg75
(lp3396
S''
asbasbasbag68
(g84
g70
NtRp3397
(dp3398
g73
(dp3399
sg82
g3293
sg75
(lp3400
g68
(g89
g70
NtRp3401
(dp3402
g73
(dp3403
g93
g94
ssg82
g3397
sg75
(lp3404
g387
asbag68
(g89
g70
NtRp3405
(dp3406
g73
(dp3407
g100
g101
ssg82
g3397
sg75
(lp3408
S':'
asbag68
(g89
g70
NtRp3409
(dp3410
g73
(dp3411
sg82
g3397
sg75
(lp3412
g68
(g69
g70
NtRp3413
(dp3414
g73
(dp3415
g81
I3
ssg82
g3409
sg75
(lp3416
S'/'
asbasbasbag68
(g84
g70
NtRp3417
(dp3418
g73
(dp3419
sg82
g3293
sg75
(lp3420
g68
(g89
g70
NtRp3421
(dp3422
g73
(dp3423
g93
g94
ssg82
g3417
sg75
(lp3424
g408
asbag68
(g89
g70
NtRp3425
(dp3426
g73
(dp3427
g100
g101
ssg82
g3417
sg75
(lp3428
S':'
asbag68
(g89
g70
NtRp3429
(dp3430
g73
(dp3431
sg82
g3417
sg75
(lp3432
g68
(g69
g70
NtRp3433
(dp3434
g73
(dp3435
g81
I3
ssg82
g3429
sg75
(lp3436
S''
asbasbasbag68
(g84
g70
NtRp3437
(dp3438
g73
(dp3439
sg82
g3293
sg75
(lp3440
g68
(g89
g70
NtRp3441
(dp3442
g73
(dp3443
g93
g94
ssg82
g3437
sg75
(lp3444
g429
asbag68
(g89
g70
NtRp3445
(dp3446
g73
(dp3447
g100
g101
ssg82
g3437
sg75
(lp3448
S':'
asbag68
(g89
g70
NtRp3449
(dp3450
g73
(dp3451
sg82
g3437
sg75
(lp3452
g68
(g69
g70
NtRp3453
(dp3454
g73
(dp3455
g81
I3
ssg82
g3449
sg75
(lp3456
S''
asbasbasbasbasbasbasbasbasbasbasbag68
(g84
g70
NtRp3457
(dp3458
g73
(dp3459
sg82
g3223
sg75
(lp3460
g68
(g89
g70
NtRp3461
(dp3462
g73
(dp3463
g93
g94
ssg82
g3457
sg75
(lp3464
S'files'
p3465
asbag68
(g89
g70
NtRp3466
(dp3467
g73
(dp3468
g100
g101
ssg82
g3457
sg75
(lp3469
S':'
asbag68
(g89
g70
NtRp3470
(dp3471
g73
(dp3472
sg82
g3457
sg75
(lp3473
g68
(g69
g70
NtRp3474
(dp3475
g73
(dp3476
g81
I5
ssg82
g3470
sg75
(lp3477
g68
(g77
g70
NtRp3478
(dp3479
g73
(dp3480
g81
I4
ssg82
Nsg75
(lp3481
sbasbasbasbag68
(g84
g70
NtRp3482
(dp3483
g73
(dp3484
sg82
g3223
sg75
(lp3485
g68
(g89
g70
NtRp3486
(dp3487
g73
(dp3488
g93
g94
ssg82
g3482
sg75
(lp3489
S'flash'
p3490
asbag68
(g89
g70
NtRp3491
(dp3492
g73
(dp3493
g100
g101
ssg82
g3482
sg75
(lp3494
S':'
asbag68
(g89
g70
NtRp3495
(dp3496
g73
(dp3497
sg82
g3482
sg75
(lp3498
g68
(g69
g70
NtRp3499
(dp3500
g73
(dp3501
g81
I5
ssg82
g3495
sg75
(lp3502
S''
asbasbasbag68
(g84
g70
NtRp3503
(dp3504
g73
(dp3505
sg82
g3223
sg75
(lp3506
g68
(g89
g70
NtRp3507
(dp3508
g73
(dp3509
g93
g94
ssg82
g3503
sg75
(lp3510
S'headers'
p3511
asbag68
(g89
g70
NtRp3512
(dp3513
g73
(dp3514
g100
g101
ssg82
g3503
sg75
(lp3515
S':'
asbag68
(g89
g70
NtRp3516
(dp3517
g73
(dp3518
sg82
g3503
sg75
(lp3519
g68
(g69
g70
NtRp3520
(dp3521
g73
(dp3522
g81
I5
ssg82
g3516
sg75
(lp3523
g68
(g77
g70
NtRp3524
(dp3525
g73
(dp3526
g81
I4
ssg82
Nsg75
(lp3527
g68
(g84
g70
NtRp3528
(dp3529
g73
(dp3530
sg82
g3524
sg75
(lp3531
g68
(g89
g70
NtRp3532
(dp3533
g73
(dp3534
g93
g94
ssg82
g3528
sg75
(lp3535
S'Cache-Control'
p3536
asbag68
(g89
g70
NtRp3537
(dp3538
g73
(dp3539
g100
g101
ssg82
g3528
sg75
(lp3540
S':'
asbag68
(g89
g70
NtRp3541
(dp3542
g73
(dp3543
sg82
g3528
sg75
(lp3544
g68
(g69
g70
NtRp3545
(dp3546
g73
(dp3547
g81
I4
ssg82
g3541
sg75
(lp3548
S'no-store, no-cache, must-revalidate, post-check=0, pre-check=0'
p3549
asbasbasbag68
(g84
g70
NtRp3550
(dp3551
g73
(dp3552
sg82
g3524
sg75
(lp3553
g68
(g89
g70
NtRp3554
(dp3555
g73
(dp3556
g93
g94
ssg82
g3550
sg75
(lp3557
S'Content-Type'
p3558
asbag68
(g89
g70
NtRp3559
(dp3560
g73
(dp3561
g100
g101
ssg82
g3550
sg75
(lp3562
S':'
asbag68
(g89
g70
NtRp3563
(dp3564
g73
(dp3565
sg82
g3550
sg75
(lp3566
g68
(g69
g70
NtRp3567
(dp3568
g73
(dp3569
g81
I4
ssg82
g3563
sg75
(lp3570
S'text/html; charset=utf-8'
p3571
asbasbasbag68
(g84
g70
NtRp3572
(dp3573
g73
(dp3574
sg82
g3524
sg75
(lp3575
g68
(g89
g70
NtRp3576
(dp3577
g73
(dp3578
g93
g94
ssg82
g3572
sg75
(lp3579
S'Expires'
p3580
asbag68
(g89
g70
NtRp3581
(dp3582
g73
(dp3583
g100
g101
ssg82
g3572
sg75
(lp3584
S':'
asbag68
(g89
g70
NtRp3585
(dp3586
g73
(dp3587
sg82
g3572
sg75
(lp3588
g68
(g69
g70
NtRp3589
(dp3590
g73
(dp3591
g81
I4
ssg82
g3585
sg75
(lp3592
S'Sat, 18 Jun 2011 03:30:08 GMT'
p3593
asbasbasbag68
(g84
g70
NtRp3594
(dp3595
g73
(dp3596
sg82
g3524
sg75
(lp3597
g68
(g89
g70
NtRp3598
(dp3599
g73
(dp3600
g93
g94
ssg82
g3594
sg75
(lp3601
S'Pragma'
p3602
asbag68
(g89
g70
NtRp3603
(dp3604
g73
(dp3605
g100
g101
ssg82
g3594
sg75
(lp3606
S':'
asbag68
(g89
g70
NtRp3607
(dp3608
g73
(dp3609
sg82
g3594
sg75
(lp3610
g68
(g69
g70
NtRp3611
(dp3612
g73
(dp3613
g81
I4
ssg82
g3607
sg75
(lp3614
S'no-cache'
p3615
asbasbasbag68
(g84
g70
NtRp3616
(dp3617
g73
(dp3618
sg82
g3524
sg75
(lp3619
g68
(g89
g70
NtRp3620
(dp3621
g73
(dp3622
g93
g94
ssg82
g3616
sg75
(lp3623
S'X-Powered-By'
p3624
asbag68
(g89
g70
NtRp3625
(dp3626
g73
(dp3627
g100
g101
ssg82
g3616
sg75
(lp3628
S':'
asbag68
(g89
g70
NtRp3629
(dp3630
g73
(dp3631
sg82
g3616
sg75
(lp3632
g68
(g69
g70
NtRp3633
(dp3634
g73
(dp3635
g81
I4
ssg82
g3629
sg75
(lp3636
S'web2py'
p3637
asbasbasbasbasbasbasbag68
(g84
g70
NtRp3638
(dp3639
g73
(dp3640
sg82
g3223
sg75
(lp3641
g68
(g89
g70
NtRp3642
(dp3643
g73
(dp3644
g93
g94
ssg82
g3638
sg75
(lp3645
S'menu'
p3646
asbag68
(g89
g70
NtRp3647
(dp3648
g73
(dp3649
g100
g101
ssg82
g3638
sg75
(lp3650
S':'
asbag68
(g89
g70
NtRp3651
(dp3652
g73
(dp3653
sg82
g3638
sg75
(lp3654
g68
(g69
g70
NtRp3655
(dp3656
g73
(dp3657
g81
I5
ssg82
g3651
sg75
(lp3658
g68
(g77
g70
NtRp3659
(dp3660
g73
(dp3661
g81
I4
ssg82
Nsg75
(lp3662
sbasbasbasbag68
(g84
g70
NtRp3663
(dp3664
g73
(dp3665
sg82
g3223
sg75
(lp3666
g68
(g89
g70
NtRp3667
(dp3668
g73
(dp3669
g93
g94
ssg82
g3663
sg75
(lp3670
S'meta'
p3671
asbag68
(g89
g70
NtRp3672
(dp3673
g73
(dp3674
g100
g101
ssg82
g3663
sg75
(lp3675
S':'
asbag68
(g89
g70
NtRp3676
(dp3677
g73
(dp3678
sg82
g3663
sg75
(lp3679
g68
(g69
g70
NtRp3680
(dp3681
g73
(dp3682
g81
I5
ssg82
g3676
sg75
(lp3683
g68
(g77
g70
NtRp3684
(dp3685
g73
(dp3686
g81
I4
ssg82
Nsg75
(lp3687
sbasbasbasbag68
(g84
g70
NtRp3688
(dp3689
g73
(dp3690
sg82
g3223
sg75
(lp3691
g68
(g89
g70
NtRp3692
(dp3693
g73
(dp3694
g93
g94
ssg82
g3688
sg75
(lp3695
S'postprocessing'
p3696
asbag68
(g89
g70
NtRp3697
(dp3698
g73
(dp3699
g100
g101
ssg82
g3688
sg75
(lp3700
S':'
asbag68
(g89
g70
NtRp3701
(dp3702
g73
(dp3703
sg82
g3688
sg75
(lp3704
g68
(g69
g70
NtRp3705
(dp3706
g73
(dp3707
g81
I5
ssg82
g3701
sg75
(lp3708
g68
(g77
g70
NtRp3709
(dp3710
g73
(dp3711
g81
I4
ssg82
Nsg75
(lp3712
sbasbasbasbag68
(g84
g70
NtRp3713
(dp3714
g73
(dp3715
sg82
g3223
sg75
(lp3716
g68
(g89
g70
NtRp3717
(dp3718
g73
(dp3719
g93
g94
ssg82
g3713
sg75
(lp3720
S'session_file'
p3721
asbag68
(g89
g70
NtRp3722
(dp3723
g73
(dp3724
g100
g101
ssg82
g3713
sg75
(lp3725
S':'
asbag68
(g89
g70
NtRp3726
(dp3727
g73
(dp3728
sg82
g3713
sg75
(lp3729
g68
(g69
g70
NtRp3730
(dp3731
g73
(dp3732
g81
I5
ssg82
g3726
sg75
(lp3733
S"<open file '/home/marco/proyectos/web2py-trunk/applications/mvstore/sessions/127.0.0.1-0b059b4c-5741-4722-be03-f31fed87a8d7', mode 'rb+' at 0x2c4ee40>"
p3734
asbasbasbag68
(g84
g70
NtRp3735
(dp3736
g73
(dp3737
sg82
g3223
sg75
(lp3738
g68
(g89
g70
NtRp3739
(dp3740
g73
(dp3741
g93
g94
ssg82
g3735
sg75
(lp3742
S'session_filename'
p3743
asbag68
(g89
g70
NtRp3744
(dp3745
g73
(dp3746
g100
g101
ssg82
g3735
sg75
(lp3747
S':'
asbag68
(g89
g70
NtRp3748
(dp3749
g73
(dp3750
sg82
g3735
sg75
(lp3751
g68
(g69
g70
NtRp3752
(dp3753
g73
(dp3754
g81
I5
ssg82
g3748
sg75
(lp3755
S'/home/marco/proyectos/web2py-trunk/applications/mvstore/sessions/127.0.0.1-0b059b4c-5741-4722-be03-f31fed87a8d7'
p3756
asbasbasbag68
(g84
g70
NtRp3757
(dp3758
g73
(dp3759
sg82
g3223
sg75
(lp3760
g68
(g89
g70
NtRp3761
(dp3762
g73
(dp3763
g93
g94
ssg82
g3757
sg75
(lp3764
S'session_id'
p3765
asbag68
(g89
g70
NtRp3766
(dp3767
g73
(dp3768
g100
g101
ssg82
g3757
sg75
(lp3769
S':'
asbag68
(g89
g70
NtRp3770
(dp3771
g73
(dp3772
sg82
g3757
sg75
(lp3773
g68
(g69
g70
NtRp3774
(dp3775
g73
(dp3776
g81
I5
ssg82
g3770
sg75
(lp3777
S'127.0.0.1-0b059b4c-5741-4722-be03-f31fed87a8d7'
p3778
asbasbasbag68
(g84
g70
NtRp3779
(dp3780
g73
(dp3781
sg82
g3223
sg75
(lp3782
g68
(g89
g70
NtRp3783
(dp3784
g73
(dp3785
g93
g94
ssg82
g3779
sg75
(lp3786
S'session_id_name'
p3787
asbag68
(g89
g70
NtRp3788
(dp3789
g73
(dp3790
g100
g101
ssg82
g3779
sg75
(lp3791
S':'
asbag68
(g89
g70
NtRp3792
(dp3793
g73
(dp3794
sg82
g3779
sg75
(lp3795
g68
(g69
g70
NtRp3796
(dp3797
g73
(dp3798
g81
I5
ssg82
g3792
sg75
(lp3799
g3280
asbasbasbag68
(g84
g70
NtRp3800
(dp3801
g73
(dp3802
sg82
g3223
sg75
(lp3803
g68
(g89
g70
NtRp3804
(dp3805
g73
(dp3806
g93
g94
ssg82
g3800
sg75
(lp3807
S'session_locked'
p3808
asbag68
(g89
g70
NtRp3809
(dp3810
g73
(dp3811
g100
g101
ssg82
g3800
sg75
(lp3812
S':'
asbag68
(g89
g70
NtRp3813
(dp3814
g73
(dp3815
sg82
g3800
sg75
(lp3816
g68
(g69
g70
NtRp3817
(dp3818
g73
(dp3819
g81
I5
ssg82
g3813
sg75
(lp3820
g2136
asbasbasbag68
(g84
g70
NtRp3821
(dp3822
g73
(dp3823
sg82
g3223
sg75
(lp3824
g68
(g89
g70
NtRp3825
(dp3826
g73
(dp3827
g93
g94
ssg82
g3821
sg75
(lp3828
S'session_new'
p3829
asbag68
(g89
g70
NtRp3830
(dp3831
g73
(dp3832
g100
g101
ssg82
g3821
sg75
(lp3833
S':'
asbag68
(g89
g70
NtRp3834
(dp3835
g73
(dp3836
sg82
g3821
sg75
(lp3837
g68
(g69
g70
NtRp3838
(dp3839
g73
(dp3840
g81
I5
ssg82
g3834
sg75
(lp3841
g111
asbasbasbag68
(g84
g70
NtRp3842
(dp3843
g73
(dp3844
sg82
g3223
sg75
(lp3845
g68
(g89
g70
NtRp3846
(dp3847
g73
(dp3848
g93
g94
ssg82
g3842
sg75
(lp3849
S'status'
p3850
asbag68
(g89
g70
NtRp3851
(dp3852
g73
(dp3853
g100
g101
ssg82
g3842
sg75
(lp3854
S':'
asbag68
(g89
g70
NtRp3855
(dp3856
g73
(dp3857
sg82
g3842
sg75
(lp3858
g68
(g69
g70
NtRp3859
(dp3860
g73
(dp3861
g81
I5
ssg82
g3855
sg75
(lp3862
S'200'
p3863
asbasbasbag68
(g84
g70
NtRp3864
(dp3865
g73
(dp3866
sg82
g3223
sg75
(lp3867
g68
(g89
g70
NtRp3868
(dp3869
g73
(dp3870
g93
g94
ssg82
g3864
sg75
(lp3871
g2460
asbag68
(g89
g70
NtRp3872
(dp3873
g73
(dp3874
g100
g101
ssg82
g3864
sg75
(lp3875
S':'
asbag68
(g89
g70
NtRp3876
(dp3877
g73
(dp3878
sg82
g3864
sg75
(lp3879
g68
(g69
g70
NtRp3880
(dp3881
g73
(dp3882
g81
I5
ssg82
g3876
sg75
(lp3883
g2473
asbasbasbag68
(g84
g70
NtRp3884
(dp3885
g73
(dp3886
sg82
g3223
sg75
(lp3887
g68
(g89
g70
NtRp3888
(dp3889
g73
(dp3890
g93
g94
ssg82
g3884
sg75
(lp3891
S'view'
p3892
asbag68
(g89
g70
NtRp3893
(dp3894
g73
(dp3895
g100
g101
ssg82
g3884
sg75
(lp3896
S':'
asbag68
(g89
g70
NtRp3897
(dp3898
g73
(dp3899
sg82
g3884
sg75
(lp3900
g68
(g69
g70
NtRp3901
(dp3902
g73
(dp3903
g81
I5
ssg82
g3897
sg75
(lp3904
S'default/prestamos.html'
p3905
asbasbasbasbasbsS'locals'
p3906
(dp3907
S'polymodel'
p3908
S'None'
p3909
sS'sortable'
p3910
S'2'
sS'sql_fields_aux'
p3911
S"{'id': {'sql': 'INTEGER PRIMARY KEY AUTOINCREMENT'}}"
p3912
sS'TFK'
p3913
g20
sS'migrate'
p3914
g2136
sS'fields'
p3915
S"['id INTEGER PRIMARY KEY AUTOINCREMENT']"
p3916
sS'k'
S"'titulo'"
p3917
sS'tablename'
p3918
S"'prestamos'"
p3919
sS'fake_migrate'
p3920
g111
sS'field'
p3921
S'<gluon.dal.Field object>'
p3922
sS'ftype'
p3923
S"'INTEGER PRIMARY KEY AUTOINCREMENT'"
p3924
sS'table'
p3925
S"<Table {'ALL': <gluon.dal.SQLALL object at 0x39d...0>, 'id': <gluon.dal.Field object at 0x39de110>}>"
p3926
sS'sql_fields'
p3927
S"{'id': {'sortable': 1, 'sql': 'INTEGER PRIMARY KEY AUTOINCREMENT', 'type': 'id'}}"
p3928
sS'self'
p3929
S'<gluon.dal.SQLiteAdapter object>'
p3930
sssS'traceback'
p3931
S'Traceback (most recent call last):\n  File "/home/marco/proyectos/web2py-trunk/gluon/restricted.py", line 192, in restricted\n    exec ccode in environment\n  File "/home/marco/proyectos/web2py-trunk/applications/mvstore/models/db.py", line 113, in <module>\n    Field(\'devol\',\'datetime\'),\n  File "/home/marco/proyectos/web2py-trunk/gluon/dal.py", line 4235, in define_table\n    polymodel=polymodel)\n  File "/home/marco/proyectos/web2py-trunk/gluon/dal.py", line 554, in create_table\n    (field.type, field.name)\nSyntaxError: Field: unknown field type: peliculas for titulo\n'
p3932
s.