(dp1
S'output'
p2
S''
sS'layer'
p3
S'/home/marco/proyectos/web2py-trunk/applications/mvstore/controllers/default.py'
p4
sS'code'
p5
S'#-*- coding: utf-8 -*-\n# this file is released under public domain and you can use without limitations\n\n#########################################################################\n## This is a samples controller\n## - index is the default action of any application\n## - user is required for authentication and authorization\n## - download is for downloading files uploaded in the db (does streaming)\n## - call exposes all registered services (none by default)\n#########################################################################\n\ndef index():\n    """\n    example action using the internationalization operator T and flash\n    rendered by views/default/index.html or views/generic.html\n    """\n    return dict(message=T(\'Hello World\'))\n\ndef user():\n    """\n    exposes:\n    http://..../[app]/default/user/login\n    http://..../[app]/default/user/logout\n    http://..../[app]/default/user/register\n    http://..../[app]/default/user/profile\n    http://..../[app]/default/user/retrieve_password\n    http://..../[app]/default/user/change_password\n    use @auth.requires_login()\n        @auth.requires_membership(\'group name\')\n        @auth.requires_permission(\'read\',\'table name\',record_id)\n    to decorate functions that need access control\n    """\n    return dict(form=auth())\n\n\ndef download():\n    """\n    allows downloading of uploaded files\n    http://..../[app]/default/download/[filename]\n    """\n    return response.download(request,db)\n\n\ndef call():\n    """\n    exposes services. for example:\n    http://..../[app]/default/call/jsonrpc\n    decorate with @services.jsonrpc the functions to expose\n    supports xml, json, xmlrpc, jsonrpc, amfrpc, rss, csv\n    """\n    session.forget()\n    return service()\n\ndef empleados():\n    form=crud.create(db.empleados)\n    if form.accepts(request.vars, session):\n        response.flash = \'Agregado exitosamente\'\n    elif form.errors:\n        response.flash = \'El formulario tiene errores\'\n    else:\n        response.flash = \'Por favor, complete el formulario\'\n        \n    return dict(form=form)\n\ndef clientes():\n    form=crud.create(db.clientes)\n    if form.accepts(request.vars, session):\n        response.flash = \'Agregado exitosamente\'\n    elif form.errors:\n        response.flash = \'El formulario tiene errores\'\n    else:\n        response.flash = \'Por favor, complete el formulario\'\n    return dict(form=form)\n\ndef peliculas():\n    form=crud.create(db.peliculas)\n    if form.accepts(request.vars, session):\n        response.flash = \'Agregado exitosamente\'\n    elif form.errors:\n        response.flash = \'El formulario tiene errores\'\n    else:\n        response.flash = \'Por favor, complete el formulario\'    \n    return dict(form=form)\n    \n\ndef prestamos():\n    form=crud.create(db.prestamos)\n    if form.accepts(request.vars, session):\n        response.flash = \'Agregado exitosamente\'\n    elif form.errors:\n        response.flash = \'El formulario tiene errores\'\n    else:\n        response.flash = \'Por favor, complete el formulario\'\n    return dict(form=form)\n    \ndef personal():\n    return dict(records=db().select(db.empleados.ALL))\n\ndef clientesall():\n    return dict(records=db().select(db.clientes.ALL))\n    \ndef peliculasall():\n    return dict(records=db().select(db.peliculas.ALL))\n    \ndef prestados():\n    return dict(records=db().select(db.prestamos.ALL))\n\ndef updateempleados():\n    form = SQLFORM(db().empleados, record, deletable=True, delete_label=T(\'Check to delete\'),\n                   ignore_rw=ignore_rw and not keyed,\n                   linkto=URL(\'select\', args=request.args[:1]),\n                   upload=URL(r=request, f=\'download\', args=request.args[:1]))\n\n    if form.accepts(request.vars, session):\n        session.flash = T(\'done!\')\n        qry = query_by_table_type(table, db)\n        redirect(URL(\'select\', args=request.args[:1], vars=dict(query=qry))\n    \n    return dict(form=form,table=db().empleados)\n\nresponse._vars=response._caller(prestamos)\n'
p6
sS'snapshot'
p7
(dp8
S'exception'
p9
(dp10
S'__getslice__'
p11
S"<method-wrapper '__getslice__' of exceptions.SyntaxError object>"
p12
sS'text'
p13
S"'    return dict(form=form,table=db().empleados)\\n'"
p14
sS'__str__'
p15
S"<method-wrapper '__str__' of exceptions.SyntaxError object>"
p16
sS'__reduce__'
p17
S'<built-in method __reduce__ of exceptions.SyntaxError object>'
p18
sS'__dict__'
p19
S'{}'
p20
sS'__sizeof__'
p21
S'<built-in method __sizeof__ of exceptions.SyntaxError object>'
p22
sS'__init__'
p23
S"<method-wrapper '__init__' of exceptions.SyntaxError object>"
p24
sS'__setattr__'
p25
S"<method-wrapper '__setattr__' of exceptions.SyntaxError object>"
p26
sS'__reduce_ex__'
p27
S'<built-in method __reduce_ex__ of exceptions.SyntaxError object>'
p28
sS'__new__'
p29
S'<built-in method __new__ of type object>'
p30
sS'__format__'
p31
S'<built-in method __format__ of exceptions.SyntaxError object>'
p32
sS'__class__'
p33
S"<type 'exceptions.SyntaxError'>"
p34
sS'filename'
p35
S"'/home/marco/proyectos/web2py-trunk/applications/mvstore/controllers/default.py'"
p36
sS'lineno'
p37
S'119'
p38
sS'msg'
p39
S"'invalid syntax'"
p40
sS'__doc__'
p41
S"'Invalid syntax.'"
p42
sS'__getitem__'
p43
S"<method-wrapper '__getitem__' of exceptions.SyntaxError object>"
p44
sS'__setstate__'
p45
S'<built-in method __setstate__ of exceptions.SyntaxError object>'
p46
sS'__getattribute__'
p47
S"<method-wrapper '__getattribute__' of exceptions.SyntaxError object>"
p48
sS'print_file_and_line'
p49
S'None'
p50
sS'args'
p51
S"('invalid syntax', ('/home/marco/proyectos/web2py-trunk/applications/mvstore/controllers/default.py', 119, 10, '    return dict(form=form,table=db().empleados)\\n'))"
p52
sS'__subclasshook__'
p53
S'<built-in method __subclasshook__ of type object>'
p54
sS'offset'
p55
S'10'
p56
sS'__unicode__'
p57
S'<built-in method __unicode__ of exceptions.SyntaxError object>'
p58
sS'__delattr__'
p59
S"<method-wrapper '__delattr__' of exceptions.SyntaxError object>"
p60
sS'__repr__'
p61
S"<method-wrapper '__repr__' of exceptions.SyntaxError object>"
p62
sS'__hash__'
p63
S"<method-wrapper '__hash__' of exceptions.SyntaxError object>"
p64
ssS'evalue'
p65
S'invalid syntax (default.py, line 119)'
p66
sS'request'
p67
ccopy_reg
_reconstructor
p68
(cgluon.html
BEAUTIFY
p69
c__builtin__
object
p70
NtRp71
(dp72
S'attributes'
p73
(dp74
sS'components'
p75
(lp76
g68
(cgluon.html
TABLE
p77
g70
NtRp78
(dp79
g73
(dp80
S'level'
p81
I5
ssS'parent'
p82
Nsg75
(lp83
g68
(cgluon.html
TR
p84
g70
NtRp85
(dp86
g73
(dp87
sg82
g78
sg75
(lp88
g68
(cgluon.html
TD
p89
g70
NtRp90
(dp91
g73
(dp92
S'_style'
p93
S'font-weight:bold;'
p94
ssg82
g85
sg75
(lp95
S'ajax'
p96
asbag68
(g89
g70
NtRp97
(dp98
g73
(dp99
S'_valign'
p100
S'top'
p101
ssg82
g85
sg75
(lp102
S':'
asbag68
(g89
g70
NtRp103
(dp104
g73
(dp105
sg82
g85
sg75
(lp106
g68
(g69
g70
NtRp107
(dp108
g73
(dp109
g81
I5
ssg82
g103
sg75
(lp110
S'False'
p111
asbasbasbag68
(g84
g70
NtRp112
(dp113
g73
(dp114
sg82
g78
sg75
(lp115
g68
(g89
g70
NtRp116
(dp117
g73
(dp118
g93
g94
ssg82
g112
sg75
(lp119
S'application'
p120
asbag68
(g89
g70
NtRp121
(dp122
g73
(dp123
g100
g101
ssg82
g112
sg75
(lp124
S':'
asbag68
(g89
g70
NtRp125
(dp126
g73
(dp127
sg82
g112
sg75
(lp128
g68
(g69
g70
NtRp129
(dp130
g73
(dp131
g81
I5
ssg82
g125
sg75
(lp132
S'mvstore'
p133
asbasbasbag68
(g84
g70
NtRp134
(dp135
g73
(dp136
sg82
g78
sg75
(lp137
g68
(g89
g70
NtRp138
(dp139
g73
(dp140
g93
g94
ssg82
g134
sg75
(lp141
g51
asbag68
(g89
g70
NtRp142
(dp143
g73
(dp144
g100
g101
ssg82
g134
sg75
(lp145
S':'
asbag68
(g89
g70
NtRp146
(dp147
g73
(dp148
sg82
g134
sg75
(lp149
g68
(g69
g70
NtRp150
(dp151
g73
(dp152
g81
I5
ssg82
g146
sg75
(lp153
g68
(g77
g70
NtRp154
(dp155
g73
(dp156
g81
I4
ssg82
Nsg75
(lp157
sbasbasbasbag68
(g84
g70
NtRp158
(dp159
g73
(dp160
sg82
g78
sg75
(lp161
g68
(g89
g70
NtRp162
(dp163
g73
(dp164
g93
g94
ssg82
g158
sg75
(lp165
S'body'
p166
asbag68
(g89
g70
NtRp167
(dp168
g73
(dp169
g100
g101
ssg82
g158
sg75
(lp170
S':'
asbag68
(g89
g70
NtRp171
(dp172
g73
(dp173
sg82
g158
sg75
(lp174
g68
(g69
g70
NtRp175
(dp176
g73
(dp177
g81
I5
ssg82
g171
sg75
(lp178
S'<cStringIO.StringO object at 0x229b8f0>'
p179
asbasbasbag68
(g84
g70
NtRp180
(dp181
g73
(dp182
sg82
g78
sg75
(lp183
g68
(g89
g70
NtRp184
(dp185
g73
(dp186
g93
g94
ssg82
g180
sg75
(lp187
S'client'
p188
asbag68
(g89
g70
NtRp189
(dp190
g73
(dp191
g100
g101
ssg82
g180
sg75
(lp192
S':'
asbag68
(g89
g70
NtRp193
(dp194
g73
(dp195
sg82
g180
sg75
(lp196
g68
(g69
g70
NtRp197
(dp198
g73
(dp199
g81
I5
ssg82
g193
sg75
(lp200
S'127.0.0.1'
p201
asbasbasbag68
(g84
g70
NtRp202
(dp203
g73
(dp204
sg82
g78
sg75
(lp205
g68
(g89
g70
NtRp206
(dp207
g73
(dp208
g93
g94
ssg82
g202
sg75
(lp209
S'controller'
p210
asbag68
(g89
g70
NtRp211
(dp212
g73
(dp213
g100
g101
ssg82
g202
sg75
(lp214
S':'
asbag68
(g89
g70
NtRp215
(dp216
g73
(dp217
sg82
g202
sg75
(lp218
g68
(g69
g70
NtRp219
(dp220
g73
(dp221
g81
I5
ssg82
g215
sg75
(lp222
S'default'
p223
asbasbasbag68
(g84
g70
NtRp224
(dp225
g73
(dp226
sg82
g78
sg75
(lp227
g68
(g89
g70
NtRp228
(dp229
g73
(dp230
g93
g94
ssg82
g224
sg75
(lp231
S'cookies'
p232
asbag68
(g89
g70
NtRp233
(dp234
g73
(dp235
g100
g101
ssg82
g224
sg75
(lp236
S':'
asbag68
(g89
g70
NtRp237
(dp238
g73
(dp239
sg82
g224
sg75
(lp240
g68
(g69
g70
NtRp241
(dp242
g73
(dp243
g81
I5
ssg82
g237
sg75
(lp244
g68
(g77
g70
NtRp245
(dp246
g73
(dp247
g81
I4
ssg82
Nsg75
(lp248
g68
(g84
g70
NtRp249
(dp250
g73
(dp251
sg82
g245
sg75
(lp252
g68
(g89
g70
NtRp253
(dp254
g73
(dp255
g93
g94
ssg82
g249
sg75
(lp256
S'session_id_admin'
p257
asbag68
(g89
g70
NtRp258
(dp259
g73
(dp260
g100
g101
ssg82
g249
sg75
(lp261
S':'
asbag68
(g89
g70
NtRp262
(dp263
g73
(dp264
sg82
g249
sg75
(lp265
g68
(g69
g70
NtRp266
(dp267
g73
(dp268
g81
I4
ssg82
g262
sg75
(lp269
g68
(g77
g70
NtRp270
(dp271
g73
(dp272
g81
I3
ssg82
Nsg75
(lp273
g68
(g84
g70
NtRp274
(dp275
g73
(dp276
sg82
g270
sg75
(lp277
g68
(g89
g70
NtRp278
(dp279
g73
(dp280
g93
g94
ssg82
g274
sg75
(lp281
S'comment'
p282
asbag68
(g89
g70
NtRp283
(dp284
g73
(dp285
g100
g101
ssg82
g274
sg75
(lp286
S':'
asbag68
(g89
g70
NtRp287
(dp288
g73
(dp289
sg82
g274
sg75
(lp290
g68
(g69
g70
NtRp291
(dp292
g73
(dp293
g81
I3
ssg82
g287
sg75
(lp294
S''
asbasbasbag68
(g84
g70
NtRp295
(dp296
g73
(dp297
sg82
g270
sg75
(lp298
g68
(g89
g70
NtRp299
(dp300
g73
(dp301
g93
g94
ssg82
g295
sg75
(lp302
S'domain'
p303
asbag68
(g89
g70
NtRp304
(dp305
g73
(dp306
g100
g101
ssg82
g295
sg75
(lp307
S':'
asbag68
(g89
g70
NtRp308
(dp309
g73
(dp310
sg82
g295
sg75
(lp311
g68
(g69
g70
NtRp312
(dp313
g73
(dp314
g81
I3
ssg82
g308
sg75
(lp315
S''
asbasbasbag68
(g84
g70
NtRp316
(dp317
g73
(dp318
sg82
g270
sg75
(lp319
g68
(g89
g70
NtRp320
(dp321
g73
(dp322
g93
g94
ssg82
g316
sg75
(lp323
S'expires'
p324
asbag68
(g89
g70
NtRp325
(dp326
g73
(dp327
g100
g101
ssg82
g316
sg75
(lp328
S':'
asbag68
(g89
g70
NtRp329
(dp330
g73
(dp331
sg82
g316
sg75
(lp332
g68
(g69
g70
NtRp333
(dp334
g73
(dp335
g81
I3
ssg82
g329
sg75
(lp336
S''
asbasbasbag68
(g84
g70
NtRp337
(dp338
g73
(dp339
sg82
g270
sg75
(lp340
g68
(g89
g70
NtRp341
(dp342
g73
(dp343
g93
g94
ssg82
g337
sg75
(lp344
S'httponly'
p345
asbag68
(g89
g70
NtRp346
(dp347
g73
(dp348
g100
g101
ssg82
g337
sg75
(lp349
S':'
asbag68
(g89
g70
NtRp350
(dp351
g73
(dp352
sg82
g337
sg75
(lp353
g68
(g69
g70
NtRp354
(dp355
g73
(dp356
g81
I3
ssg82
g350
sg75
(lp357
S''
asbasbasbag68
(g84
g70
NtRp358
(dp359
g73
(dp360
sg82
g270
sg75
(lp361
g68
(g89
g70
NtRp362
(dp363
g73
(dp364
g93
g94
ssg82
g358
sg75
(lp365
S'max-age'
p366
asbag68
(g89
g70
NtRp367
(dp368
g73
(dp369
g100
g101
ssg82
g358
sg75
(lp370
S':'
asbag68
(g89
g70
NtRp371
(dp372
g73
(dp373
sg82
g358
sg75
(lp374
g68
(g69
g70
NtRp375
(dp376
g73
(dp377
g81
I3
ssg82
g371
sg75
(lp378
S''
asbasbasbag68
(g84
g70
NtRp379
(dp380
g73
(dp381
sg82
g270
sg75
(lp382
g68
(g89
g70
NtRp383
(dp384
g73
(dp385
g93
g94
ssg82
g379
sg75
(lp386
S'path'
p387
asbag68
(g89
g70
NtRp388
(dp389
g73
(dp390
g100
g101
ssg82
g379
sg75
(lp391
S':'
asbag68
(g89
g70
NtRp392
(dp393
g73
(dp394
sg82
g379
sg75
(lp395
g68
(g69
g70
NtRp396
(dp397
g73
(dp398
g81
I3
ssg82
g392
sg75
(lp399
S''
asbasbasbag68
(g84
g70
NtRp400
(dp401
g73
(dp402
sg82
g270
sg75
(lp403
g68
(g89
g70
NtRp404
(dp405
g73
(dp406
g93
g94
ssg82
g400
sg75
(lp407
S'secure'
p408
asbag68
(g89
g70
NtRp409
(dp410
g73
(dp411
g100
g101
ssg82
g400
sg75
(lp412
S':'
asbag68
(g89
g70
NtRp413
(dp414
g73
(dp415
sg82
g400
sg75
(lp416
g68
(g69
g70
NtRp417
(dp418
g73
(dp419
g81
I3
ssg82
g413
sg75
(lp420
S''
asbasbasbag68
(g84
g70
NtRp421
(dp422
g73
(dp423
sg82
g270
sg75
(lp424
g68
(g89
g70
NtRp425
(dp426
g73
(dp427
g93
g94
ssg82
g421
sg75
(lp428
S'version'
p429
asbag68
(g89
g70
NtRp430
(dp431
g73
(dp432
g100
g101
ssg82
g421
sg75
(lp433
S':'
asbag68
(g89
g70
NtRp434
(dp435
g73
(dp436
sg82
g421
sg75
(lp437
g68
(g69
g70
NtRp438
(dp439
g73
(dp440
g81
I3
ssg82
g434
sg75
(lp441
S''
asbasbasbasbasbasbasbag68
(g84
g70
NtRp442
(dp443
g73
(dp444
sg82
g245
sg75
(lp445
g68
(g89
g70
NtRp446
(dp447
g73
(dp448
g93
g94
ssg82
g442
sg75
(lp449
S'session_id_movies'
p450
asbag68
(g89
g70
NtRp451
(dp452
g73
(dp453
g100
g101
ssg82
g442
sg75
(lp454
S':'
asbag68
(g89
g70
NtRp455
(dp456
g73
(dp457
sg82
g442
sg75
(lp458
g68
(g69
g70
NtRp459
(dp460
g73
(dp461
g81
I4
ssg82
g455
sg75
(lp462
g68
(g77
g70
NtRp463
(dp464
g73
(dp465
g81
I3
ssg82
Nsg75
(lp466
g68
(g84
g70
NtRp467
(dp468
g73
(dp469
sg82
g463
sg75
(lp470
g68
(g89
g70
NtRp471
(dp472
g73
(dp473
g93
g94
ssg82
g467
sg75
(lp474
g282
asbag68
(g89
g70
NtRp475
(dp476
g73
(dp477
g100
g101
ssg82
g467
sg75
(lp478
S':'
asbag68
(g89
g70
NtRp479
(dp480
g73
(dp481
sg82
g467
sg75
(lp482
g68
(g69
g70
NtRp483
(dp484
g73
(dp485
g81
I3
ssg82
g479
sg75
(lp486
S''
asbasbasbag68
(g84
g70
NtRp487
(dp488
g73
(dp489
sg82
g463
sg75
(lp490
g68
(g89
g70
NtRp491
(dp492
g73
(dp493
g93
g94
ssg82
g487
sg75
(lp494
g303
asbag68
(g89
g70
NtRp495
(dp496
g73
(dp497
g100
g101
ssg82
g487
sg75
(lp498
S':'
asbag68
(g89
g70
NtRp499
(dp500
g73
(dp501
sg82
g487
sg75
(lp502
g68
(g69
g70
NtRp503
(dp504
g73
(dp505
g81
I3
ssg82
g499
sg75
(lp506
S''
asbasbasbag68
(g84
g70
NtRp507
(dp508
g73
(dp509
sg82
g463
sg75
(lp510
g68
(g89
g70
NtRp511
(dp512
g73
(dp513
g93
g94
ssg82
g507
sg75
(lp514
g324
asbag68
(g89
g70
NtRp515
(dp516
g73
(dp517
g100
g101
ssg82
g507
sg75
(lp518
S':'
asbag68
(g89
g70
NtRp519
(dp520
g73
(dp521
sg82
g507
sg75
(lp522
g68
(g69
g70
NtRp523
(dp524
g73
(dp525
g81
I3
ssg82
g519
sg75
(lp526
S''
asbasbasbag68
(g84
g70
NtRp527
(dp528
g73
(dp529
sg82
g463
sg75
(lp530
g68
(g89
g70
NtRp531
(dp532
g73
(dp533
g93
g94
ssg82
g527
sg75
(lp534
g345
asbag68
(g89
g70
NtRp535
(dp536
g73
(dp537
g100
g101
ssg82
g527
sg75
(lp538
S':'
asbag68
(g89
g70
NtRp539
(dp540
g73
(dp541
sg82
g527
sg75
(lp542
g68
(g69
g70
NtRp543
(dp544
g73
(dp545
g81
I3
ssg82
g539
sg75
(lp546
S''
asbasbasbag68
(g84
g70
NtRp547
(dp548
g73
(dp549
sg82
g463
sg75
(lp550
g68
(g89
g70
NtRp551
(dp552
g73
(dp553
g93
g94
ssg82
g547
sg75
(lp554
g366
asbag68
(g89
g70
NtRp555
(dp556
g73
(dp557
g100
g101
ssg82
g547
sg75
(lp558
S':'
asbag68
(g89
g70
NtRp559
(dp560
g73
(dp561
sg82
g547
sg75
(lp562
g68
(g69
g70
NtRp563
(dp564
g73
(dp565
g81
I3
ssg82
g559
sg75
(lp566
S''
asbasbasbag68
(g84
g70
NtRp567
(dp568
g73
(dp569
sg82
g463
sg75
(lp570
g68
(g89
g70
NtRp571
(dp572
g73
(dp573
g93
g94
ssg82
g567
sg75
(lp574
g387
asbag68
(g89
g70
NtRp575
(dp576
g73
(dp577
g100
g101
ssg82
g567
sg75
(lp578
S':'
asbag68
(g89
g70
NtRp579
(dp580
g73
(dp581
sg82
g567
sg75
(lp582
g68
(g69
g70
NtRp583
(dp584
g73
(dp585
g81
I3
ssg82
g579
sg75
(lp586
S''
asbasbasbag68
(g84
g70
NtRp587
(dp588
g73
(dp589
sg82
g463
sg75
(lp590
g68
(g89
g70
NtRp591
(dp592
g73
(dp593
g93
g94
ssg82
g587
sg75
(lp594
g408
asbag68
(g89
g70
NtRp595
(dp596
g73
(dp597
g100
g101
ssg82
g587
sg75
(lp598
S':'
asbag68
(g89
g70
NtRp599
(dp600
g73
(dp601
sg82
g587
sg75
(lp602
g68
(g69
g70
NtRp603
(dp604
g73
(dp605
g81
I3
ssg82
g599
sg75
(lp606
S''
asbasbasbag68
(g84
g70
NtRp607
(dp608
g73
(dp609
sg82
g463
sg75
(lp610
g68
(g89
g70
NtRp611
(dp612
g73
(dp613
g93
g94
ssg82
g607
sg75
(lp614
g429
asbag68
(g89
g70
NtRp615
(dp616
g73
(dp617
g100
g101
ssg82
g607
sg75
(lp618
S':'
asbag68
(g89
g70
NtRp619
(dp620
g73
(dp621
sg82
g607
sg75
(lp622
g68
(g69
g70
NtRp623
(dp624
g73
(dp625
g81
I3
ssg82
g619
sg75
(lp626
S''
asbasbasbasbasbasbasbag68
(g84
g70
NtRp627
(dp628
g73
(dp629
sg82
g245
sg75
(lp630
g68
(g89
g70
NtRp631
(dp632
g73
(dp633
g93
g94
ssg82
g627
sg75
(lp634
S'session_id_mvstore'
p635
asbag68
(g89
g70
NtRp636
(dp637
g73
(dp638
g100
g101
ssg82
g627
sg75
(lp639
S':'
asbag68
(g89
g70
NtRp640
(dp641
g73
(dp642
sg82
g627
sg75
(lp643
g68
(g69
g70
NtRp644
(dp645
g73
(dp646
g81
I4
ssg82
g640
sg75
(lp647
g68
(g77
g70
NtRp648
(dp649
g73
(dp650
g81
I3
ssg82
Nsg75
(lp651
g68
(g84
g70
NtRp652
(dp653
g73
(dp654
sg82
g648
sg75
(lp655
g68
(g89
g70
NtRp656
(dp657
g73
(dp658
g93
g94
ssg82
g652
sg75
(lp659
g282
asbag68
(g89
g70
NtRp660
(dp661
g73
(dp662
g100
g101
ssg82
g652
sg75
(lp663
S':'
asbag68
(g89
g70
NtRp664
(dp665
g73
(dp666
sg82
g652
sg75
(lp667
g68
(g69
g70
NtRp668
(dp669
g73
(dp670
g81
I3
ssg82
g664
sg75
(lp671
S''
asbasbasbag68
(g84
g70
NtRp672
(dp673
g73
(dp674
sg82
g648
sg75
(lp675
g68
(g89
g70
NtRp676
(dp677
g73
(dp678
g93
g94
ssg82
g672
sg75
(lp679
g303
asbag68
(g89
g70
NtRp680
(dp681
g73
(dp682
g100
g101
ssg82
g672
sg75
(lp683
S':'
asbag68
(g89
g70
NtRp684
(dp685
g73
(dp686
sg82
g672
sg75
(lp687
g68
(g69
g70
NtRp688
(dp689
g73
(dp690
g81
I3
ssg82
g684
sg75
(lp691
S''
asbasbasbag68
(g84
g70
NtRp692
(dp693
g73
(dp694
sg82
g648
sg75
(lp695
g68
(g89
g70
NtRp696
(dp697
g73
(dp698
g93
g94
ssg82
g692
sg75
(lp699
g324
asbag68
(g89
g70
NtRp700
(dp701
g73
(dp702
g100
g101
ssg82
g692
sg75
(lp703
S':'
asbag68
(g89
g70
NtRp704
(dp705
g73
(dp706
sg82
g692
sg75
(lp707
g68
(g69
g70
NtRp708
(dp709
g73
(dp710
g81
I3
ssg82
g704
sg75
(lp711
S''
asbasbasbag68
(g84
g70
NtRp712
(dp713
g73
(dp714
sg82
g648
sg75
(lp715
g68
(g89
g70
NtRp716
(dp717
g73
(dp718
g93
g94
ssg82
g712
sg75
(lp719
g345
asbag68
(g89
g70
NtRp720
(dp721
g73
(dp722
g100
g101
ssg82
g712
sg75
(lp723
S':'
asbag68
(g89
g70
NtRp724
(dp725
g73
(dp726
sg82
g712
sg75
(lp727
g68
(g69
g70
NtRp728
(dp729
g73
(dp730
g81
I3
ssg82
g724
sg75
(lp731
S''
asbasbasbag68
(g84
g70
NtRp732
(dp733
g73
(dp734
sg82
g648
sg75
(lp735
g68
(g89
g70
NtRp736
(dp737
g73
(dp738
g93
g94
ssg82
g732
sg75
(lp739
g366
asbag68
(g89
g70
NtRp740
(dp741
g73
(dp742
g100
g101
ssg82
g732
sg75
(lp743
S':'
asbag68
(g89
g70
NtRp744
(dp745
g73
(dp746
sg82
g732
sg75
(lp747
g68
(g69
g70
NtRp748
(dp749
g73
(dp750
g81
I3
ssg82
g744
sg75
(lp751
S''
asbasbasbag68
(g84
g70
NtRp752
(dp753
g73
(dp754
sg82
g648
sg75
(lp755
g68
(g89
g70
NtRp756
(dp757
g73
(dp758
g93
g94
ssg82
g752
sg75
(lp759
g387
asbag68
(g89
g70
NtRp760
(dp761
g73
(dp762
g100
g101
ssg82
g752
sg75
(lp763
S':'
asbag68
(g89
g70
NtRp764
(dp765
g73
(dp766
sg82
g752
sg75
(lp767
g68
(g69
g70
NtRp768
(dp769
g73
(dp770
g81
I3
ssg82
g764
sg75
(lp771
S''
asbasbasbag68
(g84
g70
NtRp772
(dp773
g73
(dp774
sg82
g648
sg75
(lp775
g68
(g89
g70
NtRp776
(dp777
g73
(dp778
g93
g94
ssg82
g772
sg75
(lp779
g408
asbag68
(g89
g70
NtRp780
(dp781
g73
(dp782
g100
g101
ssg82
g772
sg75
(lp783
S':'
asbag68
(g89
g70
NtRp784
(dp785
g73
(dp786
sg82
g772
sg75
(lp787
g68
(g69
g70
NtRp788
(dp789
g73
(dp790
g81
I3
ssg82
g784
sg75
(lp791
S''
asbasbasbag68
(g84
g70
NtRp792
(dp793
g73
(dp794
sg82
g648
sg75
(lp795
g68
(g89
g70
NtRp796
(dp797
g73
(dp798
g93
g94
ssg82
g792
sg75
(lp799
g429
asbag68
(g89
g70
NtRp800
(dp801
g73
(dp802
g100
g101
ssg82
g792
sg75
(lp803
S':'
asbag68
(g89
g70
NtRp804
(dp805
g73
(dp806
sg82
g792
sg75
(lp807
g68
(g69
g70
NtRp808
(dp809
g73
(dp810
g81
I3
ssg82
g804
sg75
(lp811
S''
asbasbasbasbasbasbasbag68
(g84
g70
NtRp812
(dp813
g73
(dp814
sg82
g245
sg75
(lp815
g68
(g89
g70
NtRp816
(dp817
g73
(dp818
g93
g94
ssg82
g812
sg75
(lp819
S'session_id_welcome'
p820
asbag68
(g89
g70
NtRp821
(dp822
g73
(dp823
g100
g101
ssg82
g812
sg75
(lp824
S':'
asbag68
(g89
g70
NtRp825
(dp826
g73
(dp827
sg82
g812
sg75
(lp828
g68
(g69
g70
NtRp829
(dp830
g73
(dp831
g81
I4
ssg82
g825
sg75
(lp832
g68
(g77
g70
NtRp833
(dp834
g73
(dp835
g81
I3
ssg82
Nsg75
(lp836
g68
(g84
g70
NtRp837
(dp838
g73
(dp839
sg82
g833
sg75
(lp840
g68
(g89
g70
NtRp841
(dp842
g73
(dp843
g93
g94
ssg82
g837
sg75
(lp844
g282
asbag68
(g89
g70
NtRp845
(dp846
g73
(dp847
g100
g101
ssg82
g837
sg75
(lp848
S':'
asbag68
(g89
g70
NtRp849
(dp850
g73
(dp851
sg82
g837
sg75
(lp852
g68
(g69
g70
NtRp853
(dp854
g73
(dp855
g81
I3
ssg82
g849
sg75
(lp856
S''
asbasbasbag68
(g84
g70
NtRp857
(dp858
g73
(dp859
sg82
g833
sg75
(lp860
g68
(g89
g70
NtRp861
(dp862
g73
(dp863
g93
g94
ssg82
g857
sg75
(lp864
g303
asbag68
(g89
g70
NtRp865
(dp866
g73
(dp867
g100
g101
ssg82
g857
sg75
(lp868
S':'
asbag68
(g89
g70
NtRp869
(dp870
g73
(dp871
sg82
g857
sg75
(lp872
g68
(g69
g70
NtRp873
(dp874
g73
(dp875
g81
I3
ssg82
g869
sg75
(lp876
S''
asbasbasbag68
(g84
g70
NtRp877
(dp878
g73
(dp879
sg82
g833
sg75
(lp880
g68
(g89
g70
NtRp881
(dp882
g73
(dp883
g93
g94
ssg82
g877
sg75
(lp884
g324
asbag68
(g89
g70
NtRp885
(dp886
g73
(dp887
g100
g101
ssg82
g877
sg75
(lp888
S':'
asbag68
(g89
g70
NtRp889
(dp890
g73
(dp891
sg82
g877
sg75
(lp892
g68
(g69
g70
NtRp893
(dp894
g73
(dp895
g81
I3
ssg82
g889
sg75
(lp896
S''
asbasbasbag68
(g84
g70
NtRp897
(dp898
g73
(dp899
sg82
g833
sg75
(lp900
g68
(g89
g70
NtRp901
(dp902
g73
(dp903
g93
g94
ssg82
g897
sg75
(lp904
g345
asbag68
(g89
g70
NtRp905
(dp906
g73
(dp907
g100
g101
ssg82
g897
sg75
(lp908
S':'
asbag68
(g89
g70
NtRp909
(dp910
g73
(dp911
sg82
g897
sg75
(lp912
g68
(g69
g70
NtRp913
(dp914
g73
(dp915
g81
I3
ssg82
g909
sg75
(lp916
S''
asbasbasbag68
(g84
g70
NtRp917
(dp918
g73
(dp919
sg82
g833
sg75
(lp920
g68
(g89
g70
NtRp921
(dp922
g73
(dp923
g93
g94
ssg82
g917
sg75
(lp924
g366
asbag68
(g89
g70
NtRp925
(dp926
g73
(dp927
g100
g101
ssg82
g917
sg75
(lp928
S':'
asbag68
(g89
g70
NtRp929
(dp930
g73
(dp931
sg82
g917
sg75
(lp932
g68
(g69
g70
NtRp933
(dp934
g73
(dp935
g81
I3
ssg82
g929
sg75
(lp936
S''
asbasbasbag68
(g84
g70
NtRp937
(dp938
g73
(dp939
sg82
g833
sg75
(lp940
g68
(g89
g70
NtRp941
(dp942
g73
(dp943
g93
g94
ssg82
g937
sg75
(lp944
g387
asbag68
(g89
g70
NtRp945
(dp946
g73
(dp947
g100
g101
ssg82
g937
sg75
(lp948
S':'
asbag68
(g89
g70
NtRp949
(dp950
g73
(dp951
sg82
g937
sg75
(lp952
g68
(g69
g70
NtRp953
(dp954
g73
(dp955
g81
I3
ssg82
g949
sg75
(lp956
S''
asbasbasbag68
(g84
g70
NtRp957
(dp958
g73
(dp959
sg82
g833
sg75
(lp960
g68
(g89
g70
NtRp961
(dp962
g73
(dp963
g93
g94
ssg82
g957
sg75
(lp964
g408
asbag68
(g89
g70
NtRp965
(dp966
g73
(dp967
g100
g101
ssg82
g957
sg75
(lp968
S':'
asbag68
(g89
g70
NtRp969
(dp970
g73
(dp971
sg82
g957
sg75
(lp972
g68
(g69
g70
NtRp973
(dp974
g73
(dp975
g81
I3
ssg82
g969
sg75
(lp976
S''
asbasbasbag68
(g84
g70
NtRp977
(dp978
g73
(dp979
sg82
g833
sg75
(lp980
g68
(g89
g70
NtRp981
(dp982
g73
(dp983
g93
g94
ssg82
g977
sg75
(lp984
g429
asbag68
(g89
g70
NtRp985
(dp986
g73
(dp987
g100
g101
ssg82
g977
sg75
(lp988
S':'
asbag68
(g89
g70
NtRp989
(dp990
g73
(dp991
sg82
g977
sg75
(lp992
g68
(g69
g70
NtRp993
(dp994
g73
(dp995
g81
I3
ssg82
g989
sg75
(lp996
S''
asbasbasbasbasbasbasbasbasbasbasbag68
(g84
g70
NtRp997
(dp998
g73
(dp999
sg82
g78
sg75
(lp1000
g68
(g89
g70
NtRp1001
(dp1002
g73
(dp1003
g93
g94
ssg82
g997
sg75
(lp1004
S'env'
p1005
asbag68
(g89
g70
NtRp1006
(dp1007
g73
(dp1008
g100
g101
ssg82
g997
sg75
(lp1009
S':'
asbag68
(g89
g70
NtRp1010
(dp1011
g73
(dp1012
sg82
g997
sg75
(lp1013
g68
(g69
g70
NtRp1014
(dp1015
g73
(dp1016
g81
I5
ssg82
g1010
sg75
(lp1017
g68
(g77
g70
NtRp1018
(dp1019
g73
(dp1020
g81
I4
ssg82
Nsg75
(lp1021
g68
(g84
g70
NtRp1022
(dp1023
g73
(dp1024
sg82
g1018
sg75
(lp1025
g68
(g89
g70
NtRp1026
(dp1027
g73
(dp1028
g93
g94
ssg82
g1022
sg75
(lp1029
S'app_folders'
p1030
asbag68
(g89
g70
NtRp1031
(dp1032
g73
(dp1033
g100
g101
ssg82
g1022
sg75
(lp1034
S':'
asbag68
(g89
g70
NtRp1035
(dp1036
g73
(dp1037
sg82
g1022
sg75
(lp1038
g68
(g69
g70
NtRp1039
(dp1040
g73
(dp1041
g81
I4
ssg82
g1035
sg75
(lp1042
S"set(['/home/marco/proyectos/web2py-trunk/applications/mvstore/', '/home/marco/proyectos/web2py-trunk/applications/admin/', '/home/marco/proyectos/web2py-trunk/applications/welcome/', '/home/marco/proyectos/web2py-trunk/applications/movies/'])"
p1043
asbasbasbag68
(g84
g70
NtRp1044
(dp1045
g73
(dp1046
sg82
g1018
sg75
(lp1047
g68
(g89
g70
NtRp1048
(dp1049
g73
(dp1050
g93
g94
ssg82
g1044
sg75
(lp1051
S'applications_parent'
p1052
asbag68
(g89
g70
NtRp1053
(dp1054
g73
(dp1055
g100
g101
ssg82
g1044
sg75
(lp1056
S':'
asbag68
(g89
g70
NtRp1057
(dp1058
g73
(dp1059
sg82
g1044
sg75
(lp1060
g68
(g69
g70
NtRp1061
(dp1062
g73
(dp1063
g81
I4
ssg82
g1057
sg75
(lp1064
S'/home/marco/proyectos/web2py-trunk'
p1065
asbasbasbag68
(g84
g70
NtRp1066
(dp1067
g73
(dp1068
sg82
g1018
sg75
(lp1069
g68
(g89
g70
NtRp1070
(dp1071
g73
(dp1072
g93
g94
ssg82
g1066
sg75
(lp1073
S'cmd_args'
p1074
asbag68
(g89
g70
NtRp1075
(dp1076
g73
(dp1077
g100
g101
ssg82
g1066
sg75
(lp1078
S':'
asbag68
(g89
g70
NtRp1079
(dp1080
g73
(dp1081
sg82
g1066
sg75
(lp1082
g68
(g69
g70
NtRp1083
(dp1084
g73
(dp1085
g81
I4
ssg82
g1079
sg75
(lp1086
g68
(g77
g70
NtRp1087
(dp1088
g73
(dp1089
g81
I3
ssg82
Nsg75
(lp1090
sbasbasbasbag68
(g84
g70
NtRp1091
(dp1092
g73
(dp1093
sg82
g1018
sg75
(lp1094
g68
(g89
g70
NtRp1095
(dp1096
g73
(dp1097
g93
g94
ssg82
g1091
sg75
(lp1098
S'cmd_options'
p1099
asbag68
(g89
g70
NtRp1100
(dp1101
g73
(dp1102
g100
g101
ssg82
g1091
sg75
(lp1103
S':'
asbag68
(g89
g70
NtRp1104
(dp1105
g73
(dp1106
sg82
g1091
sg75
(lp1107
g68
(g69
g70
NtRp1108
(dp1109
g73
(dp1110
g81
I4
ssg82
g1104
sg75
(lp1111
S"<Values at 0x20bab90: {'verbose': False, 'ip': '127.0.0.1', 'shutdown_timeout': 5, 'taskbar': False, 'port': 8000, 'maxthreads': None, 'softcron': False, 'server_name': 'kiki', 'bpython': False, 'nogui': False, 'nocron': False, 'extcron': False, 'debuglevel': 30, 'test': None, 'folder': '/home/marco/proyectos/web2py-trunk', 'config': '', 'import_models': False, 'winservice': '', 'shell': None, 'run': '', 'log_filename': 'httpserver.log', 'args': [''], 'profiler_filename': None, 'ssl_private_key': '', 'password': 'asd', 'request_queue_size': 5, 'ssl_certificate': '', 'cronjob': False, 'plain': False, 'quiet': False, 'interfaces': None, 'minthreads': None, 'timeout': 10, 'numthreads': None, 'nobanner': False, 'pid_filename': 'httpserver.pid'}>"
p1112
asbasbasbag68
(g84
g70
NtRp1113
(dp1114
g73
(dp1115
sg82
g1018
sg75
(lp1116
g68
(g89
g70
NtRp1117
(dp1118
g73
(dp1119
g93
g94
ssg82
g1113
sg75
(lp1120
S'db_sessions'
p1121
asbag68
(g89
g70
NtRp1122
(dp1123
g73
(dp1124
g100
g101
ssg82
g1113
sg75
(lp1125
S':'
asbag68
(g89
g70
NtRp1126
(dp1127
g73
(dp1128
sg82
g1113
sg75
(lp1129
g68
(g69
g70
NtRp1130
(dp1131
g73
(dp1132
g81
I4
ssg82
g1126
sg75
(lp1133
S'set([])'
p1134
asbasbasbag68
(g84
g70
NtRp1135
(dp1136
g73
(dp1137
sg82
g1018
sg75
(lp1138
g68
(g89
g70
NtRp1139
(dp1140
g73
(dp1141
g93
g94
ssg82
g1135
sg75
(lp1142
S'debugging'
p1143
asbag68
(g89
g70
NtRp1144
(dp1145
g73
(dp1146
g100
g101
ssg82
g1135
sg75
(lp1147
S':'
asbag68
(g89
g70
NtRp1148
(dp1149
g73
(dp1150
sg82
g1135
sg75
(lp1151
g68
(g69
g70
NtRp1152
(dp1153
g73
(dp1154
g81
I4
ssg82
g1148
sg75
(lp1155
g111
asbasbasbag68
(g84
g70
NtRp1156
(dp1157
g73
(dp1158
sg82
g1018
sg75
(lp1159
g68
(g89
g70
NtRp1160
(dp1161
g73
(dp1162
g93
g94
ssg82
g1156
sg75
(lp1163
S'gluon_parent'
p1164
asbag68
(g89
g70
NtRp1165
(dp1166
g73
(dp1167
g100
g101
ssg82
g1156
sg75
(lp1168
S':'
asbag68
(g89
g70
NtRp1169
(dp1170
g73
(dp1171
sg82
g1156
sg75
(lp1172
g68
(g69
g70
NtRp1173
(dp1174
g73
(dp1175
g81
I4
ssg82
g1169
sg75
(lp1176
S'/home/marco/proyectos/web2py-trunk'
p1177
asbasbasbag68
(g84
g70
NtRp1178
(dp1179
g73
(dp1180
sg82
g1018
sg75
(lp1181
g68
(g89
g70
NtRp1182
(dp1183
g73
(dp1184
g93
g94
ssg82
g1178
sg75
(lp1185
S'http_accept'
p1186
asbag68
(g89
g70
NtRp1187
(dp1188
g73
(dp1189
g100
g101
ssg82
g1178
sg75
(lp1190
S':'
asbag68
(g89
g70
NtRp1191
(dp1192
g73
(dp1193
sg82
g1178
sg75
(lp1194
g68
(g69
g70
NtRp1195
(dp1196
g73
(dp1197
g81
I4
ssg82
g1191
sg75
(lp1198
S'application/xml,application/xhtml+xml,text/html;q=0.9,text/plain;q=0.8,image/png,*/*;q=0.5'
p1199
asbasbasbag68
(g84
g70
NtRp1200
(dp1201
g73
(dp1202
sg82
g1018
sg75
(lp1203
g68
(g89
g70
NtRp1204
(dp1205
g73
(dp1206
g93
g94
ssg82
g1200
sg75
(lp1207
S'http_accept_charset'
p1208
asbag68
(g89
g70
NtRp1209
(dp1210
g73
(dp1211
g100
g101
ssg82
g1200
sg75
(lp1212
S':'
asbag68
(g89
g70
NtRp1213
(dp1214
g73
(dp1215
sg82
g1200
sg75
(lp1216
g68
(g69
g70
NtRp1217
(dp1218
g73
(dp1219
g81
I4
ssg82
g1213
sg75
(lp1220
S'ISO-8859-1,utf-8;q=0.7,*;q=0.3'
p1221
asbasbasbag68
(g84
g70
NtRp1222
(dp1223
g73
(dp1224
sg82
g1018
sg75
(lp1225
g68
(g89
g70
NtRp1226
(dp1227
g73
(dp1228
g93
g94
ssg82
g1222
sg75
(lp1229
S'http_accept_encoding'
p1230
asbag68
(g89
g70
NtRp1231
(dp1232
g73
(dp1233
g100
g101
ssg82
g1222
sg75
(lp1234
S':'
asbag68
(g89
g70
NtRp1235
(dp1236
g73
(dp1237
sg82
g1222
sg75
(lp1238
g68
(g69
g70
NtRp1239
(dp1240
g73
(dp1241
g81
I4
ssg82
g1235
sg75
(lp1242
S'gzip,deflate,sdch'
p1243
asbasbasbag68
(g84
g70
NtRp1244
(dp1245
g73
(dp1246
sg82
g1018
sg75
(lp1247
g68
(g89
g70
NtRp1248
(dp1249
g73
(dp1250
g93
g94
ssg82
g1244
sg75
(lp1251
S'http_accept_language'
p1252
asbag68
(g89
g70
NtRp1253
(dp1254
g73
(dp1255
g100
g101
ssg82
g1244
sg75
(lp1256
S':'
asbag68
(g89
g70
NtRp1257
(dp1258
g73
(dp1259
sg82
g1244
sg75
(lp1260
g68
(g69
g70
NtRp1261
(dp1262
g73
(dp1263
g81
I4
ssg82
g1257
sg75
(lp1264
S'es,en-US;q=0.8,en;q=0.6'
p1265
asbasbasbag68
(g84
g70
NtRp1266
(dp1267
g73
(dp1268
sg82
g1018
sg75
(lp1269
g68
(g89
g70
NtRp1270
(dp1271
g73
(dp1272
g93
g94
ssg82
g1266
sg75
(lp1273
S'http_cache_control'
p1274
asbag68
(g89
g70
NtRp1275
(dp1276
g73
(dp1277
g100
g101
ssg82
g1266
sg75
(lp1278
S':'
asbag68
(g89
g70
NtRp1279
(dp1280
g73
(dp1281
sg82
g1266
sg75
(lp1282
g68
(g69
g70
NtRp1283
(dp1284
g73
(dp1285
g81
I4
ssg82
g1279
sg75
(lp1286
S'max-age=0'
p1287
asbasbasbag68
(g84
g70
NtRp1288
(dp1289
g73
(dp1290
sg82
g1018
sg75
(lp1291
g68
(g89
g70
NtRp1292
(dp1293
g73
(dp1294
g93
g94
ssg82
g1288
sg75
(lp1295
S'http_connection'
p1296
asbag68
(g89
g70
NtRp1297
(dp1298
g73
(dp1299
g100
g101
ssg82
g1288
sg75
(lp1300
S':'
asbag68
(g89
g70
NtRp1301
(dp1302
g73
(dp1303
sg82
g1288
sg75
(lp1304
g68
(g69
g70
NtRp1305
(dp1306
g73
(dp1307
g81
I4
ssg82
g1301
sg75
(lp1308
S'keep-alive'
p1309
asbasbasbag68
(g84
g70
NtRp1310
(dp1311
g73
(dp1312
sg82
g1018
sg75
(lp1313
g68
(g89
g70
NtRp1314
(dp1315
g73
(dp1316
g93
g94
ssg82
g1310
sg75
(lp1317
S'http_cookie'
p1318
asbag68
(g89
g70
NtRp1319
(dp1320
g73
(dp1321
g100
g101
ssg82
g1310
sg75
(lp1322
S':'
asbag68
(g89
g70
NtRp1323
(dp1324
g73
(dp1325
sg82
g1310
sg75
(lp1326
g68
(g69
g70
NtRp1327
(dp1328
g73
(dp1329
g81
I4
ssg82
g1323
sg75
(lp1330
S'session_id_welcome=127.0.0.1-7cc50fbc-06f5-44bf-91cf-ab639e227783; session_id_movies=127.0.0.1-5815518e-e14e-41d4-97ac-2c1b03cee8f4; session_id_mvstore=127.0.0.1-699ef047-3345-4ea7-9b69-53730e41e3eb; session_id_admin=127.0.0.1-f3c6641d-1fc1-4762-9c7b-05a2bf4be828'
p1331
asbasbasbag68
(g84
g70
NtRp1332
(dp1333
g73
(dp1334
sg82
g1018
sg75
(lp1335
g68
(g89
g70
NtRp1336
(dp1337
g73
(dp1338
g93
g94
ssg82
g1332
sg75
(lp1339
S'http_host'
p1340
asbag68
(g89
g70
NtRp1341
(dp1342
g73
(dp1343
g100
g101
ssg82
g1332
sg75
(lp1344
S':'
asbag68
(g89
g70
NtRp1345
(dp1346
g73
(dp1347
sg82
g1332
sg75
(lp1348
g68
(g69
g70
NtRp1349
(dp1350
g73
(dp1351
g81
I4
ssg82
g1345
sg75
(lp1352
S'127.0.0.1:8000'
p1353
asbasbasbag68
(g84
g70
NtRp1354
(dp1355
g73
(dp1356
sg82
g1018
sg75
(lp1357
g68
(g89
g70
NtRp1358
(dp1359
g73
(dp1360
g93
g94
ssg82
g1354
sg75
(lp1361
S'http_referer'
p1362
asbag68
(g89
g70
NtRp1363
(dp1364
g73
(dp1365
g100
g101
ssg82
g1354
sg75
(lp1366
S':'
asbag68
(g89
g70
NtRp1367
(dp1368
g73
(dp1369
sg82
g1354
sg75
(lp1370
g68
(g69
g70
NtRp1371
(dp1372
g73
(dp1373
g81
I4
ssg82
g1367
sg75
(lp1374
S'http://127.0.0.1:8000/mvstore/default/prestamos'
p1375
asbasbasbag68
(g84
g70
NtRp1376
(dp1377
g73
(dp1378
sg82
g1018
sg75
(lp1379
g68
(g89
g70
NtRp1380
(dp1381
g73
(dp1382
g93
g94
ssg82
g1376
sg75
(lp1383
S'http_user_agent'
p1384
asbag68
(g89
g70
NtRp1385
(dp1386
g73
(dp1387
g100
g101
ssg82
g1376
sg75
(lp1388
S':'
asbag68
(g89
g70
NtRp1389
(dp1390
g73
(dp1391
sg82
g1376
sg75
(lp1392
g68
(g69
g70
NtRp1393
(dp1394
g73
(dp1395
g81
I4
ssg82
g1389
sg75
(lp1396
S'Mozilla/5.0 (X11; U; Linux x86_64; en-US) AppleWebKit/534.16 (KHTML, like Gecko) Chrome/10.0.648.205 Safari/534.16'
p1397
asbasbasbag68
(g84
g70
NtRp1398
(dp1399
g73
(dp1400
sg82
g1018
sg75
(lp1401
g68
(g89
g70
NtRp1402
(dp1403
g73
(dp1404
g93
g94
ssg82
g1398
sg75
(lp1405
S'path_info'
p1406
asbag68
(g89
g70
NtRp1407
(dp1408
g73
(dp1409
g100
g101
ssg82
g1398
sg75
(lp1410
S':'
asbag68
(g89
g70
NtRp1411
(dp1412
g73
(dp1413
sg82
g1398
sg75
(lp1414
g68
(g69
g70
NtRp1415
(dp1416
g73
(dp1417
g81
I4
ssg82
g1411
sg75
(lp1418
S'/mvstore/default/prestamos'
p1419
asbasbasbag68
(g84
g70
NtRp1420
(dp1421
g73
(dp1422
sg82
g1018
sg75
(lp1423
g68
(g89
g70
NtRp1424
(dp1425
g73
(dp1426
g93
g94
ssg82
g1420
sg75
(lp1427
S'query_string'
p1428
asbag68
(g89
g70
NtRp1429
(dp1430
g73
(dp1431
g100
g101
ssg82
g1420
sg75
(lp1432
S':'
asbag68
(g89
g70
NtRp1433
(dp1434
g73
(dp1435
sg82
g1420
sg75
(lp1436
g68
(g69
g70
NtRp1437
(dp1438
g73
(dp1439
g81
I4
ssg82
g1433
sg75
(lp1440
S''
asbasbasbag68
(g84
g70
NtRp1441
(dp1442
g73
(dp1443
sg82
g1018
sg75
(lp1444
g68
(g89
g70
NtRp1445
(dp1446
g73
(dp1447
g93
g94
ssg82
g1441
sg75
(lp1448
S'remote_addr'
p1449
asbag68
(g89
g70
NtRp1450
(dp1451
g73
(dp1452
g100
g101
ssg82
g1441
sg75
(lp1453
S':'
asbag68
(g89
g70
NtRp1454
(dp1455
g73
(dp1456
sg82
g1441
sg75
(lp1457
g68
(g69
g70
NtRp1458
(dp1459
g73
(dp1460
g81
I4
ssg82
g1454
sg75
(lp1461
g201
asbasbasbag68
(g84
g70
NtRp1462
(dp1463
g73
(dp1464
sg82
g1018
sg75
(lp1465
g68
(g89
g70
NtRp1466
(dp1467
g73
(dp1468
g93
g94
ssg82
g1462
sg75
(lp1469
S'remote_port'
p1470
asbag68
(g89
g70
NtRp1471
(dp1472
g73
(dp1473
g100
g101
ssg82
g1462
sg75
(lp1474
S':'
asbag68
(g89
g70
NtRp1475
(dp1476
g73
(dp1477
sg82
g1462
sg75
(lp1478
g68
(g69
g70
NtRp1479
(dp1480
g73
(dp1481
g81
I4
ssg82
g1475
sg75
(lp1482
S'56748'
p1483
asbasbasbag68
(g84
g70
NtRp1484
(dp1485
g73
(dp1486
sg82
g1018
sg75
(lp1487
g68
(g89
g70
NtRp1488
(dp1489
g73
(dp1490
g93
g94
ssg82
g1484
sg75
(lp1491
S'request_method'
p1492
asbag68
(g89
g70
NtRp1493
(dp1494
g73
(dp1495
g100
g101
ssg82
g1484
sg75
(lp1496
S':'
asbag68
(g89
g70
NtRp1497
(dp1498
g73
(dp1499
sg82
g1484
sg75
(lp1500
g68
(g69
g70
NtRp1501
(dp1502
g73
(dp1503
g81
I4
ssg82
g1497
sg75
(lp1504
S'GET'
p1505
asbasbasbag68
(g84
g70
NtRp1506
(dp1507
g73
(dp1508
sg82
g1018
sg75
(lp1509
g68
(g89
g70
NtRp1510
(dp1511
g73
(dp1512
g93
g94
ssg82
g1506
sg75
(lp1513
S'script_name'
p1514
asbag68
(g89
g70
NtRp1515
(dp1516
g73
(dp1517
g100
g101
ssg82
g1506
sg75
(lp1518
S':'
asbag68
(g89
g70
NtRp1519
(dp1520
g73
(dp1521
sg82
g1506
sg75
(lp1522
g68
(g69
g70
NtRp1523
(dp1524
g73
(dp1525
g81
I4
ssg82
g1519
sg75
(lp1526
S''
asbasbasbag68
(g84
g70
NtRp1527
(dp1528
g73
(dp1529
sg82
g1018
sg75
(lp1530
g68
(g89
g70
NtRp1531
(dp1532
g73
(dp1533
g93
g94
ssg82
g1527
sg75
(lp1534
S'server_name'
p1535
asbag68
(g89
g70
NtRp1536
(dp1537
g73
(dp1538
g100
g101
ssg82
g1527
sg75
(lp1539
S':'
asbag68
(g89
g70
NtRp1540
(dp1541
g73
(dp1542
sg82
g1527
sg75
(lp1543
g68
(g69
g70
NtRp1544
(dp1545
g73
(dp1546
g81
I4
ssg82
g1540
sg75
(lp1547
S'kiki'
p1548
asbasbasbag68
(g84
g70
NtRp1549
(dp1550
g73
(dp1551
sg82
g1018
sg75
(lp1552
g68
(g89
g70
NtRp1553
(dp1554
g73
(dp1555
g93
g94
ssg82
g1549
sg75
(lp1556
S'server_port'
p1557
asbag68
(g89
g70
NtRp1558
(dp1559
g73
(dp1560
g100
g101
ssg82
g1549
sg75
(lp1561
S':'
asbag68
(g89
g70
NtRp1562
(dp1563
g73
(dp1564
sg82
g1549
sg75
(lp1565
g68
(g69
g70
NtRp1566
(dp1567
g73
(dp1568
g81
I4
ssg82
g1562
sg75
(lp1569
S'8000'
p1570
asbasbasbag68
(g84
g70
NtRp1571
(dp1572
g73
(dp1573
sg82
g1018
sg75
(lp1574
g68
(g89
g70
NtRp1575
(dp1576
g73
(dp1577
g93
g94
ssg82
g1571
sg75
(lp1578
S'server_protocol'
p1579
asbag68
(g89
g70
NtRp1580
(dp1581
g73
(dp1582
g100
g101
ssg82
g1571
sg75
(lp1583
S':'
asbag68
(g89
g70
NtRp1584
(dp1585
g73
(dp1586
sg82
g1571
sg75
(lp1587
g68
(g69
g70
NtRp1588
(dp1589
g73
(dp1590
g81
I4
ssg82
g1584
sg75
(lp1591
S'HTTP/1.1'
p1592
asbasbasbag68
(g84
g70
NtRp1593
(dp1594
g73
(dp1595
sg82
g1018
sg75
(lp1596
g68
(g89
g70
NtRp1597
(dp1598
g73
(dp1599
g93
g94
ssg82
g1593
sg75
(lp1600
S'server_software'
p1601
asbag68
(g89
g70
NtRp1602
(dp1603
g73
(dp1604
g100
g101
ssg82
g1593
sg75
(lp1605
S':'
asbag68
(g89
g70
NtRp1606
(dp1607
g73
(dp1608
sg82
g1593
sg75
(lp1609
g68
(g69
g70
NtRp1610
(dp1611
g73
(dp1612
g81
I4
ssg82
g1606
sg75
(lp1613
S'Rocket 1.2.2'
p1614
asbasbasbag68
(g84
g70
NtRp1615
(dp1616
g73
(dp1617
sg82
g1018
sg75
(lp1618
g68
(g89
g70
NtRp1619
(dp1620
g73
(dp1621
g93
g94
ssg82
g1615
sg75
(lp1622
S'web2py_crontype'
p1623
asbag68
(g89
g70
NtRp1624
(dp1625
g73
(dp1626
g100
g101
ssg82
g1615
sg75
(lp1627
S':'
asbag68
(g89
g70
NtRp1628
(dp1629
g73
(dp1630
sg82
g1615
sg75
(lp1631
g68
(g69
g70
NtRp1632
(dp1633
g73
(dp1634
g81
I4
ssg82
g1628
sg75
(lp1635
S'hard'
p1636
asbasbasbag68
(g84
g70
NtRp1637
(dp1638
g73
(dp1639
sg82
g1018
sg75
(lp1640
g68
(g89
g70
NtRp1641
(dp1642
g73
(dp1643
g93
g94
ssg82
g1637
sg75
(lp1644
S'web2py_path'
p1645
asbag68
(g89
g70
NtRp1646
(dp1647
g73
(dp1648
g100
g101
ssg82
g1637
sg75
(lp1649
S':'
asbag68
(g89
g70
NtRp1650
(dp1651
g73
(dp1652
sg82
g1637
sg75
(lp1653
g68
(g69
g70
NtRp1654
(dp1655
g73
(dp1656
g81
I4
ssg82
g1650
sg75
(lp1657
g1065
asbasbasbag68
(g84
g70
NtRp1658
(dp1659
g73
(dp1660
sg82
g1018
sg75
(lp1661
g68
(g89
g70
NtRp1662
(dp1663
g73
(dp1664
g93
g94
ssg82
g1658
sg75
(lp1665
S'web2py_version'
p1666
asbag68
(g89
g70
NtRp1667
(dp1668
g73
(dp1669
g100
g101
ssg82
g1658
sg75
(lp1670
S':'
asbag68
(g89
g70
NtRp1671
(dp1672
g73
(dp1673
sg82
g1658
sg75
(lp1674
g68
(g69
g70
NtRp1675
(dp1676
g73
(dp1677
g81
I4
ssg82
g1671
sg75
(lp1678
S'        iersion 1.94.1 (2011-03-17 16:30:58)\n'
p1679
asbasbasbag68
(g84
g70
NtRp1680
(dp1681
g73
(dp1682
sg82
g1018
sg75
(lp1683
g68
(g89
g70
NtRp1684
(dp1685
g73
(dp1686
g93
g94
ssg82
g1680
sg75
(lp1687
S'wsgi_errors'
p1688
asbag68
(g89
g70
NtRp1689
(dp1690
g73
(dp1691
g100
g101
ssg82
g1680
sg75
(lp1692
S':'
asbag68
(g89
g70
NtRp1693
(dp1694
g73
(dp1695
sg82
g1680
sg75
(lp1696
g68
(g69
g70
NtRp1697
(dp1698
g73
(dp1699
g81
I4
ssg82
g1693
sg75
(lp1700
S"<open file '<stderr>', mode 'w' at 0x7f2161e451e0>"
p1701
asbasbasbag68
(g84
g70
NtRp1702
(dp1703
g73
(dp1704
sg82
g1018
sg75
(lp1705
g68
(g89
g70
NtRp1706
(dp1707
g73
(dp1708
g93
g94
ssg82
g1702
sg75
(lp1709
S'wsgi_file_wrapper'
p1710
asbag68
(g89
g70
NtRp1711
(dp1712
g73
(dp1713
g100
g101
ssg82
g1702
sg75
(lp1714
S':'
asbag68
(g89
g70
NtRp1715
(dp1716
g73
(dp1717
sg82
g1702
sg75
(lp1718
g68
(g69
g70
NtRp1719
(dp1720
g73
(dp1721
g81
I4
ssg82
g1715
sg75
(lp1722
S'<class gluon.rocket.FileWrapper at 0x1f2d3b0>'
p1723
asbasbasbag68
(g84
g70
NtRp1724
(dp1725
g73
(dp1726
sg82
g1018
sg75
(lp1727
g68
(g89
g70
NtRp1728
(dp1729
g73
(dp1730
g93
g94
ssg82
g1724
sg75
(lp1731
S'wsgi_input'
p1732
asbag68
(g89
g70
NtRp1733
(dp1734
g73
(dp1735
g100
g101
ssg82
g1724
sg75
(lp1736
S':'
asbag68
(g89
g70
NtRp1737
(dp1738
g73
(dp1739
sg82
g1724
sg75
(lp1740
g68
(g69
g70
NtRp1741
(dp1742
g73
(dp1743
g81
I4
ssg82
g1737
sg75
(lp1744
S'<socket._fileobject object at 0x26699d0>'
p1745
asbasbasbag68
(g84
g70
NtRp1746
(dp1747
g73
(dp1748
sg82
g1018
sg75
(lp1749
g68
(g89
g70
NtRp1750
(dp1751
g73
(dp1752
g93
g94
ssg82
g1746
sg75
(lp1753
S'wsgi_multiprocess'
p1754
asbag68
(g89
g70
NtRp1755
(dp1756
g73
(dp1757
g100
g101
ssg82
g1746
sg75
(lp1758
S':'
asbag68
(g89
g70
NtRp1759
(dp1760
g73
(dp1761
sg82
g1746
sg75
(lp1762
g68
(g69
g70
NtRp1763
(dp1764
g73
(dp1765
g81
I4
ssg82
g1759
sg75
(lp1766
g111
asbasbasbag68
(g84
g70
NtRp1767
(dp1768
g73
(dp1769
sg82
g1018
sg75
(lp1770
g68
(g89
g70
NtRp1771
(dp1772
g73
(dp1773
g93
g94
ssg82
g1767
sg75
(lp1774
S'wsgi_multithread'
p1775
asbag68
(g89
g70
NtRp1776
(dp1777
g73
(dp1778
g100
g101
ssg82
g1767
sg75
(lp1779
S':'
asbag68
(g89
g70
NtRp1780
(dp1781
g73
(dp1782
sg82
g1767
sg75
(lp1783
g68
(g69
g70
NtRp1784
(dp1785
g73
(dp1786
g81
I4
ssg82
g1780
sg75
(lp1787
S'True'
p1788
asbasbasbag68
(g84
g70
NtRp1789
(dp1790
g73
(dp1791
sg82
g1018
sg75
(lp1792
g68
(g89
g70
NtRp1793
(dp1794
g73
(dp1795
g93
g94
ssg82
g1789
sg75
(lp1796
S'wsgi_run_once'
p1797
asbag68
(g89
g70
NtRp1798
(dp1799
g73
(dp1800
g100
g101
ssg82
g1789
sg75
(lp1801
S':'
asbag68
(g89
g70
NtRp1802
(dp1803
g73
(dp1804
sg82
g1789
sg75
(lp1805
g68
(g69
g70
NtRp1806
(dp1807
g73
(dp1808
g81
I4
ssg82
g1802
sg75
(lp1809
g111
asbasbasbag68
(g84
g70
NtRp1810
(dp1811
g73
(dp1812
sg82
g1018
sg75
(lp1813
g68
(g89
g70
NtRp1814
(dp1815
g73
(dp1816
g93
g94
ssg82
g1810
sg75
(lp1817
S'wsgi_url_scheme'
p1818
asbag68
(g89
g70
NtRp1819
(dp1820
g73
(dp1821
g100
g101
ssg82
g1810
sg75
(lp1822
S':'
asbag68
(g89
g70
NtRp1823
(dp1824
g73
(dp1825
sg82
g1810
sg75
(lp1826
g68
(g69
g70
NtRp1827
(dp1828
g73
(dp1829
g81
I4
ssg82
g1823
sg75
(lp1830
S'http'
p1831
asbasbasbag68
(g84
g70
NtRp1832
(dp1833
g73
(dp1834
sg82
g1018
sg75
(lp1835
g68
(g89
g70
NtRp1836
(dp1837
g73
(dp1838
g93
g94
ssg82
g1832
sg75
(lp1839
S'wsgi_version'
p1840
asbag68
(g89
g70
NtRp1841
(dp1842
g73
(dp1843
g100
g101
ssg82
g1832
sg75
(lp1844
S':'
asbag68
(g89
g70
NtRp1845
(dp1846
g73
(dp1847
sg82
g1832
sg75
(lp1848
g68
(g69
g70
NtRp1849
(dp1850
g73
(dp1851
g81
I4
ssg82
g1845
sg75
(lp1852
g68
(g77
g70
NtRp1853
(dp1854
g73
(dp1855
g81
I3
ssg82
Nsg75
(lp1856
g68
(g84
g70
NtRp1857
(dp1858
g73
(dp1859
sg82
g1853
sg75
(lp1860
g68
(g89
g70
NtRp1861
(dp1862
g73
(dp1863
sg82
g1857
sg75
(lp1864
g68
(g69
g70
NtRp1865
(dp1866
g73
(dp1867
g81
I3
ssg82
g1861
sg75
(lp1868
S'1'
asbasbasbag68
(g84
g70
NtRp1869
(dp1870
g73
(dp1871
sg82
g1853
sg75
(lp1872
g68
(g89
g70
NtRp1873
(dp1874
g73
(dp1875
sg82
g1869
sg75
(lp1876
g68
(g69
g70
NtRp1877
(dp1878
g73
(dp1879
g81
I3
ssg82
g1873
sg75
(lp1880
S'0'
asbasbasbasbasbasbasbasbasbasbasbag68
(g84
g70
NtRp1881
(dp1882
g73
(dp1883
sg82
g78
sg75
(lp1884
g68
(g89
g70
NtRp1885
(dp1886
g73
(dp1887
g93
g94
ssg82
g1881
sg75
(lp1888
S'extension'
p1889
asbag68
(g89
g70
NtRp1890
(dp1891
g73
(dp1892
g100
g101
ssg82
g1881
sg75
(lp1893
S':'
asbag68
(g89
g70
NtRp1894
(dp1895
g73
(dp1896
sg82
g1881
sg75
(lp1897
g68
(g69
g70
NtRp1898
(dp1899
g73
(dp1900
g81
I5
ssg82
g1894
sg75
(lp1901
S'html'
p1902
asbasbasbag68
(g84
g70
NtRp1903
(dp1904
g73
(dp1905
sg82
g78
sg75
(lp1906
g68
(g89
g70
NtRp1907
(dp1908
g73
(dp1909
g93
g94
ssg82
g1903
sg75
(lp1910
S'folder'
p1911
asbag68
(g89
g70
NtRp1912
(dp1913
g73
(dp1914
g100
g101
ssg82
g1903
sg75
(lp1915
S':'
asbag68
(g89
g70
NtRp1916
(dp1917
g73
(dp1918
sg82
g1903
sg75
(lp1919
g68
(g69
g70
NtRp1920
(dp1921
g73
(dp1922
g81
I5
ssg82
g1916
sg75
(lp1923
S'/home/marco/proyectos/web2py-trunk/applications/mvstore/'
p1924
asbasbasbag68
(g84
g70
NtRp1925
(dp1926
g73
(dp1927
sg82
g78
sg75
(lp1928
g68
(g89
g70
NtRp1929
(dp1930
g73
(dp1931
g93
g94
ssg82
g1925
sg75
(lp1932
S'function'
p1933
asbag68
(g89
g70
NtRp1934
(dp1935
g73
(dp1936
g100
g101
ssg82
g1925
sg75
(lp1937
S':'
asbag68
(g89
g70
NtRp1938
(dp1939
g73
(dp1940
sg82
g1925
sg75
(lp1941
g68
(g69
g70
NtRp1942
(dp1943
g73
(dp1944
g81
I5
ssg82
g1938
sg75
(lp1945
S'prestamos'
p1946
asbasbasbag68
(g84
g70
NtRp1947
(dp1948
g73
(dp1949
sg82
g78
sg75
(lp1950
g68
(g89
g70
NtRp1951
(dp1952
g73
(dp1953
g93
g94
ssg82
g1947
sg75
(lp1954
S'get_vars'
p1955
asbag68
(g89
g70
NtRp1956
(dp1957
g73
(dp1958
g100
g101
ssg82
g1947
sg75
(lp1959
S':'
asbag68
(g89
g70
NtRp1960
(dp1961
g73
(dp1962
sg82
g1947
sg75
(lp1963
g68
(g69
g70
NtRp1964
(dp1965
g73
(dp1966
g81
I5
ssg82
g1960
sg75
(lp1967
g68
(g77
g70
NtRp1968
(dp1969
g73
(dp1970
g81
I4
ssg82
Nsg75
(lp1971
sbasbasbasbag68
(g84
g70
NtRp1972
(dp1973
g73
(dp1974
sg82
g78
sg75
(lp1975
g68
(g89
g70
NtRp1976
(dp1977
g73
(dp1978
g93
g94
ssg82
g1972
sg75
(lp1979
S'is_https'
p1980
asbag68
(g89
g70
NtRp1981
(dp1982
g73
(dp1983
g100
g101
ssg82
g1972
sg75
(lp1984
S':'
asbag68
(g89
g70
NtRp1985
(dp1986
g73
(dp1987
sg82
g1972
sg75
(lp1988
g68
(g69
g70
NtRp1989
(dp1990
g73
(dp1991
g81
I5
ssg82
g1985
sg75
(lp1992
g111
asbasbasbag68
(g84
g70
NtRp1993
(dp1994
g73
(dp1995
sg82
g78
sg75
(lp1996
g68
(g89
g70
NtRp1997
(dp1998
g73
(dp1999
g93
g94
ssg82
g1993
sg75
(lp2000
S'is_local'
p2001
asbag68
(g89
g70
NtRp2002
(dp2003
g73
(dp2004
g100
g101
ssg82
g1993
sg75
(lp2005
S':'
asbag68
(g89
g70
NtRp2006
(dp2007
g73
(dp2008
sg82
g1993
sg75
(lp2009
g68
(g69
g70
NtRp2010
(dp2011
g73
(dp2012
g81
I5
ssg82
g2006
sg75
(lp2013
g1788
asbasbasbag68
(g84
g70
NtRp2014
(dp2015
g73
(dp2016
sg82
g78
sg75
(lp2017
g68
(g89
g70
NtRp2018
(dp2019
g73
(dp2020
g93
g94
ssg82
g2014
sg75
(lp2021
S'is_restful'
p2022
asbag68
(g89
g70
NtRp2023
(dp2024
g73
(dp2025
g100
g101
ssg82
g2014
sg75
(lp2026
S':'
asbag68
(g89
g70
NtRp2027
(dp2028
g73
(dp2029
sg82
g2014
sg75
(lp2030
g68
(g69
g70
NtRp2031
(dp2032
g73
(dp2033
g81
I5
ssg82
g2027
sg75
(lp2034
g111
asbasbasbag68
(g84
g70
NtRp2035
(dp2036
g73
(dp2037
sg82
g78
sg75
(lp2038
g68
(g89
g70
NtRp2039
(dp2040
g73
(dp2041
g93
g94
ssg82
g2035
sg75
(lp2042
S'now'
p2043
asbag68
(g89
g70
NtRp2044
(dp2045
g73
(dp2046
g100
g101
ssg82
g2035
sg75
(lp2047
S':'
asbag68
(g89
g70
NtRp2048
(dp2049
g73
(dp2050
sg82
g2035
sg75
(lp2051
g68
(g69
g70
NtRp2052
(dp2053
g73
(dp2054
g81
I5
ssg82
g2048
sg75
(lp2055
S'datetime.datetime(2011, 6, 19, 19, 41, 8, 676192)'
p2056
asbasbasbag68
(g84
g70
NtRp2057
(dp2058
g73
(dp2059
sg82
g78
sg75
(lp2060
g68
(g89
g70
NtRp2061
(dp2062
g73
(dp2063
g93
g94
ssg82
g2057
sg75
(lp2064
S'post_vars'
p2065
asbag68
(g89
g70
NtRp2066
(dp2067
g73
(dp2068
g100
g101
ssg82
g2057
sg75
(lp2069
S':'
asbag68
(g89
g70
NtRp2070
(dp2071
g73
(dp2072
sg82
g2057
sg75
(lp2073
g68
(g69
g70
NtRp2074
(dp2075
g73
(dp2076
g81
I5
ssg82
g2070
sg75
(lp2077
g68
(g77
g70
NtRp2078
(dp2079
g73
(dp2080
g81
I4
ssg82
Nsg75
(lp2081
sbasbasbasbag68
(g84
g70
NtRp2082
(dp2083
g73
(dp2084
sg82
g78
sg75
(lp2085
g68
(g89
g70
NtRp2086
(dp2087
g73
(dp2088
g93
g94
ssg82
g2082
sg75
(lp2089
S'url'
p2090
asbag68
(g89
g70
NtRp2091
(dp2092
g73
(dp2093
g100
g101
ssg82
g2082
sg75
(lp2094
S':'
asbag68
(g89
g70
NtRp2095
(dp2096
g73
(dp2097
sg82
g2082
sg75
(lp2098
g68
(g69
g70
NtRp2099
(dp2100
g73
(dp2101
g81
I5
ssg82
g2095
sg75
(lp2102
S'/mvstore/default/prestamos'
p2103
asbasbasbag68
(g84
g70
NtRp2104
(dp2105
g73
(dp2106
sg82
g78
sg75
(lp2107
g68
(g89
g70
NtRp2108
(dp2109
g73
(dp2110
g93
g94
ssg82
g2104
sg75
(lp2111
S'uuid'
p2112
asbag68
(g89
g70
NtRp2113
(dp2114
g73
(dp2115
g100
g101
ssg82
g2104
sg75
(lp2116
S':'
asbag68
(g89
g70
NtRp2117
(dp2118
g73
(dp2119
sg82
g2104
sg75
(lp2120
g68
(g69
g70
NtRp2121
(dp2122
g73
(dp2123
g81
I5
ssg82
g2117
sg75
(lp2124
S'mvstore/127.0.0.1.2011-06-19.19-41-08.fe5a6b71-d615-43e8-b258-f505802a59a2'
p2125
asbasbasbag68
(g84
g70
NtRp2126
(dp2127
g73
(dp2128
sg82
g78
sg75
(lp2129
g68
(g89
g70
NtRp2130
(dp2131
g73
(dp2132
g93
g94
ssg82
g2126
sg75
(lp2133
S'vars'
p2134
asbag68
(g89
g70
NtRp2135
(dp2136
g73
(dp2137
g100
g101
ssg82
g2126
sg75
(lp2138
S':'
asbag68
(g89
g70
NtRp2139
(dp2140
g73
(dp2141
sg82
g2126
sg75
(lp2142
g68
(g69
g70
NtRp2143
(dp2144
g73
(dp2145
g81
I5
ssg82
g2139
sg75
(lp2146
g68
(g77
g70
NtRp2147
(dp2148
g73
(dp2149
g81
I4
ssg82
Nsg75
(lp2150
sbasbasbasbag68
(g84
g70
NtRp2151
(dp2152
g73
(dp2153
sg82
g78
sg75
(lp2154
g68
(g89
g70
NtRp2155
(dp2156
g73
(dp2157
g93
g94
ssg82
g2151
sg75
(lp2158
S'wsgi'
p2159
asbag68
(g89
g70
NtRp2160
(dp2161
g73
(dp2162
g100
g101
ssg82
g2151
sg75
(lp2163
S':'
asbag68
(g89
g70
NtRp2164
(dp2165
g73
(dp2166
sg82
g2151
sg75
(lp2167
g68
(g69
g70
NtRp2168
(dp2169
g73
(dp2170
g81
I5
ssg82
g2164
sg75
(lp2171
g68
(g77
g70
NtRp2172
(dp2173
g73
(dp2174
g81
I4
ssg82
Nsg75
(lp2175
g68
(g84
g70
NtRp2176
(dp2177
g73
(dp2178
sg82
g2172
sg75
(lp2179
g68
(g89
g70
NtRp2180
(dp2181
g73
(dp2182
g93
g94
ssg82
g2176
sg75
(lp2183
S'environ'
p2184
asbag68
(g89
g70
NtRp2185
(dp2186
g73
(dp2187
g100
g101
ssg82
g2176
sg75
(lp2188
S':'
asbag68
(g89
g70
NtRp2189
(dp2190
g73
(dp2191
sg82
g2176
sg75
(lp2192
g68
(g69
g70
NtRp2193
(dp2194
g73
(dp2195
g81
I4
ssg82
g2189
sg75
(lp2196
g68
(g77
g70
NtRp2197
(dp2198
g73
(dp2199
g81
I3
ssg82
Nsg75
(lp2200
g68
(g84
g70
NtRp2201
(dp2202
g73
(dp2203
sg82
g2197
sg75
(lp2204
g68
(g89
g70
NtRp2205
(dp2206
g73
(dp2207
g93
g94
ssg82
g2201
sg75
(lp2208
S'HTTP_ACCEPT'
p2209
asbag68
(g89
g70
NtRp2210
(dp2211
g73
(dp2212
g100
g101
ssg82
g2201
sg75
(lp2213
S':'
asbag68
(g89
g70
NtRp2214
(dp2215
g73
(dp2216
sg82
g2201
sg75
(lp2217
g68
(g69
g70
NtRp2218
(dp2219
g73
(dp2220
g81
I3
ssg82
g2214
sg75
(lp2221
g1199
asbasbasbag68
(g84
g70
NtRp2222
(dp2223
g73
(dp2224
sg82
g2197
sg75
(lp2225
g68
(g89
g70
NtRp2226
(dp2227
g73
(dp2228
g93
g94
ssg82
g2222
sg75
(lp2229
S'HTTP_ACCEPT_CHARSET'
p2230
asbag68
(g89
g70
NtRp2231
(dp2232
g73
(dp2233
g100
g101
ssg82
g2222
sg75
(lp2234
S':'
asbag68
(g89
g70
NtRp2235
(dp2236
g73
(dp2237
sg82
g2222
sg75
(lp2238
g68
(g69
g70
NtRp2239
(dp2240
g73
(dp2241
g81
I3
ssg82
g2235
sg75
(lp2242
g1221
asbasbasbag68
(g84
g70
NtRp2243
(dp2244
g73
(dp2245
sg82
g2197
sg75
(lp2246
g68
(g89
g70
NtRp2247
(dp2248
g73
(dp2249
g93
g94
ssg82
g2243
sg75
(lp2250
S'HTTP_ACCEPT_ENCODING'
p2251
asbag68
(g89
g70
NtRp2252
(dp2253
g73
(dp2254
g100
g101
ssg82
g2243
sg75
(lp2255
S':'
asbag68
(g89
g70
NtRp2256
(dp2257
g73
(dp2258
sg82
g2243
sg75
(lp2259
g68
(g69
g70
NtRp2260
(dp2261
g73
(dp2262
g81
I3
ssg82
g2256
sg75
(lp2263
g1243
asbasbasbag68
(g84
g70
NtRp2264
(dp2265
g73
(dp2266
sg82
g2197
sg75
(lp2267
g68
(g89
g70
NtRp2268
(dp2269
g73
(dp2270
g93
g94
ssg82
g2264
sg75
(lp2271
S'HTTP_ACCEPT_LANGUAGE'
p2272
asbag68
(g89
g70
NtRp2273
(dp2274
g73
(dp2275
g100
g101
ssg82
g2264
sg75
(lp2276
S':'
asbag68
(g89
g70
NtRp2277
(dp2278
g73
(dp2279
sg82
g2264
sg75
(lp2280
g68
(g69
g70
NtRp2281
(dp2282
g73
(dp2283
g81
I3
ssg82
g2277
sg75
(lp2284
g1265
asbasbasbag68
(g84
g70
NtRp2285
(dp2286
g73
(dp2287
sg82
g2197
sg75
(lp2288
g68
(g89
g70
NtRp2289
(dp2290
g73
(dp2291
g93
g94
ssg82
g2285
sg75
(lp2292
S'HTTP_CACHE_CONTROL'
p2293
asbag68
(g89
g70
NtRp2294
(dp2295
g73
(dp2296
g100
g101
ssg82
g2285
sg75
(lp2297
S':'
asbag68
(g89
g70
NtRp2298
(dp2299
g73
(dp2300
sg82
g2285
sg75
(lp2301
g68
(g69
g70
NtRp2302
(dp2303
g73
(dp2304
g81
I3
ssg82
g2298
sg75
(lp2305
g1287
asbasbasbag68
(g84
g70
NtRp2306
(dp2307
g73
(dp2308
sg82
g2197
sg75
(lp2309
g68
(g89
g70
NtRp2310
(dp2311
g73
(dp2312
g93
g94
ssg82
g2306
sg75
(lp2313
S'HTTP_CONNECTION'
p2314
asbag68
(g89
g70
NtRp2315
(dp2316
g73
(dp2317
g100
g101
ssg82
g2306
sg75
(lp2318
S':'
asbag68
(g89
g70
NtRp2319
(dp2320
g73
(dp2321
sg82
g2306
sg75
(lp2322
g68
(g69
g70
NtRp2323
(dp2324
g73
(dp2325
g81
I3
ssg82
g2319
sg75
(lp2326
g1309
asbasbasbag68
(g84
g70
NtRp2327
(dp2328
g73
(dp2329
sg82
g2197
sg75
(lp2330
g68
(g89
g70
NtRp2331
(dp2332
g73
(dp2333
g93
g94
ssg82
g2327
sg75
(lp2334
S'HTTP_COOKIE'
p2335
asbag68
(g89
g70
NtRp2336
(dp2337
g73
(dp2338
g100
g101
ssg82
g2327
sg75
(lp2339
S':'
asbag68
(g89
g70
NtRp2340
(dp2341
g73
(dp2342
sg82
g2327
sg75
(lp2343
g68
(g69
g70
NtRp2344
(dp2345
g73
(dp2346
g81
I3
ssg82
g2340
sg75
(lp2347
g1331
asbasbasbag68
(g84
g70
NtRp2348
(dp2349
g73
(dp2350
sg82
g2197
sg75
(lp2351
g68
(g89
g70
NtRp2352
(dp2353
g73
(dp2354
g93
g94
ssg82
g2348
sg75
(lp2355
S'HTTP_HOST'
p2356
asbag68
(g89
g70
NtRp2357
(dp2358
g73
(dp2359
g100
g101
ssg82
g2348
sg75
(lp2360
S':'
asbag68
(g89
g70
NtRp2361
(dp2362
g73
(dp2363
sg82
g2348
sg75
(lp2364
g68
(g69
g70
NtRp2365
(dp2366
g73
(dp2367
g81
I3
ssg82
g2361
sg75
(lp2368
g1353
asbasbasbag68
(g84
g70
NtRp2369
(dp2370
g73
(dp2371
sg82
g2197
sg75
(lp2372
g68
(g89
g70
NtRp2373
(dp2374
g73
(dp2375
g93
g94
ssg82
g2369
sg75
(lp2376
S'HTTP_REFERER'
p2377
asbag68
(g89
g70
NtRp2378
(dp2379
g73
(dp2380
g100
g101
ssg82
g2369
sg75
(lp2381
S':'
asbag68
(g89
g70
NtRp2382
(dp2383
g73
(dp2384
sg82
g2369
sg75
(lp2385
g68
(g69
g70
NtRp2386
(dp2387
g73
(dp2388
g81
I3
ssg82
g2382
sg75
(lp2389
g1375
asbasbasbag68
(g84
g70
NtRp2390
(dp2391
g73
(dp2392
sg82
g2197
sg75
(lp2393
g68
(g89
g70
NtRp2394
(dp2395
g73
(dp2396
g93
g94
ssg82
g2390
sg75
(lp2397
S'HTTP_USER_AGENT'
p2398
asbag68
(g89
g70
NtRp2399
(dp2400
g73
(dp2401
g100
g101
ssg82
g2390
sg75
(lp2402
S':'
asbag68
(g89
g70
NtRp2403
(dp2404
g73
(dp2405
sg82
g2390
sg75
(lp2406
g68
(g69
g70
NtRp2407
(dp2408
g73
(dp2409
g81
I3
ssg82
g2403
sg75
(lp2410
g1397
asbasbasbag68
(g84
g70
NtRp2411
(dp2412
g73
(dp2413
sg82
g2197
sg75
(lp2414
g68
(g89
g70
NtRp2415
(dp2416
g73
(dp2417
g93
g94
ssg82
g2411
sg75
(lp2418
S'PATH_INFO'
p2419
asbag68
(g89
g70
NtRp2420
(dp2421
g73
(dp2422
g100
g101
ssg82
g2411
sg75
(lp2423
S':'
asbag68
(g89
g70
NtRp2424
(dp2425
g73
(dp2426
sg82
g2411
sg75
(lp2427
g68
(g69
g70
NtRp2428
(dp2429
g73
(dp2430
g81
I3
ssg82
g2424
sg75
(lp2431
g1419
asbasbasbag68
(g84
g70
NtRp2432
(dp2433
g73
(dp2434
sg82
g2197
sg75
(lp2435
g68
(g89
g70
NtRp2436
(dp2437
g73
(dp2438
g93
g94
ssg82
g2432
sg75
(lp2439
S'QUERY_STRING'
p2440
asbag68
(g89
g70
NtRp2441
(dp2442
g73
(dp2443
g100
g101
ssg82
g2432
sg75
(lp2444
S':'
asbag68
(g89
g70
NtRp2445
(dp2446
g73
(dp2447
sg82
g2432
sg75
(lp2448
g68
(g69
g70
NtRp2449
(dp2450
g73
(dp2451
g81
I3
ssg82
g2445
sg75
(lp2452
S''
asbasbasbag68
(g84
g70
NtRp2453
(dp2454
g73
(dp2455
sg82
g2197
sg75
(lp2456
g68
(g89
g70
NtRp2457
(dp2458
g73
(dp2459
g93
g94
ssg82
g2453
sg75
(lp2460
S'REMOTE_ADDR'
p2461
asbag68
(g89
g70
NtRp2462
(dp2463
g73
(dp2464
g100
g101
ssg82
g2453
sg75
(lp2465
S':'
asbag68
(g89
g70
NtRp2466
(dp2467
g73
(dp2468
sg82
g2453
sg75
(lp2469
g68
(g69
g70
NtRp2470
(dp2471
g73
(dp2472
g81
I3
ssg82
g2466
sg75
(lp2473
g201
asbasbasbag68
(g84
g70
NtRp2474
(dp2475
g73
(dp2476
sg82
g2197
sg75
(lp2477
g68
(g89
g70
NtRp2478
(dp2479
g73
(dp2480
g93
g94
ssg82
g2474
sg75
(lp2481
S'REMOTE_PORT'
p2482
asbag68
(g89
g70
NtRp2483
(dp2484
g73
(dp2485
g100
g101
ssg82
g2474
sg75
(lp2486
S':'
asbag68
(g89
g70
NtRp2487
(dp2488
g73
(dp2489
sg82
g2474
sg75
(lp2490
g68
(g69
g70
NtRp2491
(dp2492
g73
(dp2493
g81
I3
ssg82
g2487
sg75
(lp2494
g1483
asbasbasbag68
(g84
g70
NtRp2495
(dp2496
g73
(dp2497
sg82
g2197
sg75
(lp2498
g68
(g89
g70
NtRp2499
(dp2500
g73
(dp2501
g93
g94
ssg82
g2495
sg75
(lp2502
S'REQUEST_METHOD'
p2503
asbag68
(g89
g70
NtRp2504
(dp2505
g73
(dp2506
g100
g101
ssg82
g2495
sg75
(lp2507
S':'
asbag68
(g89
g70
NtRp2508
(dp2509
g73
(dp2510
sg82
g2495
sg75
(lp2511
g68
(g69
g70
NtRp2512
(dp2513
g73
(dp2514
g81
I3
ssg82
g2508
sg75
(lp2515
g1505
asbasbasbag68
(g84
g70
NtRp2516
(dp2517
g73
(dp2518
sg82
g2197
sg75
(lp2519
g68
(g89
g70
NtRp2520
(dp2521
g73
(dp2522
g93
g94
ssg82
g2516
sg75
(lp2523
S'SCRIPT_NAME'
p2524
asbag68
(g89
g70
NtRp2525
(dp2526
g73
(dp2527
g100
g101
ssg82
g2516
sg75
(lp2528
S':'
asbag68
(g89
g70
NtRp2529
(dp2530
g73
(dp2531
sg82
g2516
sg75
(lp2532
g68
(g69
g70
NtRp2533
(dp2534
g73
(dp2535
g81
I3
ssg82
g2529
sg75
(lp2536
S''
asbasbasbag68
(g84
g70
NtRp2537
(dp2538
g73
(dp2539
sg82
g2197
sg75
(lp2540
g68
(g89
g70
NtRp2541
(dp2542
g73
(dp2543
g93
g94
ssg82
g2537
sg75
(lp2544
S'SERVER_NAME'
p2545
asbag68
(g89
g70
NtRp2546
(dp2547
g73
(dp2548
g100
g101
ssg82
g2537
sg75
(lp2549
S':'
asbag68
(g89
g70
NtRp2550
(dp2551
g73
(dp2552
sg82
g2537
sg75
(lp2553
g68
(g69
g70
NtRp2554
(dp2555
g73
(dp2556
g81
I3
ssg82
g2550
sg75
(lp2557
g1548
asbasbasbag68
(g84
g70
NtRp2558
(dp2559
g73
(dp2560
sg82
g2197
sg75
(lp2561
g68
(g89
g70
NtRp2562
(dp2563
g73
(dp2564
g93
g94
ssg82
g2558
sg75
(lp2565
S'SERVER_PORT'
p2566
asbag68
(g89
g70
NtRp2567
(dp2568
g73
(dp2569
g100
g101
ssg82
g2558
sg75
(lp2570
S':'
asbag68
(g89
g70
NtRp2571
(dp2572
g73
(dp2573
sg82
g2558
sg75
(lp2574
g68
(g69
g70
NtRp2575
(dp2576
g73
(dp2577
g81
I3
ssg82
g2571
sg75
(lp2578
g1570
asbasbasbag68
(g84
g70
NtRp2579
(dp2580
g73
(dp2581
sg82
g2197
sg75
(lp2582
g68
(g89
g70
NtRp2583
(dp2584
g73
(dp2585
g93
g94
ssg82
g2579
sg75
(lp2586
S'SERVER_PROTOCOL'
p2587
asbag68
(g89
g70
NtRp2588
(dp2589
g73
(dp2590
g100
g101
ssg82
g2579
sg75
(lp2591
S':'
asbag68
(g89
g70
NtRp2592
(dp2593
g73
(dp2594
sg82
g2579
sg75
(lp2595
g68
(g69
g70
NtRp2596
(dp2597
g73
(dp2598
g81
I3
ssg82
g2592
sg75
(lp2599
g1592
asbasbasbag68
(g84
g70
NtRp2600
(dp2601
g73
(dp2602
sg82
g2197
sg75
(lp2603
g68
(g89
g70
NtRp2604
(dp2605
g73
(dp2606
g93
g94
ssg82
g2600
sg75
(lp2607
S'SERVER_SOFTWARE'
p2608
asbag68
(g89
g70
NtRp2609
(dp2610
g73
(dp2611
g100
g101
ssg82
g2600
sg75
(lp2612
S':'
asbag68
(g89
g70
NtRp2613
(dp2614
g73
(dp2615
sg82
g2600
sg75
(lp2616
g68
(g69
g70
NtRp2617
(dp2618
g73
(dp2619
g81
I3
ssg82
g2613
sg75
(lp2620
g1614
asbasbasbag68
(g84
g70
NtRp2621
(dp2622
g73
(dp2623
sg82
g2197
sg75
(lp2624
g68
(g89
g70
NtRp2625
(dp2626
g73
(dp2627
g93
g94
ssg82
g2621
sg75
(lp2628
S'wsgi.errors'
p2629
asbag68
(g89
g70
NtRp2630
(dp2631
g73
(dp2632
g100
g101
ssg82
g2621
sg75
(lp2633
S':'
asbag68
(g89
g70
NtRp2634
(dp2635
g73
(dp2636
sg82
g2621
sg75
(lp2637
g68
(g69
g70
NtRp2638
(dp2639
g73
(dp2640
g81
I3
ssg82
g2634
sg75
(lp2641
S"<open file '<stderr>', mode 'w' at 0x7f2161e451e0>"
p2642
asbasbasbag68
(g84
g70
NtRp2643
(dp2644
g73
(dp2645
sg82
g2197
sg75
(lp2646
g68
(g89
g70
NtRp2647
(dp2648
g73
(dp2649
g93
g94
ssg82
g2643
sg75
(lp2650
S'wsgi.file_wrapper'
p2651
asbag68
(g89
g70
NtRp2652
(dp2653
g73
(dp2654
g100
g101
ssg82
g2643
sg75
(lp2655
S':'
asbag68
(g89
g70
NtRp2656
(dp2657
g73
(dp2658
sg82
g2643
sg75
(lp2659
g68
(g69
g70
NtRp2660
(dp2661
g73
(dp2662
g81
I3
ssg82
g2656
sg75
(lp2663
S'<class gluon.rocket.FileWrapper at 0x1f2d3b0>'
p2664
asbasbasbag68
(g84
g70
NtRp2665
(dp2666
g73
(dp2667
sg82
g2197
sg75
(lp2668
g68
(g89
g70
NtRp2669
(dp2670
g73
(dp2671
g93
g94
ssg82
g2665
sg75
(lp2672
S'wsgi.input'
p2673
asbag68
(g89
g70
NtRp2674
(dp2675
g73
(dp2676
g100
g101
ssg82
g2665
sg75
(lp2677
S':'
asbag68
(g89
g70
NtRp2678
(dp2679
g73
(dp2680
sg82
g2665
sg75
(lp2681
g68
(g69
g70
NtRp2682
(dp2683
g73
(dp2684
g81
I3
ssg82
g2678
sg75
(lp2685
S'<cStringIO.StringO object at 0x229b8f0>'
p2686
asbasbasbag68
(g84
g70
NtRp2687
(dp2688
g73
(dp2689
sg82
g2197
sg75
(lp2690
g68
(g89
g70
NtRp2691
(dp2692
g73
(dp2693
g93
g94
ssg82
g2687
sg75
(lp2694
S'wsgi.multiprocess'
p2695
asbag68
(g89
g70
NtRp2696
(dp2697
g73
(dp2698
g100
g101
ssg82
g2687
sg75
(lp2699
S':'
asbag68
(g89
g70
NtRp2700
(dp2701
g73
(dp2702
sg82
g2687
sg75
(lp2703
g68
(g69
g70
NtRp2704
(dp2705
g73
(dp2706
g81
I3
ssg82
g2700
sg75
(lp2707
g111
asbasbasbag68
(g84
g70
NtRp2708
(dp2709
g73
(dp2710
sg82
g2197
sg75
(lp2711
g68
(g89
g70
NtRp2712
(dp2713
g73
(dp2714
g93
g94
ssg82
g2708
sg75
(lp2715
S'wsgi.multithread'
p2716
asbag68
(g89
g70
NtRp2717
(dp2718
g73
(dp2719
g100
g101
ssg82
g2708
sg75
(lp2720
S':'
asbag68
(g89
g70
NtRp2721
(dp2722
g73
(dp2723
sg82
g2708
sg75
(lp2724
g68
(g69
g70
NtRp2725
(dp2726
g73
(dp2727
g81
I3
ssg82
g2721
sg75
(lp2728
g1788
asbasbasbag68
(g84
g70
NtRp2729
(dp2730
g73
(dp2731
sg82
g2197
sg75
(lp2732
g68
(g89
g70
NtRp2733
(dp2734
g73
(dp2735
g93
g94
ssg82
g2729
sg75
(lp2736
S'wsgi.run_once'
p2737
asbag68
(g89
g70
NtRp2738
(dp2739
g73
(dp2740
g100
g101
ssg82
g2729
sg75
(lp2741
S':'
asbag68
(g89
g70
NtRp2742
(dp2743
g73
(dp2744
sg82
g2729
sg75
(lp2745
g68
(g69
g70
NtRp2746
(dp2747
g73
(dp2748
g81
I3
ssg82
g2742
sg75
(lp2749
g111
asbasbasbag68
(g84
g70
NtRp2750
(dp2751
g73
(dp2752
sg82
g2197
sg75
(lp2753
g68
(g89
g70
NtRp2754
(dp2755
g73
(dp2756
g93
g94
ssg82
g2750
sg75
(lp2757
S'wsgi.url_scheme'
p2758
asbag68
(g89
g70
NtRp2759
(dp2760
g73
(dp2761
g100
g101
ssg82
g2750
sg75
(lp2762
S':'
asbag68
(g89
g70
NtRp2763
(dp2764
g73
(dp2765
sg82
g2750
sg75
(lp2766
g68
(g69
g70
NtRp2767
(dp2768
g73
(dp2769
g81
I3
ssg82
g2763
sg75
(lp2770
g1831
asbasbasbag68
(g84
g70
NtRp2771
(dp2772
g73
(dp2773
sg82
g2197
sg75
(lp2774
g68
(g89
g70
NtRp2775
(dp2776
g73
(dp2777
g93
g94
ssg82
g2771
sg75
(lp2778
S'wsgi.version'
p2779
asbag68
(g89
g70
NtRp2780
(dp2781
g73
(dp2782
g100
g101
ssg82
g2771
sg75
(lp2783
S':'
asbag68
(g89
g70
NtRp2784
(dp2785
g73
(dp2786
sg82
g2771
sg75
(lp2787
g68
(g69
g70
NtRp2788
(dp2789
g73
(dp2790
g81
I3
ssg82
g2784
sg75
(lp2791
S'1'
asbasbasbasbasbasbasbasbasbasbasbasbasbsS'frames'
p2792
(lp2793
(dp2794
S'file'
p2795
S'/home/marco/proyectos/web2py-trunk/gluon/restricted.py'
p2796
sS'dump'
p2797
(dp2798
S'code'
p2799
S"'#-*- coding: utf-8 -*-\\n# this file is released u...dos)\\n\\nresponse._vars=response._caller(prestamos)\\n'"
p2800
sS'layer'
p2801
S"'/home/marco/proyectos/web2py-trunk/applications/mvstore/controllers/default.py'"
p2802
sS'global compile2'
p2803
S'<function compile2>'
p2804
sS'ccode'
p2805
S'undefined'
p2806
ssS'lnum'
p2807
I191
sS'lines'
p2808
(dp2809
I192
S'        exec ccode in environment'
p2810
sI193
S'    except HTTP:'
p2811
sI194
S'        raise'
p2812
sI195
S'    except Exception:'
p2813
sI186
S"    environment['__file__'] = layer"
p2814
sI187
S'    try:'
p2815
sI188
S'        if type(code) == types.CodeType:'
p2816
sI189
S'            ccode = code'
p2817
sI190
S'        else:'
p2818
sI191
S'            ccode = compile2(code,layer)'
p2819
ssS'call'
p2820
S"(code='#-*- coding: utf-8 -*-\\n# this file is released u...dos)\\n\\nresponse._vars=response._caller(prestamos)\\n', environment={'A': <class 'gluon.html.A'>, 'Auth': <class 'gluon.tools.Auth'>, 'B': <class 'gluon.html.B'>, 'BEAUTIFY': <class 'gluon.html.BEAUTIFY'>, 'BODY': <class 'gluon.html.BODY'>, 'BR': <class 'gluon.html.BR'>, 'BUTTON': <class 'gluon.html.BUTTON'>, 'CENTER': <class 'gluon.html.CENTER'>, 'CLEANUP': <class 'gluon.validators.CLEANUP'>, 'CODE': <class 'gluon.html.CODE'>, ...}, layer='/home/marco/proyectos/web2py-trunk/applications/mvstore/controllers/default.py')"
p2821
sS'func'
p2822
S'restricted'
p2823
sa(dp2824
g2795
S'/home/marco/proyectos/web2py-trunk/gluon/restricted.py'
p2825
sg2797
(dp2826
S'builtincompile'
p2827
S'<built-in function compile>'
p2828
sS'code'
p2829
S"'#-*- coding: utf-8 -*-\\n# this file is released u...dos)\\n\\nresponse._vars=response._caller(prestamos)\\n'"
p2830
sS'code.rstrip'
p2831
S'<built-in method rstrip of str object>'
p2832
sS').replace'
p2833
g2806
sS'layer'
p2834
S"'/home/marco/proyectos/web2py-trunk/applications/mvstore/controllers/default.py'"
p2835
ssg2807
I178
sg2808
(dp2836
I173
S''
sI174
S'def compile2(code,layer):'
p2837
sI175
S'    """'
p2838
sI176
S"    The +'\\n' is necessary else compile fails when code ends in a comment."
p2839
sI177
S'    """'
p2840
sI178
S"    return compile(code.rstrip().replace('\\r\\n','\\n')+'\\n', layer, 'exec')"
p2841
sI179
S''
sI180
S"def restricted(code, environment={}, layer='Unknown'):"
p2842
sI181
S'    """'
p2843
sI182
S'    runs code in environment and returns the output. if an exception occurs'
p2844
ssg2820
S"(code='#-*- coding: utf-8 -*-\\n# this file is released u...dos)\\n\\nresponse._vars=response._caller(prestamos)\\n', layer='/home/marco/proyectos/web2py-trunk/applications/mvstore/controllers/default.py')"
p2845
sg2822
S'compile2'
p2846
sasS'pyver'
p2847
S'Python 2.6.6: /usr/bin/python'
p2848
sS'session'
p2849
g68
(g69
g70
NtRp2850
(dp2851
g73
(dp2852
sg75
(lp2853
g68
(g77
g70
NtRp2854
(dp2855
g73
(dp2856
g81
I5
ssg82
Nsg75
(lp2857
sbasbsS'etype'
p2858
S"<type 'exceptions.SyntaxError'>"
p2859
sS'date'
p2860
S'Sun Jun 19 19:41:08 2011'
p2861
sS'response'
p2862
g68
(g69
g70
NtRp2863
(dp2864
g73
(dp2865
sg75
(lp2866
g68
(g77
g70
NtRp2867
(dp2868
g73
(dp2869
g81
I5
ssg82
Nsg75
(lp2870
g68
(g84
g70
NtRp2871
(dp2872
g73
(dp2873
sg82
g2867
sg75
(lp2874
g68
(g89
g70
NtRp2875
(dp2876
g73
(dp2877
g93
g94
ssg82
g2871
sg75
(lp2878
g166
asbag68
(g89
g70
NtRp2879
(dp2880
g73
(dp2881
g100
g101
ssg82
g2871
sg75
(lp2882
S':'
asbag68
(g89
g70
NtRp2883
(dp2884
g73
(dp2885
sg82
g2871
sg75
(lp2886
g68
(g69
g70
NtRp2887
(dp2888
g73
(dp2889
g81
I5
ssg82
g2883
sg75
(lp2890
S'<cStringIO.StringO object at 0x292ffb8>'
p2891
asbasbasbag68
(g84
g70
NtRp2892
(dp2893
g73
(dp2894
sg82
g2867
sg75
(lp2895
g68
(g89
g70
NtRp2896
(dp2897
g73
(dp2898
g93
g94
ssg82
g2892
sg75
(lp2899
g232
asbag68
(g89
g70
NtRp2900
(dp2901
g73
(dp2902
g100
g101
ssg82
g2892
sg75
(lp2903
S':'
asbag68
(g89
g70
NtRp2904
(dp2905
g73
(dp2906
sg82
g2892
sg75
(lp2907
g68
(g69
g70
NtRp2908
(dp2909
g73
(dp2910
g81
I5
ssg82
g2904
sg75
(lp2911
g68
(g77
g70
NtRp2912
(dp2913
g73
(dp2914
g81
I4
ssg82
Nsg75
(lp2915
g68
(g84
g70
NtRp2916
(dp2917
g73
(dp2918
sg82
g2912
sg75
(lp2919
g68
(g89
g70
NtRp2920
(dp2921
g73
(dp2922
g93
g94
ssg82
g2916
sg75
(lp2923
S'session_id_mvstore'
p2924
asbag68
(g89
g70
NtRp2925
(dp2926
g73
(dp2927
g100
g101
ssg82
g2916
sg75
(lp2928
S':'
asbag68
(g89
g70
NtRp2929
(dp2930
g73
(dp2931
sg82
g2916
sg75
(lp2932
g68
(g69
g70
NtRp2933
(dp2934
g73
(dp2935
g81
I4
ssg82
g2929
sg75
(lp2936
g68
(g77
g70
NtRp2937
(dp2938
g73
(dp2939
g81
I3
ssg82
Nsg75
(lp2940
g68
(g84
g70
NtRp2941
(dp2942
g73
(dp2943
sg82
g2937
sg75
(lp2944
g68
(g89
g70
NtRp2945
(dp2946
g73
(dp2947
g93
g94
ssg82
g2941
sg75
(lp2948
g282
asbag68
(g89
g70
NtRp2949
(dp2950
g73
(dp2951
g100
g101
ssg82
g2941
sg75
(lp2952
S':'
asbag68
(g89
g70
NtRp2953
(dp2954
g73
(dp2955
sg82
g2941
sg75
(lp2956
g68
(g69
g70
NtRp2957
(dp2958
g73
(dp2959
g81
I3
ssg82
g2953
sg75
(lp2960
S''
asbasbasbag68
(g84
g70
NtRp2961
(dp2962
g73
(dp2963
sg82
g2937
sg75
(lp2964
g68
(g89
g70
NtRp2965
(dp2966
g73
(dp2967
g93
g94
ssg82
g2961
sg75
(lp2968
g303
asbag68
(g89
g70
NtRp2969
(dp2970
g73
(dp2971
g100
g101
ssg82
g2961
sg75
(lp2972
S':'
asbag68
(g89
g70
NtRp2973
(dp2974
g73
(dp2975
sg82
g2961
sg75
(lp2976
g68
(g69
g70
NtRp2977
(dp2978
g73
(dp2979
g81
I3
ssg82
g2973
sg75
(lp2980
S''
asbasbasbag68
(g84
g70
NtRp2981
(dp2982
g73
(dp2983
sg82
g2937
sg75
(lp2984
g68
(g89
g70
NtRp2985
(dp2986
g73
(dp2987
g93
g94
ssg82
g2981
sg75
(lp2988
g324
asbag68
(g89
g70
NtRp2989
(dp2990
g73
(dp2991
g100
g101
ssg82
g2981
sg75
(lp2992
S':'
asbag68
(g89
g70
NtRp2993
(dp2994
g73
(dp2995
sg82
g2981
sg75
(lp2996
g68
(g69
g70
NtRp2997
(dp2998
g73
(dp2999
g81
I3
ssg82
g2993
sg75
(lp3000
S''
asbasbasbag68
(g84
g70
NtRp3001
(dp3002
g73
(dp3003
sg82
g2937
sg75
(lp3004
g68
(g89
g70
NtRp3005
(dp3006
g73
(dp3007
g93
g94
ssg82
g3001
sg75
(lp3008
g345
asbag68
(g89
g70
NtRp3009
(dp3010
g73
(dp3011
g100
g101
ssg82
g3001
sg75
(lp3012
S':'
asbag68
(g89
g70
NtRp3013
(dp3014
g73
(dp3015
sg82
g3001
sg75
(lp3016
g68
(g69
g70
NtRp3017
(dp3018
g73
(dp3019
g81
I3
ssg82
g3013
sg75
(lp3020
S''
asbasbasbag68
(g84
g70
NtRp3021
(dp3022
g73
(dp3023
sg82
g2937
sg75
(lp3024
g68
(g89
g70
NtRp3025
(dp3026
g73
(dp3027
g93
g94
ssg82
g3021
sg75
(lp3028
g366
asbag68
(g89
g70
NtRp3029
(dp3030
g73
(dp3031
g100
g101
ssg82
g3021
sg75
(lp3032
S':'
asbag68
(g89
g70
NtRp3033
(dp3034
g73
(dp3035
sg82
g3021
sg75
(lp3036
g68
(g69
g70
NtRp3037
(dp3038
g73
(dp3039
g81
I3
ssg82
g3033
sg75
(lp3040
S''
asbasbasbag68
(g84
g70
NtRp3041
(dp3042
g73
(dp3043
sg82
g2937
sg75
(lp3044
g68
(g89
g70
NtRp3045
(dp3046
g73
(dp3047
g93
g94
ssg82
g3041
sg75
(lp3048
g387
asbag68
(g89
g70
NtRp3049
(dp3050
g73
(dp3051
g100
g101
ssg82
g3041
sg75
(lp3052
S':'
asbag68
(g89
g70
NtRp3053
(dp3054
g73
(dp3055
sg82
g3041
sg75
(lp3056
g68
(g69
g70
NtRp3057
(dp3058
g73
(dp3059
g81
I3
ssg82
g3053
sg75
(lp3060
S'/'
asbasbasbag68
(g84
g70
NtRp3061
(dp3062
g73
(dp3063
sg82
g2937
sg75
(lp3064
g68
(g89
g70
NtRp3065
(dp3066
g73
(dp3067
g93
g94
ssg82
g3061
sg75
(lp3068
g408
asbag68
(g89
g70
NtRp3069
(dp3070
g73
(dp3071
g100
g101
ssg82
g3061
sg75
(lp3072
S':'
asbag68
(g89
g70
NtRp3073
(dp3074
g73
(dp3075
sg82
g3061
sg75
(lp3076
g68
(g69
g70
NtRp3077
(dp3078
g73
(dp3079
g81
I3
ssg82
g3073
sg75
(lp3080
S''
asbasbasbag68
(g84
g70
NtRp3081
(dp3082
g73
(dp3083
sg82
g2937
sg75
(lp3084
g68
(g89
g70
NtRp3085
(dp3086
g73
(dp3087
g93
g94
ssg82
g3081
sg75
(lp3088
g429
asbag68
(g89
g70
NtRp3089
(dp3090
g73
(dp3091
g100
g101
ssg82
g3081
sg75
(lp3092
S':'
asbag68
(g89
g70
NtRp3093
(dp3094
g73
(dp3095
sg82
g3081
sg75
(lp3096
g68
(g69
g70
NtRp3097
(dp3098
g73
(dp3099
g81
I3
ssg82
g3093
sg75
(lp3100
S''
asbasbasbasbasbasbasbasbasbasbasbag68
(g84
g70
NtRp3101
(dp3102
g73
(dp3103
sg82
g2867
sg75
(lp3104
g68
(g89
g70
NtRp3105
(dp3106
g73
(dp3107
g93
g94
ssg82
g3101
sg75
(lp3108
S'files'
p3109
asbag68
(g89
g70
NtRp3110
(dp3111
g73
(dp3112
g100
g101
ssg82
g3101
sg75
(lp3113
S':'
asbag68
(g89
g70
NtRp3114
(dp3115
g73
(dp3116
sg82
g3101
sg75
(lp3117
g68
(g69
g70
NtRp3118
(dp3119
g73
(dp3120
g81
I5
ssg82
g3114
sg75
(lp3121
g68
(g77
g70
NtRp3122
(dp3123
g73
(dp3124
g81
I4
ssg82
Nsg75
(lp3125
sbasbasbasbag68
(g84
g70
NtRp3126
(dp3127
g73
(dp3128
sg82
g2867
sg75
(lp3129
g68
(g89
g70
NtRp3130
(dp3131
g73
(dp3132
g93
g94
ssg82
g3126
sg75
(lp3133
S'flash'
p3134
asbag68
(g89
g70
NtRp3135
(dp3136
g73
(dp3137
g100
g101
ssg82
g3126
sg75
(lp3138
S':'
asbag68
(g89
g70
NtRp3139
(dp3140
g73
(dp3141
sg82
g3126
sg75
(lp3142
g68
(g69
g70
NtRp3143
(dp3144
g73
(dp3145
g81
I5
ssg82
g3139
sg75
(lp3146
S''
asbasbasbag68
(g84
g70
NtRp3147
(dp3148
g73
(dp3149
sg82
g2867
sg75
(lp3150
g68
(g89
g70
NtRp3151
(dp3152
g73
(dp3153
g93
g94
ssg82
g3147
sg75
(lp3154
S'headers'
p3155
asbag68
(g89
g70
NtRp3156
(dp3157
g73
(dp3158
g100
g101
ssg82
g3147
sg75
(lp3159
S':'
asbag68
(g89
g70
NtRp3160
(dp3161
g73
(dp3162
sg82
g3147
sg75
(lp3163
g68
(g69
g70
NtRp3164
(dp3165
g73
(dp3166
g81
I5
ssg82
g3160
sg75
(lp3167
g68
(g77
g70
NtRp3168
(dp3169
g73
(dp3170
g81
I4
ssg82
Nsg75
(lp3171
g68
(g84
g70
NtRp3172
(dp3173
g73
(dp3174
sg82
g3168
sg75
(lp3175
g68
(g89
g70
NtRp3176
(dp3177
g73
(dp3178
g93
g94
ssg82
g3172
sg75
(lp3179
S'Cache-Control'
p3180
asbag68
(g89
g70
NtRp3181
(dp3182
g73
(dp3183
g100
g101
ssg82
g3172
sg75
(lp3184
S':'
asbag68
(g89
g70
NtRp3185
(dp3186
g73
(dp3187
sg82
g3172
sg75
(lp3188
g68
(g69
g70
NtRp3189
(dp3190
g73
(dp3191
g81
I4
ssg82
g3185
sg75
(lp3192
S'no-store, no-cache, must-revalidate, post-check=0, pre-check=0'
p3193
asbasbasbag68
(g84
g70
NtRp3194
(dp3195
g73
(dp3196
sg82
g3168
sg75
(lp3197
g68
(g89
g70
NtRp3198
(dp3199
g73
(dp3200
g93
g94
ssg82
g3194
sg75
(lp3201
S'Content-Type'
p3202
asbag68
(g89
g70
NtRp3203
(dp3204
g73
(dp3205
g100
g101
ssg82
g3194
sg75
(lp3206
S':'
asbag68
(g89
g70
NtRp3207
(dp3208
g73
(dp3209
sg82
g3194
sg75
(lp3210
g68
(g69
g70
NtRp3211
(dp3212
g73
(dp3213
g81
I4
ssg82
g3207
sg75
(lp3214
S'text/html; charset=utf-8'
p3215
asbasbasbag68
(g84
g70
NtRp3216
(dp3217
g73
(dp3218
sg82
g3168
sg75
(lp3219
g68
(g89
g70
NtRp3220
(dp3221
g73
(dp3222
g93
g94
ssg82
g3216
sg75
(lp3223
S'Expires'
p3224
asbag68
(g89
g70
NtRp3225
(dp3226
g73
(dp3227
g100
g101
ssg82
g3216
sg75
(lp3228
S':'
asbag68
(g89
g70
NtRp3229
(dp3230
g73
(dp3231
sg82
g3216
sg75
(lp3232
g68
(g69
g70
NtRp3233
(dp3234
g73
(dp3235
g81
I4
ssg82
g3229
sg75
(lp3236
S'Sun, 19 Jun 2011 22:41:08 GMT'
p3237
asbasbasbag68
(g84
g70
NtRp3238
(dp3239
g73
(dp3240
sg82
g3168
sg75
(lp3241
g68
(g89
g70
NtRp3242
(dp3243
g73
(dp3244
g93
g94
ssg82
g3238
sg75
(lp3245
S'Pragma'
p3246
asbag68
(g89
g70
NtRp3247
(dp3248
g73
(dp3249
g100
g101
ssg82
g3238
sg75
(lp3250
S':'
asbag68
(g89
g70
NtRp3251
(dp3252
g73
(dp3253
sg82
g3238
sg75
(lp3254
g68
(g69
g70
NtRp3255
(dp3256
g73
(dp3257
g81
I4
ssg82
g3251
sg75
(lp3258
S'no-cache'
p3259
asbasbasbag68
(g84
g70
NtRp3260
(dp3261
g73
(dp3262
sg82
g3168
sg75
(lp3263
g68
(g89
g70
NtRp3264
(dp3265
g73
(dp3266
g93
g94
ssg82
g3260
sg75
(lp3267
S'X-Powered-By'
p3268
asbag68
(g89
g70
NtRp3269
(dp3270
g73
(dp3271
g100
g101
ssg82
g3260
sg75
(lp3272
S':'
asbag68
(g89
g70
NtRp3273
(dp3274
g73
(dp3275
sg82
g3260
sg75
(lp3276
g68
(g69
g70
NtRp3277
(dp3278
g73
(dp3279
g81
I4
ssg82
g3273
sg75
(lp3280
S'web2py'
p3281
asbasbasbasbasbasbasbag68
(g84
g70
NtRp3282
(dp3283
g73
(dp3284
sg82
g2867
sg75
(lp3285
g68
(g89
g70
NtRp3286
(dp3287
g73
(dp3288
g93
g94
ssg82
g3282
sg75
(lp3289
S'menu'
p3290
asbag68
(g89
g70
NtRp3291
(dp3292
g73
(dp3293
g100
g101
ssg82
g3282
sg75
(lp3294
S':'
asbag68
(g89
g70
NtRp3295
(dp3296
g73
(dp3297
sg82
g3282
sg75
(lp3298
g68
(g69
g70
NtRp3299
(dp3300
g73
(dp3301
g81
I5
ssg82
g3295
sg75
(lp3302
g68
(g77
g70
NtRp3303
(dp3304
g73
(dp3305
g81
I4
ssg82
Nsg75
(lp3306
g68
(g84
g70
NtRp3307
(dp3308
g73
(dp3309
sg82
g3303
sg75
(lp3310
g68
(g89
g70
NtRp3311
(dp3312
g73
(dp3313
sg82
g3307
sg75
(lp3314
g68
(g69
g70
NtRp3315
(dp3316
g73
(dp3317
g81
I4
ssg82
g3311
sg75
(lp3318
g68
(g77
g70
NtRp3319
(dp3320
g73
(dp3321
g81
I3
ssg82
Nsg75
(lp3322
g68
(g84
g70
NtRp3323
(dp3324
g73
(dp3325
sg82
g3319
sg75
(lp3326
g68
(g89
g70
NtRp3327
(dp3328
g73
(dp3329
sg82
g3323
sg75
(lp3330
g68
(g69
g70
NtRp3331
(dp3332
g73
(dp3333
g81
I3
ssg82
g3327
sg75
(lp3334
cgluon.languages
lazyT_unpickle
p3335
(S's\x04\x00\x00\x00Home'
tRp3336
asbasbasbag68
(g84
g70
NtRp3337
(dp3338
g73
(dp3339
sg82
g3319
sg75
(lp3340
g68
(g89
g70
NtRp3341
(dp3342
g73
(dp3343
sg82
g3337
sg75
(lp3344
g68
(g69
g70
NtRp3345
(dp3346
g73
(dp3347
g81
I3
ssg82
g3341
sg75
(lp3348
g111
asbasbasbag68
(g84
g70
NtRp3349
(dp3350
g73
(dp3351
sg82
g3319
sg75
(lp3352
g68
(g89
g70
NtRp3353
(dp3354
g73
(dp3355
sg82
g3349
sg75
(lp3356
g68
(g69
g70
NtRp3357
(dp3358
g73
(dp3359
g81
I3
ssg82
g3353
sg75
(lp3360
S'/mvstore/default/index'
p3361
asbasbasbag68
(g84
g70
NtRp3362
(dp3363
g73
(dp3364
sg82
g3319
sg75
(lp3365
g68
(g89
g70
NtRp3366
(dp3367
g73
(dp3368
sg82
g3362
sg75
(lp3369
g68
(g69
g70
NtRp3370
(dp3371
g73
(dp3372
g81
I3
ssg82
g3366
sg75
(lp3373
g68
(g77
g70
NtRp3374
(dp3375
g73
(dp3376
g81
I2
ssg82
Nsg75
(lp3377
sbasbasbasbasbasbasbasbag68
(g84
g70
NtRp3378
(dp3379
g73
(dp3380
sg82
g3303
sg75
(lp3381
g68
(g89
g70
NtRp3382
(dp3383
g73
(dp3384
sg82
g3378
sg75
(lp3385
g68
(g69
g70
NtRp3386
(dp3387
g73
(dp3388
g81
I4
ssg82
g3382
sg75
(lp3389
g68
(g77
g70
NtRp3390
(dp3391
g73
(dp3392
g81
I3
ssg82
Nsg75
(lp3393
g68
(g84
g70
NtRp3394
(dp3395
g73
(dp3396
sg82
g3390
sg75
(lp3397
g68
(g89
g70
NtRp3398
(dp3399
g73
(dp3400
sg82
g3394
sg75
(lp3401
g68
(g69
g70
NtRp3402
(dp3403
g73
(dp3404
g81
I3
ssg82
g3398
sg75
(lp3405
g3335
(S's\x08\x00\x00\x00This App'
tRp3406
asbasbasbag68
(g84
g70
NtRp3407
(dp3408
g73
(dp3409
sg82
g3390
sg75
(lp3410
g68
(g89
g70
NtRp3411
(dp3412
g73
(dp3413
sg82
g3407
sg75
(lp3414
g68
(g69
g70
NtRp3415
(dp3416
g73
(dp3417
g81
I3
ssg82
g3411
sg75
(lp3418
g111
asbasbasbag68
(g84
g70
NtRp3419
(dp3420
g73
(dp3421
sg82
g3390
sg75
(lp3422
g68
(g89
g70
NtRp3423
(dp3424
g73
(dp3425
sg82
g3419
sg75
(lp3426
g68
(g69
g70
NtRp3427
(dp3428
g73
(dp3429
g81
I3
ssg82
g3423
sg75
(lp3430
S'/mvstore/default/index'
p3431
asbasbasbag68
(g84
g70
NtRp3432
(dp3433
g73
(dp3434
sg82
g3390
sg75
(lp3435
g68
(g89
g70
NtRp3436
(dp3437
g73
(dp3438
sg82
g3432
sg75
(lp3439
g68
(g69
g70
NtRp3440
(dp3441
g73
(dp3442
g81
I3
ssg82
g3436
sg75
(lp3443
g68
(g77
g70
NtRp3444
(dp3445
g73
(dp3446
g81
I2
ssg82
Nsg75
(lp3447
g68
(g84
g70
NtRp3448
(dp3449
g73
(dp3450
sg82
g3444
sg75
(lp3451
g68
(g89
g70
NtRp3452
(dp3453
g73
(dp3454
sg82
g3448
sg75
(lp3455
g68
(g69
g70
NtRp3456
(dp3457
g73
(dp3458
g81
I2
ssg82
g3452
sg75
(lp3459
g68
(g77
g70
NtRp3460
(dp3461
g73
(dp3462
g81
I1
ssg82
Nsg75
(lp3463
g68
(g84
g70
NtRp3464
(dp3465
g73
(dp3466
sg82
g3460
sg75
(lp3467
g68
(g89
g70
NtRp3468
(dp3469
g73
(dp3470
sg82
g3464
sg75
(lp3471
g68
(g69
g70
NtRp3472
(dp3473
g73
(dp3474
g81
I1
ssg82
g3468
sg75
(lp3475
g3335
(S's\n\x00\x00\x00Controller'
tRp3476
asbasbasbag68
(g84
g70
NtRp3477
(dp3478
g73
(dp3479
sg82
g3460
sg75
(lp3480
g68
(g89
g70
NtRp3481
(dp3482
g73
(dp3483
sg82
g3477
sg75
(lp3484
g68
(g69
g70
NtRp3485
(dp3486
g73
(dp3487
g81
I1
ssg82
g3481
sg75
(lp3488
I00
asbasbasbag68
(g84
g70
NtRp3489
(dp3490
g73
(dp3491
sg82
g3460
sg75
(lp3492
g68
(g89
g70
NtRp3493
(dp3494
g73
(dp3495
sg82
g3489
sg75
(lp3496
g68
(g69
g70
NtRp3497
(dp3498
g73
(dp3499
g81
I1
ssg82
g3493
sg75
(lp3500
S'/admin/default/edit/mvstore/controllers/default.py'
p3501
asbasbasbasbasbasbasbag68
(g84
g70
NtRp3502
(dp3503
g73
(dp3504
sg82
g3444
sg75
(lp3505
g68
(g89
g70
NtRp3506
(dp3507
g73
(dp3508
sg82
g3502
sg75
(lp3509
g68
(g69
g70
NtRp3510
(dp3511
g73
(dp3512
g81
I2
ssg82
g3506
sg75
(lp3513
g68
(g77
g70
NtRp3514
(dp3515
g73
(dp3516
g81
I1
ssg82
Nsg75
(lp3517
g68
(g84
g70
NtRp3518
(dp3519
g73
(dp3520
sg82
g3514
sg75
(lp3521
g68
(g89
g70
NtRp3522
(dp3523
g73
(dp3524
sg82
g3518
sg75
(lp3525
g68
(g69
g70
NtRp3526
(dp3527
g73
(dp3528
g81
I1
ssg82
g3522
sg75
(lp3529
g3335
(S's\x04\x00\x00\x00View'
tRp3530
asbasbasbag68
(g84
g70
NtRp3531
(dp3532
g73
(dp3533
sg82
g3514
sg75
(lp3534
g68
(g89
g70
NtRp3535
(dp3536
g73
(dp3537
sg82
g3531
sg75
(lp3538
g68
(g69
g70
NtRp3539
(dp3540
g73
(dp3541
g81
I1
ssg82
g3535
sg75
(lp3542
I00
asbasbasbag68
(g84
g70
NtRp3543
(dp3544
g73
(dp3545
sg82
g3514
sg75
(lp3546
g68
(g89
g70
NtRp3547
(dp3548
g73
(dp3549
sg82
g3543
sg75
(lp3550
g68
(g69
g70
NtRp3551
(dp3552
g73
(dp3553
g81
I1
ssg82
g3547
sg75
(lp3554
S'/admin/default/edit/mvstore/views/default/prestamos.html'
p3555
asbasbasbasbasbasbasbag68
(g84
g70
NtRp3556
(dp3557
g73
(dp3558
sg82
g3444
sg75
(lp3559
g68
(g89
g70
NtRp3560
(dp3561
g73
(dp3562
sg82
g3556
sg75
(lp3563
g68
(g69
g70
NtRp3564
(dp3565
g73
(dp3566
g81
I2
ssg82
g3560
sg75
(lp3567
g68
(g77
g70
NtRp3568
(dp3569
g73
(dp3570
g81
I1
ssg82
Nsg75
(lp3571
g68
(g84
g70
NtRp3572
(dp3573
g73
(dp3574
sg82
g3568
sg75
(lp3575
g68
(g89
g70
NtRp3576
(dp3577
g73
(dp3578
sg82
g3572
sg75
(lp3579
g68
(g69
g70
NtRp3580
(dp3581
g73
(dp3582
g81
I1
ssg82
g3576
sg75
(lp3583
g3335
(S's\x06\x00\x00\x00Layout'
tRp3584
asbasbasbag68
(g84
g70
NtRp3585
(dp3586
g73
(dp3587
sg82
g3568
sg75
(lp3588
g68
(g89
g70
NtRp3589
(dp3590
g73
(dp3591
sg82
g3585
sg75
(lp3592
g68
(g69
g70
NtRp3593
(dp3594
g73
(dp3595
g81
I1
ssg82
g3589
sg75
(lp3596
I00
asbasbasbag68
(g84
g70
NtRp3597
(dp3598
g73
(dp3599
sg82
g3568
sg75
(lp3600
g68
(g89
g70
NtRp3601
(dp3602
g73
(dp3603
sg82
g3597
sg75
(lp3604
g68
(g69
g70
NtRp3605
(dp3606
g73
(dp3607
g81
I1
ssg82
g3601
sg75
(lp3608
S'/admin/default/edit/mvstore/views/layout.html'
p3609
asbasbasbasbasbasbasbag68
(g84
g70
NtRp3610
(dp3611
g73
(dp3612
sg82
g3444
sg75
(lp3613
g68
(g89
g70
NtRp3614
(dp3615
g73
(dp3616
sg82
g3610
sg75
(lp3617
g68
(g69
g70
NtRp3618
(dp3619
g73
(dp3620
g81
I2
ssg82
g3614
sg75
(lp3621
g68
(g77
g70
NtRp3622
(dp3623
g73
(dp3624
g81
I1
ssg82
Nsg75
(lp3625
g68
(g84
g70
NtRp3626
(dp3627
g73
(dp3628
sg82
g3622
sg75
(lp3629
g68
(g89
g70
NtRp3630
(dp3631
g73
(dp3632
sg82
g3626
sg75
(lp3633
g68
(g69
g70
NtRp3634
(dp3635
g73
(dp3636
g81
I1
ssg82
g3630
sg75
(lp3637
g3335
(S's\n\x00\x00\x00Stylesheet'
tRp3638
asbasbasbag68
(g84
g70
NtRp3639
(dp3640
g73
(dp3641
sg82
g3622
sg75
(lp3642
g68
(g89
g70
NtRp3643
(dp3644
g73
(dp3645
sg82
g3639
sg75
(lp3646
g68
(g69
g70
NtRp3647
(dp3648
g73
(dp3649
g81
I1
ssg82
g3643
sg75
(lp3650
I00
asbasbasbag68
(g84
g70
NtRp3651
(dp3652
g73
(dp3653
sg82
g3622
sg75
(lp3654
g68
(g89
g70
NtRp3655
(dp3656
g73
(dp3657
sg82
g3651
sg75
(lp3658
g68
(g69
g70
NtRp3659
(dp3660
g73
(dp3661
g81
I1
ssg82
g3655
sg75
(lp3662
S'/admin/default/edit/mvstore/static/base.css'
p3663
asbasbasbasbasbasbasbag68
(g84
g70
NtRp3664
(dp3665
g73
(dp3666
sg82
g3444
sg75
(lp3667
g68
(g89
g70
NtRp3668
(dp3669
g73
(dp3670
sg82
g3664
sg75
(lp3671
g68
(g69
g70
NtRp3672
(dp3673
g73
(dp3674
g81
I2
ssg82
g3668
sg75
(lp3675
g68
(g77
g70
NtRp3676
(dp3677
g73
(dp3678
g81
I1
ssg82
Nsg75
(lp3679
g68
(g84
g70
NtRp3680
(dp3681
g73
(dp3682
sg82
g3676
sg75
(lp3683
g68
(g89
g70
NtRp3684
(dp3685
g73
(dp3686
sg82
g3680
sg75
(lp3687
g68
(g69
g70
NtRp3688
(dp3689
g73
(dp3690
g81
I1
ssg82
g3684
sg75
(lp3691
g3335
(S's\x08\x00\x00\x00DB Model'
tRp3692
asbasbasbag68
(g84
g70
NtRp3693
(dp3694
g73
(dp3695
sg82
g3676
sg75
(lp3696
g68
(g89
g70
NtRp3697
(dp3698
g73
(dp3699
sg82
g3693
sg75
(lp3700
g68
(g69
g70
NtRp3701
(dp3702
g73
(dp3703
g81
I1
ssg82
g3697
sg75
(lp3704
I00
asbasbasbag68
(g84
g70
NtRp3705
(dp3706
g73
(dp3707
sg82
g3676
sg75
(lp3708
g68
(g89
g70
NtRp3709
(dp3710
g73
(dp3711
sg82
g3705
sg75
(lp3712
g68
(g69
g70
NtRp3713
(dp3714
g73
(dp3715
g81
I1
ssg82
g3709
sg75
(lp3716
S'/admin/default/edit/mvstore/models/db.py'
p3717
asbasbasbasbasbasbasbag68
(g84
g70
NtRp3718
(dp3719
g73
(dp3720
sg82
g3444
sg75
(lp3721
g68
(g89
g70
NtRp3722
(dp3723
g73
(dp3724
sg82
g3718
sg75
(lp3725
g68
(g69
g70
NtRp3726
(dp3727
g73
(dp3728
g81
I2
ssg82
g3722
sg75
(lp3729
g68
(g77
g70
NtRp3730
(dp3731
g73
(dp3732
g81
I1
ssg82
Nsg75
(lp3733
g68
(g84
g70
NtRp3734
(dp3735
g73
(dp3736
sg82
g3730
sg75
(lp3737
g68
(g89
g70
NtRp3738
(dp3739
g73
(dp3740
sg82
g3734
sg75
(lp3741
g68
(g69
g70
NtRp3742
(dp3743
g73
(dp3744
g81
I1
ssg82
g3738
sg75
(lp3745
g3335
(S's\n\x00\x00\x00Menu Model'
tRp3746
asbasbasbag68
(g84
g70
NtRp3747
(dp3748
g73
(dp3749
sg82
g3730
sg75
(lp3750
g68
(g89
g70
NtRp3751
(dp3752
g73
(dp3753
sg82
g3747
sg75
(lp3754
g68
(g69
g70
NtRp3755
(dp3756
g73
(dp3757
g81
I1
ssg82
g3751
sg75
(lp3758
I00
asbasbasbag68
(g84
g70
NtRp3759
(dp3760
g73
(dp3761
sg82
g3730
sg75
(lp3762
g68
(g89
g70
NtRp3763
(dp3764
g73
(dp3765
sg82
g3759
sg75
(lp3766
g68
(g69
g70
NtRp3767
(dp3768
g73
(dp3769
g81
I1
ssg82
g3763
sg75
(lp3770
S'/admin/default/edit/mvstore/models/menu.py'
p3771
asbasbasbasbasbasbasbag68
(g84
g70
NtRp3772
(dp3773
g73
(dp3774
sg82
g3444
sg75
(lp3775
g68
(g89
g70
NtRp3776
(dp3777
g73
(dp3778
sg82
g3772
sg75
(lp3779
g68
(g69
g70
NtRp3780
(dp3781
g73
(dp3782
g81
I2
ssg82
g3776
sg75
(lp3783
g68
(g77
g70
NtRp3784
(dp3785
g73
(dp3786
g81
I1
ssg82
Nsg75
(lp3787
g68
(g84
g70
NtRp3788
(dp3789
g73
(dp3790
sg82
g3784
sg75
(lp3791
g68
(g89
g70
NtRp3792
(dp3793
g73
(dp3794
sg82
g3788
sg75
(lp3795
g68
(g69
g70
NtRp3796
(dp3797
g73
(dp3798
g81
I1
ssg82
g3792
sg75
(lp3799
g3335
(S's\x08\x00\x00\x00Database'
tRp3800
asbasbasbag68
(g84
g70
NtRp3801
(dp3802
g73
(dp3803
sg82
g3784
sg75
(lp3804
g68
(g89
g70
NtRp3805
(dp3806
g73
(dp3807
sg82
g3801
sg75
(lp3808
g68
(g69
g70
NtRp3809
(dp3810
g73
(dp3811
g81
I1
ssg82
g3805
sg75
(lp3812
I00
asbasbasbag68
(g84
g70
NtRp3813
(dp3814
g73
(dp3815
sg82
g3784
sg75
(lp3816
g68
(g89
g70
NtRp3817
(dp3818
g73
(dp3819
sg82
g3813
sg75
(lp3820
g68
(g69
g70
NtRp3821
(dp3822
g73
(dp3823
g81
I1
ssg82
g3817
sg75
(lp3824
S'/mvstore/appadmin/index'
p3825
asbasbasbasbasbasbasbag68
(g84
g70
NtRp3826
(dp3827
g73
(dp3828
sg82
g3444
sg75
(lp3829
g68
(g89
g70
NtRp3830
(dp3831
g73
(dp3832
sg82
g3826
sg75
(lp3833
g68
(g69
g70
NtRp3834
(dp3835
g73
(dp3836
g81
I2
ssg82
g3830
sg75
(lp3837
g68
(g77
g70
NtRp3838
(dp3839
g73
(dp3840
g81
I1
ssg82
Nsg75
(lp3841
g68
(g84
g70
NtRp3842
(dp3843
g73
(dp3844
sg82
g3838
sg75
(lp3845
g68
(g89
g70
NtRp3846
(dp3847
g73
(dp3848
sg82
g3842
sg75
(lp3849
g68
(g69
g70
NtRp3850
(dp3851
g73
(dp3852
g81
I1
ssg82
g3846
sg75
(lp3853
g3335
(S's\x06\x00\x00\x00Errors'
tRp3854
asbasbasbag68
(g84
g70
NtRp3855
(dp3856
g73
(dp3857
sg82
g3838
sg75
(lp3858
g68
(g89
g70
NtRp3859
(dp3860
g73
(dp3861
sg82
g3855
sg75
(lp3862
g68
(g69
g70
NtRp3863
(dp3864
g73
(dp3865
g81
I1
ssg82
g3859
sg75
(lp3866
I00
asbasbasbag68
(g84
g70
NtRp3867
(dp3868
g73
(dp3869
sg82
g3838
sg75
(lp3870
g68
(g89
g70
NtRp3871
(dp3872
g73
(dp3873
sg82
g3867
sg75
(lp3874
g68
(g69
g70
NtRp3875
(dp3876
g73
(dp3877
g81
I1
ssg82
g3871
sg75
(lp3878
S'/admin/default/errors/mvstore'
p3879
asbasbasbasbasbasbasbag68
(g84
g70
NtRp3880
(dp3881
g73
(dp3882
sg82
g3444
sg75
(lp3883
g68
(g89
g70
NtRp3884
(dp3885
g73
(dp3886
sg82
g3880
sg75
(lp3887
g68
(g69
g70
NtRp3888
(dp3889
g73
(dp3890
g81
I2
ssg82
g3884
sg75
(lp3891
g68
(g77
g70
NtRp3892
(dp3893
g73
(dp3894
g81
I1
ssg82
Nsg75
(lp3895
g68
(g84
g70
NtRp3896
(dp3897
g73
(dp3898
sg82
g3892
sg75
(lp3899
g68
(g89
g70
NtRp3900
(dp3901
g73
(dp3902
sg82
g3896
sg75
(lp3903
g68
(g69
g70
NtRp3904
(dp3905
g73
(dp3906
g81
I1
ssg82
g3900
sg75
(lp3907
g3335
(S's\x05\x00\x00\x00About'
tRp3908
asbasbasbag68
(g84
g70
NtRp3909
(dp3910
g73
(dp3911
sg82
g3892
sg75
(lp3912
g68
(g89
g70
NtRp3913
(dp3914
g73
(dp3915
sg82
g3909
sg75
(lp3916
g68
(g69
g70
NtRp3917
(dp3918
g73
(dp3919
g81
I1
ssg82
g3913
sg75
(lp3920
I00
asbasbasbag68
(g84
g70
NtRp3921
(dp3922
g73
(dp3923
sg82
g3892
sg75
(lp3924
g68
(g89
g70
NtRp3925
(dp3926
g73
(dp3927
sg82
g3921
sg75
(lp3928
g68
(g69
g70
NtRp3929
(dp3930
g73
(dp3931
g81
I1
ssg82
g3925
sg75
(lp3932
S'/admin/default/about/mvstore'
p3933
asbasbasbasbasbasbasbasbasbasbasbasbasbasbasbag68
(g84
g70
NtRp3934
(dp3935
g73
(dp3936
sg82
g3303
sg75
(lp3937
g68
(g89
g70
NtRp3938
(dp3939
g73
(dp3940
sg82
g3934
sg75
(lp3941
g68
(g69
g70
NtRp3942
(dp3943
g73
(dp3944
g81
I4
ssg82
g3938
sg75
(lp3945
g68
(g77
g70
NtRp3946
(dp3947
g73
(dp3948
g81
I3
ssg82
Nsg75
(lp3949
g68
(g84
g70
NtRp3950
(dp3951
g73
(dp3952
sg82
g3946
sg75
(lp3953
g68
(g89
g70
NtRp3954
(dp3955
g73
(dp3956
sg82
g3950
sg75
(lp3957
g68
(g69
g70
NtRp3958
(dp3959
g73
(dp3960
g81
I3
ssg82
g3954
sg75
(lp3961
g3335
(S's\x12\x00\x00\x00Adding information'
tRp3962
asbasbasbag68
(g84
g70
NtRp3963
(dp3964
g73
(dp3965
sg82
g3946
sg75
(lp3966
g68
(g89
g70
NtRp3967
(dp3968
g73
(dp3969
sg82
g3963
sg75
(lp3970
g68
(g69
g70
NtRp3971
(dp3972
g73
(dp3973
g81
I3
ssg82
g3967
sg75
(lp3974
g111
asbasbasbag68
(g84
g70
NtRp3975
(dp3976
g73
(dp3977
sg82
g3946
sg75
(lp3978
g68
(g89
g70
NtRp3979
(dp3980
g73
(dp3981
sg82
g3975
sg75
(lp3982
g68
(g69
g70
NtRp3983
(dp3984
g73
(dp3985
g81
I3
ssg82
g3979
sg75
(lp3986
S'/mvstore/default/index'
p3987
asbasbasbag68
(g84
g70
NtRp3988
(dp3989
g73
(dp3990
sg82
g3946
sg75
(lp3991
g68
(g89
g70
NtRp3992
(dp3993
g73
(dp3994
sg82
g3988
sg75
(lp3995
g68
(g69
g70
NtRp3996
(dp3997
g73
(dp3998
g81
I3
ssg82
g3992
sg75
(lp3999
g68
(g77
g70
NtRp4000
(dp4001
g73
(dp4002
g81
I2
ssg82
Nsg75
(lp4003
g68
(g84
g70
NtRp4004
(dp4005
g73
(dp4006
sg82
g4000
sg75
(lp4007
g68
(g89
g70
NtRp4008
(dp4009
g73
(dp4010
sg82
g4004
sg75
(lp4011
g68
(g69
g70
NtRp4012
(dp4013
g73
(dp4014
g81
I2
ssg82
g4008
sg75
(lp4015
g68
(g77
g70
NtRp4016
(dp4017
g73
(dp4018
g81
I1
ssg82
Nsg75
(lp4019
g68
(g84
g70
NtRp4020
(dp4021
g73
(dp4022
sg82
g4016
sg75
(lp4023
g68
(g89
g70
NtRp4024
(dp4025
g73
(dp4026
sg82
g4020
sg75
(lp4027
g68
(g69
g70
NtRp4028
(dp4029
g73
(dp4030
g81
I1
ssg82
g4024
sg75
(lp4031
g3335
(S's\t\x00\x00\x00Add Users'
tRp4032
asbasbasbag68
(g84
g70
NtRp4033
(dp4034
g73
(dp4035
sg82
g4016
sg75
(lp4036
g68
(g89
g70
NtRp4037
(dp4038
g73
(dp4039
sg82
g4033
sg75
(lp4040
g68
(g69
g70
NtRp4041
(dp4042
g73
(dp4043
g81
I1
ssg82
g4037
sg75
(lp4044
I00
asbasbasbag68
(g84
g70
NtRp4045
(dp4046
g73
(dp4047
sg82
g4016
sg75
(lp4048
g68
(g89
g70
NtRp4049
(dp4050
g73
(dp4051
sg82
g4045
sg75
(lp4052
g68
(g69
g70
NtRp4053
(dp4054
g73
(dp4055
g81
I1
ssg82
g4049
sg75
(lp4056
S'/mvstore/default/empleados'
p4057
asbasbasbag68
(g84
g70
NtRp4058
(dp4059
g73
(dp4060
sg82
g4016
sg75
(lp4061
g68
(g89
g70
NtRp4062
(dp4063
g73
(dp4064
sg82
g4058
sg75
(lp4065
g68
(g69
g70
NtRp4066
(dp4067
g73
(dp4068
g81
I1
ssg82
g4062
sg75
(lp4069
(lp4070
asbasbasbasbasbasbasbag68
(g84
g70
NtRp4071
(dp4072
g73
(dp4073
sg82
g4000
sg75
(lp4074
g68
(g89
g70
NtRp4075
(dp4076
g73
(dp4077
sg82
g4071
sg75
(lp4078
g68
(g69
g70
NtRp4079
(dp4080
g73
(dp4081
g81
I2
ssg82
g4075
sg75
(lp4082
g68
(g77
g70
NtRp4083
(dp4084
g73
(dp4085
g81
I1
ssg82
Nsg75
(lp4086
g68
(g84
g70
NtRp4087
(dp4088
g73
(dp4089
sg82
g4083
sg75
(lp4090
g68
(g89
g70
NtRp4091
(dp4092
g73
(dp4093
sg82
g4087
sg75
(lp4094
g68
(g69
g70
NtRp4095
(dp4096
g73
(dp4097
g81
I1
ssg82
g4091
sg75
(lp4098
g3335
(S's\x0b\x00\x00\x00Add Clients'
tRp4099
asbasbasbag68
(g84
g70
NtRp4100
(dp4101
g73
(dp4102
sg82
g4083
sg75
(lp4103
g68
(g89
g70
NtRp4104
(dp4105
g73
(dp4106
sg82
g4100
sg75
(lp4107
g68
(g69
g70
NtRp4108
(dp4109
g73
(dp4110
g81
I1
ssg82
g4104
sg75
(lp4111
I00
asbasbasbag68
(g84
g70
NtRp4112
(dp4113
g73
(dp4114
sg82
g4083
sg75
(lp4115
g68
(g89
g70
NtRp4116
(dp4117
g73
(dp4118
sg82
g4112
sg75
(lp4119
g68
(g69
g70
NtRp4120
(dp4121
g73
(dp4122
g81
I1
ssg82
g4116
sg75
(lp4123
S'/mvstore/default/clientes'
p4124
asbasbasbag68
(g84
g70
NtRp4125
(dp4126
g73
(dp4127
sg82
g4083
sg75
(lp4128
g68
(g89
g70
NtRp4129
(dp4130
g73
(dp4131
sg82
g4125
sg75
(lp4132
g68
(g69
g70
NtRp4133
(dp4134
g73
(dp4135
g81
I1
ssg82
g4129
sg75
(lp4136
(lp4137
asbasbasbasbasbasbasbag68
(g84
g70
NtRp4138
(dp4139
g73
(dp4140
sg82
g4000
sg75
(lp4141
g68
(g89
g70
NtRp4142
(dp4143
g73
(dp4144
sg82
g4138
sg75
(lp4145
g68
(g69
g70
NtRp4146
(dp4147
g73
(dp4148
g81
I2
ssg82
g4142
sg75
(lp4149
g68
(g77
g70
NtRp4150
(dp4151
g73
(dp4152
g81
I1
ssg82
Nsg75
(lp4153
g68
(g84
g70
NtRp4154
(dp4155
g73
(dp4156
sg82
g4150
sg75
(lp4157
g68
(g89
g70
NtRp4158
(dp4159
g73
(dp4160
sg82
g4154
sg75
(lp4161
g68
(g69
g70
NtRp4162
(dp4163
g73
(dp4164
g81
I1
ssg82
g4158
sg75
(lp4165
g3335
(S's\t\x00\x00\x00Add Movie'
tRp4166
asbasbasbag68
(g84
g70
NtRp4167
(dp4168
g73
(dp4169
sg82
g4150
sg75
(lp4170
g68
(g89
g70
NtRp4171
(dp4172
g73
(dp4173
sg82
g4167
sg75
(lp4174
g68
(g69
g70
NtRp4175
(dp4176
g73
(dp4177
g81
I1
ssg82
g4171
sg75
(lp4178
I00
asbasbasbag68
(g84
g70
NtRp4179
(dp4180
g73
(dp4181
sg82
g4150
sg75
(lp4182
g68
(g89
g70
NtRp4183
(dp4184
g73
(dp4185
sg82
g4179
sg75
(lp4186
g68
(g69
g70
NtRp4187
(dp4188
g73
(dp4189
g81
I1
ssg82
g4183
sg75
(lp4190
S'/mvstore/default/peliculas'
p4191
asbasbasbag68
(g84
g70
NtRp4192
(dp4193
g73
(dp4194
sg82
g4150
sg75
(lp4195
g68
(g89
g70
NtRp4196
(dp4197
g73
(dp4198
sg82
g4192
sg75
(lp4199
g68
(g69
g70
NtRp4200
(dp4201
g73
(dp4202
g81
I1
ssg82
g4196
sg75
(lp4203
(lp4204
asbasbasbasbasbasbasbag68
(g84
g70
NtRp4205
(dp4206
g73
(dp4207
sg82
g4000
sg75
(lp4208
g68
(g89
g70
NtRp4209
(dp4210
g73
(dp4211
sg82
g4205
sg75
(lp4212
g68
(g69
g70
NtRp4213
(dp4214
g73
(dp4215
g81
I2
ssg82
g4209
sg75
(lp4216
g68
(g77
g70
NtRp4217
(dp4218
g73
(dp4219
g81
I1
ssg82
Nsg75
(lp4220
g68
(g84
g70
NtRp4221
(dp4222
g73
(dp4223
sg82
g4217
sg75
(lp4224
g68
(g89
g70
NtRp4225
(dp4226
g73
(dp4227
sg82
g4221
sg75
(lp4228
g68
(g69
g70
NtRp4229
(dp4230
g73
(dp4231
g81
I1
ssg82
g4225
sg75
(lp4232
g3335
(S's\n\x00\x00\x00Add Rental'
tRp4233
asbasbasbag68
(g84
g70
NtRp4234
(dp4235
g73
(dp4236
sg82
g4217
sg75
(lp4237
g68
(g89
g70
NtRp4238
(dp4239
g73
(dp4240
sg82
g4234
sg75
(lp4241
g68
(g69
g70
NtRp4242
(dp4243
g73
(dp4244
g81
I1
ssg82
g4238
sg75
(lp4245
I00
asbasbasbag68
(g84
g70
NtRp4246
(dp4247
g73
(dp4248
sg82
g4217
sg75
(lp4249
g68
(g89
g70
NtRp4250
(dp4251
g73
(dp4252
sg82
g4246
sg75
(lp4253
g68
(g69
g70
NtRp4254
(dp4255
g73
(dp4256
g81
I1
ssg82
g4250
sg75
(lp4257
S'/mvstore/default/prestamos'
p4258
asbasbasbag68
(g84
g70
NtRp4259
(dp4260
g73
(dp4261
sg82
g4217
sg75
(lp4262
g68
(g89
g70
NtRp4263
(dp4264
g73
(dp4265
sg82
g4259
sg75
(lp4266
g68
(g69
g70
NtRp4267
(dp4268
g73
(dp4269
g81
I1
ssg82
g4263
sg75
(lp4270
(lp4271
asbasbasbasbasbasbasbasbasbasbasbasbasbasbasbag68
(g84
g70
NtRp4272
(dp4273
g73
(dp4274
sg82
g3303
sg75
(lp4275
g68
(g89
g70
NtRp4276
(dp4277
g73
(dp4278
sg82
g4272
sg75
(lp4279
g68
(g69
g70
NtRp4280
(dp4281
g73
(dp4282
g81
I4
ssg82
g4276
sg75
(lp4283
g68
(g77
g70
NtRp4284
(dp4285
g73
(dp4286
g81
I3
ssg82
Nsg75
(lp4287
g68
(g84
g70
NtRp4288
(dp4289
g73
(dp4290
sg82
g4284
sg75
(lp4291
g68
(g89
g70
NtRp4292
(dp4293
g73
(dp4294
sg82
g4288
sg75
(lp4295
g68
(g69
g70
NtRp4296
(dp4297
g73
(dp4298
g81
I3
ssg82
g4292
sg75
(lp4299
g3335
(S's\x16\x00\x00\x00Retreiving information'
tRp4300
asbasbasbag68
(g84
g70
NtRp4301
(dp4302
g73
(dp4303
sg82
g4284
sg75
(lp4304
g68
(g89
g70
NtRp4305
(dp4306
g73
(dp4307
sg82
g4301
sg75
(lp4308
g68
(g69
g70
NtRp4309
(dp4310
g73
(dp4311
g81
I3
ssg82
g4305
sg75
(lp4312
g111
asbasbasbag68
(g84
g70
NtRp4313
(dp4314
g73
(dp4315
sg82
g4284
sg75
(lp4316
g68
(g89
g70
NtRp4317
(dp4318
g73
(dp4319
sg82
g4313
sg75
(lp4320
g68
(g69
g70
NtRp4321
(dp4322
g73
(dp4323
g81
I3
ssg82
g4317
sg75
(lp4324
S'/mvstore/default/index'
p4325
asbasbasbag68
(g84
g70
NtRp4326
(dp4327
g73
(dp4328
sg82
g4284
sg75
(lp4329
g68
(g89
g70
NtRp4330
(dp4331
g73
(dp4332
sg82
g4326
sg75
(lp4333
g68
(g69
g70
NtRp4334
(dp4335
g73
(dp4336
g81
I3
ssg82
g4330
sg75
(lp4337
g68
(g77
g70
NtRp4338
(dp4339
g73
(dp4340
g81
I2
ssg82
Nsg75
(lp4341
g68
(g84
g70
NtRp4342
(dp4343
g73
(dp4344
sg82
g4338
sg75
(lp4345
g68
(g89
g70
NtRp4346
(dp4347
g73
(dp4348
sg82
g4342
sg75
(lp4349
g68
(g69
g70
NtRp4350
(dp4351
g73
(dp4352
g81
I2
ssg82
g4346
sg75
(lp4353
g68
(g77
g70
NtRp4354
(dp4355
g73
(dp4356
g81
I1
ssg82
Nsg75
(lp4357
g68
(g84
g70
NtRp4358
(dp4359
g73
(dp4360
sg82
g4354
sg75
(lp4361
g68
(g89
g70
NtRp4362
(dp4363
g73
(dp4364
sg82
g4358
sg75
(lp4365
g68
(g69
g70
NtRp4366
(dp4367
g73
(dp4368
g81
I1
ssg82
g4362
sg75
(lp4369
g3335
(S's\n\x00\x00\x00List Users'
tRp4370
asbasbasbag68
(g84
g70
NtRp4371
(dp4372
g73
(dp4373
sg82
g4354
sg75
(lp4374
g68
(g89
g70
NtRp4375
(dp4376
g73
(dp4377
sg82
g4371
sg75
(lp4378
g68
(g69
g70
NtRp4379
(dp4380
g73
(dp4381
g81
I1
ssg82
g4375
sg75
(lp4382
I00
asbasbasbag68
(g84
g70
NtRp4383
(dp4384
g73
(dp4385
sg82
g4354
sg75
(lp4386
g68
(g89
g70
NtRp4387
(dp4388
g73
(dp4389
sg82
g4383
sg75
(lp4390
g68
(g69
g70
NtRp4391
(dp4392
g73
(dp4393
g81
I1
ssg82
g4387
sg75
(lp4394
S'/mvstore/default/personal'
p4395
asbasbasbag68
(g84
g70
NtRp4396
(dp4397
g73
(dp4398
sg82
g4354
sg75
(lp4399
g68
(g89
g70
NtRp4400
(dp4401
g73
(dp4402
sg82
g4396
sg75
(lp4403
g68
(g69
g70
NtRp4404
(dp4405
g73
(dp4406
g81
I1
ssg82
g4400
sg75
(lp4407
(lp4408
asbasbasbasbasbasbasbag68
(g84
g70
NtRp4409
(dp4410
g73
(dp4411
sg82
g4338
sg75
(lp4412
g68
(g89
g70
NtRp4413
(dp4414
g73
(dp4415
sg82
g4409
sg75
(lp4416
g68
(g69
g70
NtRp4417
(dp4418
g73
(dp4419
g81
I2
ssg82
g4413
sg75
(lp4420
g68
(g77
g70
NtRp4421
(dp4422
g73
(dp4423
g81
I1
ssg82
Nsg75
(lp4424
g68
(g84
g70
NtRp4425
(dp4426
g73
(dp4427
sg82
g4421
sg75
(lp4428
g68
(g89
g70
NtRp4429
(dp4430
g73
(dp4431
sg82
g4425
sg75
(lp4432
g68
(g69
g70
NtRp4433
(dp4434
g73
(dp4435
g81
I1
ssg82
g4429
sg75
(lp4436
g3335
(S's\x0c\x00\x00\x00List Clients'
tRp4437
asbasbasbag68
(g84
g70
NtRp4438
(dp4439
g73
(dp4440
sg82
g4421
sg75
(lp4441
g68
(g89
g70
NtRp4442
(dp4443
g73
(dp4444
sg82
g4438
sg75
(lp4445
g68
(g69
g70
NtRp4446
(dp4447
g73
(dp4448
g81
I1
ssg82
g4442
sg75
(lp4449
I00
asbasbasbag68
(g84
g70
NtRp4450
(dp4451
g73
(dp4452
sg82
g4421
sg75
(lp4453
g68
(g89
g70
NtRp4454
(dp4455
g73
(dp4456
sg82
g4450
sg75
(lp4457
g68
(g69
g70
NtRp4458
(dp4459
g73
(dp4460
g81
I1
ssg82
g4454
sg75
(lp4461
S'/mvstore/default/clientesall'
p4462
asbasbasbag68
(g84
g70
NtRp4463
(dp4464
g73
(dp4465
sg82
g4421
sg75
(lp4466
g68
(g89
g70
NtRp4467
(dp4468
g73
(dp4469
sg82
g4463
sg75
(lp4470
g68
(g69
g70
NtRp4471
(dp4472
g73
(dp4473
g81
I1
ssg82
g4467
sg75
(lp4474
(lp4475
asbasbasbasbasbasbasbag68
(g84
g70
NtRp4476
(dp4477
g73
(dp4478
sg82
g4338
sg75
(lp4479
g68
(g89
g70
NtRp4480
(dp4481
g73
(dp4482
sg82
g4476
sg75
(lp4483
g68
(g69
g70
NtRp4484
(dp4485
g73
(dp4486
g81
I2
ssg82
g4480
sg75
(lp4487
g68
(g77
g70
NtRp4488
(dp4489
g73
(dp4490
g81
I1
ssg82
Nsg75
(lp4491
g68
(g84
g70
NtRp4492
(dp4493
g73
(dp4494
sg82
g4488
sg75
(lp4495
g68
(g89
g70
NtRp4496
(dp4497
g73
(dp4498
sg82
g4492
sg75
(lp4499
g68
(g69
g70
NtRp4500
(dp4501
g73
(dp4502
g81
I1
ssg82
g4496
sg75
(lp4503
g3335
(S's\x0b\x00\x00\x00List Movies'
tRp4504
asbasbasbag68
(g84
g70
NtRp4505
(dp4506
g73
(dp4507
sg82
g4488
sg75
(lp4508
g68
(g89
g70
NtRp4509
(dp4510
g73
(dp4511
sg82
g4505
sg75
(lp4512
g68
(g69
g70
NtRp4513
(dp4514
g73
(dp4515
g81
I1
ssg82
g4509
sg75
(lp4516
I00
asbasbasbag68
(g84
g70
NtRp4517
(dp4518
g73
(dp4519
sg82
g4488
sg75
(lp4520
g68
(g89
g70
NtRp4521
(dp4522
g73
(dp4523
sg82
g4517
sg75
(lp4524
g68
(g69
g70
NtRp4525
(dp4526
g73
(dp4527
g81
I1
ssg82
g4521
sg75
(lp4528
S'/mvstore/default/peliculasall'
p4529
asbasbasbag68
(g84
g70
NtRp4530
(dp4531
g73
(dp4532
sg82
g4488
sg75
(lp4533
g68
(g89
g70
NtRp4534
(dp4535
g73
(dp4536
sg82
g4530
sg75
(lp4537
g68
(g69
g70
NtRp4538
(dp4539
g73
(dp4540
g81
I1
ssg82
g4534
sg75
(lp4541
(lp4542
asbasbasbasbasbasbasbag68
(g84
g70
NtRp4543
(dp4544
g73
(dp4545
sg82
g4338
sg75
(lp4546
g68
(g89
g70
NtRp4547
(dp4548
g73
(dp4549
sg82
g4543
sg75
(lp4550
g68
(g69
g70
NtRp4551
(dp4552
g73
(dp4553
g81
I2
ssg82
g4547
sg75
(lp4554
g68
(g77
g70
NtRp4555
(dp4556
g73
(dp4557
g81
I1
ssg82
Nsg75
(lp4558
g68
(g84
g70
NtRp4559
(dp4560
g73
(dp4561
sg82
g4555
sg75
(lp4562
g68
(g89
g70
NtRp4563
(dp4564
g73
(dp4565
sg82
g4559
sg75
(lp4566
g68
(g69
g70
NtRp4567
(dp4568
g73
(dp4569
g81
I1
ssg82
g4563
sg75
(lp4570
g3335
(S's\x0c\x00\x00\x00List Rentals'
tRp4571
asbasbasbag68
(g84
g70
NtRp4572
(dp4573
g73
(dp4574
sg82
g4555
sg75
(lp4575
g68
(g89
g70
NtRp4576
(dp4577
g73
(dp4578
sg82
g4572
sg75
(lp4579
g68
(g69
g70
NtRp4580
(dp4581
g73
(dp4582
g81
I1
ssg82
g4576
sg75
(lp4583
I00
asbasbasbag68
(g84
g70
NtRp4584
(dp4585
g73
(dp4586
sg82
g4555
sg75
(lp4587
g68
(g89
g70
NtRp4588
(dp4589
g73
(dp4590
sg82
g4584
sg75
(lp4591
g68
(g69
g70
NtRp4592
(dp4593
g73
(dp4594
g81
I1
ssg82
g4588
sg75
(lp4595
S'/mvstore/default/prestados'
p4596
asbasbasbag68
(g84
g70
NtRp4597
(dp4598
g73
(dp4599
sg82
g4555
sg75
(lp4600
g68
(g89
g70
NtRp4601
(dp4602
g73
(dp4603
sg82
g4597
sg75
(lp4604
g68
(g69
g70
NtRp4605
(dp4606
g73
(dp4607
g81
I1
ssg82
g4601
sg75
(lp4608
(lp4609
asbasbasbasbasbasbasbag68
(g84
g70
NtRp4610
(dp4611
g73
(dp4612
sg82
g4338
sg75
(lp4613
g68
(g89
g70
NtRp4614
(dp4615
g73
(dp4616
sg82
g4610
sg75
(lp4617
g68
(g69
g70
NtRp4618
(dp4619
g73
(dp4620
g81
I2
ssg82
g4614
sg75
(lp4621
g68
(g77
g70
NtRp4622
(dp4623
g73
(dp4624
g81
I1
ssg82
Nsg75
(lp4625
g68
(g84
g70
NtRp4626
(dp4627
g73
(dp4628
sg82
g4622
sg75
(lp4629
g68
(g89
g70
NtRp4630
(dp4631
g73
(dp4632
sg82
g4626
sg75
(lp4633
g68
(g69
g70
NtRp4634
(dp4635
g73
(dp4636
g81
I1
ssg82
g4630
sg75
(lp4637
g3335
(S's\x06\x00\x00\x00Search'
tRp4638
asbasbasbag68
(g84
g70
NtRp4639
(dp4640
g73
(dp4641
sg82
g4622
sg75
(lp4642
g68
(g89
g70
NtRp4643
(dp4644
g73
(dp4645
sg82
g4639
sg75
(lp4646
g68
(g69
g70
NtRp4647
(dp4648
g73
(dp4649
g81
I1
ssg82
g4643
sg75
(lp4650
I00
asbasbasbag68
(g84
g70
NtRp4651
(dp4652
g73
(dp4653
sg82
g4622
sg75
(lp4654
g68
(g89
g70
NtRp4655
(dp4656
g73
(dp4657
sg82
g4651
sg75
(lp4658
g68
(g69
g70
NtRp4659
(dp4660
g73
(dp4661
g81
I1
ssg82
g4655
sg75
(lp4662
S'/mvstore/default/prestamos'
p4663
asbasbasbag68
(g84
g70
NtRp4664
(dp4665
g73
(dp4666
sg82
g4622
sg75
(lp4667
g68
(g89
g70
NtRp4668
(dp4669
g73
(dp4670
sg82
g4664
sg75
(lp4671
g68
(g69
g70
NtRp4672
(dp4673
g73
(dp4674
g81
I1
ssg82
g4668
sg75
(lp4675
(lp4676
asbasbasbasbasbasbasbasbasbasbasbasbasbasbasbag68
(g84
g70
NtRp4677
(dp4678
g73
(dp4679
sg82
g3303
sg75
(lp4680
g68
(g89
g70
NtRp4681
(dp4682
g73
(dp4683
sg82
g4677
sg75
(lp4684
g68
(g69
g70
NtRp4685
(dp4686
g73
(dp4687
g81
I4
ssg82
g4681
sg75
(lp4688
g68
(g77
g70
NtRp4689
(dp4690
g73
(dp4691
g81
I3
ssg82
Nsg75
(lp4692
g68
(g84
g70
NtRp4693
(dp4694
g73
(dp4695
sg82
g4689
sg75
(lp4696
g68
(g89
g70
NtRp4697
(dp4698
g73
(dp4699
sg82
g4693
sg75
(lp4700
g68
(g69
g70
NtRp4701
(dp4702
g73
(dp4703
g81
I3
ssg82
g4697
sg75
(lp4704
g3335
(S's\x15\x00\x00\x00Modifying information'
tRp4705
asbasbasbag68
(g84
g70
NtRp4706
(dp4707
g73
(dp4708
sg82
g4689
sg75
(lp4709
g68
(g89
g70
NtRp4710
(dp4711
g73
(dp4712
sg82
g4706
sg75
(lp4713
g68
(g69
g70
NtRp4714
(dp4715
g73
(dp4716
g81
I3
ssg82
g4710
sg75
(lp4717
g111
asbasbasbag68
(g84
g70
NtRp4718
(dp4719
g73
(dp4720
sg82
g4689
sg75
(lp4721
g68
(g89
g70
NtRp4722
(dp4723
g73
(dp4724
sg82
g4718
sg75
(lp4725
g68
(g69
g70
NtRp4726
(dp4727
g73
(dp4728
g81
I3
ssg82
g4722
sg75
(lp4729
S'/mvstore/default/index'
p4730
asbasbasbag68
(g84
g70
NtRp4731
(dp4732
g73
(dp4733
sg82
g4689
sg75
(lp4734
g68
(g89
g70
NtRp4735
(dp4736
g73
(dp4737
sg82
g4731
sg75
(lp4738
g68
(g69
g70
NtRp4739
(dp4740
g73
(dp4741
g81
I3
ssg82
g4735
sg75
(lp4742
g68
(g77
g70
NtRp4743
(dp4744
g73
(dp4745
g81
I2
ssg82
Nsg75
(lp4746
g68
(g84
g70
NtRp4747
(dp4748
g73
(dp4749
sg82
g4743
sg75
(lp4750
g68
(g89
g70
NtRp4751
(dp4752
g73
(dp4753
sg82
g4747
sg75
(lp4754
g68
(g69
g70
NtRp4755
(dp4756
g73
(dp4757
g81
I2
ssg82
g4751
sg75
(lp4758
g68
(g77
g70
NtRp4759
(dp4760
g73
(dp4761
g81
I1
ssg82
Nsg75
(lp4762
g68
(g84
g70
NtRp4763
(dp4764
g73
(dp4765
sg82
g4759
sg75
(lp4766
g68
(g89
g70
NtRp4767
(dp4768
g73
(dp4769
sg82
g4763
sg75
(lp4770
g68
(g69
g70
NtRp4771
(dp4772
g73
(dp4773
g81
I1
ssg82
g4767
sg75
(lp4774
g3335
(S's\x05\x00\x00\x00Users'
tRp4775
asbasbasbag68
(g84
g70
NtRp4776
(dp4777
g73
(dp4778
sg82
g4759
sg75
(lp4779
g68
(g89
g70
NtRp4780
(dp4781
g73
(dp4782
sg82
g4776
sg75
(lp4783
g68
(g69
g70
NtRp4784
(dp4785
g73
(dp4786
g81
I1
ssg82
g4780
sg75
(lp4787
I00
asbasbasbag68
(g84
g70
NtRp4788
(dp4789
g73
(dp4790
sg82
g4759
sg75
(lp4791
g68
(g89
g70
NtRp4792
(dp4793
g73
(dp4794
sg82
g4788
sg75
(lp4795
g68
(g69
g70
NtRp4796
(dp4797
g73
(dp4798
g81
I1
ssg82
g4792
sg75
(lp4799
S'/mvstore/default/empleados'
p4800
asbasbasbag68
(g84
g70
NtRp4801
(dp4802
g73
(dp4803
sg82
g4759
sg75
(lp4804
g68
(g89
g70
NtRp4805
(dp4806
g73
(dp4807
sg82
g4801
sg75
(lp4808
g68
(g69
g70
NtRp4809
(dp4810
g73
(dp4811
g81
I1
ssg82
g4805
sg75
(lp4812
(lp4813
asbasbasbasbasbasbasbag68
(g84
g70
NtRp4814
(dp4815
g73
(dp4816
sg82
g4743
sg75
(lp4817
g68
(g89
g70
NtRp4818
(dp4819
g73
(dp4820
sg82
g4814
sg75
(lp4821
g68
(g69
g70
NtRp4822
(dp4823
g73
(dp4824
g81
I2
ssg82
g4818
sg75
(lp4825
g68
(g77
g70
NtRp4826
(dp4827
g73
(dp4828
g81
I1
ssg82
Nsg75
(lp4829
g68
(g84
g70
NtRp4830
(dp4831
g73
(dp4832
sg82
g4826
sg75
(lp4833
g68
(g89
g70
NtRp4834
(dp4835
g73
(dp4836
sg82
g4830
sg75
(lp4837
g68
(g69
g70
NtRp4838
(dp4839
g73
(dp4840
g81
I1
ssg82
g4834
sg75
(lp4841
g3335
(S's\x07\x00\x00\x00Clients'
tRp4842
asbasbasbag68
(g84
g70
NtRp4843
(dp4844
g73
(dp4845
sg82
g4826
sg75
(lp4846
g68
(g89
g70
NtRp4847
(dp4848
g73
(dp4849
sg82
g4843
sg75
(lp4850
g68
(g69
g70
NtRp4851
(dp4852
g73
(dp4853
g81
I1
ssg82
g4847
sg75
(lp4854
I00
asbasbasbag68
(g84
g70
NtRp4855
(dp4856
g73
(dp4857
sg82
g4826
sg75
(lp4858
g68
(g89
g70
NtRp4859
(dp4860
g73
(dp4861
sg82
g4855
sg75
(lp4862
g68
(g69
g70
NtRp4863
(dp4864
g73
(dp4865
g81
I1
ssg82
g4859
sg75
(lp4866
S'/mvstore/default/clientes'
p4867
asbasbasbag68
(g84
g70
NtRp4868
(dp4869
g73
(dp4870
sg82
g4826
sg75
(lp4871
g68
(g89
g70
NtRp4872
(dp4873
g73
(dp4874
sg82
g4868
sg75
(lp4875
g68
(g69
g70
NtRp4876
(dp4877
g73
(dp4878
g81
I1
ssg82
g4872
sg75
(lp4879
(lp4880
asbasbasbasbasbasbasbag68
(g84
g70
NtRp4881
(dp4882
g73
(dp4883
sg82
g4743
sg75
(lp4884
g68
(g89
g70
NtRp4885
(dp4886
g73
(dp4887
sg82
g4881
sg75
(lp4888
g68
(g69
g70
NtRp4889
(dp4890
g73
(dp4891
g81
I2
ssg82
g4885
sg75
(lp4892
g68
(g77
g70
NtRp4893
(dp4894
g73
(dp4895
g81
I1
ssg82
Nsg75
(lp4896
g68
(g84
g70
NtRp4897
(dp4898
g73
(dp4899
sg82
g4893
sg75
(lp4900
g68
(g89
g70
NtRp4901
(dp4902
g73
(dp4903
sg82
g4897
sg75
(lp4904
g68
(g69
g70
NtRp4905
(dp4906
g73
(dp4907
g81
I1
ssg82
g4901
sg75
(lp4908
g3335
(S's\x06\x00\x00\x00Movies'
tRp4909
asbasbasbag68
(g84
g70
NtRp4910
(dp4911
g73
(dp4912
sg82
g4893
sg75
(lp4913
g68
(g89
g70
NtRp4914
(dp4915
g73
(dp4916
sg82
g4910
sg75
(lp4917
g68
(g69
g70
NtRp4918
(dp4919
g73
(dp4920
g81
I1
ssg82
g4914
sg75
(lp4921
I00
asbasbasbag68
(g84
g70
NtRp4922
(dp4923
g73
(dp4924
sg82
g4893
sg75
(lp4925
g68
(g89
g70
NtRp4926
(dp4927
g73
(dp4928
sg82
g4922
sg75
(lp4929
g68
(g69
g70
NtRp4930
(dp4931
g73
(dp4932
g81
I1
ssg82
g4926
sg75
(lp4933
S'/mvstore/default/peliculas'
p4934
asbasbasbag68
(g84
g70
NtRp4935
(dp4936
g73
(dp4937
sg82
g4893
sg75
(lp4938
g68
(g89
g70
NtRp4939
(dp4940
g73
(dp4941
sg82
g4935
sg75
(lp4942
g68
(g69
g70
NtRp4943
(dp4944
g73
(dp4945
g81
I1
ssg82
g4939
sg75
(lp4946
(lp4947
asbasbasbasbasbasbasbag68
(g84
g70
NtRp4948
(dp4949
g73
(dp4950
sg82
g4743
sg75
(lp4951
g68
(g89
g70
NtRp4952
(dp4953
g73
(dp4954
sg82
g4948
sg75
(lp4955
g68
(g69
g70
NtRp4956
(dp4957
g73
(dp4958
g81
I2
ssg82
g4952
sg75
(lp4959
g68
(g77
g70
NtRp4960
(dp4961
g73
(dp4962
g81
I1
ssg82
Nsg75
(lp4963
g68
(g84
g70
NtRp4964
(dp4965
g73
(dp4966
sg82
g4960
sg75
(lp4967
g68
(g89
g70
NtRp4968
(dp4969
g73
(dp4970
sg82
g4964
sg75
(lp4971
g68
(g69
g70
NtRp4972
(dp4973
g73
(dp4974
g81
I1
ssg82
g4968
sg75
(lp4975
g3335
(S's\x07\x00\x00\x00Rentals'
tRp4976
asbasbasbag68
(g84
g70
NtRp4977
(dp4978
g73
(dp4979
sg82
g4960
sg75
(lp4980
g68
(g89
g70
NtRp4981
(dp4982
g73
(dp4983
sg82
g4977
sg75
(lp4984
g68
(g69
g70
NtRp4985
(dp4986
g73
(dp4987
g81
I1
ssg82
g4981
sg75
(lp4988
I00
asbasbasbag68
(g84
g70
NtRp4989
(dp4990
g73
(dp4991
sg82
g4960
sg75
(lp4992
g68
(g89
g70
NtRp4993
(dp4994
g73
(dp4995
sg82
g4989
sg75
(lp4996
g68
(g69
g70
NtRp4997
(dp4998
g73
(dp4999
g81
I1
ssg82
g4993
sg75
(lp5000
S'/mvstore/default/prestamos'
p5001
asbasbasbag68
(g84
g70
NtRp5002
(dp5003
g73
(dp5004
sg82
g4960
sg75
(lp5005
g68
(g89
g70
NtRp5006
(dp5007
g73
(dp5008
sg82
g5002
sg75
(lp5009
g68
(g69
g70
NtRp5010
(dp5011
g73
(dp5012
g81
I1
ssg82
g5006
sg75
(lp5013
(lp5014
asbasbasbasbasbasbasbag68
(g84
g70
NtRp5015
(dp5016
g73
(dp5017
sg82
g4743
sg75
(lp5018
g68
(g89
g70
NtRp5019
(dp5020
g73
(dp5021
sg82
g5015
sg75
(lp5022
g68
(g69
g70
NtRp5023
(dp5024
g73
(dp5025
g81
I2
ssg82
g5019
sg75
(lp5026
g68
(g77
g70
NtRp5027
(dp5028
g73
(dp5029
g81
I1
ssg82
Nsg75
(lp5030
g68
(g84
g70
NtRp5031
(dp5032
g73
(dp5033
sg82
g5027
sg75
(lp5034
g68
(g89
g70
NtRp5035
(dp5036
g73
(dp5037
sg82
g5031
sg75
(lp5038
g68
(g69
g70
NtRp5039
(dp5040
g73
(dp5041
g81
I1
ssg82
g5035
sg75
(lp5042
g3335
(S's\x06\x00\x00\x00Search'
tRp5043
asbasbasbag68
(g84
g70
NtRp5044
(dp5045
g73
(dp5046
sg82
g5027
sg75
(lp5047
g68
(g89
g70
NtRp5048
(dp5049
g73
(dp5050
sg82
g5044
sg75
(lp5051
g68
(g69
g70
NtRp5052
(dp5053
g73
(dp5054
g81
I1
ssg82
g5048
sg75
(lp5055
I00
asbasbasbag68
(g84
g70
NtRp5056
(dp5057
g73
(dp5058
sg82
g5027
sg75
(lp5059
g68
(g89
g70
NtRp5060
(dp5061
g73
(dp5062
sg82
g5056
sg75
(lp5063
g68
(g69
g70
NtRp5064
(dp5065
g73
(dp5066
g81
I1
ssg82
g5060
sg75
(lp5067
S'/mvstore/default/prestamos'
p5068
asbasbasbag68
(g84
g70
NtRp5069
(dp5070
g73
(dp5071
sg82
g5027
sg75
(lp5072
g68
(g89
g70
NtRp5073
(dp5074
g73
(dp5075
sg82
g5069
sg75
(lp5076
g68
(g69
g70
NtRp5077
(dp5078
g73
(dp5079
g81
I1
ssg82
g5073
sg75
(lp5080
(lp5081
asbasbasbasbasbasbasbasbasbasbasbasbasbasbasbasbasbasbasbag68
(g84
g70
NtRp5082
(dp5083
g73
(dp5084
sg82
g2867
sg75
(lp5085
g68
(g89
g70
NtRp5086
(dp5087
g73
(dp5088
g93
g94
ssg82
g5082
sg75
(lp5089
S'meta'
p5090
asbag68
(g89
g70
NtRp5091
(dp5092
g73
(dp5093
g100
g101
ssg82
g5082
sg75
(lp5094
S':'
asbag68
(g89
g70
NtRp5095
(dp5096
g73
(dp5097
sg82
g5082
sg75
(lp5098
g68
(g69
g70
NtRp5099
(dp5100
g73
(dp5101
g81
I5
ssg82
g5095
sg75
(lp5102
g68
(g77
g70
NtRp5103
(dp5104
g73
(dp5105
g81
I4
ssg82
Nsg75
(lp5106
g68
(g84
g70
NtRp5107
(dp5108
g73
(dp5109
sg82
g5103
sg75
(lp5110
g68
(g89
g70
NtRp5111
(dp5112
g73
(dp5113
g93
g94
ssg82
g5107
sg75
(lp5114
S'author'
p5115
asbag68
(g89
g70
NtRp5116
(dp5117
g73
(dp5118
g100
g101
ssg82
g5107
sg75
(lp5119
S':'
asbag68
(g89
g70
NtRp5120
(dp5121
g73
(dp5122
sg82
g5107
sg75
(lp5123
g68
(g69
g70
NtRp5124
(dp5125
g73
(dp5126
g81
I4
ssg82
g5120
sg75
(lp5127
S'Marco Mansilla'
p5128
asbasbasbag68
(g84
g70
NtRp5129
(dp5130
g73
(dp5131
sg82
g5103
sg75
(lp5132
g68
(g89
g70
NtRp5133
(dp5134
g73
(dp5135
g93
g94
ssg82
g5129
sg75
(lp5136
S'copyright'
p5137
asbag68
(g89
g70
NtRp5138
(dp5139
g73
(dp5140
g100
g101
ssg82
g5129
sg75
(lp5141
S':'
asbag68
(g89
g70
NtRp5142
(dp5143
g73
(dp5144
sg82
g5129
sg75
(lp5145
g68
(g69
g70
NtRp5146
(dp5147
g73
(dp5148
g81
I4
ssg82
g5142
sg75
(lp5149
S'Copyright 2007-2010'
p5150
asbasbasbag68
(g84
g70
NtRp5151
(dp5152
g73
(dp5153
sg82
g5103
sg75
(lp5154
g68
(g89
g70
NtRp5155
(dp5156
g73
(dp5157
g93
g94
ssg82
g5151
sg75
(lp5158
S'description'
p5159
asbag68
(g89
g70
NtRp5160
(dp5161
g73
(dp5162
g100
g101
ssg82
g5151
sg75
(lp5163
S':'
asbag68
(g89
g70
NtRp5164
(dp5165
g73
(dp5166
sg82
g5151
sg75
(lp5167
g68
(g69
g70
NtRp5168
(dp5169
g73
(dp5170
g81
I4
ssg82
g5164
sg75
(lp5171
S'Free and open source full-stack enterprise framework for agile development of fast, scalable, secure and portable database-driven web-based applications. Written and programmable in Python'
p5172
asbasbasbag68
(g84
g70
NtRp5173
(dp5174
g73
(dp5175
sg82
g5103
sg75
(lp5176
g68
(g89
g70
NtRp5177
(dp5178
g73
(dp5179
g93
g94
ssg82
g5173
sg75
(lp5180
S'generator'
p5181
asbag68
(g89
g70
NtRp5182
(dp5183
g73
(dp5184
g100
g101
ssg82
g5173
sg75
(lp5185
S':'
asbag68
(g89
g70
NtRp5186
(dp5187
g73
(dp5188
sg82
g5173
sg75
(lp5189
g68
(g69
g70
NtRp5190
(dp5191
g73
(dp5192
g81
I4
ssg82
g5186
sg75
(lp5193
S'Web2py Enterprise Framework'
p5194
asbasbasbag68
(g84
g70
NtRp5195
(dp5196
g73
(dp5197
sg82
g5103
sg75
(lp5198
g68
(g89
g70
NtRp5199
(dp5200
g73
(dp5201
g93
g94
ssg82
g5195
sg75
(lp5202
S'keywords'
p5203
asbag68
(g89
g70
NtRp5204
(dp5205
g73
(dp5206
g100
g101
ssg82
g5195
sg75
(lp5207
S':'
asbag68
(g89
g70
NtRp5208
(dp5209
g73
(dp5210
sg82
g5195
sg75
(lp5211
g68
(g69
g70
NtRp5212
(dp5213
g73
(dp5214
g81
I4
ssg82
g5208
sg75
(lp5215
S'web2py, python, framework'
p5216
asbasbasbasbasbasbasbag68
(g84
g70
NtRp5217
(dp5218
g73
(dp5219
sg82
g2867
sg75
(lp5220
g68
(g89
g70
NtRp5221
(dp5222
g73
(dp5223
g93
g94
ssg82
g5217
sg75
(lp5224
S'postprocessing'
p5225
asbag68
(g89
g70
NtRp5226
(dp5227
g73
(dp5228
g100
g101
ssg82
g5217
sg75
(lp5229
S':'
asbag68
(g89
g70
NtRp5230
(dp5231
g73
(dp5232
sg82
g5217
sg75
(lp5233
g68
(g69
g70
NtRp5234
(dp5235
g73
(dp5236
g81
I5
ssg82
g5230
sg75
(lp5237
g68
(g77
g70
NtRp5238
(dp5239
g73
(dp5240
g81
I4
ssg82
Nsg75
(lp5241
sbasbasbasbag68
(g84
g70
NtRp5242
(dp5243
g73
(dp5244
sg82
g2867
sg75
(lp5245
g68
(g89
g70
NtRp5246
(dp5247
g73
(dp5248
g93
g94
ssg82
g5242
sg75
(lp5249
S'session_file'
p5250
asbag68
(g89
g70
NtRp5251
(dp5252
g73
(dp5253
g100
g101
ssg82
g5242
sg75
(lp5254
S':'
asbag68
(g89
g70
NtRp5255
(dp5256
g73
(dp5257
sg82
g5242
sg75
(lp5258
g68
(g69
g70
NtRp5259
(dp5260
g73
(dp5261
g81
I5
ssg82
g5255
sg75
(lp5262
S"<open file '/home/marco/proyectos/web2py-trunk/applications/mvstore/sessions/127.0.0.1-699ef047-3345-4ea7-9b69-53730e41e3eb', mode 'rb+' at 0x2ac9660>"
p5263
asbasbasbag68
(g84
g70
NtRp5264
(dp5265
g73
(dp5266
sg82
g2867
sg75
(lp5267
g68
(g89
g70
NtRp5268
(dp5269
g73
(dp5270
g93
g94
ssg82
g5264
sg75
(lp5271
S'session_filename'
p5272
asbag68
(g89
g70
NtRp5273
(dp5274
g73
(dp5275
g100
g101
ssg82
g5264
sg75
(lp5276
S':'
asbag68
(g89
g70
NtRp5277
(dp5278
g73
(dp5279
sg82
g5264
sg75
(lp5280
g68
(g69
g70
NtRp5281
(dp5282
g73
(dp5283
g81
I5
ssg82
g5277
sg75
(lp5284
S'/home/marco/proyectos/web2py-trunk/applications/mvstore/sessions/127.0.0.1-699ef047-3345-4ea7-9b69-53730e41e3eb'
p5285
asbasbasbag68
(g84
g70
NtRp5286
(dp5287
g73
(dp5288
sg82
g2867
sg75
(lp5289
g68
(g89
g70
NtRp5290
(dp5291
g73
(dp5292
g93
g94
ssg82
g5286
sg75
(lp5293
S'session_id'
p5294
asbag68
(g89
g70
NtRp5295
(dp5296
g73
(dp5297
g100
g101
ssg82
g5286
sg75
(lp5298
S':'
asbag68
(g89
g70
NtRp5299
(dp5300
g73
(dp5301
sg82
g5286
sg75
(lp5302
g68
(g69
g70
NtRp5303
(dp5304
g73
(dp5305
g81
I5
ssg82
g5299
sg75
(lp5306
S'127.0.0.1-699ef047-3345-4ea7-9b69-53730e41e3eb'
p5307
asbasbasbag68
(g84
g70
NtRp5308
(dp5309
g73
(dp5310
sg82
g2867
sg75
(lp5311
g68
(g89
g70
NtRp5312
(dp5313
g73
(dp5314
g93
g94
ssg82
g5308
sg75
(lp5315
S'session_id_name'
p5316
asbag68
(g89
g70
NtRp5317
(dp5318
g73
(dp5319
g100
g101
ssg82
g5308
sg75
(lp5320
S':'
asbag68
(g89
g70
NtRp5321
(dp5322
g73
(dp5323
sg82
g5308
sg75
(lp5324
g68
(g69
g70
NtRp5325
(dp5326
g73
(dp5327
g81
I5
ssg82
g5321
sg75
(lp5328
g2924
asbasbasbag68
(g84
g70
NtRp5329
(dp5330
g73
(dp5331
sg82
g2867
sg75
(lp5332
g68
(g89
g70
NtRp5333
(dp5334
g73
(dp5335
g93
g94
ssg82
g5329
sg75
(lp5336
S'session_locked'
p5337
asbag68
(g89
g70
NtRp5338
(dp5339
g73
(dp5340
g100
g101
ssg82
g5329
sg75
(lp5341
S':'
asbag68
(g89
g70
NtRp5342
(dp5343
g73
(dp5344
sg82
g5329
sg75
(lp5345
g68
(g69
g70
NtRp5346
(dp5347
g73
(dp5348
g81
I5
ssg82
g5342
sg75
(lp5349
g1788
asbasbasbag68
(g84
g70
NtRp5350
(dp5351
g73
(dp5352
sg82
g2867
sg75
(lp5353
g68
(g89
g70
NtRp5354
(dp5355
g73
(dp5356
g93
g94
ssg82
g5350
sg75
(lp5357
S'session_new'
p5358
asbag68
(g89
g70
NtRp5359
(dp5360
g73
(dp5361
g100
g101
ssg82
g5350
sg75
(lp5362
S':'
asbag68
(g89
g70
NtRp5363
(dp5364
g73
(dp5365
sg82
g5350
sg75
(lp5366
g68
(g69
g70
NtRp5367
(dp5368
g73
(dp5369
g81
I5
ssg82
g5363
sg75
(lp5370
g111
asbasbasbag68
(g84
g70
NtRp5371
(dp5372
g73
(dp5373
sg82
g2867
sg75
(lp5374
g68
(g89
g70
NtRp5375
(dp5376
g73
(dp5377
g93
g94
ssg82
g5371
sg75
(lp5378
S'status'
p5379
asbag68
(g89
g70
NtRp5380
(dp5381
g73
(dp5382
g100
g101
ssg82
g5371
sg75
(lp5383
S':'
asbag68
(g89
g70
NtRp5384
(dp5385
g73
(dp5386
sg82
g5371
sg75
(lp5387
g68
(g69
g70
NtRp5388
(dp5389
g73
(dp5390
g81
I5
ssg82
g5384
sg75
(lp5391
S'200'
p5392
asbasbasbag68
(g84
g70
NtRp5393
(dp5394
g73
(dp5395
sg82
g2867
sg75
(lp5396
g68
(g89
g70
NtRp5397
(dp5398
g73
(dp5399
g93
g94
ssg82
g5393
sg75
(lp5400
S'subtitle'
p5401
asbag68
(g89
g70
NtRp5402
(dp5403
g73
(dp5404
g100
g101
ssg82
g5393
sg75
(lp5405
S':'
asbag68
(g89
g70
NtRp5406
(dp5407
g73
(dp5408
sg82
g5393
sg75
(lp5409
g68
(g69
g70
NtRp5410
(dp5411
g73
(dp5412
g81
I5
ssg82
g5406
sg75
(lp5413
g3335
(S's\r\x00\x00\x00customize me!'
tRp5414
asbasbasbag68
(g84
g70
NtRp5415
(dp5416
g73
(dp5417
sg82
g2867
sg75
(lp5418
g68
(g89
g70
NtRp5419
(dp5420
g73
(dp5421
g93
g94
ssg82
g5415
sg75
(lp5422
S'title'
p5423
asbag68
(g89
g70
NtRp5424
(dp5425
g73
(dp5426
g100
g101
ssg82
g5415
sg75
(lp5427
S':'
asbag68
(g89
g70
NtRp5428
(dp5429
g73
(dp5430
sg82
g5415
sg75
(lp5431
g68
(g69
g70
NtRp5432
(dp5433
g73
(dp5434
g81
I5
ssg82
g5428
sg75
(lp5435
g133
asbasbasbag68
(g84
g70
NtRp5436
(dp5437
g73
(dp5438
sg82
g2867
sg75
(lp5439
g68
(g89
g70
NtRp5440
(dp5441
g73
(dp5442
g93
g94
ssg82
g5436
sg75
(lp5443
g2112
asbag68
(g89
g70
NtRp5444
(dp5445
g73
(dp5446
g100
g101
ssg82
g5436
sg75
(lp5447
S':'
asbag68
(g89
g70
NtRp5448
(dp5449
g73
(dp5450
sg82
g5436
sg75
(lp5451
g68
(g69
g70
NtRp5452
(dp5453
g73
(dp5454
g81
I5
ssg82
g5448
sg75
(lp5455
g2125
asbasbasbag68
(g84
g70
NtRp5456
(dp5457
g73
(dp5458
sg82
g2867
sg75
(lp5459
g68
(g89
g70
NtRp5460
(dp5461
g73
(dp5462
g93
g94
ssg82
g5456
sg75
(lp5463
S'view'
p5464
asbag68
(g89
g70
NtRp5465
(dp5466
g73
(dp5467
g100
g101
ssg82
g5456
sg75
(lp5468
S':'
asbag68
(g89
g70
NtRp5469
(dp5470
g73
(dp5471
sg82
g5456
sg75
(lp5472
g68
(g69
g70
NtRp5473
(dp5474
g73
(dp5475
g81
I5
ssg82
g5469
sg75
(lp5476
S'default/prestamos.html'
p5477
asbasbasbasbasbsS'locals'
p5478
(dp5479
g3
S"'/home/marco/proyectos/web2py-trunk/applications/mvstore/controllers/default.py'"
p5480
sg5
S"'#-*- coding: utf-8 -*-\\n# this file is released u...dos)\\n\\nresponse._vars=response._caller(prestamos)\\n'"
p5481
sssS'traceback'
p5482
S'Traceback (most recent call last):\n  File "/home/marco/proyectos/web2py-trunk/gluon/restricted.py", line 191, in restricted\n    ccode = compile2(code,layer)\n  File "/home/marco/proyectos/web2py-trunk/gluon/restricted.py", line 178, in compile2\n    return compile(code.rstrip().replace(\'\\r\\n\',\'\\n\')+\'\\n\', layer, \'exec\')\n  File "/home/marco/proyectos/web2py-trunk/applications/mvstore/controllers/default.py", line 119\n    return dict(form=form,table=db().empleados)\n         ^\nSyntaxError: invalid syntax\n'
p5483
s.