(dp1
S'output'
p2
S''
sS'layer'
p3
S'/home/marco/proyectos/web2py-trunk/applications/mvstore/controllers/default.py'
p4
sS'code'
p5
S'#-*- coding: utf-8 -*-\n# this file is released under public domain and you can use without limitations\n\n#########################################################################\n## This is a samples controller\n## - index is the default action of any application\n## - user is required for authentication and authorization\n## - download is for downloading files uploaded in the db (does streaming)\n## - call exposes all registered services (none by default)\n#########################################################################\n\ndef index():\n    """\n    example action using the internationalization operator T and flash\n    rendered by views/default/index.html or views/generic.html\n    """\n    return dict(message=T(\'Hello World\'))\n\ndef user():\n    """\n    exposes:\n    http://..../[app]/default/user/login\n    http://..../[app]/default/user/logout\n    http://..../[app]/default/user/register\n    http://..../[app]/default/user/profile\n    http://..../[app]/default/user/retrieve_password\n    http://..../[app]/default/user/change_password\n    use @auth.requires_login()\n        @auth.requires_membership(\'group name\')\n        @auth.requires_permission(\'read\',\'table name\',record_id)\n    to decorate functions that need access control\n    """\n    return dict(form=auth())\n\n\ndef download():\n    """\n    allows downloading of uploaded files\n    http://..../[app]/default/download/[filename]\n    """\n    return response.download(request,db)\n\n\ndef call():\n    """\n    exposes services. for example:\n    http://..../[app]/default/call/jsonrpc\n    decorate with @services.jsonrpc the functions to expose\n    supports xml, json, xmlrpc, jsonrpc, amfrpc, rss, csv\n    """\n    session.forget()\n    return service()\n\ndef empleados():\n    form=crud.create(db.empleados)\n    return dict(form=form)\n\ndef clientes():\n    form=crud.create(db.clientes)\n    return dict(form=form)\n\ndef peliculas():\n    form=crud.create(db.peliculas)\n    return dict(form=form)\n\ndef prestamos():\n    form=crud.create(db.prestamos)\n    return dict(form=form)\n\nresponse._vars=response._caller(prestamos)\n'
p6
sS'snapshot'
p7
(dp8
S'exception'
p9
(dp10
S'__hash__'
p11
S"<method-wrapper '__hash__' of exceptions.KeyError object>"
p12
sS'__setattr__'
p13
S"<method-wrapper '__setattr__' of exceptions.KeyError object>"
p14
sS'__reduce_ex__'
p15
S'<built-in method __reduce_ex__ of exceptions.KeyError object>'
p16
sS'__getslice__'
p17
S"<method-wrapper '__getslice__' of exceptions.KeyError object>"
p18
sS'__getitem__'
p19
S"<method-wrapper '__getitem__' of exceptions.KeyError object>"
p20
sS'__setstate__'
p21
S'<built-in method __setstate__ of exceptions.KeyError object>'
p22
sS'args'
p23
S"('first_name',)"
p24
sS'__reduce__'
p25
S'<built-in method __reduce__ of exceptions.KeyError object>'
p26
sS'__str__'
p27
S"<method-wrapper '__str__' of exceptions.KeyError object>"
p28
sS'__format__'
p29
S'<built-in method __format__ of exceptions.KeyError object>'
p30
sS'__getattribute__'
p31
S"<method-wrapper '__getattribute__' of exceptions.KeyError object>"
p32
sS'__class__'
p33
S"<type 'exceptions.KeyError'>"
p34
sS'__unicode__'
p35
S'<built-in method __unicode__ of exceptions.KeyError object>'
p36
sS'__delattr__'
p37
S"<method-wrapper '__delattr__' of exceptions.KeyError object>"
p38
sS'__subclasshook__'
p39
S'<built-in method __subclasshook__ of type object>'
p40
sS'__repr__'
p41
S"<method-wrapper '__repr__' of exceptions.KeyError object>"
p42
sS'__dict__'
p43
S'{}'
p44
sS'__sizeof__'
p45
S'<built-in method __sizeof__ of exceptions.KeyError object>'
p46
sS'__doc__'
p47
S"'Mapping key not found.'"
p48
sS'__init__'
p49
S"<method-wrapper '__init__' of exceptions.KeyError object>"
p50
sS'__new__'
p51
S'<built-in method __new__ of type object>'
p52
ssS'evalue'
p53
S"'first_name'"
p54
sS'request'
p55
ccopy_reg
_reconstructor
p56
(cgluon.html
BEAUTIFY
p57
c__builtin__
object
p58
NtRp59
(dp60
S'attributes'
p61
(dp62
sS'components'
p63
(lp64
g56
(cgluon.html
TABLE
p65
g58
NtRp66
(dp67
g61
(dp68
S'level'
p69
I5
ssS'parent'
p70
Nsg63
(lp71
g56
(cgluon.html
TR
p72
g58
NtRp73
(dp74
g61
(dp75
sg70
g66
sg63
(lp76
g56
(cgluon.html
TD
p77
g58
NtRp78
(dp79
g61
(dp80
S'_style'
p81
S'font-weight:bold;'
p82
ssg70
g73
sg63
(lp83
S'ajax'
p84
asbag56
(g77
g58
NtRp85
(dp86
g61
(dp87
S'_valign'
p88
S'top'
p89
ssg70
g73
sg63
(lp90
S':'
asbag56
(g77
g58
NtRp91
(dp92
g61
(dp93
sg70
g73
sg63
(lp94
g56
(g57
g58
NtRp95
(dp96
g61
(dp97
g69
I5
ssg70
g91
sg63
(lp98
S'False'
p99
asbasbasbag56
(g72
g58
NtRp100
(dp101
g61
(dp102
sg70
g66
sg63
(lp103
g56
(g77
g58
NtRp104
(dp105
g61
(dp106
g81
g82
ssg70
g100
sg63
(lp107
S'application'
p108
asbag56
(g77
g58
NtRp109
(dp110
g61
(dp111
g88
g89
ssg70
g100
sg63
(lp112
S':'
asbag56
(g77
g58
NtRp113
(dp114
g61
(dp115
sg70
g100
sg63
(lp116
g56
(g57
g58
NtRp117
(dp118
g61
(dp119
g69
I5
ssg70
g113
sg63
(lp120
S'mvstore'
p121
asbasbasbag56
(g72
g58
NtRp122
(dp123
g61
(dp124
sg70
g66
sg63
(lp125
g56
(g77
g58
NtRp126
(dp127
g61
(dp128
g81
g82
ssg70
g122
sg63
(lp129
g23
asbag56
(g77
g58
NtRp130
(dp131
g61
(dp132
g88
g89
ssg70
g122
sg63
(lp133
S':'
asbag56
(g77
g58
NtRp134
(dp135
g61
(dp136
sg70
g122
sg63
(lp137
g56
(g57
g58
NtRp138
(dp139
g61
(dp140
g69
I5
ssg70
g134
sg63
(lp141
g56
(g65
g58
NtRp142
(dp143
g61
(dp144
g69
I4
ssg70
Nsg63
(lp145
sbasbasbasbag56
(g72
g58
NtRp146
(dp147
g61
(dp148
sg70
g66
sg63
(lp149
g56
(g77
g58
NtRp150
(dp151
g61
(dp152
g81
g82
ssg70
g146
sg63
(lp153
S'body'
p154
asbag56
(g77
g58
NtRp155
(dp156
g61
(dp157
g88
g89
ssg70
g146
sg63
(lp158
S':'
asbag56
(g77
g58
NtRp159
(dp160
g61
(dp161
sg70
g146
sg63
(lp162
g56
(g57
g58
NtRp163
(dp164
g61
(dp165
g69
I5
ssg70
g159
sg63
(lp166
S'<cStringIO.StringO object at 0x221d4c8>'
p167
asbasbasbag56
(g72
g58
NtRp168
(dp169
g61
(dp170
sg70
g66
sg63
(lp171
g56
(g77
g58
NtRp172
(dp173
g61
(dp174
g81
g82
ssg70
g168
sg63
(lp175
S'client'
p176
asbag56
(g77
g58
NtRp177
(dp178
g61
(dp179
g88
g89
ssg70
g168
sg63
(lp180
S':'
asbag56
(g77
g58
NtRp181
(dp182
g61
(dp183
sg70
g168
sg63
(lp184
g56
(g57
g58
NtRp185
(dp186
g61
(dp187
g69
I5
ssg70
g181
sg63
(lp188
S'127.0.0.1'
p189
asbasbasbag56
(g72
g58
NtRp190
(dp191
g61
(dp192
sg70
g66
sg63
(lp193
g56
(g77
g58
NtRp194
(dp195
g61
(dp196
g81
g82
ssg70
g190
sg63
(lp197
S'controller'
p198
asbag56
(g77
g58
NtRp199
(dp200
g61
(dp201
g88
g89
ssg70
g190
sg63
(lp202
S':'
asbag56
(g77
g58
NtRp203
(dp204
g61
(dp205
sg70
g190
sg63
(lp206
g56
(g57
g58
NtRp207
(dp208
g61
(dp209
g69
I5
ssg70
g203
sg63
(lp210
S'default'
p211
asbasbasbag56
(g72
g58
NtRp212
(dp213
g61
(dp214
sg70
g66
sg63
(lp215
g56
(g77
g58
NtRp216
(dp217
g61
(dp218
g81
g82
ssg70
g212
sg63
(lp219
S'cookies'
p220
asbag56
(g77
g58
NtRp221
(dp222
g61
(dp223
g88
g89
ssg70
g212
sg63
(lp224
S':'
asbag56
(g77
g58
NtRp225
(dp226
g61
(dp227
sg70
g212
sg63
(lp228
g56
(g57
g58
NtRp229
(dp230
g61
(dp231
g69
I5
ssg70
g225
sg63
(lp232
g56
(g65
g58
NtRp233
(dp234
g61
(dp235
g69
I4
ssg70
Nsg63
(lp236
g56
(g72
g58
NtRp237
(dp238
g61
(dp239
sg70
g233
sg63
(lp240
g56
(g77
g58
NtRp241
(dp242
g61
(dp243
g81
g82
ssg70
g237
sg63
(lp244
S'session_id_admin'
p245
asbag56
(g77
g58
NtRp246
(dp247
g61
(dp248
g88
g89
ssg70
g237
sg63
(lp249
S':'
asbag56
(g77
g58
NtRp250
(dp251
g61
(dp252
sg70
g237
sg63
(lp253
g56
(g57
g58
NtRp254
(dp255
g61
(dp256
g69
I4
ssg70
g250
sg63
(lp257
g56
(g65
g58
NtRp258
(dp259
g61
(dp260
g69
I3
ssg70
Nsg63
(lp261
g56
(g72
g58
NtRp262
(dp263
g61
(dp264
sg70
g258
sg63
(lp265
g56
(g77
g58
NtRp266
(dp267
g61
(dp268
g81
g82
ssg70
g262
sg63
(lp269
S'comment'
p270
asbag56
(g77
g58
NtRp271
(dp272
g61
(dp273
g88
g89
ssg70
g262
sg63
(lp274
S':'
asbag56
(g77
g58
NtRp275
(dp276
g61
(dp277
sg70
g262
sg63
(lp278
g56
(g57
g58
NtRp279
(dp280
g61
(dp281
g69
I3
ssg70
g275
sg63
(lp282
S''
asbasbasbag56
(g72
g58
NtRp283
(dp284
g61
(dp285
sg70
g258
sg63
(lp286
g56
(g77
g58
NtRp287
(dp288
g61
(dp289
g81
g82
ssg70
g283
sg63
(lp290
S'domain'
p291
asbag56
(g77
g58
NtRp292
(dp293
g61
(dp294
g88
g89
ssg70
g283
sg63
(lp295
S':'
asbag56
(g77
g58
NtRp296
(dp297
g61
(dp298
sg70
g283
sg63
(lp299
g56
(g57
g58
NtRp300
(dp301
g61
(dp302
g69
I3
ssg70
g296
sg63
(lp303
S''
asbasbasbag56
(g72
g58
NtRp304
(dp305
g61
(dp306
sg70
g258
sg63
(lp307
g56
(g77
g58
NtRp308
(dp309
g61
(dp310
g81
g82
ssg70
g304
sg63
(lp311
S'expires'
p312
asbag56
(g77
g58
NtRp313
(dp314
g61
(dp315
g88
g89
ssg70
g304
sg63
(lp316
S':'
asbag56
(g77
g58
NtRp317
(dp318
g61
(dp319
sg70
g304
sg63
(lp320
g56
(g57
g58
NtRp321
(dp322
g61
(dp323
g69
I3
ssg70
g317
sg63
(lp324
S''
asbasbasbag56
(g72
g58
NtRp325
(dp326
g61
(dp327
sg70
g258
sg63
(lp328
g56
(g77
g58
NtRp329
(dp330
g61
(dp331
g81
g82
ssg70
g325
sg63
(lp332
S'httponly'
p333
asbag56
(g77
g58
NtRp334
(dp335
g61
(dp336
g88
g89
ssg70
g325
sg63
(lp337
S':'
asbag56
(g77
g58
NtRp338
(dp339
g61
(dp340
sg70
g325
sg63
(lp341
g56
(g57
g58
NtRp342
(dp343
g61
(dp344
g69
I3
ssg70
g338
sg63
(lp345
S''
asbasbasbag56
(g72
g58
NtRp346
(dp347
g61
(dp348
sg70
g258
sg63
(lp349
g56
(g77
g58
NtRp350
(dp351
g61
(dp352
g81
g82
ssg70
g346
sg63
(lp353
S'max-age'
p354
asbag56
(g77
g58
NtRp355
(dp356
g61
(dp357
g88
g89
ssg70
g346
sg63
(lp358
S':'
asbag56
(g77
g58
NtRp359
(dp360
g61
(dp361
sg70
g346
sg63
(lp362
g56
(g57
g58
NtRp363
(dp364
g61
(dp365
g69
I3
ssg70
g359
sg63
(lp366
S''
asbasbasbag56
(g72
g58
NtRp367
(dp368
g61
(dp369
sg70
g258
sg63
(lp370
g56
(g77
g58
NtRp371
(dp372
g61
(dp373
g81
g82
ssg70
g367
sg63
(lp374
S'path'
p375
asbag56
(g77
g58
NtRp376
(dp377
g61
(dp378
g88
g89
ssg70
g367
sg63
(lp379
S':'
asbag56
(g77
g58
NtRp380
(dp381
g61
(dp382
sg70
g367
sg63
(lp383
g56
(g57
g58
NtRp384
(dp385
g61
(dp386
g69
I3
ssg70
g380
sg63
(lp387
S''
asbasbasbag56
(g72
g58
NtRp388
(dp389
g61
(dp390
sg70
g258
sg63
(lp391
g56
(g77
g58
NtRp392
(dp393
g61
(dp394
g81
g82
ssg70
g388
sg63
(lp395
S'secure'
p396
asbag56
(g77
g58
NtRp397
(dp398
g61
(dp399
g88
g89
ssg70
g388
sg63
(lp400
S':'
asbag56
(g77
g58
NtRp401
(dp402
g61
(dp403
sg70
g388
sg63
(lp404
g56
(g57
g58
NtRp405
(dp406
g61
(dp407
g69
I3
ssg70
g401
sg63
(lp408
S''
asbasbasbag56
(g72
g58
NtRp409
(dp410
g61
(dp411
sg70
g258
sg63
(lp412
g56
(g77
g58
NtRp413
(dp414
g61
(dp415
g81
g82
ssg70
g409
sg63
(lp416
S'version'
p417
asbag56
(g77
g58
NtRp418
(dp419
g61
(dp420
g88
g89
ssg70
g409
sg63
(lp421
S':'
asbag56
(g77
g58
NtRp422
(dp423
g61
(dp424
sg70
g409
sg63
(lp425
g56
(g57
g58
NtRp426
(dp427
g61
(dp428
g69
I3
ssg70
g422
sg63
(lp429
S''
asbasbasbasbasbasbasbag56
(g72
g58
NtRp430
(dp431
g61
(dp432
sg70
g233
sg63
(lp433
g56
(g77
g58
NtRp434
(dp435
g61
(dp436
g81
g82
ssg70
g430
sg63
(lp437
S'session_id_mvstore'
p438
asbag56
(g77
g58
NtRp439
(dp440
g61
(dp441
g88
g89
ssg70
g430
sg63
(lp442
S':'
asbag56
(g77
g58
NtRp443
(dp444
g61
(dp445
sg70
g430
sg63
(lp446
g56
(g57
g58
NtRp447
(dp448
g61
(dp449
g69
I4
ssg70
g443
sg63
(lp450
g56
(g65
g58
NtRp451
(dp452
g61
(dp453
g69
I3
ssg70
Nsg63
(lp454
g56
(g72
g58
NtRp455
(dp456
g61
(dp457
sg70
g451
sg63
(lp458
g56
(g77
g58
NtRp459
(dp460
g61
(dp461
g81
g82
ssg70
g455
sg63
(lp462
g270
asbag56
(g77
g58
NtRp463
(dp464
g61
(dp465
g88
g89
ssg70
g455
sg63
(lp466
S':'
asbag56
(g77
g58
NtRp467
(dp468
g61
(dp469
sg70
g455
sg63
(lp470
g56
(g57
g58
NtRp471
(dp472
g61
(dp473
g69
I3
ssg70
g467
sg63
(lp474
S''
asbasbasbag56
(g72
g58
NtRp475
(dp476
g61
(dp477
sg70
g451
sg63
(lp478
g56
(g77
g58
NtRp479
(dp480
g61
(dp481
g81
g82
ssg70
g475
sg63
(lp482
g291
asbag56
(g77
g58
NtRp483
(dp484
g61
(dp485
g88
g89
ssg70
g475
sg63
(lp486
S':'
asbag56
(g77
g58
NtRp487
(dp488
g61
(dp489
sg70
g475
sg63
(lp490
g56
(g57
g58
NtRp491
(dp492
g61
(dp493
g69
I3
ssg70
g487
sg63
(lp494
S''
asbasbasbag56
(g72
g58
NtRp495
(dp496
g61
(dp497
sg70
g451
sg63
(lp498
g56
(g77
g58
NtRp499
(dp500
g61
(dp501
g81
g82
ssg70
g495
sg63
(lp502
g312
asbag56
(g77
g58
NtRp503
(dp504
g61
(dp505
g88
g89
ssg70
g495
sg63
(lp506
S':'
asbag56
(g77
g58
NtRp507
(dp508
g61
(dp509
sg70
g495
sg63
(lp510
g56
(g57
g58
NtRp511
(dp512
g61
(dp513
g69
I3
ssg70
g507
sg63
(lp514
S''
asbasbasbag56
(g72
g58
NtRp515
(dp516
g61
(dp517
sg70
g451
sg63
(lp518
g56
(g77
g58
NtRp519
(dp520
g61
(dp521
g81
g82
ssg70
g515
sg63
(lp522
g333
asbag56
(g77
g58
NtRp523
(dp524
g61
(dp525
g88
g89
ssg70
g515
sg63
(lp526
S':'
asbag56
(g77
g58
NtRp527
(dp528
g61
(dp529
sg70
g515
sg63
(lp530
g56
(g57
g58
NtRp531
(dp532
g61
(dp533
g69
I3
ssg70
g527
sg63
(lp534
S''
asbasbasbag56
(g72
g58
NtRp535
(dp536
g61
(dp537
sg70
g451
sg63
(lp538
g56
(g77
g58
NtRp539
(dp540
g61
(dp541
g81
g82
ssg70
g535
sg63
(lp542
g354
asbag56
(g77
g58
NtRp543
(dp544
g61
(dp545
g88
g89
ssg70
g535
sg63
(lp546
S':'
asbag56
(g77
g58
NtRp547
(dp548
g61
(dp549
sg70
g535
sg63
(lp550
g56
(g57
g58
NtRp551
(dp552
g61
(dp553
g69
I3
ssg70
g547
sg63
(lp554
S''
asbasbasbag56
(g72
g58
NtRp555
(dp556
g61
(dp557
sg70
g451
sg63
(lp558
g56
(g77
g58
NtRp559
(dp560
g61
(dp561
g81
g82
ssg70
g555
sg63
(lp562
g375
asbag56
(g77
g58
NtRp563
(dp564
g61
(dp565
g88
g89
ssg70
g555
sg63
(lp566
S':'
asbag56
(g77
g58
NtRp567
(dp568
g61
(dp569
sg70
g555
sg63
(lp570
g56
(g57
g58
NtRp571
(dp572
g61
(dp573
g69
I3
ssg70
g567
sg63
(lp574
S''
asbasbasbag56
(g72
g58
NtRp575
(dp576
g61
(dp577
sg70
g451
sg63
(lp578
g56
(g77
g58
NtRp579
(dp580
g61
(dp581
g81
g82
ssg70
g575
sg63
(lp582
g396
asbag56
(g77
g58
NtRp583
(dp584
g61
(dp585
g88
g89
ssg70
g575
sg63
(lp586
S':'
asbag56
(g77
g58
NtRp587
(dp588
g61
(dp589
sg70
g575
sg63
(lp590
g56
(g57
g58
NtRp591
(dp592
g61
(dp593
g69
I3
ssg70
g587
sg63
(lp594
S''
asbasbasbag56
(g72
g58
NtRp595
(dp596
g61
(dp597
sg70
g451
sg63
(lp598
g56
(g77
g58
NtRp599
(dp600
g61
(dp601
g81
g82
ssg70
g595
sg63
(lp602
g417
asbag56
(g77
g58
NtRp603
(dp604
g61
(dp605
g88
g89
ssg70
g595
sg63
(lp606
S':'
asbag56
(g77
g58
NtRp607
(dp608
g61
(dp609
sg70
g595
sg63
(lp610
g56
(g57
g58
NtRp611
(dp612
g61
(dp613
g69
I3
ssg70
g607
sg63
(lp614
S''
asbasbasbasbasbasbasbag56
(g72
g58
NtRp615
(dp616
g61
(dp617
sg70
g233
sg63
(lp618
g56
(g77
g58
NtRp619
(dp620
g61
(dp621
g81
g82
ssg70
g615
sg63
(lp622
S'session_id_welcome'
p623
asbag56
(g77
g58
NtRp624
(dp625
g61
(dp626
g88
g89
ssg70
g615
sg63
(lp627
S':'
asbag56
(g77
g58
NtRp628
(dp629
g61
(dp630
sg70
g615
sg63
(lp631
g56
(g57
g58
NtRp632
(dp633
g61
(dp634
g69
I4
ssg70
g628
sg63
(lp635
g56
(g65
g58
NtRp636
(dp637
g61
(dp638
g69
I3
ssg70
Nsg63
(lp639
g56
(g72
g58
NtRp640
(dp641
g61
(dp642
sg70
g636
sg63
(lp643
g56
(g77
g58
NtRp644
(dp645
g61
(dp646
g81
g82
ssg70
g640
sg63
(lp647
g270
asbag56
(g77
g58
NtRp648
(dp649
g61
(dp650
g88
g89
ssg70
g640
sg63
(lp651
S':'
asbag56
(g77
g58
NtRp652
(dp653
g61
(dp654
sg70
g640
sg63
(lp655
g56
(g57
g58
NtRp656
(dp657
g61
(dp658
g69
I3
ssg70
g652
sg63
(lp659
S''
asbasbasbag56
(g72
g58
NtRp660
(dp661
g61
(dp662
sg70
g636
sg63
(lp663
g56
(g77
g58
NtRp664
(dp665
g61
(dp666
g81
g82
ssg70
g660
sg63
(lp667
g291
asbag56
(g77
g58
NtRp668
(dp669
g61
(dp670
g88
g89
ssg70
g660
sg63
(lp671
S':'
asbag56
(g77
g58
NtRp672
(dp673
g61
(dp674
sg70
g660
sg63
(lp675
g56
(g57
g58
NtRp676
(dp677
g61
(dp678
g69
I3
ssg70
g672
sg63
(lp679
S''
asbasbasbag56
(g72
g58
NtRp680
(dp681
g61
(dp682
sg70
g636
sg63
(lp683
g56
(g77
g58
NtRp684
(dp685
g61
(dp686
g81
g82
ssg70
g680
sg63
(lp687
g312
asbag56
(g77
g58
NtRp688
(dp689
g61
(dp690
g88
g89
ssg70
g680
sg63
(lp691
S':'
asbag56
(g77
g58
NtRp692
(dp693
g61
(dp694
sg70
g680
sg63
(lp695
g56
(g57
g58
NtRp696
(dp697
g61
(dp698
g69
I3
ssg70
g692
sg63
(lp699
S''
asbasbasbag56
(g72
g58
NtRp700
(dp701
g61
(dp702
sg70
g636
sg63
(lp703
g56
(g77
g58
NtRp704
(dp705
g61
(dp706
g81
g82
ssg70
g700
sg63
(lp707
g333
asbag56
(g77
g58
NtRp708
(dp709
g61
(dp710
g88
g89
ssg70
g700
sg63
(lp711
S':'
asbag56
(g77
g58
NtRp712
(dp713
g61
(dp714
sg70
g700
sg63
(lp715
g56
(g57
g58
NtRp716
(dp717
g61
(dp718
g69
I3
ssg70
g712
sg63
(lp719
S''
asbasbasbag56
(g72
g58
NtRp720
(dp721
g61
(dp722
sg70
g636
sg63
(lp723
g56
(g77
g58
NtRp724
(dp725
g61
(dp726
g81
g82
ssg70
g720
sg63
(lp727
g354
asbag56
(g77
g58
NtRp728
(dp729
g61
(dp730
g88
g89
ssg70
g720
sg63
(lp731
S':'
asbag56
(g77
g58
NtRp732
(dp733
g61
(dp734
sg70
g720
sg63
(lp735
g56
(g57
g58
NtRp736
(dp737
g61
(dp738
g69
I3
ssg70
g732
sg63
(lp739
S''
asbasbasbag56
(g72
g58
NtRp740
(dp741
g61
(dp742
sg70
g636
sg63
(lp743
g56
(g77
g58
NtRp744
(dp745
g61
(dp746
g81
g82
ssg70
g740
sg63
(lp747
g375
asbag56
(g77
g58
NtRp748
(dp749
g61
(dp750
g88
g89
ssg70
g740
sg63
(lp751
S':'
asbag56
(g77
g58
NtRp752
(dp753
g61
(dp754
sg70
g740
sg63
(lp755
g56
(g57
g58
NtRp756
(dp757
g61
(dp758
g69
I3
ssg70
g752
sg63
(lp759
S''
asbasbasbag56
(g72
g58
NtRp760
(dp761
g61
(dp762
sg70
g636
sg63
(lp763
g56
(g77
g58
NtRp764
(dp765
g61
(dp766
g81
g82
ssg70
g760
sg63
(lp767
g396
asbag56
(g77
g58
NtRp768
(dp769
g61
(dp770
g88
g89
ssg70
g760
sg63
(lp771
S':'
asbag56
(g77
g58
NtRp772
(dp773
g61
(dp774
sg70
g760
sg63
(lp775
g56
(g57
g58
NtRp776
(dp777
g61
(dp778
g69
I3
ssg70
g772
sg63
(lp779
S''
asbasbasbag56
(g72
g58
NtRp780
(dp781
g61
(dp782
sg70
g636
sg63
(lp783
g56
(g77
g58
NtRp784
(dp785
g61
(dp786
g81
g82
ssg70
g780
sg63
(lp787
g417
asbag56
(g77
g58
NtRp788
(dp789
g61
(dp790
g88
g89
ssg70
g780
sg63
(lp791
S':'
asbag56
(g77
g58
NtRp792
(dp793
g61
(dp794
sg70
g780
sg63
(lp795
g56
(g57
g58
NtRp796
(dp797
g61
(dp798
g69
I3
ssg70
g792
sg63
(lp799
S''
asbasbasbasbasbasbasbasbasbasbasbag56
(g72
g58
NtRp800
(dp801
g61
(dp802
sg70
g66
sg63
(lp803
g56
(g77
g58
NtRp804
(dp805
g61
(dp806
g81
g82
ssg70
g800
sg63
(lp807
S'env'
p808
asbag56
(g77
g58
NtRp809
(dp810
g61
(dp811
g88
g89
ssg70
g800
sg63
(lp812
S':'
asbag56
(g77
g58
NtRp813
(dp814
g61
(dp815
sg70
g800
sg63
(lp816
g56
(g57
g58
NtRp817
(dp818
g61
(dp819
g69
I5
ssg70
g813
sg63
(lp820
g56
(g65
g58
NtRp821
(dp822
g61
(dp823
g69
I4
ssg70
Nsg63
(lp824
g56
(g72
g58
NtRp825
(dp826
g61
(dp827
sg70
g821
sg63
(lp828
g56
(g77
g58
NtRp829
(dp830
g61
(dp831
g81
g82
ssg70
g825
sg63
(lp832
S'app_folders'
p833
asbag56
(g77
g58
NtRp834
(dp835
g61
(dp836
g88
g89
ssg70
g825
sg63
(lp837
S':'
asbag56
(g77
g58
NtRp838
(dp839
g61
(dp840
sg70
g825
sg63
(lp841
g56
(g57
g58
NtRp842
(dp843
g61
(dp844
g69
I4
ssg70
g838
sg63
(lp845
S"set(['/home/marco/proyectos/web2py-trunk/applications/mvstore/', '/home/marco/proyectos/web2py-trunk/applications/admin/', '/home/marco/proyectos/web2py-trunk/applications/welcome/'])"
p846
asbasbasbag56
(g72
g58
NtRp847
(dp848
g61
(dp849
sg70
g821
sg63
(lp850
g56
(g77
g58
NtRp851
(dp852
g61
(dp853
g81
g82
ssg70
g847
sg63
(lp854
S'applications_parent'
p855
asbag56
(g77
g58
NtRp856
(dp857
g61
(dp858
g88
g89
ssg70
g847
sg63
(lp859
S':'
asbag56
(g77
g58
NtRp860
(dp861
g61
(dp862
sg70
g847
sg63
(lp863
g56
(g57
g58
NtRp864
(dp865
g61
(dp866
g69
I4
ssg70
g860
sg63
(lp867
S'/home/marco/proyectos/web2py-trunk'
p868
asbasbasbag56
(g72
g58
NtRp869
(dp870
g61
(dp871
sg70
g821
sg63
(lp872
g56
(g77
g58
NtRp873
(dp874
g61
(dp875
g81
g82
ssg70
g869
sg63
(lp876
S'cmd_args'
p877
asbag56
(g77
g58
NtRp878
(dp879
g61
(dp880
g88
g89
ssg70
g869
sg63
(lp881
S':'
asbag56
(g77
g58
NtRp882
(dp883
g61
(dp884
sg70
g869
sg63
(lp885
g56
(g57
g58
NtRp886
(dp887
g61
(dp888
g69
I4
ssg70
g882
sg63
(lp889
g56
(g65
g58
NtRp890
(dp891
g61
(dp892
g69
I3
ssg70
Nsg63
(lp893
sbasbasbasbag56
(g72
g58
NtRp894
(dp895
g61
(dp896
sg70
g821
sg63
(lp897
g56
(g77
g58
NtRp898
(dp899
g61
(dp900
g81
g82
ssg70
g894
sg63
(lp901
S'cmd_options'
p902
asbag56
(g77
g58
NtRp903
(dp904
g61
(dp905
g88
g89
ssg70
g894
sg63
(lp906
S':'
asbag56
(g77
g58
NtRp907
(dp908
g61
(dp909
sg70
g894
sg63
(lp910
g56
(g57
g58
NtRp911
(dp912
g61
(dp913
g69
I4
ssg70
g907
sg63
(lp914
S"<Values at 0x1af5b90: {'verbose': False, 'ip': '127.0.0.1', 'shutdown_timeout': 5, 'taskbar': False, 'port': 8000, 'maxthreads': None, 'softcron': False, 'server_name': 'kiki', 'bpython': False, 'nogui': False, 'nocron': False, 'extcron': False, 'debuglevel': 30, 'test': None, 'folder': '/home/marco/proyectos/web2py-trunk', 'config': '', 'import_models': False, 'winservice': '', 'shell': None, 'run': '', 'log_filename': 'httpserver.log', 'args': [''], 'profiler_filename': None, 'ssl_private_key': '', 'password': 'asd', 'request_queue_size': 5, 'ssl_certificate': '', 'cronjob': False, 'plain': False, 'quiet': False, 'interfaces': None, 'minthreads': None, 'timeout': 10, 'numthreads': None, 'nobanner': False, 'pid_filename': 'httpserver.pid'}>"
p915
asbasbasbag56
(g72
g58
NtRp916
(dp917
g61
(dp918
sg70
g821
sg63
(lp919
g56
(g77
g58
NtRp920
(dp921
g61
(dp922
g81
g82
ssg70
g916
sg63
(lp923
S'db_sessions'
p924
asbag56
(g77
g58
NtRp925
(dp926
g61
(dp927
g88
g89
ssg70
g916
sg63
(lp928
S':'
asbag56
(g77
g58
NtRp929
(dp930
g61
(dp931
sg70
g916
sg63
(lp932
g56
(g57
g58
NtRp933
(dp934
g61
(dp935
g69
I4
ssg70
g929
sg63
(lp936
S'set([])'
p937
asbasbasbag56
(g72
g58
NtRp938
(dp939
g61
(dp940
sg70
g821
sg63
(lp941
g56
(g77
g58
NtRp942
(dp943
g61
(dp944
g81
g82
ssg70
g938
sg63
(lp945
S'debugging'
p946
asbag56
(g77
g58
NtRp947
(dp948
g61
(dp949
g88
g89
ssg70
g938
sg63
(lp950
S':'
asbag56
(g77
g58
NtRp951
(dp952
g61
(dp953
sg70
g938
sg63
(lp954
g56
(g57
g58
NtRp955
(dp956
g61
(dp957
g69
I4
ssg70
g951
sg63
(lp958
g99
asbasbasbag56
(g72
g58
NtRp959
(dp960
g61
(dp961
sg70
g821
sg63
(lp962
g56
(g77
g58
NtRp963
(dp964
g61
(dp965
g81
g82
ssg70
g959
sg63
(lp966
S'gluon_parent'
p967
asbag56
(g77
g58
NtRp968
(dp969
g61
(dp970
g88
g89
ssg70
g959
sg63
(lp971
S':'
asbag56
(g77
g58
NtRp972
(dp973
g61
(dp974
sg70
g959
sg63
(lp975
g56
(g57
g58
NtRp976
(dp977
g61
(dp978
g69
I4
ssg70
g972
sg63
(lp979
S'/home/marco/proyectos/web2py-trunk'
p980
asbasbasbag56
(g72
g58
NtRp981
(dp982
g61
(dp983
sg70
g821
sg63
(lp984
g56
(g77
g58
NtRp985
(dp986
g61
(dp987
g81
g82
ssg70
g981
sg63
(lp988
S'http_accept'
p989
asbag56
(g77
g58
NtRp990
(dp991
g61
(dp992
g88
g89
ssg70
g981
sg63
(lp993
S':'
asbag56
(g77
g58
NtRp994
(dp995
g61
(dp996
sg70
g981
sg63
(lp997
g56
(g57
g58
NtRp998
(dp999
g61
(dp1000
g69
I4
ssg70
g994
sg63
(lp1001
S'application/xml,application/xhtml+xml,text/html;q=0.9,text/plain;q=0.8,image/png,*/*;q=0.5'
p1002
asbasbasbag56
(g72
g58
NtRp1003
(dp1004
g61
(dp1005
sg70
g821
sg63
(lp1006
g56
(g77
g58
NtRp1007
(dp1008
g61
(dp1009
g81
g82
ssg70
g1003
sg63
(lp1010
S'http_accept_charset'
p1011
asbag56
(g77
g58
NtRp1012
(dp1013
g61
(dp1014
g88
g89
ssg70
g1003
sg63
(lp1015
S':'
asbag56
(g77
g58
NtRp1016
(dp1017
g61
(dp1018
sg70
g1003
sg63
(lp1019
g56
(g57
g58
NtRp1020
(dp1021
g61
(dp1022
g69
I4
ssg70
g1016
sg63
(lp1023
S'ISO-8859-1,utf-8;q=0.7,*;q=0.3'
p1024
asbasbasbag56
(g72
g58
NtRp1025
(dp1026
g61
(dp1027
sg70
g821
sg63
(lp1028
g56
(g77
g58
NtRp1029
(dp1030
g61
(dp1031
g81
g82
ssg70
g1025
sg63
(lp1032
S'http_accept_encoding'
p1033
asbag56
(g77
g58
NtRp1034
(dp1035
g61
(dp1036
g88
g89
ssg70
g1025
sg63
(lp1037
S':'
asbag56
(g77
g58
NtRp1038
(dp1039
g61
(dp1040
sg70
g1025
sg63
(lp1041
g56
(g57
g58
NtRp1042
(dp1043
g61
(dp1044
g69
I4
ssg70
g1038
sg63
(lp1045
S'gzip,deflate,sdch'
p1046
asbasbasbag56
(g72
g58
NtRp1047
(dp1048
g61
(dp1049
sg70
g821
sg63
(lp1050
g56
(g77
g58
NtRp1051
(dp1052
g61
(dp1053
g81
g82
ssg70
g1047
sg63
(lp1054
S'http_accept_language'
p1055
asbag56
(g77
g58
NtRp1056
(dp1057
g61
(dp1058
g88
g89
ssg70
g1047
sg63
(lp1059
S':'
asbag56
(g77
g58
NtRp1060
(dp1061
g61
(dp1062
sg70
g1047
sg63
(lp1063
g56
(g57
g58
NtRp1064
(dp1065
g61
(dp1066
g69
I4
ssg70
g1060
sg63
(lp1067
S'es,en-US;q=0.8,en;q=0.6'
p1068
asbasbasbag56
(g72
g58
NtRp1069
(dp1070
g61
(dp1071
sg70
g821
sg63
(lp1072
g56
(g77
g58
NtRp1073
(dp1074
g61
(dp1075
g81
g82
ssg70
g1069
sg63
(lp1076
S'http_connection'
p1077
asbag56
(g77
g58
NtRp1078
(dp1079
g61
(dp1080
g88
g89
ssg70
g1069
sg63
(lp1081
S':'
asbag56
(g77
g58
NtRp1082
(dp1083
g61
(dp1084
sg70
g1069
sg63
(lp1085
g56
(g57
g58
NtRp1086
(dp1087
g61
(dp1088
g69
I4
ssg70
g1082
sg63
(lp1089
S'keep-alive'
p1090
asbasbasbag56
(g72
g58
NtRp1091
(dp1092
g61
(dp1093
sg70
g821
sg63
(lp1094
g56
(g77
g58
NtRp1095
(dp1096
g61
(dp1097
g81
g82
ssg70
g1091
sg63
(lp1098
S'http_cookie'
p1099
asbag56
(g77
g58
NtRp1100
(dp1101
g61
(dp1102
g88
g89
ssg70
g1091
sg63
(lp1103
S':'
asbag56
(g77
g58
NtRp1104
(dp1105
g61
(dp1106
sg70
g1091
sg63
(lp1107
g56
(g57
g58
NtRp1108
(dp1109
g61
(dp1110
g69
I4
ssg70
g1104
sg63
(lp1111
S'session_id_welcome=127.0.0.1-0653ef3e-3e2a-4c9a-a2ad-dc6c0f6d5d3b; session_id_mvstore=127.0.0.1-198da1a4-83ef-434e-bd36-326d7acdcb3a; session_id_admin=127.0.0.1-f645f06f-266f-4e4d-b2e0-7d73420d32e3'
p1112
asbasbasbag56
(g72
g58
NtRp1113
(dp1114
g61
(dp1115
sg70
g821
sg63
(lp1116
g56
(g77
g58
NtRp1117
(dp1118
g61
(dp1119
g81
g82
ssg70
g1113
sg63
(lp1120
S'http_host'
p1121
asbag56
(g77
g58
NtRp1122
(dp1123
g61
(dp1124
g88
g89
ssg70
g1113
sg63
(lp1125
S':'
asbag56
(g77
g58
NtRp1126
(dp1127
g61
(dp1128
sg70
g1113
sg63
(lp1129
g56
(g57
g58
NtRp1130
(dp1131
g61
(dp1132
g69
I4
ssg70
g1126
sg63
(lp1133
S'127.0.0.1:8000'
p1134
asbasbasbag56
(g72
g58
NtRp1135
(dp1136
g61
(dp1137
sg70
g821
sg63
(lp1138
g56
(g77
g58
NtRp1139
(dp1140
g61
(dp1141
g81
g82
ssg70
g1135
sg63
(lp1142
S'http_referer'
p1143
asbag56
(g77
g58
NtRp1144
(dp1145
g61
(dp1146
g88
g89
ssg70
g1135
sg63
(lp1147
S':'
asbag56
(g77
g58
NtRp1148
(dp1149
g61
(dp1150
sg70
g1135
sg63
(lp1151
g56
(g57
g58
NtRp1152
(dp1153
g61
(dp1154
g69
I4
ssg70
g1148
sg63
(lp1155
S'http://127.0.0.1:8000/admin/default/design/mvstore'
p1156
asbasbasbag56
(g72
g58
NtRp1157
(dp1158
g61
(dp1159
sg70
g821
sg63
(lp1160
g56
(g77
g58
NtRp1161
(dp1162
g61
(dp1163
g81
g82
ssg70
g1157
sg63
(lp1164
S'http_user_agent'
p1165
asbag56
(g77
g58
NtRp1166
(dp1167
g61
(dp1168
g88
g89
ssg70
g1157
sg63
(lp1169
S':'
asbag56
(g77
g58
NtRp1170
(dp1171
g61
(dp1172
sg70
g1157
sg63
(lp1173
g56
(g57
g58
NtRp1174
(dp1175
g61
(dp1176
g69
I4
ssg70
g1170
sg63
(lp1177
S'Mozilla/5.0 (X11; U; Linux x86_64; en-US) AppleWebKit/534.16 (KHTML, like Gecko) Chrome/10.0.648.205 Safari/534.16'
p1178
asbasbasbag56
(g72
g58
NtRp1179
(dp1180
g61
(dp1181
sg70
g821
sg63
(lp1182
g56
(g77
g58
NtRp1183
(dp1184
g61
(dp1185
g81
g82
ssg70
g1179
sg63
(lp1186
S'path_info'
p1187
asbag56
(g77
g58
NtRp1188
(dp1189
g61
(dp1190
g88
g89
ssg70
g1179
sg63
(lp1191
S':'
asbag56
(g77
g58
NtRp1192
(dp1193
g61
(dp1194
sg70
g1179
sg63
(lp1195
g56
(g57
g58
NtRp1196
(dp1197
g61
(dp1198
g69
I4
ssg70
g1192
sg63
(lp1199
S'/mvstore/default/prestamos'
p1200
asbasbasbag56
(g72
g58
NtRp1201
(dp1202
g61
(dp1203
sg70
g821
sg63
(lp1204
g56
(g77
g58
NtRp1205
(dp1206
g61
(dp1207
g81
g82
ssg70
g1201
sg63
(lp1208
S'query_string'
p1209
asbag56
(g77
g58
NtRp1210
(dp1211
g61
(dp1212
g88
g89
ssg70
g1201
sg63
(lp1213
S':'
asbag56
(g77
g58
NtRp1214
(dp1215
g61
(dp1216
sg70
g1201
sg63
(lp1217
g56
(g57
g58
NtRp1218
(dp1219
g61
(dp1220
g69
I4
ssg70
g1214
sg63
(lp1221
S''
asbasbasbag56
(g72
g58
NtRp1222
(dp1223
g61
(dp1224
sg70
g821
sg63
(lp1225
g56
(g77
g58
NtRp1226
(dp1227
g61
(dp1228
g81
g82
ssg70
g1222
sg63
(lp1229
S'remote_addr'
p1230
asbag56
(g77
g58
NtRp1231
(dp1232
g61
(dp1233
g88
g89
ssg70
g1222
sg63
(lp1234
S':'
asbag56
(g77
g58
NtRp1235
(dp1236
g61
(dp1237
sg70
g1222
sg63
(lp1238
g56
(g57
g58
NtRp1239
(dp1240
g61
(dp1241
g69
I4
ssg70
g1235
sg63
(lp1242
g189
asbasbasbag56
(g72
g58
NtRp1243
(dp1244
g61
(dp1245
sg70
g821
sg63
(lp1246
g56
(g77
g58
NtRp1247
(dp1248
g61
(dp1249
g81
g82
ssg70
g1243
sg63
(lp1250
S'remote_port'
p1251
asbag56
(g77
g58
NtRp1252
(dp1253
g61
(dp1254
g88
g89
ssg70
g1243
sg63
(lp1255
S':'
asbag56
(g77
g58
NtRp1256
(dp1257
g61
(dp1258
sg70
g1243
sg63
(lp1259
g56
(g57
g58
NtRp1260
(dp1261
g61
(dp1262
g69
I4
ssg70
g1256
sg63
(lp1263
S'39762'
p1264
asbasbasbag56
(g72
g58
NtRp1265
(dp1266
g61
(dp1267
sg70
g821
sg63
(lp1268
g56
(g77
g58
NtRp1269
(dp1270
g61
(dp1271
g81
g82
ssg70
g1265
sg63
(lp1272
S'request_method'
p1273
asbag56
(g77
g58
NtRp1274
(dp1275
g61
(dp1276
g88
g89
ssg70
g1265
sg63
(lp1277
S':'
asbag56
(g77
g58
NtRp1278
(dp1279
g61
(dp1280
sg70
g1265
sg63
(lp1281
g56
(g57
g58
NtRp1282
(dp1283
g61
(dp1284
g69
I4
ssg70
g1278
sg63
(lp1285
S'GET'
p1286
asbasbasbag56
(g72
g58
NtRp1287
(dp1288
g61
(dp1289
sg70
g821
sg63
(lp1290
g56
(g77
g58
NtRp1291
(dp1292
g61
(dp1293
g81
g82
ssg70
g1287
sg63
(lp1294
S'script_name'
p1295
asbag56
(g77
g58
NtRp1296
(dp1297
g61
(dp1298
g88
g89
ssg70
g1287
sg63
(lp1299
S':'
asbag56
(g77
g58
NtRp1300
(dp1301
g61
(dp1302
sg70
g1287
sg63
(lp1303
g56
(g57
g58
NtRp1304
(dp1305
g61
(dp1306
g69
I4
ssg70
g1300
sg63
(lp1307
S''
asbasbasbag56
(g72
g58
NtRp1308
(dp1309
g61
(dp1310
sg70
g821
sg63
(lp1311
g56
(g77
g58
NtRp1312
(dp1313
g61
(dp1314
g81
g82
ssg70
g1308
sg63
(lp1315
S'server_name'
p1316
asbag56
(g77
g58
NtRp1317
(dp1318
g61
(dp1319
g88
g89
ssg70
g1308
sg63
(lp1320
S':'
asbag56
(g77
g58
NtRp1321
(dp1322
g61
(dp1323
sg70
g1308
sg63
(lp1324
g56
(g57
g58
NtRp1325
(dp1326
g61
(dp1327
g69
I4
ssg70
g1321
sg63
(lp1328
S'kiki'
p1329
asbasbasbag56
(g72
g58
NtRp1330
(dp1331
g61
(dp1332
sg70
g821
sg63
(lp1333
g56
(g77
g58
NtRp1334
(dp1335
g61
(dp1336
g81
g82
ssg70
g1330
sg63
(lp1337
S'server_port'
p1338
asbag56
(g77
g58
NtRp1339
(dp1340
g61
(dp1341
g88
g89
ssg70
g1330
sg63
(lp1342
S':'
asbag56
(g77
g58
NtRp1343
(dp1344
g61
(dp1345
sg70
g1330
sg63
(lp1346
g56
(g57
g58
NtRp1347
(dp1348
g61
(dp1349
g69
I4
ssg70
g1343
sg63
(lp1350
S'8000'
p1351
asbasbasbag56
(g72
g58
NtRp1352
(dp1353
g61
(dp1354
sg70
g821
sg63
(lp1355
g56
(g77
g58
NtRp1356
(dp1357
g61
(dp1358
g81
g82
ssg70
g1352
sg63
(lp1359
S'server_protocol'
p1360
asbag56
(g77
g58
NtRp1361
(dp1362
g61
(dp1363
g88
g89
ssg70
g1352
sg63
(lp1364
S':'
asbag56
(g77
g58
NtRp1365
(dp1366
g61
(dp1367
sg70
g1352
sg63
(lp1368
g56
(g57
g58
NtRp1369
(dp1370
g61
(dp1371
g69
I4
ssg70
g1365
sg63
(lp1372
S'HTTP/1.1'
p1373
asbasbasbag56
(g72
g58
NtRp1374
(dp1375
g61
(dp1376
sg70
g821
sg63
(lp1377
g56
(g77
g58
NtRp1378
(dp1379
g61
(dp1380
g81
g82
ssg70
g1374
sg63
(lp1381
S'server_software'
p1382
asbag56
(g77
g58
NtRp1383
(dp1384
g61
(dp1385
g88
g89
ssg70
g1374
sg63
(lp1386
S':'
asbag56
(g77
g58
NtRp1387
(dp1388
g61
(dp1389
sg70
g1374
sg63
(lp1390
g56
(g57
g58
NtRp1391
(dp1392
g61
(dp1393
g69
I4
ssg70
g1387
sg63
(lp1394
S'Rocket 1.2.2'
p1395
asbasbasbag56
(g72
g58
NtRp1396
(dp1397
g61
(dp1398
sg70
g821
sg63
(lp1399
g56
(g77
g58
NtRp1400
(dp1401
g61
(dp1402
g81
g82
ssg70
g1396
sg63
(lp1403
S'web2py_crontype'
p1404
asbag56
(g77
g58
NtRp1405
(dp1406
g61
(dp1407
g88
g89
ssg70
g1396
sg63
(lp1408
S':'
asbag56
(g77
g58
NtRp1409
(dp1410
g61
(dp1411
sg70
g1396
sg63
(lp1412
g56
(g57
g58
NtRp1413
(dp1414
g61
(dp1415
g69
I4
ssg70
g1409
sg63
(lp1416
S'hard'
p1417
asbasbasbag56
(g72
g58
NtRp1418
(dp1419
g61
(dp1420
sg70
g821
sg63
(lp1421
g56
(g77
g58
NtRp1422
(dp1423
g61
(dp1424
g81
g82
ssg70
g1418
sg63
(lp1425
S'web2py_path'
p1426
asbag56
(g77
g58
NtRp1427
(dp1428
g61
(dp1429
g88
g89
ssg70
g1418
sg63
(lp1430
S':'
asbag56
(g77
g58
NtRp1431
(dp1432
g61
(dp1433
sg70
g1418
sg63
(lp1434
g56
(g57
g58
NtRp1435
(dp1436
g61
(dp1437
g69
I4
ssg70
g1431
sg63
(lp1438
g868
asbasbasbag56
(g72
g58
NtRp1439
(dp1440
g61
(dp1441
sg70
g821
sg63
(lp1442
g56
(g77
g58
NtRp1443
(dp1444
g61
(dp1445
g81
g82
ssg70
g1439
sg63
(lp1446
S'web2py_version'
p1447
asbag56
(g77
g58
NtRp1448
(dp1449
g61
(dp1450
g88
g89
ssg70
g1439
sg63
(lp1451
S':'
asbag56
(g77
g58
NtRp1452
(dp1453
g61
(dp1454
sg70
g1439
sg63
(lp1455
g56
(g57
g58
NtRp1456
(dp1457
g61
(dp1458
g69
I4
ssg70
g1452
sg63
(lp1459
S'        iersion 1.94.1 (2011-03-17 16:30:58)\n'
p1460
asbasbasbag56
(g72
g58
NtRp1461
(dp1462
g61
(dp1463
sg70
g821
sg63
(lp1464
g56
(g77
g58
NtRp1465
(dp1466
g61
(dp1467
g81
g82
ssg70
g1461
sg63
(lp1468
S'wsgi_errors'
p1469
asbag56
(g77
g58
NtRp1470
(dp1471
g61
(dp1472
g88
g89
ssg70
g1461
sg63
(lp1473
S':'
asbag56
(g77
g58
NtRp1474
(dp1475
g61
(dp1476
sg70
g1461
sg63
(lp1477
g56
(g57
g58
NtRp1478
(dp1479
g61
(dp1480
g69
I4
ssg70
g1474
sg63
(lp1481
S"<open file '<stderr>', mode 'w' at 0x7fd2753531e0>"
p1482
asbasbasbag56
(g72
g58
NtRp1483
(dp1484
g61
(dp1485
sg70
g821
sg63
(lp1486
g56
(g77
g58
NtRp1487
(dp1488
g61
(dp1489
g81
g82
ssg70
g1483
sg63
(lp1490
S'wsgi_file_wrapper'
p1491
asbag56
(g77
g58
NtRp1492
(dp1493
g61
(dp1494
g88
g89
ssg70
g1483
sg63
(lp1495
S':'
asbag56
(g77
g58
NtRp1496
(dp1497
g61
(dp1498
sg70
g1483
sg63
(lp1499
g56
(g57
g58
NtRp1500
(dp1501
g61
(dp1502
g69
I4
ssg70
g1496
sg63
(lp1503
S'<class gluon.rocket.FileWrapper at 0x19683b0>'
p1504
asbasbasbag56
(g72
g58
NtRp1505
(dp1506
g61
(dp1507
sg70
g821
sg63
(lp1508
g56
(g77
g58
NtRp1509
(dp1510
g61
(dp1511
g81
g82
ssg70
g1505
sg63
(lp1512
S'wsgi_input'
p1513
asbag56
(g77
g58
NtRp1514
(dp1515
g61
(dp1516
g88
g89
ssg70
g1505
sg63
(lp1517
S':'
asbag56
(g77
g58
NtRp1518
(dp1519
g61
(dp1520
sg70
g1505
sg63
(lp1521
g56
(g57
g58
NtRp1522
(dp1523
g61
(dp1524
g69
I4
ssg70
g1518
sg63
(lp1525
S'<socket._fileobject object at 0x1cdd050>'
p1526
asbasbasbag56
(g72
g58
NtRp1527
(dp1528
g61
(dp1529
sg70
g821
sg63
(lp1530
g56
(g77
g58
NtRp1531
(dp1532
g61
(dp1533
g81
g82
ssg70
g1527
sg63
(lp1534
S'wsgi_multiprocess'
p1535
asbag56
(g77
g58
NtRp1536
(dp1537
g61
(dp1538
g88
g89
ssg70
g1527
sg63
(lp1539
S':'
asbag56
(g77
g58
NtRp1540
(dp1541
g61
(dp1542
sg70
g1527
sg63
(lp1543
g56
(g57
g58
NtRp1544
(dp1545
g61
(dp1546
g69
I4
ssg70
g1540
sg63
(lp1547
g99
asbasbasbag56
(g72
g58
NtRp1548
(dp1549
g61
(dp1550
sg70
g821
sg63
(lp1551
g56
(g77
g58
NtRp1552
(dp1553
g61
(dp1554
g81
g82
ssg70
g1548
sg63
(lp1555
S'wsgi_multithread'
p1556
asbag56
(g77
g58
NtRp1557
(dp1558
g61
(dp1559
g88
g89
ssg70
g1548
sg63
(lp1560
S':'
asbag56
(g77
g58
NtRp1561
(dp1562
g61
(dp1563
sg70
g1548
sg63
(lp1564
g56
(g57
g58
NtRp1565
(dp1566
g61
(dp1567
g69
I4
ssg70
g1561
sg63
(lp1568
S'True'
p1569
asbasbasbag56
(g72
g58
NtRp1570
(dp1571
g61
(dp1572
sg70
g821
sg63
(lp1573
g56
(g77
g58
NtRp1574
(dp1575
g61
(dp1576
g81
g82
ssg70
g1570
sg63
(lp1577
S'wsgi_run_once'
p1578
asbag56
(g77
g58
NtRp1579
(dp1580
g61
(dp1581
g88
g89
ssg70
g1570
sg63
(lp1582
S':'
asbag56
(g77
g58
NtRp1583
(dp1584
g61
(dp1585
sg70
g1570
sg63
(lp1586
g56
(g57
g58
NtRp1587
(dp1588
g61
(dp1589
g69
I4
ssg70
g1583
sg63
(lp1590
g99
asbasbasbag56
(g72
g58
NtRp1591
(dp1592
g61
(dp1593
sg70
g821
sg63
(lp1594
g56
(g77
g58
NtRp1595
(dp1596
g61
(dp1597
g81
g82
ssg70
g1591
sg63
(lp1598
S'wsgi_url_scheme'
p1599
asbag56
(g77
g58
NtRp1600
(dp1601
g61
(dp1602
g88
g89
ssg70
g1591
sg63
(lp1603
S':'
asbag56
(g77
g58
NtRp1604
(dp1605
g61
(dp1606
sg70
g1591
sg63
(lp1607
g56
(g57
g58
NtRp1608
(dp1609
g61
(dp1610
g69
I4
ssg70
g1604
sg63
(lp1611
S'http'
p1612
asbasbasbag56
(g72
g58
NtRp1613
(dp1614
g61
(dp1615
sg70
g821
sg63
(lp1616
g56
(g77
g58
NtRp1617
(dp1618
g61
(dp1619
g81
g82
ssg70
g1613
sg63
(lp1620
S'wsgi_version'
p1621
asbag56
(g77
g58
NtRp1622
(dp1623
g61
(dp1624
g88
g89
ssg70
g1613
sg63
(lp1625
S':'
asbag56
(g77
g58
NtRp1626
(dp1627
g61
(dp1628
sg70
g1613
sg63
(lp1629
g56
(g57
g58
NtRp1630
(dp1631
g61
(dp1632
g69
I4
ssg70
g1626
sg63
(lp1633
g56
(g65
g58
NtRp1634
(dp1635
g61
(dp1636
g69
I3
ssg70
Nsg63
(lp1637
g56
(g72
g58
NtRp1638
(dp1639
g61
(dp1640
sg70
g1634
sg63
(lp1641
g56
(g77
g58
NtRp1642
(dp1643
g61
(dp1644
sg70
g1638
sg63
(lp1645
g56
(g57
g58
NtRp1646
(dp1647
g61
(dp1648
g69
I3
ssg70
g1642
sg63
(lp1649
S'1'
asbasbasbag56
(g72
g58
NtRp1650
(dp1651
g61
(dp1652
sg70
g1634
sg63
(lp1653
g56
(g77
g58
NtRp1654
(dp1655
g61
(dp1656
sg70
g1650
sg63
(lp1657
g56
(g57
g58
NtRp1658
(dp1659
g61
(dp1660
g69
I3
ssg70
g1654
sg63
(lp1661
S'0'
asbasbasbasbasbasbasbasbasbasbasbag56
(g72
g58
NtRp1662
(dp1663
g61
(dp1664
sg70
g66
sg63
(lp1665
g56
(g77
g58
NtRp1666
(dp1667
g61
(dp1668
g81
g82
ssg70
g1662
sg63
(lp1669
S'extension'
p1670
asbag56
(g77
g58
NtRp1671
(dp1672
g61
(dp1673
g88
g89
ssg70
g1662
sg63
(lp1674
S':'
asbag56
(g77
g58
NtRp1675
(dp1676
g61
(dp1677
sg70
g1662
sg63
(lp1678
g56
(g57
g58
NtRp1679
(dp1680
g61
(dp1681
g69
I5
ssg70
g1675
sg63
(lp1682
S'html'
p1683
asbasbasbag56
(g72
g58
NtRp1684
(dp1685
g61
(dp1686
sg70
g66
sg63
(lp1687
g56
(g77
g58
NtRp1688
(dp1689
g61
(dp1690
g81
g82
ssg70
g1684
sg63
(lp1691
S'folder'
p1692
asbag56
(g77
g58
NtRp1693
(dp1694
g61
(dp1695
g88
g89
ssg70
g1684
sg63
(lp1696
S':'
asbag56
(g77
g58
NtRp1697
(dp1698
g61
(dp1699
sg70
g1684
sg63
(lp1700
g56
(g57
g58
NtRp1701
(dp1702
g61
(dp1703
g69
I5
ssg70
g1697
sg63
(lp1704
S'/home/marco/proyectos/web2py-trunk/applications/mvstore/'
p1705
asbasbasbag56
(g72
g58
NtRp1706
(dp1707
g61
(dp1708
sg70
g66
sg63
(lp1709
g56
(g77
g58
NtRp1710
(dp1711
g61
(dp1712
g81
g82
ssg70
g1706
sg63
(lp1713
S'function'
p1714
asbag56
(g77
g58
NtRp1715
(dp1716
g61
(dp1717
g88
g89
ssg70
g1706
sg63
(lp1718
S':'
asbag56
(g77
g58
NtRp1719
(dp1720
g61
(dp1721
sg70
g1706
sg63
(lp1722
g56
(g57
g58
NtRp1723
(dp1724
g61
(dp1725
g69
I5
ssg70
g1719
sg63
(lp1726
S'prestamos'
p1727
asbasbasbag56
(g72
g58
NtRp1728
(dp1729
g61
(dp1730
sg70
g66
sg63
(lp1731
g56
(g77
g58
NtRp1732
(dp1733
g61
(dp1734
g81
g82
ssg70
g1728
sg63
(lp1735
S'get_vars'
p1736
asbag56
(g77
g58
NtRp1737
(dp1738
g61
(dp1739
g88
g89
ssg70
g1728
sg63
(lp1740
S':'
asbag56
(g77
g58
NtRp1741
(dp1742
g61
(dp1743
sg70
g1728
sg63
(lp1744
g56
(g57
g58
NtRp1745
(dp1746
g61
(dp1747
g69
I5
ssg70
g1741
sg63
(lp1748
g56
(g65
g58
NtRp1749
(dp1750
g61
(dp1751
g69
I4
ssg70
Nsg63
(lp1752
sbasbasbasbag56
(g72
g58
NtRp1753
(dp1754
g61
(dp1755
sg70
g66
sg63
(lp1756
g56
(g77
g58
NtRp1757
(dp1758
g61
(dp1759
g81
g82
ssg70
g1753
sg63
(lp1760
S'is_https'
p1761
asbag56
(g77
g58
NtRp1762
(dp1763
g61
(dp1764
g88
g89
ssg70
g1753
sg63
(lp1765
S':'
asbag56
(g77
g58
NtRp1766
(dp1767
g61
(dp1768
sg70
g1753
sg63
(lp1769
g56
(g57
g58
NtRp1770
(dp1771
g61
(dp1772
g69
I5
ssg70
g1766
sg63
(lp1773
g99
asbasbasbag56
(g72
g58
NtRp1774
(dp1775
g61
(dp1776
sg70
g66
sg63
(lp1777
g56
(g77
g58
NtRp1778
(dp1779
g61
(dp1780
g81
g82
ssg70
g1774
sg63
(lp1781
S'is_local'
p1782
asbag56
(g77
g58
NtRp1783
(dp1784
g61
(dp1785
g88
g89
ssg70
g1774
sg63
(lp1786
S':'
asbag56
(g77
g58
NtRp1787
(dp1788
g61
(dp1789
sg70
g1774
sg63
(lp1790
g56
(g57
g58
NtRp1791
(dp1792
g61
(dp1793
g69
I5
ssg70
g1787
sg63
(lp1794
g1569
asbasbasbag56
(g72
g58
NtRp1795
(dp1796
g61
(dp1797
sg70
g66
sg63
(lp1798
g56
(g77
g58
NtRp1799
(dp1800
g61
(dp1801
g81
g82
ssg70
g1795
sg63
(lp1802
S'is_restful'
p1803
asbag56
(g77
g58
NtRp1804
(dp1805
g61
(dp1806
g88
g89
ssg70
g1795
sg63
(lp1807
S':'
asbag56
(g77
g58
NtRp1808
(dp1809
g61
(dp1810
sg70
g1795
sg63
(lp1811
g56
(g57
g58
NtRp1812
(dp1813
g61
(dp1814
g69
I5
ssg70
g1808
sg63
(lp1815
g99
asbasbasbag56
(g72
g58
NtRp1816
(dp1817
g61
(dp1818
sg70
g66
sg63
(lp1819
g56
(g77
g58
NtRp1820
(dp1821
g61
(dp1822
g81
g82
ssg70
g1816
sg63
(lp1823
S'now'
p1824
asbag56
(g77
g58
NtRp1825
(dp1826
g61
(dp1827
g88
g89
ssg70
g1816
sg63
(lp1828
S':'
asbag56
(g77
g58
NtRp1829
(dp1830
g61
(dp1831
sg70
g1816
sg63
(lp1832
g56
(g57
g58
NtRp1833
(dp1834
g61
(dp1835
g69
I5
ssg70
g1829
sg63
(lp1836
S'datetime.datetime(2011, 6, 18, 22, 33, 50, 50091)'
p1837
asbasbasbag56
(g72
g58
NtRp1838
(dp1839
g61
(dp1840
sg70
g66
sg63
(lp1841
g56
(g77
g58
NtRp1842
(dp1843
g61
(dp1844
g81
g82
ssg70
g1838
sg63
(lp1845
S'post_vars'
p1846
asbag56
(g77
g58
NtRp1847
(dp1848
g61
(dp1849
g88
g89
ssg70
g1838
sg63
(lp1850
S':'
asbag56
(g77
g58
NtRp1851
(dp1852
g61
(dp1853
sg70
g1838
sg63
(lp1854
g56
(g57
g58
NtRp1855
(dp1856
g61
(dp1857
g69
I5
ssg70
g1851
sg63
(lp1858
g56
(g65
g58
NtRp1859
(dp1860
g61
(dp1861
g69
I4
ssg70
Nsg63
(lp1862
sbasbasbasbag56
(g72
g58
NtRp1863
(dp1864
g61
(dp1865
sg70
g66
sg63
(lp1866
g56
(g77
g58
NtRp1867
(dp1868
g61
(dp1869
g81
g82
ssg70
g1863
sg63
(lp1870
S'url'
p1871
asbag56
(g77
g58
NtRp1872
(dp1873
g61
(dp1874
g88
g89
ssg70
g1863
sg63
(lp1875
S':'
asbag56
(g77
g58
NtRp1876
(dp1877
g61
(dp1878
sg70
g1863
sg63
(lp1879
g56
(g57
g58
NtRp1880
(dp1881
g61
(dp1882
g69
I5
ssg70
g1876
sg63
(lp1883
S'/mvstore/default/prestamos'
p1884
asbasbasbag56
(g72
g58
NtRp1885
(dp1886
g61
(dp1887
sg70
g66
sg63
(lp1888
g56
(g77
g58
NtRp1889
(dp1890
g61
(dp1891
g81
g82
ssg70
g1885
sg63
(lp1892
S'uuid'
p1893
asbag56
(g77
g58
NtRp1894
(dp1895
g61
(dp1896
g88
g89
ssg70
g1885
sg63
(lp1897
S':'
asbag56
(g77
g58
NtRp1898
(dp1899
g61
(dp1900
sg70
g1885
sg63
(lp1901
g56
(g57
g58
NtRp1902
(dp1903
g61
(dp1904
g69
I5
ssg70
g1898
sg63
(lp1905
S'mvstore/127.0.0.1.2011-06-18.22-33-50.d4a9c2bb-6eff-483a-92dc-d67611068c3b'
p1906
asbasbasbag56
(g72
g58
NtRp1907
(dp1908
g61
(dp1909
sg70
g66
sg63
(lp1910
g56
(g77
g58
NtRp1911
(dp1912
g61
(dp1913
g81
g82
ssg70
g1907
sg63
(lp1914
S'vars'
p1915
asbag56
(g77
g58
NtRp1916
(dp1917
g61
(dp1918
g88
g89
ssg70
g1907
sg63
(lp1919
S':'
asbag56
(g77
g58
NtRp1920
(dp1921
g61
(dp1922
sg70
g1907
sg63
(lp1923
g56
(g57
g58
NtRp1924
(dp1925
g61
(dp1926
g69
I5
ssg70
g1920
sg63
(lp1927
g56
(g65
g58
NtRp1928
(dp1929
g61
(dp1930
g69
I4
ssg70
Nsg63
(lp1931
sbasbasbasbag56
(g72
g58
NtRp1932
(dp1933
g61
(dp1934
sg70
g66
sg63
(lp1935
g56
(g77
g58
NtRp1936
(dp1937
g61
(dp1938
g81
g82
ssg70
g1932
sg63
(lp1939
S'wsgi'
p1940
asbag56
(g77
g58
NtRp1941
(dp1942
g61
(dp1943
g88
g89
ssg70
g1932
sg63
(lp1944
S':'
asbag56
(g77
g58
NtRp1945
(dp1946
g61
(dp1947
sg70
g1932
sg63
(lp1948
g56
(g57
g58
NtRp1949
(dp1950
g61
(dp1951
g69
I5
ssg70
g1945
sg63
(lp1952
g56
(g65
g58
NtRp1953
(dp1954
g61
(dp1955
g69
I4
ssg70
Nsg63
(lp1956
g56
(g72
g58
NtRp1957
(dp1958
g61
(dp1959
sg70
g1953
sg63
(lp1960
g56
(g77
g58
NtRp1961
(dp1962
g61
(dp1963
g81
g82
ssg70
g1957
sg63
(lp1964
S'environ'
p1965
asbag56
(g77
g58
NtRp1966
(dp1967
g61
(dp1968
g88
g89
ssg70
g1957
sg63
(lp1969
S':'
asbag56
(g77
g58
NtRp1970
(dp1971
g61
(dp1972
sg70
g1957
sg63
(lp1973
g56
(g57
g58
NtRp1974
(dp1975
g61
(dp1976
g69
I4
ssg70
g1970
sg63
(lp1977
g56
(g65
g58
NtRp1978
(dp1979
g61
(dp1980
g69
I3
ssg70
Nsg63
(lp1981
g56
(g72
g58
NtRp1982
(dp1983
g61
(dp1984
sg70
g1978
sg63
(lp1985
g56
(g77
g58
NtRp1986
(dp1987
g61
(dp1988
g81
g82
ssg70
g1982
sg63
(lp1989
S'HTTP_ACCEPT'
p1990
asbag56
(g77
g58
NtRp1991
(dp1992
g61
(dp1993
g88
g89
ssg70
g1982
sg63
(lp1994
S':'
asbag56
(g77
g58
NtRp1995
(dp1996
g61
(dp1997
sg70
g1982
sg63
(lp1998
g56
(g57
g58
NtRp1999
(dp2000
g61
(dp2001
g69
I3
ssg70
g1995
sg63
(lp2002
g1002
asbasbasbag56
(g72
g58
NtRp2003
(dp2004
g61
(dp2005
sg70
g1978
sg63
(lp2006
g56
(g77
g58
NtRp2007
(dp2008
g61
(dp2009
g81
g82
ssg70
g2003
sg63
(lp2010
S'HTTP_ACCEPT_CHARSET'
p2011
asbag56
(g77
g58
NtRp2012
(dp2013
g61
(dp2014
g88
g89
ssg70
g2003
sg63
(lp2015
S':'
asbag56
(g77
g58
NtRp2016
(dp2017
g61
(dp2018
sg70
g2003
sg63
(lp2019
g56
(g57
g58
NtRp2020
(dp2021
g61
(dp2022
g69
I3
ssg70
g2016
sg63
(lp2023
g1024
asbasbasbag56
(g72
g58
NtRp2024
(dp2025
g61
(dp2026
sg70
g1978
sg63
(lp2027
g56
(g77
g58
NtRp2028
(dp2029
g61
(dp2030
g81
g82
ssg70
g2024
sg63
(lp2031
S'HTTP_ACCEPT_ENCODING'
p2032
asbag56
(g77
g58
NtRp2033
(dp2034
g61
(dp2035
g88
g89
ssg70
g2024
sg63
(lp2036
S':'
asbag56
(g77
g58
NtRp2037
(dp2038
g61
(dp2039
sg70
g2024
sg63
(lp2040
g56
(g57
g58
NtRp2041
(dp2042
g61
(dp2043
g69
I3
ssg70
g2037
sg63
(lp2044
g1046
asbasbasbag56
(g72
g58
NtRp2045
(dp2046
g61
(dp2047
sg70
g1978
sg63
(lp2048
g56
(g77
g58
NtRp2049
(dp2050
g61
(dp2051
g81
g82
ssg70
g2045
sg63
(lp2052
S'HTTP_ACCEPT_LANGUAGE'
p2053
asbag56
(g77
g58
NtRp2054
(dp2055
g61
(dp2056
g88
g89
ssg70
g2045
sg63
(lp2057
S':'
asbag56
(g77
g58
NtRp2058
(dp2059
g61
(dp2060
sg70
g2045
sg63
(lp2061
g56
(g57
g58
NtRp2062
(dp2063
g61
(dp2064
g69
I3
ssg70
g2058
sg63
(lp2065
g1068
asbasbasbag56
(g72
g58
NtRp2066
(dp2067
g61
(dp2068
sg70
g1978
sg63
(lp2069
g56
(g77
g58
NtRp2070
(dp2071
g61
(dp2072
g81
g82
ssg70
g2066
sg63
(lp2073
S'HTTP_CONNECTION'
p2074
asbag56
(g77
g58
NtRp2075
(dp2076
g61
(dp2077
g88
g89
ssg70
g2066
sg63
(lp2078
S':'
asbag56
(g77
g58
NtRp2079
(dp2080
g61
(dp2081
sg70
g2066
sg63
(lp2082
g56
(g57
g58
NtRp2083
(dp2084
g61
(dp2085
g69
I3
ssg70
g2079
sg63
(lp2086
g1090
asbasbasbag56
(g72
g58
NtRp2087
(dp2088
g61
(dp2089
sg70
g1978
sg63
(lp2090
g56
(g77
g58
NtRp2091
(dp2092
g61
(dp2093
g81
g82
ssg70
g2087
sg63
(lp2094
S'HTTP_COOKIE'
p2095
asbag56
(g77
g58
NtRp2096
(dp2097
g61
(dp2098
g88
g89
ssg70
g2087
sg63
(lp2099
S':'
asbag56
(g77
g58
NtRp2100
(dp2101
g61
(dp2102
sg70
g2087
sg63
(lp2103
g56
(g57
g58
NtRp2104
(dp2105
g61
(dp2106
g69
I3
ssg70
g2100
sg63
(lp2107
g1112
asbasbasbag56
(g72
g58
NtRp2108
(dp2109
g61
(dp2110
sg70
g1978
sg63
(lp2111
g56
(g77
g58
NtRp2112
(dp2113
g61
(dp2114
g81
g82
ssg70
g2108
sg63
(lp2115
S'HTTP_HOST'
p2116
asbag56
(g77
g58
NtRp2117
(dp2118
g61
(dp2119
g88
g89
ssg70
g2108
sg63
(lp2120
S':'
asbag56
(g77
g58
NtRp2121
(dp2122
g61
(dp2123
sg70
g2108
sg63
(lp2124
g56
(g57
g58
NtRp2125
(dp2126
g61
(dp2127
g69
I3
ssg70
g2121
sg63
(lp2128
g1134
asbasbasbag56
(g72
g58
NtRp2129
(dp2130
g61
(dp2131
sg70
g1978
sg63
(lp2132
g56
(g77
g58
NtRp2133
(dp2134
g61
(dp2135
g81
g82
ssg70
g2129
sg63
(lp2136
S'HTTP_REFERER'
p2137
asbag56
(g77
g58
NtRp2138
(dp2139
g61
(dp2140
g88
g89
ssg70
g2129
sg63
(lp2141
S':'
asbag56
(g77
g58
NtRp2142
(dp2143
g61
(dp2144
sg70
g2129
sg63
(lp2145
g56
(g57
g58
NtRp2146
(dp2147
g61
(dp2148
g69
I3
ssg70
g2142
sg63
(lp2149
g1156
asbasbasbag56
(g72
g58
NtRp2150
(dp2151
g61
(dp2152
sg70
g1978
sg63
(lp2153
g56
(g77
g58
NtRp2154
(dp2155
g61
(dp2156
g81
g82
ssg70
g2150
sg63
(lp2157
S'HTTP_USER_AGENT'
p2158
asbag56
(g77
g58
NtRp2159
(dp2160
g61
(dp2161
g88
g89
ssg70
g2150
sg63
(lp2162
S':'
asbag56
(g77
g58
NtRp2163
(dp2164
g61
(dp2165
sg70
g2150
sg63
(lp2166
g56
(g57
g58
NtRp2167
(dp2168
g61
(dp2169
g69
I3
ssg70
g2163
sg63
(lp2170
g1178
asbasbasbag56
(g72
g58
NtRp2171
(dp2172
g61
(dp2173
sg70
g1978
sg63
(lp2174
g56
(g77
g58
NtRp2175
(dp2176
g61
(dp2177
g81
g82
ssg70
g2171
sg63
(lp2178
S'PATH_INFO'
p2179
asbag56
(g77
g58
NtRp2180
(dp2181
g61
(dp2182
g88
g89
ssg70
g2171
sg63
(lp2183
S':'
asbag56
(g77
g58
NtRp2184
(dp2185
g61
(dp2186
sg70
g2171
sg63
(lp2187
g56
(g57
g58
NtRp2188
(dp2189
g61
(dp2190
g69
I3
ssg70
g2184
sg63
(lp2191
g1200
asbasbasbag56
(g72
g58
NtRp2192
(dp2193
g61
(dp2194
sg70
g1978
sg63
(lp2195
g56
(g77
g58
NtRp2196
(dp2197
g61
(dp2198
g81
g82
ssg70
g2192
sg63
(lp2199
S'QUERY_STRING'
p2200
asbag56
(g77
g58
NtRp2201
(dp2202
g61
(dp2203
g88
g89
ssg70
g2192
sg63
(lp2204
S':'
asbag56
(g77
g58
NtRp2205
(dp2206
g61
(dp2207
sg70
g2192
sg63
(lp2208
g56
(g57
g58
NtRp2209
(dp2210
g61
(dp2211
g69
I3
ssg70
g2205
sg63
(lp2212
S''
asbasbasbag56
(g72
g58
NtRp2213
(dp2214
g61
(dp2215
sg70
g1978
sg63
(lp2216
g56
(g77
g58
NtRp2217
(dp2218
g61
(dp2219
g81
g82
ssg70
g2213
sg63
(lp2220
S'REMOTE_ADDR'
p2221
asbag56
(g77
g58
NtRp2222
(dp2223
g61
(dp2224
g88
g89
ssg70
g2213
sg63
(lp2225
S':'
asbag56
(g77
g58
NtRp2226
(dp2227
g61
(dp2228
sg70
g2213
sg63
(lp2229
g56
(g57
g58
NtRp2230
(dp2231
g61
(dp2232
g69
I3
ssg70
g2226
sg63
(lp2233
g189
asbasbasbag56
(g72
g58
NtRp2234
(dp2235
g61
(dp2236
sg70
g1978
sg63
(lp2237
g56
(g77
g58
NtRp2238
(dp2239
g61
(dp2240
g81
g82
ssg70
g2234
sg63
(lp2241
S'REMOTE_PORT'
p2242
asbag56
(g77
g58
NtRp2243
(dp2244
g61
(dp2245
g88
g89
ssg70
g2234
sg63
(lp2246
S':'
asbag56
(g77
g58
NtRp2247
(dp2248
g61
(dp2249
sg70
g2234
sg63
(lp2250
g56
(g57
g58
NtRp2251
(dp2252
g61
(dp2253
g69
I3
ssg70
g2247
sg63
(lp2254
g1264
asbasbasbag56
(g72
g58
NtRp2255
(dp2256
g61
(dp2257
sg70
g1978
sg63
(lp2258
g56
(g77
g58
NtRp2259
(dp2260
g61
(dp2261
g81
g82
ssg70
g2255
sg63
(lp2262
S'REQUEST_METHOD'
p2263
asbag56
(g77
g58
NtRp2264
(dp2265
g61
(dp2266
g88
g89
ssg70
g2255
sg63
(lp2267
S':'
asbag56
(g77
g58
NtRp2268
(dp2269
g61
(dp2270
sg70
g2255
sg63
(lp2271
g56
(g57
g58
NtRp2272
(dp2273
g61
(dp2274
g69
I3
ssg70
g2268
sg63
(lp2275
g1286
asbasbasbag56
(g72
g58
NtRp2276
(dp2277
g61
(dp2278
sg70
g1978
sg63
(lp2279
g56
(g77
g58
NtRp2280
(dp2281
g61
(dp2282
g81
g82
ssg70
g2276
sg63
(lp2283
S'SCRIPT_NAME'
p2284
asbag56
(g77
g58
NtRp2285
(dp2286
g61
(dp2287
g88
g89
ssg70
g2276
sg63
(lp2288
S':'
asbag56
(g77
g58
NtRp2289
(dp2290
g61
(dp2291
sg70
g2276
sg63
(lp2292
g56
(g57
g58
NtRp2293
(dp2294
g61
(dp2295
g69
I3
ssg70
g2289
sg63
(lp2296
S''
asbasbasbag56
(g72
g58
NtRp2297
(dp2298
g61
(dp2299
sg70
g1978
sg63
(lp2300
g56
(g77
g58
NtRp2301
(dp2302
g61
(dp2303
g81
g82
ssg70
g2297
sg63
(lp2304
S'SERVER_NAME'
p2305
asbag56
(g77
g58
NtRp2306
(dp2307
g61
(dp2308
g88
g89
ssg70
g2297
sg63
(lp2309
S':'
asbag56
(g77
g58
NtRp2310
(dp2311
g61
(dp2312
sg70
g2297
sg63
(lp2313
g56
(g57
g58
NtRp2314
(dp2315
g61
(dp2316
g69
I3
ssg70
g2310
sg63
(lp2317
g1329
asbasbasbag56
(g72
g58
NtRp2318
(dp2319
g61
(dp2320
sg70
g1978
sg63
(lp2321
g56
(g77
g58
NtRp2322
(dp2323
g61
(dp2324
g81
g82
ssg70
g2318
sg63
(lp2325
S'SERVER_PORT'
p2326
asbag56
(g77
g58
NtRp2327
(dp2328
g61
(dp2329
g88
g89
ssg70
g2318
sg63
(lp2330
S':'
asbag56
(g77
g58
NtRp2331
(dp2332
g61
(dp2333
sg70
g2318
sg63
(lp2334
g56
(g57
g58
NtRp2335
(dp2336
g61
(dp2337
g69
I3
ssg70
g2331
sg63
(lp2338
g1351
asbasbasbag56
(g72
g58
NtRp2339
(dp2340
g61
(dp2341
sg70
g1978
sg63
(lp2342
g56
(g77
g58
NtRp2343
(dp2344
g61
(dp2345
g81
g82
ssg70
g2339
sg63
(lp2346
S'SERVER_PROTOCOL'
p2347
asbag56
(g77
g58
NtRp2348
(dp2349
g61
(dp2350
g88
g89
ssg70
g2339
sg63
(lp2351
S':'
asbag56
(g77
g58
NtRp2352
(dp2353
g61
(dp2354
sg70
g2339
sg63
(lp2355
g56
(g57
g58
NtRp2356
(dp2357
g61
(dp2358
g69
I3
ssg70
g2352
sg63
(lp2359
g1373
asbasbasbag56
(g72
g58
NtRp2360
(dp2361
g61
(dp2362
sg70
g1978
sg63
(lp2363
g56
(g77
g58
NtRp2364
(dp2365
g61
(dp2366
g81
g82
ssg70
g2360
sg63
(lp2367
S'SERVER_SOFTWARE'
p2368
asbag56
(g77
g58
NtRp2369
(dp2370
g61
(dp2371
g88
g89
ssg70
g2360
sg63
(lp2372
S':'
asbag56
(g77
g58
NtRp2373
(dp2374
g61
(dp2375
sg70
g2360
sg63
(lp2376
g56
(g57
g58
NtRp2377
(dp2378
g61
(dp2379
g69
I3
ssg70
g2373
sg63
(lp2380
g1395
asbasbasbag56
(g72
g58
NtRp2381
(dp2382
g61
(dp2383
sg70
g1978
sg63
(lp2384
g56
(g77
g58
NtRp2385
(dp2386
g61
(dp2387
g81
g82
ssg70
g2381
sg63
(lp2388
S'wsgi.errors'
p2389
asbag56
(g77
g58
NtRp2390
(dp2391
g61
(dp2392
g88
g89
ssg70
g2381
sg63
(lp2393
S':'
asbag56
(g77
g58
NtRp2394
(dp2395
g61
(dp2396
sg70
g2381
sg63
(lp2397
g56
(g57
g58
NtRp2398
(dp2399
g61
(dp2400
g69
I3
ssg70
g2394
sg63
(lp2401
S"<open file '<stderr>', mode 'w' at 0x7fd2753531e0>"
p2402
asbasbasbag56
(g72
g58
NtRp2403
(dp2404
g61
(dp2405
sg70
g1978
sg63
(lp2406
g56
(g77
g58
NtRp2407
(dp2408
g61
(dp2409
g81
g82
ssg70
g2403
sg63
(lp2410
S'wsgi.file_wrapper'
p2411
asbag56
(g77
g58
NtRp2412
(dp2413
g61
(dp2414
g88
g89
ssg70
g2403
sg63
(lp2415
S':'
asbag56
(g77
g58
NtRp2416
(dp2417
g61
(dp2418
sg70
g2403
sg63
(lp2419
g56
(g57
g58
NtRp2420
(dp2421
g61
(dp2422
g69
I3
ssg70
g2416
sg63
(lp2423
S'<class gluon.rocket.FileWrapper at 0x19683b0>'
p2424
asbasbasbag56
(g72
g58
NtRp2425
(dp2426
g61
(dp2427
sg70
g1978
sg63
(lp2428
g56
(g77
g58
NtRp2429
(dp2430
g61
(dp2431
g81
g82
ssg70
g2425
sg63
(lp2432
S'wsgi.input'
p2433
asbag56
(g77
g58
NtRp2434
(dp2435
g61
(dp2436
g88
g89
ssg70
g2425
sg63
(lp2437
S':'
asbag56
(g77
g58
NtRp2438
(dp2439
g61
(dp2440
sg70
g2425
sg63
(lp2441
g56
(g57
g58
NtRp2442
(dp2443
g61
(dp2444
g69
I3
ssg70
g2438
sg63
(lp2445
S'<cStringIO.StringO object at 0x221d4c8>'
p2446
asbasbasbag56
(g72
g58
NtRp2447
(dp2448
g61
(dp2449
sg70
g1978
sg63
(lp2450
g56
(g77
g58
NtRp2451
(dp2452
g61
(dp2453
g81
g82
ssg70
g2447
sg63
(lp2454
S'wsgi.multiprocess'
p2455
asbag56
(g77
g58
NtRp2456
(dp2457
g61
(dp2458
g88
g89
ssg70
g2447
sg63
(lp2459
S':'
asbag56
(g77
g58
NtRp2460
(dp2461
g61
(dp2462
sg70
g2447
sg63
(lp2463
g56
(g57
g58
NtRp2464
(dp2465
g61
(dp2466
g69
I3
ssg70
g2460
sg63
(lp2467
g99
asbasbasbag56
(g72
g58
NtRp2468
(dp2469
g61
(dp2470
sg70
g1978
sg63
(lp2471
g56
(g77
g58
NtRp2472
(dp2473
g61
(dp2474
g81
g82
ssg70
g2468
sg63
(lp2475
S'wsgi.multithread'
p2476
asbag56
(g77
g58
NtRp2477
(dp2478
g61
(dp2479
g88
g89
ssg70
g2468
sg63
(lp2480
S':'
asbag56
(g77
g58
NtRp2481
(dp2482
g61
(dp2483
sg70
g2468
sg63
(lp2484
g56
(g57
g58
NtRp2485
(dp2486
g61
(dp2487
g69
I3
ssg70
g2481
sg63
(lp2488
g1569
asbasbasbag56
(g72
g58
NtRp2489
(dp2490
g61
(dp2491
sg70
g1978
sg63
(lp2492
g56
(g77
g58
NtRp2493
(dp2494
g61
(dp2495
g81
g82
ssg70
g2489
sg63
(lp2496
S'wsgi.run_once'
p2497
asbag56
(g77
g58
NtRp2498
(dp2499
g61
(dp2500
g88
g89
ssg70
g2489
sg63
(lp2501
S':'
asbag56
(g77
g58
NtRp2502
(dp2503
g61
(dp2504
sg70
g2489
sg63
(lp2505
g56
(g57
g58
NtRp2506
(dp2507
g61
(dp2508
g69
I3
ssg70
g2502
sg63
(lp2509
g99
asbasbasbag56
(g72
g58
NtRp2510
(dp2511
g61
(dp2512
sg70
g1978
sg63
(lp2513
g56
(g77
g58
NtRp2514
(dp2515
g61
(dp2516
g81
g82
ssg70
g2510
sg63
(lp2517
S'wsgi.url_scheme'
p2518
asbag56
(g77
g58
NtRp2519
(dp2520
g61
(dp2521
g88
g89
ssg70
g2510
sg63
(lp2522
S':'
asbag56
(g77
g58
NtRp2523
(dp2524
g61
(dp2525
sg70
g2510
sg63
(lp2526
g56
(g57
g58
NtRp2527
(dp2528
g61
(dp2529
g69
I3
ssg70
g2523
sg63
(lp2530
g1612
asbasbasbag56
(g72
g58
NtRp2531
(dp2532
g61
(dp2533
sg70
g1978
sg63
(lp2534
g56
(g77
g58
NtRp2535
(dp2536
g61
(dp2537
g81
g82
ssg70
g2531
sg63
(lp2538
S'wsgi.version'
p2539
asbag56
(g77
g58
NtRp2540
(dp2541
g61
(dp2542
g88
g89
ssg70
g2531
sg63
(lp2543
S':'
asbag56
(g77
g58
NtRp2544
(dp2545
g61
(dp2546
sg70
g2531
sg63
(lp2547
g56
(g57
g58
NtRp2548
(dp2549
g61
(dp2550
g69
I3
ssg70
g2544
sg63
(lp2551
S'1'
asbasbasbasbasbasbasbasbasbasbasbasbasbsS'frames'
p2552
(lp2553
(dp2554
S'file'
p2555
S'/home/marco/proyectos/web2py-trunk/gluon/restricted.py'
p2556
sS'dump'
p2557
(dp2558
S'environment'
p2559
S"{'A': <class 'gluon.html.A'>, 'Auth': <class 'gluon.tools.Auth'>, 'B': <class 'gluon.html.B'>, 'BEAUTIFY': <class 'gluon.html.BEAUTIFY'>, 'BODY': <class 'gluon.html.BODY'>, 'BR': <class 'gluon.html.BR'>, 'BUTTON': <class 'gluon.html.BUTTON'>, 'CENTER': <class 'gluon.html.CENTER'>, 'CLEANUP': <class 'gluon.validators.CLEANUP'>, 'CODE': <class 'gluon.html.CODE'>, ...}"
p2560
sS'ccode'
p2561
S'<code object <module> at 0x2368198, file "/home/...cations/mvstore/controllers/default.py", line 12>'
p2562
ssS'lnum'
p2563
I192
sS'lines'
p2564
(dp2565
I192
S'        exec ccode in environment'
p2566
sI193
S'    except HTTP:'
p2567
sI194
S'        raise'
p2568
sI195
S'    except Exception:'
p2569
sI196
S'        # XXX Show exception in Wing IDE if running in debugger'
p2570
sI187
S'    try:'
p2571
sI188
S'        if type(code) == types.CodeType:'
p2572
sI189
S'            ccode = code'
p2573
sI190
S'        else:'
p2574
sI191
S'            ccode = compile2(code,layer)'
p2575
ssS'call'
p2576
S"(code='#-*- coding: utf-8 -*-\\n# this file is released u...orm)\\n\\nresponse._vars=response._caller(prestamos)\\n', environment={'A': <class 'gluon.html.A'>, 'Auth': <class 'gluon.tools.Auth'>, 'B': <class 'gluon.html.B'>, 'BEAUTIFY': <class 'gluon.html.BEAUTIFY'>, 'BODY': <class 'gluon.html.BODY'>, 'BR': <class 'gluon.html.BR'>, 'BUTTON': <class 'gluon.html.BUTTON'>, 'CENTER': <class 'gluon.html.CENTER'>, 'CLEANUP': <class 'gluon.validators.CLEANUP'>, 'CODE': <class 'gluon.html.CODE'>, ...}, layer='/home/marco/proyectos/web2py-trunk/applications/mvstore/controllers/default.py')"
p2577
sS'func'
p2578
S'restricted'
p2579
sa(dp2580
g2555
S'/home/marco/proyectos/web2py-trunk/applications/mvstore/controllers/default.py'
p2581
sg2557
(dp2582
sg2563
I70
sg2564
(dp2583
I64
S'    return dict(form=form)'
p2584
sI65
S''
sI66
S'def prestamos():'
p2585
sI67
S'    form=crud.create(db.prestamos)'
p2586
sI68
S'    return dict(form=form)'
p2587
sI59
S'    form=crud.create(db.clientes)'
p2588
sI60
S'    return dict(form=form)'
p2589
sI61
S''
sI62
S'def peliculas():'
p2590
sI63
S'    form=crud.create(db.peliculas)'
p2591
ssg2576
S'()'
p2592
sg2578
S'<module>'
p2593
sa(dp2594
g2555
S'/home/marco/proyectos/web2py-trunk/gluon/globals.py'
p2595
sg2557
(dp2596
S'self'
p2597
S'undefined'
p2598
sS'f'
S'<function prestamos>'
p2599
ssg2563
I137
sg2564
(dp2600
I132
S"        self.flash = ''           # used by the default view layout"
p2601
sI133
S'        self.meta = Storage()     # used by web2py_ajax.html'
p2602
sI134
S'        self.menu = []            # used by the default view layout'
p2603
sI135
S'        self.files = []           # used by web2py_ajax.html'
p2604
sI136
S'        self._vars = None'
p2605
sI137
S'        self._caller = lambda f: f()'
p2606
sI138
S'        self._view_environment = None'
p2607
sI139
S'        self._custom_commit = None'
p2608
sI140
S'        self._custom_rollback = None'
p2609
sI141
S''
ssg2576
S'(f=<function prestamos>)'
p2610
sg2578
S'<lambda>'
p2611
sa(dp2612
g2555
S'/home/marco/proyectos/web2py-trunk/applications/mvstore/controllers/default.py'
p2613
sg2557
(dp2614
S'global crud'
p2615
S'<gluon.tools.Crud object>'
p2616
sS'crud.create'
p2617
S'<bound method Crud.create of <gluon.tools.Crud object>>'
p2618
sS'global db'
p2619
S"<DAL {'auth_event': <Table {'origin': <gluon.dal..., 'id': <gluon.dal.Field object at 0x2355710>}>}>"
p2620
sS'form'
p2621
g2598
sS'db.prestamos'
p2622
S"<Table {'mora': <gluon.dal.Field object at 0x236...y-trunk/applications/mvstore/databases/sql.log'}>"
p2623
ssg2563
I67
sg2564
(dp2624
I64
S'    return dict(form=form)'
p2625
sI65
S''
sI66
S'def prestamos():'
p2626
sI67
S'    form=crud.create(db.prestamos)'
p2627
sI68
S'    return dict(form=form)'
p2628
sI59
S'    form=crud.create(db.clientes)'
p2629
sI60
S'    return dict(form=form)'
p2630
sI61
S''
sI62
S'def peliculas():'
p2631
sI63
S'    form=crud.create(db.peliculas)'
p2632
ssg2576
S'()'
p2633
sg2578
S'prestamos'
p2634
sa(dp2635
g2555
S'/home/marco/proyectos/web2py-trunk/gluon/tools.py'
p2636
sg2557
(dp2637
S'formname'
p2638
S'<function <lambda>>'
p2639
ssg2563
I3120
sg2564
(dp2640
I3115
S'            onvalidation=onvalidation,'
p2641
sI3116
S'            onaccept=onaccept,'
p2642
sI3117
S'            log=log,'
p2643
sI3118
S'            message=message,'
p2644
sI3119
S'            deletable=False,'
p2645
sI3120
S'            formname=formname,'
p2646
sI3121
S'            )'
p2647
sI3122
S''
sI3123
S'    def read(self, table, record):'
p2648
sI3124
S'        if not (isinstance(table, self.db.Table) or table in self.db.tables) \\'
p2649
ssg2576
S"(self=<gluon.tools.Crud object>, table=<Table {'mora': <gluon.dal.Field object at 0x236...y-trunk/applications/mvstore/databases/sql.log'}>, next=None, onvalidation=<Storage {}>, onaccept=<Storage {}>, log='Record %(id)s created', message='Record Created', formname=<function <lambda>>)"
p2650
sg2578
S'create'
p2651
sa(dp2652
g2555
S'/home/marco/proyectos/web2py-trunk/gluon/tools.py'
p2653
sg2557
(dp2654
S'formstyle'
p2655
g2598
sS'self'
p2656
S'<gluon.tools.Crud object>'
p2657
sS'self.settings'
p2658
S"<Storage {'showid': False, 'delete_onaccept': <S...ble': True, 'create_onvalidation': <Storage {}>}>"
p2659
sS'self.settings.formstyle'
p2660
S"'table3cols'"
p2661
ssg2563
I3032
sg2564
(dp2662
I3027
S'            showid=self.settings.showid,'
p2663
sI3028
S'            submit_button=self.messages.submit_button,'
p2664
sI3029
S'            delete_label=self.messages.delete_label,'
p2665
sI3030
S'            deletable=deletable,'
p2666
sI3031
S'            upload=self.settings.download_url,'
p2667
sI3032
S'            formstyle=self.settings.formstyle'
p2668
sI3033
S'            )'
p2669
sI3034
S'        self.accepted = False'
p2670
sI3035
S'        self.deleted = False'
p2671
sI3036
S'        captcha = self.settings.update_captcha or \\'
p2672
ssg2576
S"(self=<gluon.tools.Crud object>, table=<Table {'mora': <gluon.dal.Field object at 0x236...y-trunk/applications/mvstore/databases/sql.log'}>, record=None, next=None, onvalidation=<Storage {}>, onaccept=<Storage {}>, ondelete=<Storage {}>, log='Record %(id)s created', message='Record Created', deletable=False, formname=<function <lambda>>)"
p2673
sg2578
S'update'
p2674
sa(dp2675
g2555
S'/home/marco/proyectos/web2py-trunk/gluon/sqlhtml.py'
p2676
sg2557
(dp2677
S'default'
p2678
S'None'
p2679
sS'self.widgets.options.widget'
p2680
S'<function widget>'
p2681
sS'self'
p2682
S'<gluon.sqlhtml.SQLFORM object>'
p2683
sS'inp'
p2684
S'<gluon.html.INPUT object>'
p2685
sS'self.widgets'
p2686
S"<Storage {'multiple': <class 'gluon.sqlhtml.Mult...ss 'gluon.sqlhtml.OptionsWidget'>, 'blob': None}>"
p2687
sS'field'
p2688
S'<gluon.dal.Field object>'
p2689
sS'self.widgets.options'
p2690
S"<class 'gluon.sqlhtml.OptionsWidget'>"
p2691
ssg2563
I817
sg2564
(dp2692
I812
S"                    inpval = 'checked'"
p2693
sI813
S'                else:'
p2694
sI814
S"                    inpval = ''"
p2695
sI815
S'            elif OptionsWidget.has_options(field):'
p2696
sI816
S'                if not field.requires.multiple:'
p2697
sI817
S'                    inp = self.widgets.options.widget(field, default)'
p2698
sI818
S'                else:'
p2699
sI819
S'                    inp = self.widgets.multiple.widget(field, default)'
p2700
sI820
S'                if fieldname in keepopts:'
p2701
sI821
S"                    inpval = TAG[''](*inp.components)"
p2702
ssg2576
S"(self=<gluon.sqlhtml.SQLFORM object>, table=<Table {'mora': <gluon.dal.Field object at 0x236...y-trunk/applications/mvstore/databases/sql.log'}>, record=None, deletable=False, linkto=None, upload='/mvstore/default/download', fields=['id', 'titulo', 'cliente', 'empleado', 'fecha', 'devol', 'costo', 'mora'], labels=None, col3={}, submit_button='Submit', delete_label='Check to delete:', showid=False, readonly=False, comments=True, keepopts=[], ignore_rw=False, record_id=None, formstyle='table3cols', buttons=['submit'], **attributes={'hidden': {'_next': None}})"
p2703
sg2578
g49
sa(dp2704
g2555
S'/home/marco/proyectos/web2py-trunk/gluon/sqlhtml.py'
p2705
sg2557
(dp2706
S'].options'
p2707
g2598
sS'requires'
p2708
S'[<gluon.validators.IS_IN_DB object>]'
p2709
sS'options'
p2710
g2598
ssg2563
I206
sg2564
(dp2711
I201
S'        requires = field.requires'
p2712
sI202
S'        if not isinstance(requires, (list, tuple)):'
p2713
sI203
S'            requires = [requires]'
p2714
sI204
S'        if requires:'
p2715
sI205
S"            if hasattr(requires[0], 'options'):"
p2716
sI206
S'                options = requires[0].options()'
p2717
sI207
S'            else:'
p2718
sI208
S"                raise SyntaxError, 'widget cannot determine options of %s' \\"
p2719
sI209
S'                    % field'
p2720
sI210
S'        opts = [OPTION(v, _value=k) for (k, v) in options]'
p2721
ssg2576
S'(field=<gluon.dal.Field object>, value=None, **attributes={})'
p2722
sg2578
S'widget'
p2723
sa(dp2724
g2555
S'/home/marco/proyectos/web2py-trunk/gluon/validators.py'
p2725
sg2557
(dp2726
S'self'
p2727
S'<gluon.validators.IS_IN_DB object>'
p2728
sS'self.build_set'
p2729
S'<bound method IS_IN_DB.build_set of <gluon.validators.IS_IN_DB object>>'
p2730
ssg2563
I438
sg2564
(dp2731
I433
S'            self.labels = [self.label % dict(r) for r in records]'
p2732
sI434
S'        else:'
p2733
sI435
S'            self.labels = [self.label(r) for r in records]'
p2734
sI436
S''
sI437
S'    def options(self):'
p2735
sI438
S'        self.build_set()'
p2736
sI439
S'        items = [(k, self.labels[i]) for (i, k) in enumerate(self.theset)]'
p2737
sI440
S'        if self.sort:'
p2738
sI441
S'            items.sort(options_sorter)'
p2739
sI442
S'        if self.zero != None and not self.multiple:'
p2740
ssg2576
S'(self=<gluon.validators.IS_IN_DB object>)'
p2741
sg2578
S'options'
p2742
sa(dp2743
g2555
S'/home/marco/proyectos/web2py-trunk/gluon/validators.py'
p2744
sg2557
(dp2745
S'self.dbset'
p2746
S'<gluon.dal.Set object>'
p2747
sS'fields'
p2748
g2598
sS'self'
p2749
S'<gluon.validators.IS_IN_DB object>'
p2750
sS'self.ktable'
p2751
S"'clientes'"
p2752
sS'self.fields'
p2753
S"['first_name', 'last_name', 'id']"
p2754
sS'self.dbset.db'
p2755
S"<DAL {'auth_event': <Table {'origin': <gluon.dal..., 'id': <gluon.dal.Field object at 0x2355710>}>}>"
p2756
sS'k'
S"'first_name'"
p2757
ssg2563
I421
sg2564
(dp2758
I416
S''
sI417
S'    def build_set(self):'
p2759
sI418
S"        if self.fields == 'all':"
p2760
sI419
S'            fields = [f for f in self.dbset.db[self.ktable]]'
p2761
sI420
S'        else:'
p2762
sI421
S'            fields = [self.dbset.db[self.ktable][k] for k in self.fields]'
p2763
sI422
S"        if self.dbset.db._dbname != 'gae':"
p2764
sI423
S'            orderby = self.orderby or reduce(lambda a,b:a|b,fields)'
p2765
sI424
S'            groupby = self.groupby'
p2766
sI425
S'            dd = dict(orderby=orderby, groupby=groupby, cache=self.cache)'
p2767
ssg2576
S'(self=<gluon.validators.IS_IN_DB object>)'
p2768
sg2578
S'build_set'
p2769
sa(dp2770
g2555
S'/home/marco/proyectos/web2py-trunk/gluon/dal.py'
p2771
sg2557
(dp2772
S'builtinstr'
p2773
S"<type 'str'>"
p2774
sS'self'
p2775
S"<Table {'foto': <gluon.dal.Field object at 0x235...cumento': <gluon.dal.Field object at 0x235c510>}>"
p2776
sS'dict.__getitem__'
p2777
S"<method '__getitem__' of 'dict' objects>"
p2778
sS'key'
p2779
S"'first_name'"
p2780
sS'builtindict'
p2781
S"<type 'dict'>"
p2782
ssg2563
I4592
sg2564
(dp2783
I4587
S'                return rows[0]'
p2784
sI4588
S'            return None'
p2785
sI4589
S'        elif str(key).isdigit():'
p2786
sI4590
S'            return self._db(self._id == key).select(limitby=(0,1)).first()'
p2787
sI4591
S'        elif key:'
p2788
sI4592
S'            return dict.__getitem__(self, str(key))'
p2789
sI4593
S''
sI4594
S'    def __call__(self, key=DEFAULT, **kwargs):'
p2790
sI4595
S'        if key!=DEFAULT:'
p2791
sI4596
S'            if isinstance(key, Query):'
p2792
ssg2576
S"(self=<Table {'foto': <gluon.dal.Field object at 0x235...cumento': <gluon.dal.Field object at 0x235c510>}>, key='first_name')"
p2793
sg2578
g19
sasS'pyver'
p2794
S'Python 2.6.6: /usr/bin/python'
p2795
sS'session'
p2796
g56
(g57
g58
NtRp2797
(dp2798
g61
(dp2799
sg63
(lp2800
g56
(g65
g58
NtRp2801
(dp2802
g61
(dp2803
g69
I5
ssg70
Nsg63
(lp2804
sbasbsS'etype'
p2805
S"<type 'exceptions.KeyError'>"
p2806
sS'date'
p2807
S'Sat Jun 18 22:33:50 2011'
p2808
sS'response'
p2809
g56
(g57
g58
NtRp2810
(dp2811
g61
(dp2812
sg63
(lp2813
g56
(g65
g58
NtRp2814
(dp2815
g61
(dp2816
g69
I5
ssg70
Nsg63
(lp2817
g56
(g72
g58
NtRp2818
(dp2819
g61
(dp2820
sg70
g2814
sg63
(lp2821
g56
(g77
g58
NtRp2822
(dp2823
g61
(dp2824
g81
g82
ssg70
g2818
sg63
(lp2825
g154
asbag56
(g77
g58
NtRp2826
(dp2827
g61
(dp2828
g88
g89
ssg70
g2818
sg63
(lp2829
S':'
asbag56
(g77
g58
NtRp2830
(dp2831
g61
(dp2832
sg70
g2818
sg63
(lp2833
g56
(g57
g58
NtRp2834
(dp2835
g61
(dp2836
g69
I5
ssg70
g2830
sg63
(lp2837
S'<cStringIO.StringO object at 0x1cd2f80>'
p2838
asbasbasbag56
(g72
g58
NtRp2839
(dp2840
g61
(dp2841
sg70
g2814
sg63
(lp2842
g56
(g77
g58
NtRp2843
(dp2844
g61
(dp2845
g81
g82
ssg70
g2839
sg63
(lp2846
g220
asbag56
(g77
g58
NtRp2847
(dp2848
g61
(dp2849
g88
g89
ssg70
g2839
sg63
(lp2850
S':'
asbag56
(g77
g58
NtRp2851
(dp2852
g61
(dp2853
sg70
g2839
sg63
(lp2854
g56
(g57
g58
NtRp2855
(dp2856
g61
(dp2857
g69
I5
ssg70
g2851
sg63
(lp2858
g56
(g65
g58
NtRp2859
(dp2860
g61
(dp2861
g69
I4
ssg70
Nsg63
(lp2862
g56
(g72
g58
NtRp2863
(dp2864
g61
(dp2865
sg70
g2859
sg63
(lp2866
g56
(g77
g58
NtRp2867
(dp2868
g61
(dp2869
g81
g82
ssg70
g2863
sg63
(lp2870
S'session_id_mvstore'
p2871
asbag56
(g77
g58
NtRp2872
(dp2873
g61
(dp2874
g88
g89
ssg70
g2863
sg63
(lp2875
S':'
asbag56
(g77
g58
NtRp2876
(dp2877
g61
(dp2878
sg70
g2863
sg63
(lp2879
g56
(g57
g58
NtRp2880
(dp2881
g61
(dp2882
g69
I4
ssg70
g2876
sg63
(lp2883
g56
(g65
g58
NtRp2884
(dp2885
g61
(dp2886
g69
I3
ssg70
Nsg63
(lp2887
g56
(g72
g58
NtRp2888
(dp2889
g61
(dp2890
sg70
g2884
sg63
(lp2891
g56
(g77
g58
NtRp2892
(dp2893
g61
(dp2894
g81
g82
ssg70
g2888
sg63
(lp2895
g270
asbag56
(g77
g58
NtRp2896
(dp2897
g61
(dp2898
g88
g89
ssg70
g2888
sg63
(lp2899
S':'
asbag56
(g77
g58
NtRp2900
(dp2901
g61
(dp2902
sg70
g2888
sg63
(lp2903
g56
(g57
g58
NtRp2904
(dp2905
g61
(dp2906
g69
I3
ssg70
g2900
sg63
(lp2907
S''
asbasbasbag56
(g72
g58
NtRp2908
(dp2909
g61
(dp2910
sg70
g2884
sg63
(lp2911
g56
(g77
g58
NtRp2912
(dp2913
g61
(dp2914
g81
g82
ssg70
g2908
sg63
(lp2915
g291
asbag56
(g77
g58
NtRp2916
(dp2917
g61
(dp2918
g88
g89
ssg70
g2908
sg63
(lp2919
S':'
asbag56
(g77
g58
NtRp2920
(dp2921
g61
(dp2922
sg70
g2908
sg63
(lp2923
g56
(g57
g58
NtRp2924
(dp2925
g61
(dp2926
g69
I3
ssg70
g2920
sg63
(lp2927
S''
asbasbasbag56
(g72
g58
NtRp2928
(dp2929
g61
(dp2930
sg70
g2884
sg63
(lp2931
g56
(g77
g58
NtRp2932
(dp2933
g61
(dp2934
g81
g82
ssg70
g2928
sg63
(lp2935
g312
asbag56
(g77
g58
NtRp2936
(dp2937
g61
(dp2938
g88
g89
ssg70
g2928
sg63
(lp2939
S':'
asbag56
(g77
g58
NtRp2940
(dp2941
g61
(dp2942
sg70
g2928
sg63
(lp2943
g56
(g57
g58
NtRp2944
(dp2945
g61
(dp2946
g69
I3
ssg70
g2940
sg63
(lp2947
S''
asbasbasbag56
(g72
g58
NtRp2948
(dp2949
g61
(dp2950
sg70
g2884
sg63
(lp2951
g56
(g77
g58
NtRp2952
(dp2953
g61
(dp2954
g81
g82
ssg70
g2948
sg63
(lp2955
g333
asbag56
(g77
g58
NtRp2956
(dp2957
g61
(dp2958
g88
g89
ssg70
g2948
sg63
(lp2959
S':'
asbag56
(g77
g58
NtRp2960
(dp2961
g61
(dp2962
sg70
g2948
sg63
(lp2963
g56
(g57
g58
NtRp2964
(dp2965
g61
(dp2966
g69
I3
ssg70
g2960
sg63
(lp2967
S''
asbasbasbag56
(g72
g58
NtRp2968
(dp2969
g61
(dp2970
sg70
g2884
sg63
(lp2971
g56
(g77
g58
NtRp2972
(dp2973
g61
(dp2974
g81
g82
ssg70
g2968
sg63
(lp2975
g354
asbag56
(g77
g58
NtRp2976
(dp2977
g61
(dp2978
g88
g89
ssg70
g2968
sg63
(lp2979
S':'
asbag56
(g77
g58
NtRp2980
(dp2981
g61
(dp2982
sg70
g2968
sg63
(lp2983
g56
(g57
g58
NtRp2984
(dp2985
g61
(dp2986
g69
I3
ssg70
g2980
sg63
(lp2987
S''
asbasbasbag56
(g72
g58
NtRp2988
(dp2989
g61
(dp2990
sg70
g2884
sg63
(lp2991
g56
(g77
g58
NtRp2992
(dp2993
g61
(dp2994
g81
g82
ssg70
g2988
sg63
(lp2995
g375
asbag56
(g77
g58
NtRp2996
(dp2997
g61
(dp2998
g88
g89
ssg70
g2988
sg63
(lp2999
S':'
asbag56
(g77
g58
NtRp3000
(dp3001
g61
(dp3002
sg70
g2988
sg63
(lp3003
g56
(g57
g58
NtRp3004
(dp3005
g61
(dp3006
g69
I3
ssg70
g3000
sg63
(lp3007
S'/'
asbasbasbag56
(g72
g58
NtRp3008
(dp3009
g61
(dp3010
sg70
g2884
sg63
(lp3011
g56
(g77
g58
NtRp3012
(dp3013
g61
(dp3014
g81
g82
ssg70
g3008
sg63
(lp3015
g396
asbag56
(g77
g58
NtRp3016
(dp3017
g61
(dp3018
g88
g89
ssg70
g3008
sg63
(lp3019
S':'
asbag56
(g77
g58
NtRp3020
(dp3021
g61
(dp3022
sg70
g3008
sg63
(lp3023
g56
(g57
g58
NtRp3024
(dp3025
g61
(dp3026
g69
I3
ssg70
g3020
sg63
(lp3027
S''
asbasbasbag56
(g72
g58
NtRp3028
(dp3029
g61
(dp3030
sg70
g2884
sg63
(lp3031
g56
(g77
g58
NtRp3032
(dp3033
g61
(dp3034
g81
g82
ssg70
g3028
sg63
(lp3035
g417
asbag56
(g77
g58
NtRp3036
(dp3037
g61
(dp3038
g88
g89
ssg70
g3028
sg63
(lp3039
S':'
asbag56
(g77
g58
NtRp3040
(dp3041
g61
(dp3042
sg70
g3028
sg63
(lp3043
g56
(g57
g58
NtRp3044
(dp3045
g61
(dp3046
g69
I3
ssg70
g3040
sg63
(lp3047
S''
asbasbasbasbasbasbasbasbasbasbasbag56
(g72
g58
NtRp3048
(dp3049
g61
(dp3050
sg70
g2814
sg63
(lp3051
g56
(g77
g58
NtRp3052
(dp3053
g61
(dp3054
g81
g82
ssg70
g3048
sg63
(lp3055
S'files'
p3056
asbag56
(g77
g58
NtRp3057
(dp3058
g61
(dp3059
g88
g89
ssg70
g3048
sg63
(lp3060
S':'
asbag56
(g77
g58
NtRp3061
(dp3062
g61
(dp3063
sg70
g3048
sg63
(lp3064
g56
(g57
g58
NtRp3065
(dp3066
g61
(dp3067
g69
I5
ssg70
g3061
sg63
(lp3068
g56
(g65
g58
NtRp3069
(dp3070
g61
(dp3071
g69
I4
ssg70
Nsg63
(lp3072
sbasbasbasbag56
(g72
g58
NtRp3073
(dp3074
g61
(dp3075
sg70
g2814
sg63
(lp3076
g56
(g77
g58
NtRp3077
(dp3078
g61
(dp3079
g81
g82
ssg70
g3073
sg63
(lp3080
S'flash'
p3081
asbag56
(g77
g58
NtRp3082
(dp3083
g61
(dp3084
g88
g89
ssg70
g3073
sg63
(lp3085
S':'
asbag56
(g77
g58
NtRp3086
(dp3087
g61
(dp3088
sg70
g3073
sg63
(lp3089
g56
(g57
g58
NtRp3090
(dp3091
g61
(dp3092
g69
I5
ssg70
g3086
sg63
(lp3093
S''
asbasbasbag56
(g72
g58
NtRp3094
(dp3095
g61
(dp3096
sg70
g2814
sg63
(lp3097
g56
(g77
g58
NtRp3098
(dp3099
g61
(dp3100
g81
g82
ssg70
g3094
sg63
(lp3101
S'headers'
p3102
asbag56
(g77
g58
NtRp3103
(dp3104
g61
(dp3105
g88
g89
ssg70
g3094
sg63
(lp3106
S':'
asbag56
(g77
g58
NtRp3107
(dp3108
g61
(dp3109
sg70
g3094
sg63
(lp3110
g56
(g57
g58
NtRp3111
(dp3112
g61
(dp3113
g69
I5
ssg70
g3107
sg63
(lp3114
g56
(g65
g58
NtRp3115
(dp3116
g61
(dp3117
g69
I4
ssg70
Nsg63
(lp3118
g56
(g72
g58
NtRp3119
(dp3120
g61
(dp3121
sg70
g3115
sg63
(lp3122
g56
(g77
g58
NtRp3123
(dp3124
g61
(dp3125
g81
g82
ssg70
g3119
sg63
(lp3126
S'Cache-Control'
p3127
asbag56
(g77
g58
NtRp3128
(dp3129
g61
(dp3130
g88
g89
ssg70
g3119
sg63
(lp3131
S':'
asbag56
(g77
g58
NtRp3132
(dp3133
g61
(dp3134
sg70
g3119
sg63
(lp3135
g56
(g57
g58
NtRp3136
(dp3137
g61
(dp3138
g69
I4
ssg70
g3132
sg63
(lp3139
S'no-store, no-cache, must-revalidate, post-check=0, pre-check=0'
p3140
asbasbasbag56
(g72
g58
NtRp3141
(dp3142
g61
(dp3143
sg70
g3115
sg63
(lp3144
g56
(g77
g58
NtRp3145
(dp3146
g61
(dp3147
g81
g82
ssg70
g3141
sg63
(lp3148
S'Content-Type'
p3149
asbag56
(g77
g58
NtRp3150
(dp3151
g61
(dp3152
g88
g89
ssg70
g3141
sg63
(lp3153
S':'
asbag56
(g77
g58
NtRp3154
(dp3155
g61
(dp3156
sg70
g3141
sg63
(lp3157
g56
(g57
g58
NtRp3158
(dp3159
g61
(dp3160
g69
I4
ssg70
g3154
sg63
(lp3161
S'text/html; charset=utf-8'
p3162
asbasbasbag56
(g72
g58
NtRp3163
(dp3164
g61
(dp3165
sg70
g3115
sg63
(lp3166
g56
(g77
g58
NtRp3167
(dp3168
g61
(dp3169
g81
g82
ssg70
g3163
sg63
(lp3170
S'Expires'
p3171
asbag56
(g77
g58
NtRp3172
(dp3173
g61
(dp3174
g88
g89
ssg70
g3163
sg63
(lp3175
S':'
asbag56
(g77
g58
NtRp3176
(dp3177
g61
(dp3178
sg70
g3163
sg63
(lp3179
g56
(g57
g58
NtRp3180
(dp3181
g61
(dp3182
g69
I4
ssg70
g3176
sg63
(lp3183
S'Sun, 19 Jun 2011 01:33:50 GMT'
p3184
asbasbasbag56
(g72
g58
NtRp3185
(dp3186
g61
(dp3187
sg70
g3115
sg63
(lp3188
g56
(g77
g58
NtRp3189
(dp3190
g61
(dp3191
g81
g82
ssg70
g3185
sg63
(lp3192
S'Pragma'
p3193
asbag56
(g77
g58
NtRp3194
(dp3195
g61
(dp3196
g88
g89
ssg70
g3185
sg63
(lp3197
S':'
asbag56
(g77
g58
NtRp3198
(dp3199
g61
(dp3200
sg70
g3185
sg63
(lp3201
g56
(g57
g58
NtRp3202
(dp3203
g61
(dp3204
g69
I4
ssg70
g3198
sg63
(lp3205
S'no-cache'
p3206
asbasbasbag56
(g72
g58
NtRp3207
(dp3208
g61
(dp3209
sg70
g3115
sg63
(lp3210
g56
(g77
g58
NtRp3211
(dp3212
g61
(dp3213
g81
g82
ssg70
g3207
sg63
(lp3214
S'X-Powered-By'
p3215
asbag56
(g77
g58
NtRp3216
(dp3217
g61
(dp3218
g88
g89
ssg70
g3207
sg63
(lp3219
S':'
asbag56
(g77
g58
NtRp3220
(dp3221
g61
(dp3222
sg70
g3207
sg63
(lp3223
g56
(g57
g58
NtRp3224
(dp3225
g61
(dp3226
g69
I4
ssg70
g3220
sg63
(lp3227
S'web2py'
p3228
asbasbasbasbasbasbasbag56
(g72
g58
NtRp3229
(dp3230
g61
(dp3231
sg70
g2814
sg63
(lp3232
g56
(g77
g58
NtRp3233
(dp3234
g61
(dp3235
g81
g82
ssg70
g3229
sg63
(lp3236
S'menu'
p3237
asbag56
(g77
g58
NtRp3238
(dp3239
g61
(dp3240
g88
g89
ssg70
g3229
sg63
(lp3241
S':'
asbag56
(g77
g58
NtRp3242
(dp3243
g61
(dp3244
sg70
g3229
sg63
(lp3245
g56
(g57
g58
NtRp3246
(dp3247
g61
(dp3248
g69
I5
ssg70
g3242
sg63
(lp3249
g56
(g65
g58
NtRp3250
(dp3251
g61
(dp3252
g69
I4
ssg70
Nsg63
(lp3253
g56
(g72
g58
NtRp3254
(dp3255
g61
(dp3256
sg70
g3250
sg63
(lp3257
g56
(g77
g58
NtRp3258
(dp3259
g61
(dp3260
sg70
g3254
sg63
(lp3261
g56
(g57
g58
NtRp3262
(dp3263
g61
(dp3264
g69
I4
ssg70
g3258
sg63
(lp3265
g56
(g65
g58
NtRp3266
(dp3267
g61
(dp3268
g69
I3
ssg70
Nsg63
(lp3269
g56
(g72
g58
NtRp3270
(dp3271
g61
(dp3272
sg70
g3266
sg63
(lp3273
g56
(g77
g58
NtRp3274
(dp3275
g61
(dp3276
sg70
g3270
sg63
(lp3277
g56
(g57
g58
NtRp3278
(dp3279
g61
(dp3280
g69
I3
ssg70
g3274
sg63
(lp3281
cgluon.languages
lazyT_unpickle
p3282
(S's\x04\x00\x00\x00Home'
tRp3283
asbasbasbag56
(g72
g58
NtRp3284
(dp3285
g61
(dp3286
sg70
g3266
sg63
(lp3287
g56
(g77
g58
NtRp3288
(dp3289
g61
(dp3290
sg70
g3284
sg63
(lp3291
g56
(g57
g58
NtRp3292
(dp3293
g61
(dp3294
g69
I3
ssg70
g3288
sg63
(lp3295
g99
asbasbasbag56
(g72
g58
NtRp3296
(dp3297
g61
(dp3298
sg70
g3266
sg63
(lp3299
g56
(g77
g58
NtRp3300
(dp3301
g61
(dp3302
sg70
g3296
sg63
(lp3303
g56
(g57
g58
NtRp3304
(dp3305
g61
(dp3306
g69
I3
ssg70
g3300
sg63
(lp3307
S'/mvstore/default/index'
p3308
asbasbasbag56
(g72
g58
NtRp3309
(dp3310
g61
(dp3311
sg70
g3266
sg63
(lp3312
g56
(g77
g58
NtRp3313
(dp3314
g61
(dp3315
sg70
g3309
sg63
(lp3316
g56
(g57
g58
NtRp3317
(dp3318
g61
(dp3319
g69
I3
ssg70
g3313
sg63
(lp3320
g56
(g65
g58
NtRp3321
(dp3322
g61
(dp3323
g69
I2
ssg70
Nsg63
(lp3324
sbasbasbasbasbasbasbasbag56
(g72
g58
NtRp3325
(dp3326
g61
(dp3327
sg70
g3250
sg63
(lp3328
g56
(g77
g58
NtRp3329
(dp3330
g61
(dp3331
sg70
g3325
sg63
(lp3332
g56
(g57
g58
NtRp3333
(dp3334
g61
(dp3335
g69
I4
ssg70
g3329
sg63
(lp3336
g56
(g65
g58
NtRp3337
(dp3338
g61
(dp3339
g69
I3
ssg70
Nsg63
(lp3340
g56
(g72
g58
NtRp3341
(dp3342
g61
(dp3343
sg70
g3337
sg63
(lp3344
g56
(g77
g58
NtRp3345
(dp3346
g61
(dp3347
sg70
g3341
sg63
(lp3348
g56
(g57
g58
NtRp3349
(dp3350
g61
(dp3351
g69
I3
ssg70
g3345
sg63
(lp3352
g3282
(S's\x08\x00\x00\x00This App'
tRp3353
asbasbasbag56
(g72
g58
NtRp3354
(dp3355
g61
(dp3356
sg70
g3337
sg63
(lp3357
g56
(g77
g58
NtRp3358
(dp3359
g61
(dp3360
sg70
g3354
sg63
(lp3361
g56
(g57
g58
NtRp3362
(dp3363
g61
(dp3364
g69
I3
ssg70
g3358
sg63
(lp3365
g99
asbasbasbag56
(g72
g58
NtRp3366
(dp3367
g61
(dp3368
sg70
g3337
sg63
(lp3369
g56
(g77
g58
NtRp3370
(dp3371
g61
(dp3372
sg70
g3366
sg63
(lp3373
g56
(g57
g58
NtRp3374
(dp3375
g61
(dp3376
g69
I3
ssg70
g3370
sg63
(lp3377
S'/admin/default/design/mvstore'
p3378
asbasbasbag56
(g72
g58
NtRp3379
(dp3380
g61
(dp3381
sg70
g3337
sg63
(lp3382
g56
(g77
g58
NtRp3383
(dp3384
g61
(dp3385
sg70
g3379
sg63
(lp3386
g56
(g57
g58
NtRp3387
(dp3388
g61
(dp3389
g69
I3
ssg70
g3383
sg63
(lp3390
g56
(g65
g58
NtRp3391
(dp3392
g61
(dp3393
g69
I2
ssg70
Nsg63
(lp3394
g56
(g72
g58
NtRp3395
(dp3396
g61
(dp3397
sg70
g3391
sg63
(lp3398
g56
(g77
g58
NtRp3399
(dp3400
g61
(dp3401
sg70
g3395
sg63
(lp3402
g56
(g57
g58
NtRp3403
(dp3404
g61
(dp3405
g69
I2
ssg70
g3399
sg63
(lp3406
g56
(g65
g58
NtRp3407
(dp3408
g61
(dp3409
g69
I1
ssg70
Nsg63
(lp3410
g56
(g72
g58
NtRp3411
(dp3412
g61
(dp3413
sg70
g3407
sg63
(lp3414
g56
(g77
g58
NtRp3415
(dp3416
g61
(dp3417
sg70
g3411
sg63
(lp3418
g56
(g57
g58
NtRp3419
(dp3420
g61
(dp3421
g69
I1
ssg70
g3415
sg63
(lp3422
g3282
(S's\n\x00\x00\x00Controller'
tRp3423
asbasbasbag56
(g72
g58
NtRp3424
(dp3425
g61
(dp3426
sg70
g3407
sg63
(lp3427
g56
(g77
g58
NtRp3428
(dp3429
g61
(dp3430
sg70
g3424
sg63
(lp3431
g56
(g57
g58
NtRp3432
(dp3433
g61
(dp3434
g69
I1
ssg70
g3428
sg63
(lp3435
I00
asbasbasbag56
(g72
g58
NtRp3436
(dp3437
g61
(dp3438
sg70
g3407
sg63
(lp3439
g56
(g77
g58
NtRp3440
(dp3441
g61
(dp3442
sg70
g3436
sg63
(lp3443
g56
(g57
g58
NtRp3444
(dp3445
g61
(dp3446
g69
I1
ssg70
g3440
sg63
(lp3447
S'/admin/default/edit/mvstore/controllers/default.py'
p3448
asbasbasbasbasbasbasbag56
(g72
g58
NtRp3449
(dp3450
g61
(dp3451
sg70
g3391
sg63
(lp3452
g56
(g77
g58
NtRp3453
(dp3454
g61
(dp3455
sg70
g3449
sg63
(lp3456
g56
(g57
g58
NtRp3457
(dp3458
g61
(dp3459
g69
I2
ssg70
g3453
sg63
(lp3460
g56
(g65
g58
NtRp3461
(dp3462
g61
(dp3463
g69
I1
ssg70
Nsg63
(lp3464
g56
(g72
g58
NtRp3465
(dp3466
g61
(dp3467
sg70
g3461
sg63
(lp3468
g56
(g77
g58
NtRp3469
(dp3470
g61
(dp3471
sg70
g3465
sg63
(lp3472
g56
(g57
g58
NtRp3473
(dp3474
g61
(dp3475
g69
I1
ssg70
g3469
sg63
(lp3476
g3282
(S's\x04\x00\x00\x00View'
tRp3477
asbasbasbag56
(g72
g58
NtRp3478
(dp3479
g61
(dp3480
sg70
g3461
sg63
(lp3481
g56
(g77
g58
NtRp3482
(dp3483
g61
(dp3484
sg70
g3478
sg63
(lp3485
g56
(g57
g58
NtRp3486
(dp3487
g61
(dp3488
g69
I1
ssg70
g3482
sg63
(lp3489
I00
asbasbasbag56
(g72
g58
NtRp3490
(dp3491
g61
(dp3492
sg70
g3461
sg63
(lp3493
g56
(g77
g58
NtRp3494
(dp3495
g61
(dp3496
sg70
g3490
sg63
(lp3497
g56
(g57
g58
NtRp3498
(dp3499
g61
(dp3500
g69
I1
ssg70
g3494
sg63
(lp3501
S'/admin/default/edit/mvstore/views/default/prestamos.html'
p3502
asbasbasbasbasbasbasbag56
(g72
g58
NtRp3503
(dp3504
g61
(dp3505
sg70
g3391
sg63
(lp3506
g56
(g77
g58
NtRp3507
(dp3508
g61
(dp3509
sg70
g3503
sg63
(lp3510
g56
(g57
g58
NtRp3511
(dp3512
g61
(dp3513
g69
I2
ssg70
g3507
sg63
(lp3514
g56
(g65
g58
NtRp3515
(dp3516
g61
(dp3517
g69
I1
ssg70
Nsg63
(lp3518
g56
(g72
g58
NtRp3519
(dp3520
g61
(dp3521
sg70
g3515
sg63
(lp3522
g56
(g77
g58
NtRp3523
(dp3524
g61
(dp3525
sg70
g3519
sg63
(lp3526
g56
(g57
g58
NtRp3527
(dp3528
g61
(dp3529
g69
I1
ssg70
g3523
sg63
(lp3530
g3282
(S's\x06\x00\x00\x00Layout'
tRp3531
asbasbasbag56
(g72
g58
NtRp3532
(dp3533
g61
(dp3534
sg70
g3515
sg63
(lp3535
g56
(g77
g58
NtRp3536
(dp3537
g61
(dp3538
sg70
g3532
sg63
(lp3539
g56
(g57
g58
NtRp3540
(dp3541
g61
(dp3542
g69
I1
ssg70
g3536
sg63
(lp3543
I00
asbasbasbag56
(g72
g58
NtRp3544
(dp3545
g61
(dp3546
sg70
g3515
sg63
(lp3547
g56
(g77
g58
NtRp3548
(dp3549
g61
(dp3550
sg70
g3544
sg63
(lp3551
g56
(g57
g58
NtRp3552
(dp3553
g61
(dp3554
g69
I1
ssg70
g3548
sg63
(lp3555
S'/admin/default/edit/mvstore/views/layout.html'
p3556
asbasbasbasbasbasbasbag56
(g72
g58
NtRp3557
(dp3558
g61
(dp3559
sg70
g3391
sg63
(lp3560
g56
(g77
g58
NtRp3561
(dp3562
g61
(dp3563
sg70
g3557
sg63
(lp3564
g56
(g57
g58
NtRp3565
(dp3566
g61
(dp3567
g69
I2
ssg70
g3561
sg63
(lp3568
g56
(g65
g58
NtRp3569
(dp3570
g61
(dp3571
g69
I1
ssg70
Nsg63
(lp3572
g56
(g72
g58
NtRp3573
(dp3574
g61
(dp3575
sg70
g3569
sg63
(lp3576
g56
(g77
g58
NtRp3577
(dp3578
g61
(dp3579
sg70
g3573
sg63
(lp3580
g56
(g57
g58
NtRp3581
(dp3582
g61
(dp3583
g69
I1
ssg70
g3577
sg63
(lp3584
g3282
(S's\n\x00\x00\x00Stylesheet'
tRp3585
asbasbasbag56
(g72
g58
NtRp3586
(dp3587
g61
(dp3588
sg70
g3569
sg63
(lp3589
g56
(g77
g58
NtRp3590
(dp3591
g61
(dp3592
sg70
g3586
sg63
(lp3593
g56
(g57
g58
NtRp3594
(dp3595
g61
(dp3596
g69
I1
ssg70
g3590
sg63
(lp3597
I00
asbasbasbag56
(g72
g58
NtRp3598
(dp3599
g61
(dp3600
sg70
g3569
sg63
(lp3601
g56
(g77
g58
NtRp3602
(dp3603
g61
(dp3604
sg70
g3598
sg63
(lp3605
g56
(g57
g58
NtRp3606
(dp3607
g61
(dp3608
g69
I1
ssg70
g3602
sg63
(lp3609
S'/admin/default/edit/mvstore/static/base.css'
p3610
asbasbasbasbasbasbasbag56
(g72
g58
NtRp3611
(dp3612
g61
(dp3613
sg70
g3391
sg63
(lp3614
g56
(g77
g58
NtRp3615
(dp3616
g61
(dp3617
sg70
g3611
sg63
(lp3618
g56
(g57
g58
NtRp3619
(dp3620
g61
(dp3621
g69
I2
ssg70
g3615
sg63
(lp3622
g56
(g65
g58
NtRp3623
(dp3624
g61
(dp3625
g69
I1
ssg70
Nsg63
(lp3626
g56
(g72
g58
NtRp3627
(dp3628
g61
(dp3629
sg70
g3623
sg63
(lp3630
g56
(g77
g58
NtRp3631
(dp3632
g61
(dp3633
sg70
g3627
sg63
(lp3634
g56
(g57
g58
NtRp3635
(dp3636
g61
(dp3637
g69
I1
ssg70
g3631
sg63
(lp3638
g3282
(S's\x08\x00\x00\x00DB Model'
tRp3639
asbasbasbag56
(g72
g58
NtRp3640
(dp3641
g61
(dp3642
sg70
g3623
sg63
(lp3643
g56
(g77
g58
NtRp3644
(dp3645
g61
(dp3646
sg70
g3640
sg63
(lp3647
g56
(g57
g58
NtRp3648
(dp3649
g61
(dp3650
g69
I1
ssg70
g3644
sg63
(lp3651
I00
asbasbasbag56
(g72
g58
NtRp3652
(dp3653
g61
(dp3654
sg70
g3623
sg63
(lp3655
g56
(g77
g58
NtRp3656
(dp3657
g61
(dp3658
sg70
g3652
sg63
(lp3659
g56
(g57
g58
NtRp3660
(dp3661
g61
(dp3662
g69
I1
ssg70
g3656
sg63
(lp3663
S'/admin/default/edit/mvstore/models/db.py'
p3664
asbasbasbasbasbasbasbag56
(g72
g58
NtRp3665
(dp3666
g61
(dp3667
sg70
g3391
sg63
(lp3668
g56
(g77
g58
NtRp3669
(dp3670
g61
(dp3671
sg70
g3665
sg63
(lp3672
g56
(g57
g58
NtRp3673
(dp3674
g61
(dp3675
g69
I2
ssg70
g3669
sg63
(lp3676
g56
(g65
g58
NtRp3677
(dp3678
g61
(dp3679
g69
I1
ssg70
Nsg63
(lp3680
g56
(g72
g58
NtRp3681
(dp3682
g61
(dp3683
sg70
g3677
sg63
(lp3684
g56
(g77
g58
NtRp3685
(dp3686
g61
(dp3687
sg70
g3681
sg63
(lp3688
g56
(g57
g58
NtRp3689
(dp3690
g61
(dp3691
g69
I1
ssg70
g3685
sg63
(lp3692
g3282
(S's\n\x00\x00\x00Menu Model'
tRp3693
asbasbasbag56
(g72
g58
NtRp3694
(dp3695
g61
(dp3696
sg70
g3677
sg63
(lp3697
g56
(g77
g58
NtRp3698
(dp3699
g61
(dp3700
sg70
g3694
sg63
(lp3701
g56
(g57
g58
NtRp3702
(dp3703
g61
(dp3704
g69
I1
ssg70
g3698
sg63
(lp3705
I00
asbasbasbag56
(g72
g58
NtRp3706
(dp3707
g61
(dp3708
sg70
g3677
sg63
(lp3709
g56
(g77
g58
NtRp3710
(dp3711
g61
(dp3712
sg70
g3706
sg63
(lp3713
g56
(g57
g58
NtRp3714
(dp3715
g61
(dp3716
g69
I1
ssg70
g3710
sg63
(lp3717
S'/admin/default/edit/mvstore/models/menu.py'
p3718
asbasbasbasbasbasbasbag56
(g72
g58
NtRp3719
(dp3720
g61
(dp3721
sg70
g3391
sg63
(lp3722
g56
(g77
g58
NtRp3723
(dp3724
g61
(dp3725
sg70
g3719
sg63
(lp3726
g56
(g57
g58
NtRp3727
(dp3728
g61
(dp3729
g69
I2
ssg70
g3723
sg63
(lp3730
g56
(g65
g58
NtRp3731
(dp3732
g61
(dp3733
g69
I1
ssg70
Nsg63
(lp3734
g56
(g72
g58
NtRp3735
(dp3736
g61
(dp3737
sg70
g3731
sg63
(lp3738
g56
(g77
g58
NtRp3739
(dp3740
g61
(dp3741
sg70
g3735
sg63
(lp3742
g56
(g57
g58
NtRp3743
(dp3744
g61
(dp3745
g69
I1
ssg70
g3739
sg63
(lp3746
g3282
(S's\x08\x00\x00\x00Database'
tRp3747
asbasbasbag56
(g72
g58
NtRp3748
(dp3749
g61
(dp3750
sg70
g3731
sg63
(lp3751
g56
(g77
g58
NtRp3752
(dp3753
g61
(dp3754
sg70
g3748
sg63
(lp3755
g56
(g57
g58
NtRp3756
(dp3757
g61
(dp3758
g69
I1
ssg70
g3752
sg63
(lp3759
I00
asbasbasbag56
(g72
g58
NtRp3760
(dp3761
g61
(dp3762
sg70
g3731
sg63
(lp3763
g56
(g77
g58
NtRp3764
(dp3765
g61
(dp3766
sg70
g3760
sg63
(lp3767
g56
(g57
g58
NtRp3768
(dp3769
g61
(dp3770
g69
I1
ssg70
g3764
sg63
(lp3771
S'/mvstore/appadmin/index'
p3772
asbasbasbasbasbasbasbag56
(g72
g58
NtRp3773
(dp3774
g61
(dp3775
sg70
g3391
sg63
(lp3776
g56
(g77
g58
NtRp3777
(dp3778
g61
(dp3779
sg70
g3773
sg63
(lp3780
g56
(g57
g58
NtRp3781
(dp3782
g61
(dp3783
g69
I2
ssg70
g3777
sg63
(lp3784
g56
(g65
g58
NtRp3785
(dp3786
g61
(dp3787
g69
I1
ssg70
Nsg63
(lp3788
g56
(g72
g58
NtRp3789
(dp3790
g61
(dp3791
sg70
g3785
sg63
(lp3792
g56
(g77
g58
NtRp3793
(dp3794
g61
(dp3795
sg70
g3789
sg63
(lp3796
g56
(g57
g58
NtRp3797
(dp3798
g61
(dp3799
g69
I1
ssg70
g3793
sg63
(lp3800
g3282
(S's\x06\x00\x00\x00Errors'
tRp3801
asbasbasbag56
(g72
g58
NtRp3802
(dp3803
g61
(dp3804
sg70
g3785
sg63
(lp3805
g56
(g77
g58
NtRp3806
(dp3807
g61
(dp3808
sg70
g3802
sg63
(lp3809
g56
(g57
g58
NtRp3810
(dp3811
g61
(dp3812
g69
I1
ssg70
g3806
sg63
(lp3813
I00
asbasbasbag56
(g72
g58
NtRp3814
(dp3815
g61
(dp3816
sg70
g3785
sg63
(lp3817
g56
(g77
g58
NtRp3818
(dp3819
g61
(dp3820
sg70
g3814
sg63
(lp3821
g56
(g57
g58
NtRp3822
(dp3823
g61
(dp3824
g69
I1
ssg70
g3818
sg63
(lp3825
S'/admin/default/errors/mvstore'
p3826
asbasbasbasbasbasbasbag56
(g72
g58
NtRp3827
(dp3828
g61
(dp3829
sg70
g3391
sg63
(lp3830
g56
(g77
g58
NtRp3831
(dp3832
g61
(dp3833
sg70
g3827
sg63
(lp3834
g56
(g57
g58
NtRp3835
(dp3836
g61
(dp3837
g69
I2
ssg70
g3831
sg63
(lp3838
g56
(g65
g58
NtRp3839
(dp3840
g61
(dp3841
g69
I1
ssg70
Nsg63
(lp3842
g56
(g72
g58
NtRp3843
(dp3844
g61
(dp3845
sg70
g3839
sg63
(lp3846
g56
(g77
g58
NtRp3847
(dp3848
g61
(dp3849
sg70
g3843
sg63
(lp3850
g56
(g57
g58
NtRp3851
(dp3852
g61
(dp3853
g69
I1
ssg70
g3847
sg63
(lp3854
g3282
(S's\x05\x00\x00\x00About'
tRp3855
asbasbasbag56
(g72
g58
NtRp3856
(dp3857
g61
(dp3858
sg70
g3839
sg63
(lp3859
g56
(g77
g58
NtRp3860
(dp3861
g61
(dp3862
sg70
g3856
sg63
(lp3863
g56
(g57
g58
NtRp3864
(dp3865
g61
(dp3866
g69
I1
ssg70
g3860
sg63
(lp3867
I00
asbasbasbag56
(g72
g58
NtRp3868
(dp3869
g61
(dp3870
sg70
g3839
sg63
(lp3871
g56
(g77
g58
NtRp3872
(dp3873
g61
(dp3874
sg70
g3868
sg63
(lp3875
g56
(g57
g58
NtRp3876
(dp3877
g61
(dp3878
g69
I1
ssg70
g3872
sg63
(lp3879
S'/admin/default/about/mvstore'
p3880
asbasbasbasbasbasbasbasbasbasbasbasbasbasbasbag56
(g72
g58
NtRp3881
(dp3882
g61
(dp3883
sg70
g3250
sg63
(lp3884
g56
(g77
g58
NtRp3885
(dp3886
g61
(dp3887
sg70
g3881
sg63
(lp3888
g56
(g57
g58
NtRp3889
(dp3890
g61
(dp3891
g69
I4
ssg70
g3885
sg63
(lp3892
g56
(g65
g58
NtRp3893
(dp3894
g61
(dp3895
g69
I3
ssg70
Nsg63
(lp3896
g56
(g72
g58
NtRp3897
(dp3898
g61
(dp3899
sg70
g3893
sg63
(lp3900
g56
(g77
g58
NtRp3901
(dp3902
g61
(dp3903
sg70
g3897
sg63
(lp3904
g56
(g57
g58
NtRp3905
(dp3906
g61
(dp3907
g69
I3
ssg70
g3901
sg63
(lp3908
g3282
(S's\t\x00\x00\x00Resources'
tRp3909
asbasbasbag56
(g72
g58
NtRp3910
(dp3911
g61
(dp3912
sg70
g3893
sg63
(lp3913
g56
(g77
g58
NtRp3914
(dp3915
g61
(dp3916
sg70
g3910
sg63
(lp3917
g56
(g57
g58
NtRp3918
(dp3919
g61
(dp3920
g69
I3
ssg70
g3914
sg63
(lp3921
g99
asbasbasbag56
(g72
g58
NtRp3922
(dp3923
g61
(dp3924
sg70
g3893
sg63
(lp3925
g56
(g77
g58
NtRp3926
(dp3927
g61
(dp3928
sg70
g3922
sg63
(lp3929
g56
(g57
g58
NtRp3930
(dp3931
g61
(dp3932
g69
I3
ssg70
g3926
sg63
(lp3933
S'None'
p3934
asbasbasbag56
(g72
g58
NtRp3935
(dp3936
g61
(dp3937
sg70
g3893
sg63
(lp3938
g56
(g77
g58
NtRp3939
(dp3940
g61
(dp3941
sg70
g3935
sg63
(lp3942
g56
(g57
g58
NtRp3943
(dp3944
g61
(dp3945
g69
I3
ssg70
g3939
sg63
(lp3946
g56
(g65
g58
NtRp3947
(dp3948
g61
(dp3949
g69
I2
ssg70
Nsg63
(lp3950
g56
(g72
g58
NtRp3951
(dp3952
g61
(dp3953
sg70
g3947
sg63
(lp3954
g56
(g77
g58
NtRp3955
(dp3956
g61
(dp3957
sg70
g3951
sg63
(lp3958
g56
(g57
g58
NtRp3959
(dp3960
g61
(dp3961
g69
I2
ssg70
g3955
sg63
(lp3962
g56
(g65
g58
NtRp3963
(dp3964
g61
(dp3965
g69
I1
ssg70
Nsg63
(lp3966
g56
(g72
g58
NtRp3967
(dp3968
g61
(dp3969
sg70
g3963
sg63
(lp3970
g56
(g77
g58
NtRp3971
(dp3972
g61
(dp3973
sg70
g3967
sg63
(lp3974
g56
(g57
g58
NtRp3975
(dp3976
g61
(dp3977
g69
I1
ssg70
g3971
sg63
(lp3978
g3282
(S's\r\x00\x00\x00Documentation'
tRp3979
asbasbasbag56
(g72
g58
NtRp3980
(dp3981
g61
(dp3982
sg70
g3963
sg63
(lp3983
g56
(g77
g58
NtRp3984
(dp3985
g61
(dp3986
sg70
g3980
sg63
(lp3987
g56
(g57
g58
NtRp3988
(dp3989
g61
(dp3990
g69
I1
ssg70
g3984
sg63
(lp3991
I00
asbasbasbag56
(g72
g58
NtRp3992
(dp3993
g61
(dp3994
sg70
g3963
sg63
(lp3995
g56
(g77
g58
NtRp3996
(dp3997
g61
(dp3998
sg70
g3992
sg63
(lp3999
g56
(g57
g58
NtRp4000
(dp4001
g61
(dp4002
g69
I1
ssg70
g3996
sg63
(lp4003
S'http://www.web2py.com/book'
p4004
asbasbasbag56
(g72
g58
NtRp4005
(dp4006
g61
(dp4007
sg70
g3963
sg63
(lp4008
g56
(g77
g58
NtRp4009
(dp4010
g61
(dp4011
sg70
g4005
sg63
(lp4012
g56
(g57
g58
NtRp4013
(dp4014
g61
(dp4015
g69
I1
ssg70
g4009
sg63
(lp4016
(lp4017
(g3282
(S's\x07\x00\x00\x00Preface'
tRp4018
I00
S'http://www.web2py.com/book/default/chapter/00'
tp4019
a(g3282
(S's\x0c\x00\x00\x00Introduction'
tRp4020
I00
S'http://www.web2py.com/book/default/chapter/01'
tp4021
a(g3282
(S's\x06\x00\x00\x00Python'
tRp4022
I00
S'http://www.web2py.com/book/default/chapter/02'
tp4023
a(g3282
(S's\x08\x00\x00\x00Overview'
tRp4024
I00
S'http://www.web2py.com/book/default/chapter/03'
tp4025
a(g3282
(S's\x08\x00\x00\x00The Core'
tRp4026
I00
S'http://www.web2py.com/book/default/chapter/04'
tp4027
a(g3282
(S's\t\x00\x00\x00The Views'
tRp4028
I00
S'http://www.web2py.com/book/default/chapter/05'
tp4029
a(g3282
(S's\x08\x00\x00\x00Database'
tRp4030
I00
S'http://www.web2py.com/book/default/chapter/06'
tp4031
a(g3282
(S's\x14\x00\x00\x00Forms and Validators'
tRp4032
I00
S'http://www.web2py.com/book/default/chapter/07'
tp4033
a(g3282
(S's\x0e\x00\x00\x00Access Control'
tRp4034
I00
S'http://www.web2py.com/book/default/chapter/08'
tp4035
a(g3282
(S's\x08\x00\x00\x00Services'
tRp4036
I00
S'http://www.web2py.com/book/default/chapter/09'
tp4037
a(g3282
(S's\x0c\x00\x00\x00Ajax Recipes'
tRp4038
I00
S'http://www.web2py.com/book/default/chapter/10'
tp4039
a(g3282
(S's\x12\x00\x00\x00Deployment Recipes'
tRp4040
I00
S'http://www.web2py.com/book/default/chapter/11'
tp4041
a(g3282
(S's\r\x00\x00\x00Other Recipes'
tRp4042
I00
S'http://www.web2py.com/book/default/chapter/12'
tp4043
a(g3282
(S's\r\x00\x00\x00Buy this book'
tRp4044
I00
S'http://stores.lulu.com/web2py'
tp4045
aasbasbasbasbasbasbasbag56
(g72
g58
NtRp4046
(dp4047
g61
(dp4048
sg70
g3947
sg63
(lp4049
g56
(g77
g58
NtRp4050
(dp4051
g61
(dp4052
sg70
g4046
sg63
(lp4053
g56
(g57
g58
NtRp4054
(dp4055
g61
(dp4056
g69
I2
ssg70
g4050
sg63
(lp4057
g56
(g65
g58
NtRp4058
(dp4059
g61
(dp4060
g69
I1
ssg70
Nsg63
(lp4061
g56
(g72
g58
NtRp4062
(dp4063
g61
(dp4064
sg70
g4058
sg63
(lp4065
g56
(g77
g58
NtRp4066
(dp4067
g61
(dp4068
sg70
g4062
sg63
(lp4069
g56
(g57
g58
NtRp4070
(dp4071
g61
(dp4072
g69
I1
ssg70
g4066
sg63
(lp4073
g3282
(S's\t\x00\x00\x00Community'
tRp4074
asbasbasbag56
(g72
g58
NtRp4075
(dp4076
g61
(dp4077
sg70
g4058
sg63
(lp4078
g56
(g77
g58
NtRp4079
(dp4080
g61
(dp4081
sg70
g4075
sg63
(lp4082
g56
(g57
g58
NtRp4083
(dp4084
g61
(dp4085
g69
I1
ssg70
g4079
sg63
(lp4086
I00
asbasbasbag56
(g72
g58
NtRp4087
(dp4088
g61
(dp4089
sg70
g4058
sg63
(lp4090
g56
(g77
g58
NtRp4091
(dp4092
g61
(dp4093
sg70
g4087
sg63
(lp4094
g56
(g57
g58
NtRp4095
(dp4096
g61
(dp4097
g69
I1
ssg70
g4091
sg63
(lp4098
Nasbasbasbag56
(g72
g58
NtRp4099
(dp4100
g61
(dp4101
sg70
g4058
sg63
(lp4102
g56
(g77
g58
NtRp4103
(dp4104
g61
(dp4105
sg70
g4099
sg63
(lp4106
g56
(g57
g58
NtRp4107
(dp4108
g61
(dp4109
g69
I1
ssg70
g4103
sg63
(lp4110
(lp4111
(g3282
(S's\x06\x00\x00\x00Groups'
tRp4112
I00
S'http://www.web2py.com/examples/default/usergroups'
tp4113
a(g3282
(S's\x07\x00\x00\x00Twitter'
tRp4114
I00
S'http://twitter.com/web2py'
tp4115
a(g3282
(S's\t\x00\x00\x00Live chat'
tRp4116
I00
S'http://mibbit.com/?channel=%23web2py&server=irc.mibbit.net'
tp4117
a(g3282
(S's\n\x00\x00\x00User Voice'
tRp4118
I00
S'http://web2py.uservoice.com/'
tp4119
aasbasbasbasbasbasbasbag56
(g72
g58
NtRp4120
(dp4121
g61
(dp4122
sg70
g3947
sg63
(lp4123
g56
(g77
g58
NtRp4124
(dp4125
g61
(dp4126
sg70
g4120
sg63
(lp4127
g56
(g57
g58
NtRp4128
(dp4129
g61
(dp4130
g69
I2
ssg70
g4124
sg63
(lp4131
g56
(g65
g58
NtRp4132
(dp4133
g61
(dp4134
g69
I1
ssg70
Nsg63
(lp4135
g56
(g72
g58
NtRp4136
(dp4137
g61
(dp4138
sg70
g4132
sg63
(lp4139
g56
(g77
g58
NtRp4140
(dp4141
g61
(dp4142
sg70
g4136
sg63
(lp4143
g56
(g57
g58
NtRp4144
(dp4145
g61
(dp4146
g69
I1
ssg70
g4140
sg63
(lp4147
g3282
(S's\x06\x00\x00\x00Web2py'
tRp4148
asbasbasbag56
(g72
g58
NtRp4149
(dp4150
g61
(dp4151
sg70
g4132
sg63
(lp4152
g56
(g77
g58
NtRp4153
(dp4154
g61
(dp4155
sg70
g4149
sg63
(lp4156
g56
(g57
g58
NtRp4157
(dp4158
g61
(dp4159
g69
I1
ssg70
g4153
sg63
(lp4160
I00
asbasbasbag56
(g72
g58
NtRp4161
(dp4162
g61
(dp4163
sg70
g4132
sg63
(lp4164
g56
(g77
g58
NtRp4165
(dp4166
g61
(dp4167
sg70
g4161
sg63
(lp4168
g56
(g57
g58
NtRp4169
(dp4170
g61
(dp4171
g69
I1
ssg70
g4165
sg63
(lp4172
S'http://www.web2py.com'
p4173
asbasbasbag56
(g72
g58
NtRp4174
(dp4175
g61
(dp4176
sg70
g4132
sg63
(lp4177
g56
(g77
g58
NtRp4178
(dp4179
g61
(dp4180
sg70
g4174
sg63
(lp4181
g56
(g57
g58
NtRp4182
(dp4183
g61
(dp4184
g69
I1
ssg70
g4178
sg63
(lp4185
(lp4186
(g3282
(S's\x08\x00\x00\x00Download'
tRp4187
I00
S'http://www.web2py.com/examples/default/download'
tp4188
a(g3282
(S's\x07\x00\x00\x00Support'
tRp4189
I00
S'http://www.web2py.com/examples/default/support'
tp4190
a(g3282
(S's\x0e\x00\x00\x00Quick Examples'
tRp4191
I00
S'http://web2py.com/examples/default/examples'
tp4192
a(g3282
(S's\x03\x00\x00\x00FAQ'
tRp4193
I00
S'http://web2py.com/AlterEgo'
tp4194
a(g3282
(S's\x11\x00\x00\x00Free Applications'
tRp4195
I00
S'http://web2py.com/appliances'
tp4196
a(g3282
(S's\x07\x00\x00\x00Plugins'
tRp4197
I00
S'http://web2py.com/plugins'
tp4198
a(g3282
(S's\x07\x00\x00\x00Recipes'
tRp4199
I00
S'http://web2pyslices.com/'
tp4200
a(g3282
(S's\x04\x00\x00\x00Demo'
tRp4201
I00
S'http://web2py.com/demo_admin'
tp4202
a(g3282
(S's\x08\x00\x00\x00Semantic'
tRp4203
I00
S'http://web2py.com/semantic'
tp4204
a(g3282
(S's\x07\x00\x00\x00Layouts'
tRp4205
I00
S'http://web2py.com/layouts'
tp4206
a(g3282
(S's\x06\x00\x00\x00Videos'
tRp4207
I00
S'http://www.web2py.com/examples/default/videos/'
tp4208
aasbasbasbasbasbasbasbasbasbasbasbasbasbasbasbasbasbasbasbag56
(g72
g58
NtRp4209
(dp4210
g61
(dp4211
sg70
g2814
sg63
(lp4212
g56
(g77
g58
NtRp4213
(dp4214
g61
(dp4215
g81
g82
ssg70
g4209
sg63
(lp4216
S'meta'
p4217
asbag56
(g77
g58
NtRp4218
(dp4219
g61
(dp4220
g88
g89
ssg70
g4209
sg63
(lp4221
S':'
asbag56
(g77
g58
NtRp4222
(dp4223
g61
(dp4224
sg70
g4209
sg63
(lp4225
g56
(g57
g58
NtRp4226
(dp4227
g61
(dp4228
g69
I5
ssg70
g4222
sg63
(lp4229
g56
(g65
g58
NtRp4230
(dp4231
g61
(dp4232
g69
I4
ssg70
Nsg63
(lp4233
g56
(g72
g58
NtRp4234
(dp4235
g61
(dp4236
sg70
g4230
sg63
(lp4237
g56
(g77
g58
NtRp4238
(dp4239
g61
(dp4240
g81
g82
ssg70
g4234
sg63
(lp4241
S'author'
p4242
asbag56
(g77
g58
NtRp4243
(dp4244
g61
(dp4245
g88
g89
ssg70
g4234
sg63
(lp4246
S':'
asbag56
(g77
g58
NtRp4247
(dp4248
g61
(dp4249
sg70
g4234
sg63
(lp4250
g56
(g57
g58
NtRp4251
(dp4252
g61
(dp4253
g69
I4
ssg70
g4247
sg63
(lp4254
S'you'
p4255
asbasbasbag56
(g72
g58
NtRp4256
(dp4257
g61
(dp4258
sg70
g4230
sg63
(lp4259
g56
(g77
g58
NtRp4260
(dp4261
g61
(dp4262
g81
g82
ssg70
g4256
sg63
(lp4263
S'copyright'
p4264
asbag56
(g77
g58
NtRp4265
(dp4266
g61
(dp4267
g88
g89
ssg70
g4256
sg63
(lp4268
S':'
asbag56
(g77
g58
NtRp4269
(dp4270
g61
(dp4271
sg70
g4256
sg63
(lp4272
g56
(g57
g58
NtRp4273
(dp4274
g61
(dp4275
g69
I4
ssg70
g4269
sg63
(lp4276
S'Copyright 2007-2010'
p4277
asbasbasbag56
(g72
g58
NtRp4278
(dp4279
g61
(dp4280
sg70
g4230
sg63
(lp4281
g56
(g77
g58
NtRp4282
(dp4283
g61
(dp4284
g81
g82
ssg70
g4278
sg63
(lp4285
S'description'
p4286
asbag56
(g77
g58
NtRp4287
(dp4288
g61
(dp4289
g88
g89
ssg70
g4278
sg63
(lp4290
S':'
asbag56
(g77
g58
NtRp4291
(dp4292
g61
(dp4293
sg70
g4278
sg63
(lp4294
g56
(g57
g58
NtRp4295
(dp4296
g61
(dp4297
g69
I4
ssg70
g4291
sg63
(lp4298
S'Free and open source full-stack enterprise framework for agile development of fast, scalable, secure and portable database-driven web-based applications. Written and programmable in Python'
p4299
asbasbasbag56
(g72
g58
NtRp4300
(dp4301
g61
(dp4302
sg70
g4230
sg63
(lp4303
g56
(g77
g58
NtRp4304
(dp4305
g61
(dp4306
g81
g82
ssg70
g4300
sg63
(lp4307
S'generator'
p4308
asbag56
(g77
g58
NtRp4309
(dp4310
g61
(dp4311
g88
g89
ssg70
g4300
sg63
(lp4312
S':'
asbag56
(g77
g58
NtRp4313
(dp4314
g61
(dp4315
sg70
g4300
sg63
(lp4316
g56
(g57
g58
NtRp4317
(dp4318
g61
(dp4319
g69
I4
ssg70
g4313
sg63
(lp4320
S'Web2py Enterprise Framework'
p4321
asbasbasbag56
(g72
g58
NtRp4322
(dp4323
g61
(dp4324
sg70
g4230
sg63
(lp4325
g56
(g77
g58
NtRp4326
(dp4327
g61
(dp4328
g81
g82
ssg70
g4322
sg63
(lp4329
S'keywords'
p4330
asbag56
(g77
g58
NtRp4331
(dp4332
g61
(dp4333
g88
g89
ssg70
g4322
sg63
(lp4334
S':'
asbag56
(g77
g58
NtRp4335
(dp4336
g61
(dp4337
sg70
g4322
sg63
(lp4338
g56
(g57
g58
NtRp4339
(dp4340
g61
(dp4341
g69
I4
ssg70
g4335
sg63
(lp4342
S'web2py, python, framework'
p4343
asbasbasbasbasbasbasbag56
(g72
g58
NtRp4344
(dp4345
g61
(dp4346
sg70
g2814
sg63
(lp4347
g56
(g77
g58
NtRp4348
(dp4349
g61
(dp4350
g81
g82
ssg70
g4344
sg63
(lp4351
S'postprocessing'
p4352
asbag56
(g77
g58
NtRp4353
(dp4354
g61
(dp4355
g88
g89
ssg70
g4344
sg63
(lp4356
S':'
asbag56
(g77
g58
NtRp4357
(dp4358
g61
(dp4359
sg70
g4344
sg63
(lp4360
g56
(g57
g58
NtRp4361
(dp4362
g61
(dp4363
g69
I5
ssg70
g4357
sg63
(lp4364
g56
(g65
g58
NtRp4365
(dp4366
g61
(dp4367
g69
I4
ssg70
Nsg63
(lp4368
sbasbasbasbag56
(g72
g58
NtRp4369
(dp4370
g61
(dp4371
sg70
g2814
sg63
(lp4372
g56
(g77
g58
NtRp4373
(dp4374
g61
(dp4375
g81
g82
ssg70
g4369
sg63
(lp4376
S'session_filename'
p4377
asbag56
(g77
g58
NtRp4378
(dp4379
g61
(dp4380
g88
g89
ssg70
g4369
sg63
(lp4381
S':'
asbag56
(g77
g58
NtRp4382
(dp4383
g61
(dp4384
sg70
g4369
sg63
(lp4385
g56
(g57
g58
NtRp4386
(dp4387
g61
(dp4388
g69
I5
ssg70
g4382
sg63
(lp4389
S'/home/marco/proyectos/web2py-trunk/applications/mvstore/sessions/127.0.0.1-1016b5ba-16a9-4593-8eae-0adaa80d6cf7'
p4390
asbasbasbag56
(g72
g58
NtRp4391
(dp4392
g61
(dp4393
sg70
g2814
sg63
(lp4394
g56
(g77
g58
NtRp4395
(dp4396
g61
(dp4397
g81
g82
ssg70
g4391
sg63
(lp4398
S'session_id'
p4399
asbag56
(g77
g58
NtRp4400
(dp4401
g61
(dp4402
g88
g89
ssg70
g4391
sg63
(lp4403
S':'
asbag56
(g77
g58
NtRp4404
(dp4405
g61
(dp4406
sg70
g4391
sg63
(lp4407
g56
(g57
g58
NtRp4408
(dp4409
g61
(dp4410
g69
I5
ssg70
g4404
sg63
(lp4411
S'127.0.0.1-1016b5ba-16a9-4593-8eae-0adaa80d6cf7'
p4412
asbasbasbag56
(g72
g58
NtRp4413
(dp4414
g61
(dp4415
sg70
g2814
sg63
(lp4416
g56
(g77
g58
NtRp4417
(dp4418
g61
(dp4419
g81
g82
ssg70
g4413
sg63
(lp4420
S'session_id_name'
p4421
asbag56
(g77
g58
NtRp4422
(dp4423
g61
(dp4424
g88
g89
ssg70
g4413
sg63
(lp4425
S':'
asbag56
(g77
g58
NtRp4426
(dp4427
g61
(dp4428
sg70
g4413
sg63
(lp4429
g56
(g57
g58
NtRp4430
(dp4431
g61
(dp4432
g69
I5
ssg70
g4426
sg63
(lp4433
g2871
asbasbasbag56
(g72
g58
NtRp4434
(dp4435
g61
(dp4436
sg70
g2814
sg63
(lp4437
g56
(g77
g58
NtRp4438
(dp4439
g61
(dp4440
g81
g82
ssg70
g4434
sg63
(lp4441
S'session_new'
p4442
asbag56
(g77
g58
NtRp4443
(dp4444
g61
(dp4445
g88
g89
ssg70
g4434
sg63
(lp4446
S':'
asbag56
(g77
g58
NtRp4447
(dp4448
g61
(dp4449
sg70
g4434
sg63
(lp4450
g56
(g57
g58
NtRp4451
(dp4452
g61
(dp4453
g69
I5
ssg70
g4447
sg63
(lp4454
g1569
asbasbasbag56
(g72
g58
NtRp4455
(dp4456
g61
(dp4457
sg70
g2814
sg63
(lp4458
g56
(g77
g58
NtRp4459
(dp4460
g61
(dp4461
g81
g82
ssg70
g4455
sg63
(lp4462
S'status'
p4463
asbag56
(g77
g58
NtRp4464
(dp4465
g61
(dp4466
g88
g89
ssg70
g4455
sg63
(lp4467
S':'
asbag56
(g77
g58
NtRp4468
(dp4469
g61
(dp4470
sg70
g4455
sg63
(lp4471
g56
(g57
g58
NtRp4472
(dp4473
g61
(dp4474
g69
I5
ssg70
g4468
sg63
(lp4475
S'200'
p4476
asbasbasbag56
(g72
g58
NtRp4477
(dp4478
g61
(dp4479
sg70
g2814
sg63
(lp4480
g56
(g77
g58
NtRp4481
(dp4482
g61
(dp4483
g81
g82
ssg70
g4477
sg63
(lp4484
S'subtitle'
p4485
asbag56
(g77
g58
NtRp4486
(dp4487
g61
(dp4488
g88
g89
ssg70
g4477
sg63
(lp4489
S':'
asbag56
(g77
g58
NtRp4490
(dp4491
g61
(dp4492
sg70
g4477
sg63
(lp4493
g56
(g57
g58
NtRp4494
(dp4495
g61
(dp4496
g69
I5
ssg70
g4490
sg63
(lp4497
g3282
(S's\r\x00\x00\x00customize me!'
tRp4498
asbasbasbag56
(g72
g58
NtRp4499
(dp4500
g61
(dp4501
sg70
g2814
sg63
(lp4502
g56
(g77
g58
NtRp4503
(dp4504
g61
(dp4505
g81
g82
ssg70
g4499
sg63
(lp4506
S'title'
p4507
asbag56
(g77
g58
NtRp4508
(dp4509
g61
(dp4510
g88
g89
ssg70
g4499
sg63
(lp4511
S':'
asbag56
(g77
g58
NtRp4512
(dp4513
g61
(dp4514
sg70
g4499
sg63
(lp4515
g56
(g57
g58
NtRp4516
(dp4517
g61
(dp4518
g69
I5
ssg70
g4512
sg63
(lp4519
g121
asbasbasbag56
(g72
g58
NtRp4520
(dp4521
g61
(dp4522
sg70
g2814
sg63
(lp4523
g56
(g77
g58
NtRp4524
(dp4525
g61
(dp4526
g81
g82
ssg70
g4520
sg63
(lp4527
g1893
asbag56
(g77
g58
NtRp4528
(dp4529
g61
(dp4530
g88
g89
ssg70
g4520
sg63
(lp4531
S':'
asbag56
(g77
g58
NtRp4532
(dp4533
g61
(dp4534
sg70
g4520
sg63
(lp4535
g56
(g57
g58
NtRp4536
(dp4537
g61
(dp4538
g69
I5
ssg70
g4532
sg63
(lp4539
g1906
asbasbasbag56
(g72
g58
NtRp4540
(dp4541
g61
(dp4542
sg70
g2814
sg63
(lp4543
g56
(g77
g58
NtRp4544
(dp4545
g61
(dp4546
g81
g82
ssg70
g4540
sg63
(lp4547
S'view'
p4548
asbag56
(g77
g58
NtRp4549
(dp4550
g61
(dp4551
g88
g89
ssg70
g4540
sg63
(lp4552
S':'
asbag56
(g77
g58
NtRp4553
(dp4554
g61
(dp4555
sg70
g4540
sg63
(lp4556
g56
(g57
g58
NtRp4557
(dp4558
g61
(dp4559
g69
I5
ssg70
g4553
sg63
(lp4560
S'default/prestamos.html'
p4561
asbasbasbasbasbsS'locals'
p4562
(dp4563
S'self'
p4564
S"<Table {'foto': <gluon.dal.Field object at 0x235...cumento': <gluon.dal.Field object at 0x235c510>}>"
p4565
sS'key'
p4566
S"'first_name'"
p4567
sssS'traceback'
p4568
S'Traceback (most recent call last):\n  File "/home/marco/proyectos/web2py-trunk/gluon/restricted.py", line 192, in restricted\n    exec ccode in environment\n  File "/home/marco/proyectos/web2py-trunk/applications/mvstore/controllers/default.py", line 70, in <module>\n  File "/home/marco/proyectos/web2py-trunk/gluon/globals.py", line 137, in <lambda>\n    self._caller = lambda f: f()\n  File "/home/marco/proyectos/web2py-trunk/applications/mvstore/controllers/default.py", line 67, in prestamos\n    form=crud.create(db.prestamos)\n  File "/home/marco/proyectos/web2py-trunk/gluon/tools.py", line 3120, in create\n    formname=formname,\n  File "/home/marco/proyectos/web2py-trunk/gluon/tools.py", line 3032, in update\n    formstyle=self.settings.formstyle\n  File "/home/marco/proyectos/web2py-trunk/gluon/sqlhtml.py", line 817, in __init__\n    inp = self.widgets.options.widget(field, default)\n  File "/home/marco/proyectos/web2py-trunk/gluon/sqlhtml.py", line 206, in widget\n    options = requires[0].options()\n  File "/home/marco/proyectos/web2py-trunk/gluon/validators.py", line 438, in options\n    self.build_set()\n  File "/home/marco/proyectos/web2py-trunk/gluon/validators.py", line 421, in build_set\n    fields = [self.dbset.db[self.ktable][k] for k in self.fields]\n  File "/home/marco/proyectos/web2py-trunk/gluon/dal.py", line 4592, in __getitem__\n    return dict.__getitem__(self, str(key))\nKeyError: \'first_name\'\n'
p4569
s.