(dp1
S'output'
p2
S''
sS'layer'
p3
S'/home/marco/proyectos/web2py-trunk/applications/mvstore/controllers/default.py'
p4
sS'code'
p5
S'#-*- coding: utf-8 -*-\n# this file is released under public domain and you can use without limitations\n\n#########################################################################\n## This is a samples controller\n## - index is the default action of any application\n## - user is required for authentication and authorization\n## - download is for downloading files uploaded in the db (does streaming)\n## - call exposes all registered services (none by default)\n#########################################################################\n\ndef index():\n    """\n    example action using the internationalization operator T and flash\n    rendered by views/default/index.html or views/generic.html\n    """\n    return dict(message=T(\'Hello World\'))\n\ndef user():\n    """\n    exposes:\n    http://..../[app]/default/user/login\n    http://..../[app]/default/user/logout\n    http://..../[app]/default/user/register\n    http://..../[app]/default/user/profile\n    http://..../[app]/default/user/retrieve_password\n    http://..../[app]/default/user/change_password\n    use @auth.requires_login()\n        @auth.requires_membership(\'group name\')\n        @auth.requires_permission(\'read\',\'table name\',record_id)\n    to decorate functions that need access control\n    """\n    return dict(form=auth())\n\n\ndef download():\n    """\n    allows downloading of uploaded files\n    http://..../[app]/default/download/[filename]\n    """\n    return response.download(request,db)\n\n\ndef call():\n    """\n    exposes services. for example:\n    http://..../[app]/default/call/jsonrpc\n    decorate with @services.jsonrpc the functions to expose\n    supports xml, json, xmlrpc, jsonrpc, amfrpc, rss, csv\n    """\n    session.forget()\n    return service()\n\ndef empleados():\n    form=crud.create(db.empleados)\n    return dict(form=form)\n\ndef clientes():\n    form=crud.create(db.clientes)\n    return dict(form=form)\n\ndef peliculas():\n    form=crud.create(db.peliculas)\n    return dict(form=form)\n\ndef prestamos():\n    form=crud.create(db.prestamos)\n    return dict(form=form)\n\nresponse._vars=response._caller(prestamos)\n'
p6
sS'snapshot'
p7
(dp8
S'exception'
p9
(dp10
S'__hash__'
p11
S"<method-wrapper '__hash__' of exceptions.KeyError object>"
p12
sS'__setattr__'
p13
S"<method-wrapper '__setattr__' of exceptions.KeyError object>"
p14
sS'__reduce_ex__'
p15
S'<built-in method __reduce_ex__ of exceptions.KeyError object>'
p16
sS'__getslice__'
p17
S"<method-wrapper '__getslice__' of exceptions.KeyError object>"
p18
sS'__getitem__'
p19
S"<method-wrapper '__getitem__' of exceptions.KeyError object>"
p20
sS'__setstate__'
p21
S'<built-in method __setstate__ of exceptions.KeyError object>'
p22
sS'args'
p23
S"('first_name',)"
p24
sS'__reduce__'
p25
S'<built-in method __reduce__ of exceptions.KeyError object>'
p26
sS'__str__'
p27
S"<method-wrapper '__str__' of exceptions.KeyError object>"
p28
sS'__format__'
p29
S'<built-in method __format__ of exceptions.KeyError object>'
p30
sS'__getattribute__'
p31
S"<method-wrapper '__getattribute__' of exceptions.KeyError object>"
p32
sS'__class__'
p33
S"<type 'exceptions.KeyError'>"
p34
sS'__unicode__'
p35
S'<built-in method __unicode__ of exceptions.KeyError object>'
p36
sS'__delattr__'
p37
S"<method-wrapper '__delattr__' of exceptions.KeyError object>"
p38
sS'__subclasshook__'
p39
S'<built-in method __subclasshook__ of type object>'
p40
sS'__repr__'
p41
S"<method-wrapper '__repr__' of exceptions.KeyError object>"
p42
sS'__dict__'
p43
S'{}'
p44
sS'__sizeof__'
p45
S'<built-in method __sizeof__ of exceptions.KeyError object>'
p46
sS'__doc__'
p47
S"'Mapping key not found.'"
p48
sS'__init__'
p49
S"<method-wrapper '__init__' of exceptions.KeyError object>"
p50
sS'__new__'
p51
S'<built-in method __new__ of type object>'
p52
ssS'evalue'
p53
S"'first_name'"
p54
sS'request'
p55
ccopy_reg
_reconstructor
p56
(cgluon.html
BEAUTIFY
p57
c__builtin__
object
p58
NtRp59
(dp60
S'attributes'
p61
(dp62
sS'components'
p63
(lp64
g56
(cgluon.html
TABLE
p65
g58
NtRp66
(dp67
g61
(dp68
S'level'
p69
I5
ssS'parent'
p70
Nsg63
(lp71
g56
(cgluon.html
TR
p72
g58
NtRp73
(dp74
g61
(dp75
sg70
g66
sg63
(lp76
g56
(cgluon.html
TD
p77
g58
NtRp78
(dp79
g61
(dp80
S'_style'
p81
S'font-weight:bold;'
p82
ssg70
g73
sg63
(lp83
S'ajax'
p84
asbag56
(g77
g58
NtRp85
(dp86
g61
(dp87
S'_valign'
p88
S'top'
p89
ssg70
g73
sg63
(lp90
S':'
asbag56
(g77
g58
NtRp91
(dp92
g61
(dp93
sg70
g73
sg63
(lp94
g56
(g57
g58
NtRp95
(dp96
g61
(dp97
g69
I5
ssg70
g91
sg63
(lp98
S'False'
p99
asbasbasbag56
(g72
g58
NtRp100
(dp101
g61
(dp102
sg70
g66
sg63
(lp103
g56
(g77
g58
NtRp104
(dp105
g61
(dp106
g81
g82
ssg70
g100
sg63
(lp107
S'application'
p108
asbag56
(g77
g58
NtRp109
(dp110
g61
(dp111
g88
g89
ssg70
g100
sg63
(lp112
S':'
asbag56
(g77
g58
NtRp113
(dp114
g61
(dp115
sg70
g100
sg63
(lp116
g56
(g57
g58
NtRp117
(dp118
g61
(dp119
g69
I5
ssg70
g113
sg63
(lp120
S'mvstore'
p121
asbasbasbag56
(g72
g58
NtRp122
(dp123
g61
(dp124
sg70
g66
sg63
(lp125
g56
(g77
g58
NtRp126
(dp127
g61
(dp128
g81
g82
ssg70
g122
sg63
(lp129
g23
asbag56
(g77
g58
NtRp130
(dp131
g61
(dp132
g88
g89
ssg70
g122
sg63
(lp133
S':'
asbag56
(g77
g58
NtRp134
(dp135
g61
(dp136
sg70
g122
sg63
(lp137
g56
(g57
g58
NtRp138
(dp139
g61
(dp140
g69
I5
ssg70
g134
sg63
(lp141
g56
(g65
g58
NtRp142
(dp143
g61
(dp144
g69
I4
ssg70
Nsg63
(lp145
sbasbasbasbag56
(g72
g58
NtRp146
(dp147
g61
(dp148
sg70
g66
sg63
(lp149
g56
(g77
g58
NtRp150
(dp151
g61
(dp152
g81
g82
ssg70
g146
sg63
(lp153
S'body'
p154
asbag56
(g77
g58
NtRp155
(dp156
g61
(dp157
g88
g89
ssg70
g146
sg63
(lp158
S':'
asbag56
(g77
g58
NtRp159
(dp160
g61
(dp161
sg70
g146
sg63
(lp162
g56
(g57
g58
NtRp163
(dp164
g61
(dp165
g69
I5
ssg70
g159
sg63
(lp166
S'<cStringIO.StringO object at 0x37ca308>'
p167
asbasbasbag56
(g72
g58
NtRp168
(dp169
g61
(dp170
sg70
g66
sg63
(lp171
g56
(g77
g58
NtRp172
(dp173
g61
(dp174
g81
g82
ssg70
g168
sg63
(lp175
S'client'
p176
asbag56
(g77
g58
NtRp177
(dp178
g61
(dp179
g88
g89
ssg70
g168
sg63
(lp180
S':'
asbag56
(g77
g58
NtRp181
(dp182
g61
(dp183
sg70
g168
sg63
(lp184
g56
(g57
g58
NtRp185
(dp186
g61
(dp187
g69
I5
ssg70
g181
sg63
(lp188
S'127.0.0.1'
p189
asbasbasbag56
(g72
g58
NtRp190
(dp191
g61
(dp192
sg70
g66
sg63
(lp193
g56
(g77
g58
NtRp194
(dp195
g61
(dp196
g81
g82
ssg70
g190
sg63
(lp197
S'controller'
p198
asbag56
(g77
g58
NtRp199
(dp200
g61
(dp201
g88
g89
ssg70
g190
sg63
(lp202
S':'
asbag56
(g77
g58
NtRp203
(dp204
g61
(dp205
sg70
g190
sg63
(lp206
g56
(g57
g58
NtRp207
(dp208
g61
(dp209
g69
I5
ssg70
g203
sg63
(lp210
S'default'
p211
asbasbasbag56
(g72
g58
NtRp212
(dp213
g61
(dp214
sg70
g66
sg63
(lp215
g56
(g77
g58
NtRp216
(dp217
g61
(dp218
g81
g82
ssg70
g212
sg63
(lp219
S'cookies'
p220
asbag56
(g77
g58
NtRp221
(dp222
g61
(dp223
g88
g89
ssg70
g212
sg63
(lp224
S':'
asbag56
(g77
g58
NtRp225
(dp226
g61
(dp227
sg70
g212
sg63
(lp228
g56
(g57
g58
NtRp229
(dp230
g61
(dp231
g69
I5
ssg70
g225
sg63
(lp232
g56
(g65
g58
NtRp233
(dp234
g61
(dp235
g69
I4
ssg70
Nsg63
(lp236
g56
(g72
g58
NtRp237
(dp238
g61
(dp239
sg70
g233
sg63
(lp240
g56
(g77
g58
NtRp241
(dp242
g61
(dp243
g81
g82
ssg70
g237
sg63
(lp244
S'session_id_admin'
p245
asbag56
(g77
g58
NtRp246
(dp247
g61
(dp248
g88
g89
ssg70
g237
sg63
(lp249
S':'
asbag56
(g77
g58
NtRp250
(dp251
g61
(dp252
sg70
g237
sg63
(lp253
g56
(g57
g58
NtRp254
(dp255
g61
(dp256
g69
I4
ssg70
g250
sg63
(lp257
g56
(g65
g58
NtRp258
(dp259
g61
(dp260
g69
I3
ssg70
Nsg63
(lp261
g56
(g72
g58
NtRp262
(dp263
g61
(dp264
sg70
g258
sg63
(lp265
g56
(g77
g58
NtRp266
(dp267
g61
(dp268
g81
g82
ssg70
g262
sg63
(lp269
S'comment'
p270
asbag56
(g77
g58
NtRp271
(dp272
g61
(dp273
g88
g89
ssg70
g262
sg63
(lp274
S':'
asbag56
(g77
g58
NtRp275
(dp276
g61
(dp277
sg70
g262
sg63
(lp278
g56
(g57
g58
NtRp279
(dp280
g61
(dp281
g69
I3
ssg70
g275
sg63
(lp282
S''
asbasbasbag56
(g72
g58
NtRp283
(dp284
g61
(dp285
sg70
g258
sg63
(lp286
g56
(g77
g58
NtRp287
(dp288
g61
(dp289
g81
g82
ssg70
g283
sg63
(lp290
S'domain'
p291
asbag56
(g77
g58
NtRp292
(dp293
g61
(dp294
g88
g89
ssg70
g283
sg63
(lp295
S':'
asbag56
(g77
g58
NtRp296
(dp297
g61
(dp298
sg70
g283
sg63
(lp299
g56
(g57
g58
NtRp300
(dp301
g61
(dp302
g69
I3
ssg70
g296
sg63
(lp303
S''
asbasbasbag56
(g72
g58
NtRp304
(dp305
g61
(dp306
sg70
g258
sg63
(lp307
g56
(g77
g58
NtRp308
(dp309
g61
(dp310
g81
g82
ssg70
g304
sg63
(lp311
S'expires'
p312
asbag56
(g77
g58
NtRp313
(dp314
g61
(dp315
g88
g89
ssg70
g304
sg63
(lp316
S':'
asbag56
(g77
g58
NtRp317
(dp318
g61
(dp319
sg70
g304
sg63
(lp320
g56
(g57
g58
NtRp321
(dp322
g61
(dp323
g69
I3
ssg70
g317
sg63
(lp324
S''
asbasbasbag56
(g72
g58
NtRp325
(dp326
g61
(dp327
sg70
g258
sg63
(lp328
g56
(g77
g58
NtRp329
(dp330
g61
(dp331
g81
g82
ssg70
g325
sg63
(lp332
S'httponly'
p333
asbag56
(g77
g58
NtRp334
(dp335
g61
(dp336
g88
g89
ssg70
g325
sg63
(lp337
S':'
asbag56
(g77
g58
NtRp338
(dp339
g61
(dp340
sg70
g325
sg63
(lp341
g56
(g57
g58
NtRp342
(dp343
g61
(dp344
g69
I3
ssg70
g338
sg63
(lp345
S''
asbasbasbag56
(g72
g58
NtRp346
(dp347
g61
(dp348
sg70
g258
sg63
(lp349
g56
(g77
g58
NtRp350
(dp351
g61
(dp352
g81
g82
ssg70
g346
sg63
(lp353
S'max-age'
p354
asbag56
(g77
g58
NtRp355
(dp356
g61
(dp357
g88
g89
ssg70
g346
sg63
(lp358
S':'
asbag56
(g77
g58
NtRp359
(dp360
g61
(dp361
sg70
g346
sg63
(lp362
g56
(g57
g58
NtRp363
(dp364
g61
(dp365
g69
I3
ssg70
g359
sg63
(lp366
S''
asbasbasbag56
(g72
g58
NtRp367
(dp368
g61
(dp369
sg70
g258
sg63
(lp370
g56
(g77
g58
NtRp371
(dp372
g61
(dp373
g81
g82
ssg70
g367
sg63
(lp374
S'path'
p375
asbag56
(g77
g58
NtRp376
(dp377
g61
(dp378
g88
g89
ssg70
g367
sg63
(lp379
S':'
asbag56
(g77
g58
NtRp380
(dp381
g61
(dp382
sg70
g367
sg63
(lp383
g56
(g57
g58
NtRp384
(dp385
g61
(dp386
g69
I3
ssg70
g380
sg63
(lp387
S''
asbasbasbag56
(g72
g58
NtRp388
(dp389
g61
(dp390
sg70
g258
sg63
(lp391
g56
(g77
g58
NtRp392
(dp393
g61
(dp394
g81
g82
ssg70
g388
sg63
(lp395
S'secure'
p396
asbag56
(g77
g58
NtRp397
(dp398
g61
(dp399
g88
g89
ssg70
g388
sg63
(lp400
S':'
asbag56
(g77
g58
NtRp401
(dp402
g61
(dp403
sg70
g388
sg63
(lp404
g56
(g57
g58
NtRp405
(dp406
g61
(dp407
g69
I3
ssg70
g401
sg63
(lp408
S''
asbasbasbag56
(g72
g58
NtRp409
(dp410
g61
(dp411
sg70
g258
sg63
(lp412
g56
(g77
g58
NtRp413
(dp414
g61
(dp415
g81
g82
ssg70
g409
sg63
(lp416
S'version'
p417
asbag56
(g77
g58
NtRp418
(dp419
g61
(dp420
g88
g89
ssg70
g409
sg63
(lp421
S':'
asbag56
(g77
g58
NtRp422
(dp423
g61
(dp424
sg70
g409
sg63
(lp425
g56
(g57
g58
NtRp426
(dp427
g61
(dp428
g69
I3
ssg70
g422
sg63
(lp429
S''
asbasbasbasbasbasbasbag56
(g72
g58
NtRp430
(dp431
g61
(dp432
sg70
g233
sg63
(lp433
g56
(g77
g58
NtRp434
(dp435
g61
(dp436
g81
g82
ssg70
g430
sg63
(lp437
S'session_id_jornadasdemo'
p438
asbag56
(g77
g58
NtRp439
(dp440
g61
(dp441
g88
g89
ssg70
g430
sg63
(lp442
S':'
asbag56
(g77
g58
NtRp443
(dp444
g61
(dp445
sg70
g430
sg63
(lp446
g56
(g57
g58
NtRp447
(dp448
g61
(dp449
g69
I4
ssg70
g443
sg63
(lp450
g56
(g65
g58
NtRp451
(dp452
g61
(dp453
g69
I3
ssg70
Nsg63
(lp454
g56
(g72
g58
NtRp455
(dp456
g61
(dp457
sg70
g451
sg63
(lp458
g56
(g77
g58
NtRp459
(dp460
g61
(dp461
g81
g82
ssg70
g455
sg63
(lp462
g270
asbag56
(g77
g58
NtRp463
(dp464
g61
(dp465
g88
g89
ssg70
g455
sg63
(lp466
S':'
asbag56
(g77
g58
NtRp467
(dp468
g61
(dp469
sg70
g455
sg63
(lp470
g56
(g57
g58
NtRp471
(dp472
g61
(dp473
g69
I3
ssg70
g467
sg63
(lp474
S''
asbasbasbag56
(g72
g58
NtRp475
(dp476
g61
(dp477
sg70
g451
sg63
(lp478
g56
(g77
g58
NtRp479
(dp480
g61
(dp481
g81
g82
ssg70
g475
sg63
(lp482
g291
asbag56
(g77
g58
NtRp483
(dp484
g61
(dp485
g88
g89
ssg70
g475
sg63
(lp486
S':'
asbag56
(g77
g58
NtRp487
(dp488
g61
(dp489
sg70
g475
sg63
(lp490
g56
(g57
g58
NtRp491
(dp492
g61
(dp493
g69
I3
ssg70
g487
sg63
(lp494
S''
asbasbasbag56
(g72
g58
NtRp495
(dp496
g61
(dp497
sg70
g451
sg63
(lp498
g56
(g77
g58
NtRp499
(dp500
g61
(dp501
g81
g82
ssg70
g495
sg63
(lp502
g312
asbag56
(g77
g58
NtRp503
(dp504
g61
(dp505
g88
g89
ssg70
g495
sg63
(lp506
S':'
asbag56
(g77
g58
NtRp507
(dp508
g61
(dp509
sg70
g495
sg63
(lp510
g56
(g57
g58
NtRp511
(dp512
g61
(dp513
g69
I3
ssg70
g507
sg63
(lp514
S''
asbasbasbag56
(g72
g58
NtRp515
(dp516
g61
(dp517
sg70
g451
sg63
(lp518
g56
(g77
g58
NtRp519
(dp520
g61
(dp521
g81
g82
ssg70
g515
sg63
(lp522
g333
asbag56
(g77
g58
NtRp523
(dp524
g61
(dp525
g88
g89
ssg70
g515
sg63
(lp526
S':'
asbag56
(g77
g58
NtRp527
(dp528
g61
(dp529
sg70
g515
sg63
(lp530
g56
(g57
g58
NtRp531
(dp532
g61
(dp533
g69
I3
ssg70
g527
sg63
(lp534
S''
asbasbasbag56
(g72
g58
NtRp535
(dp536
g61
(dp537
sg70
g451
sg63
(lp538
g56
(g77
g58
NtRp539
(dp540
g61
(dp541
g81
g82
ssg70
g535
sg63
(lp542
g354
asbag56
(g77
g58
NtRp543
(dp544
g61
(dp545
g88
g89
ssg70
g535
sg63
(lp546
S':'
asbag56
(g77
g58
NtRp547
(dp548
g61
(dp549
sg70
g535
sg63
(lp550
g56
(g57
g58
NtRp551
(dp552
g61
(dp553
g69
I3
ssg70
g547
sg63
(lp554
S''
asbasbasbag56
(g72
g58
NtRp555
(dp556
g61
(dp557
sg70
g451
sg63
(lp558
g56
(g77
g58
NtRp559
(dp560
g61
(dp561
g81
g82
ssg70
g555
sg63
(lp562
g375
asbag56
(g77
g58
NtRp563
(dp564
g61
(dp565
g88
g89
ssg70
g555
sg63
(lp566
S':'
asbag56
(g77
g58
NtRp567
(dp568
g61
(dp569
sg70
g555
sg63
(lp570
g56
(g57
g58
NtRp571
(dp572
g61
(dp573
g69
I3
ssg70
g567
sg63
(lp574
S''
asbasbasbag56
(g72
g58
NtRp575
(dp576
g61
(dp577
sg70
g451
sg63
(lp578
g56
(g77
g58
NtRp579
(dp580
g61
(dp581
g81
g82
ssg70
g575
sg63
(lp582
g396
asbag56
(g77
g58
NtRp583
(dp584
g61
(dp585
g88
g89
ssg70
g575
sg63
(lp586
S':'
asbag56
(g77
g58
NtRp587
(dp588
g61
(dp589
sg70
g575
sg63
(lp590
g56
(g57
g58
NtRp591
(dp592
g61
(dp593
g69
I3
ssg70
g587
sg63
(lp594
S''
asbasbasbag56
(g72
g58
NtRp595
(dp596
g61
(dp597
sg70
g451
sg63
(lp598
g56
(g77
g58
NtRp599
(dp600
g61
(dp601
g81
g82
ssg70
g595
sg63
(lp602
g417
asbag56
(g77
g58
NtRp603
(dp604
g61
(dp605
g88
g89
ssg70
g595
sg63
(lp606
S':'
asbag56
(g77
g58
NtRp607
(dp608
g61
(dp609
sg70
g595
sg63
(lp610
g56
(g57
g58
NtRp611
(dp612
g61
(dp613
g69
I3
ssg70
g607
sg63
(lp614
S''
asbasbasbasbasbasbasbag56
(g72
g58
NtRp615
(dp616
g61
(dp617
sg70
g233
sg63
(lp618
g56
(g77
g58
NtRp619
(dp620
g61
(dp621
g81
g82
ssg70
g615
sg63
(lp622
S'session_id_moviestore'
p623
asbag56
(g77
g58
NtRp624
(dp625
g61
(dp626
g88
g89
ssg70
g615
sg63
(lp627
S':'
asbag56
(g77
g58
NtRp628
(dp629
g61
(dp630
sg70
g615
sg63
(lp631
g56
(g57
g58
NtRp632
(dp633
g61
(dp634
g69
I4
ssg70
g628
sg63
(lp635
g56
(g65
g58
NtRp636
(dp637
g61
(dp638
g69
I3
ssg70
Nsg63
(lp639
g56
(g72
g58
NtRp640
(dp641
g61
(dp642
sg70
g636
sg63
(lp643
g56
(g77
g58
NtRp644
(dp645
g61
(dp646
g81
g82
ssg70
g640
sg63
(lp647
g270
asbag56
(g77
g58
NtRp648
(dp649
g61
(dp650
g88
g89
ssg70
g640
sg63
(lp651
S':'
asbag56
(g77
g58
NtRp652
(dp653
g61
(dp654
sg70
g640
sg63
(lp655
g56
(g57
g58
NtRp656
(dp657
g61
(dp658
g69
I3
ssg70
g652
sg63
(lp659
S''
asbasbasbag56
(g72
g58
NtRp660
(dp661
g61
(dp662
sg70
g636
sg63
(lp663
g56
(g77
g58
NtRp664
(dp665
g61
(dp666
g81
g82
ssg70
g660
sg63
(lp667
g291
asbag56
(g77
g58
NtRp668
(dp669
g61
(dp670
g88
g89
ssg70
g660
sg63
(lp671
S':'
asbag56
(g77
g58
NtRp672
(dp673
g61
(dp674
sg70
g660
sg63
(lp675
g56
(g57
g58
NtRp676
(dp677
g61
(dp678
g69
I3
ssg70
g672
sg63
(lp679
S''
asbasbasbag56
(g72
g58
NtRp680
(dp681
g61
(dp682
sg70
g636
sg63
(lp683
g56
(g77
g58
NtRp684
(dp685
g61
(dp686
g81
g82
ssg70
g680
sg63
(lp687
g312
asbag56
(g77
g58
NtRp688
(dp689
g61
(dp690
g88
g89
ssg70
g680
sg63
(lp691
S':'
asbag56
(g77
g58
NtRp692
(dp693
g61
(dp694
sg70
g680
sg63
(lp695
g56
(g57
g58
NtRp696
(dp697
g61
(dp698
g69
I3
ssg70
g692
sg63
(lp699
S''
asbasbasbag56
(g72
g58
NtRp700
(dp701
g61
(dp702
sg70
g636
sg63
(lp703
g56
(g77
g58
NtRp704
(dp705
g61
(dp706
g81
g82
ssg70
g700
sg63
(lp707
g333
asbag56
(g77
g58
NtRp708
(dp709
g61
(dp710
g88
g89
ssg70
g700
sg63
(lp711
S':'
asbag56
(g77
g58
NtRp712
(dp713
g61
(dp714
sg70
g700
sg63
(lp715
g56
(g57
g58
NtRp716
(dp717
g61
(dp718
g69
I3
ssg70
g712
sg63
(lp719
S''
asbasbasbag56
(g72
g58
NtRp720
(dp721
g61
(dp722
sg70
g636
sg63
(lp723
g56
(g77
g58
NtRp724
(dp725
g61
(dp726
g81
g82
ssg70
g720
sg63
(lp727
g354
asbag56
(g77
g58
NtRp728
(dp729
g61
(dp730
g88
g89
ssg70
g720
sg63
(lp731
S':'
asbag56
(g77
g58
NtRp732
(dp733
g61
(dp734
sg70
g720
sg63
(lp735
g56
(g57
g58
NtRp736
(dp737
g61
(dp738
g69
I3
ssg70
g732
sg63
(lp739
S''
asbasbasbag56
(g72
g58
NtRp740
(dp741
g61
(dp742
sg70
g636
sg63
(lp743
g56
(g77
g58
NtRp744
(dp745
g61
(dp746
g81
g82
ssg70
g740
sg63
(lp747
g375
asbag56
(g77
g58
NtRp748
(dp749
g61
(dp750
g88
g89
ssg70
g740
sg63
(lp751
S':'
asbag56
(g77
g58
NtRp752
(dp753
g61
(dp754
sg70
g740
sg63
(lp755
g56
(g57
g58
NtRp756
(dp757
g61
(dp758
g69
I3
ssg70
g752
sg63
(lp759
S''
asbasbasbag56
(g72
g58
NtRp760
(dp761
g61
(dp762
sg70
g636
sg63
(lp763
g56
(g77
g58
NtRp764
(dp765
g61
(dp766
g81
g82
ssg70
g760
sg63
(lp767
g396
asbag56
(g77
g58
NtRp768
(dp769
g61
(dp770
g88
g89
ssg70
g760
sg63
(lp771
S':'
asbag56
(g77
g58
NtRp772
(dp773
g61
(dp774
sg70
g760
sg63
(lp775
g56
(g57
g58
NtRp776
(dp777
g61
(dp778
g69
I3
ssg70
g772
sg63
(lp779
S''
asbasbasbag56
(g72
g58
NtRp780
(dp781
g61
(dp782
sg70
g636
sg63
(lp783
g56
(g77
g58
NtRp784
(dp785
g61
(dp786
g81
g82
ssg70
g780
sg63
(lp787
g417
asbag56
(g77
g58
NtRp788
(dp789
g61
(dp790
g88
g89
ssg70
g780
sg63
(lp791
S':'
asbag56
(g77
g58
NtRp792
(dp793
g61
(dp794
sg70
g780
sg63
(lp795
g56
(g57
g58
NtRp796
(dp797
g61
(dp798
g69
I3
ssg70
g792
sg63
(lp799
S''
asbasbasbasbasbasbasbag56
(g72
g58
NtRp800
(dp801
g61
(dp802
sg70
g233
sg63
(lp803
g56
(g77
g58
NtRp804
(dp805
g61
(dp806
g81
g82
ssg70
g800
sg63
(lp807
S'session_id_mvstore'
p808
asbag56
(g77
g58
NtRp809
(dp810
g61
(dp811
g88
g89
ssg70
g800
sg63
(lp812
S':'
asbag56
(g77
g58
NtRp813
(dp814
g61
(dp815
sg70
g800
sg63
(lp816
g56
(g57
g58
NtRp817
(dp818
g61
(dp819
g69
I4
ssg70
g813
sg63
(lp820
g56
(g65
g58
NtRp821
(dp822
g61
(dp823
g69
I3
ssg70
Nsg63
(lp824
g56
(g72
g58
NtRp825
(dp826
g61
(dp827
sg70
g821
sg63
(lp828
g56
(g77
g58
NtRp829
(dp830
g61
(dp831
g81
g82
ssg70
g825
sg63
(lp832
g270
asbag56
(g77
g58
NtRp833
(dp834
g61
(dp835
g88
g89
ssg70
g825
sg63
(lp836
S':'
asbag56
(g77
g58
NtRp837
(dp838
g61
(dp839
sg70
g825
sg63
(lp840
g56
(g57
g58
NtRp841
(dp842
g61
(dp843
g69
I3
ssg70
g837
sg63
(lp844
S''
asbasbasbag56
(g72
g58
NtRp845
(dp846
g61
(dp847
sg70
g821
sg63
(lp848
g56
(g77
g58
NtRp849
(dp850
g61
(dp851
g81
g82
ssg70
g845
sg63
(lp852
g291
asbag56
(g77
g58
NtRp853
(dp854
g61
(dp855
g88
g89
ssg70
g845
sg63
(lp856
S':'
asbag56
(g77
g58
NtRp857
(dp858
g61
(dp859
sg70
g845
sg63
(lp860
g56
(g57
g58
NtRp861
(dp862
g61
(dp863
g69
I3
ssg70
g857
sg63
(lp864
S''
asbasbasbag56
(g72
g58
NtRp865
(dp866
g61
(dp867
sg70
g821
sg63
(lp868
g56
(g77
g58
NtRp869
(dp870
g61
(dp871
g81
g82
ssg70
g865
sg63
(lp872
g312
asbag56
(g77
g58
NtRp873
(dp874
g61
(dp875
g88
g89
ssg70
g865
sg63
(lp876
S':'
asbag56
(g77
g58
NtRp877
(dp878
g61
(dp879
sg70
g865
sg63
(lp880
g56
(g57
g58
NtRp881
(dp882
g61
(dp883
g69
I3
ssg70
g877
sg63
(lp884
S''
asbasbasbag56
(g72
g58
NtRp885
(dp886
g61
(dp887
sg70
g821
sg63
(lp888
g56
(g77
g58
NtRp889
(dp890
g61
(dp891
g81
g82
ssg70
g885
sg63
(lp892
g333
asbag56
(g77
g58
NtRp893
(dp894
g61
(dp895
g88
g89
ssg70
g885
sg63
(lp896
S':'
asbag56
(g77
g58
NtRp897
(dp898
g61
(dp899
sg70
g885
sg63
(lp900
g56
(g57
g58
NtRp901
(dp902
g61
(dp903
g69
I3
ssg70
g897
sg63
(lp904
S''
asbasbasbag56
(g72
g58
NtRp905
(dp906
g61
(dp907
sg70
g821
sg63
(lp908
g56
(g77
g58
NtRp909
(dp910
g61
(dp911
g81
g82
ssg70
g905
sg63
(lp912
g354
asbag56
(g77
g58
NtRp913
(dp914
g61
(dp915
g88
g89
ssg70
g905
sg63
(lp916
S':'
asbag56
(g77
g58
NtRp917
(dp918
g61
(dp919
sg70
g905
sg63
(lp920
g56
(g57
g58
NtRp921
(dp922
g61
(dp923
g69
I3
ssg70
g917
sg63
(lp924
S''
asbasbasbag56
(g72
g58
NtRp925
(dp926
g61
(dp927
sg70
g821
sg63
(lp928
g56
(g77
g58
NtRp929
(dp930
g61
(dp931
g81
g82
ssg70
g925
sg63
(lp932
g375
asbag56
(g77
g58
NtRp933
(dp934
g61
(dp935
g88
g89
ssg70
g925
sg63
(lp936
S':'
asbag56
(g77
g58
NtRp937
(dp938
g61
(dp939
sg70
g925
sg63
(lp940
g56
(g57
g58
NtRp941
(dp942
g61
(dp943
g69
I3
ssg70
g937
sg63
(lp944
S''
asbasbasbag56
(g72
g58
NtRp945
(dp946
g61
(dp947
sg70
g821
sg63
(lp948
g56
(g77
g58
NtRp949
(dp950
g61
(dp951
g81
g82
ssg70
g945
sg63
(lp952
g396
asbag56
(g77
g58
NtRp953
(dp954
g61
(dp955
g88
g89
ssg70
g945
sg63
(lp956
S':'
asbag56
(g77
g58
NtRp957
(dp958
g61
(dp959
sg70
g945
sg63
(lp960
g56
(g57
g58
NtRp961
(dp962
g61
(dp963
g69
I3
ssg70
g957
sg63
(lp964
S''
asbasbasbag56
(g72
g58
NtRp965
(dp966
g61
(dp967
sg70
g821
sg63
(lp968
g56
(g77
g58
NtRp969
(dp970
g61
(dp971
g81
g82
ssg70
g965
sg63
(lp972
g417
asbag56
(g77
g58
NtRp973
(dp974
g61
(dp975
g88
g89
ssg70
g965
sg63
(lp976
S':'
asbag56
(g77
g58
NtRp977
(dp978
g61
(dp979
sg70
g965
sg63
(lp980
g56
(g57
g58
NtRp981
(dp982
g61
(dp983
g69
I3
ssg70
g977
sg63
(lp984
S''
asbasbasbasbasbasbasbag56
(g72
g58
NtRp985
(dp986
g61
(dp987
sg70
g233
sg63
(lp988
g56
(g77
g58
NtRp989
(dp990
g61
(dp991
g81
g82
ssg70
g985
sg63
(lp992
S'session_id_napp'
p993
asbag56
(g77
g58
NtRp994
(dp995
g61
(dp996
g88
g89
ssg70
g985
sg63
(lp997
S':'
asbag56
(g77
g58
NtRp998
(dp999
g61
(dp1000
sg70
g985
sg63
(lp1001
g56
(g57
g58
NtRp1002
(dp1003
g61
(dp1004
g69
I4
ssg70
g998
sg63
(lp1005
g56
(g65
g58
NtRp1006
(dp1007
g61
(dp1008
g69
I3
ssg70
Nsg63
(lp1009
g56
(g72
g58
NtRp1010
(dp1011
g61
(dp1012
sg70
g1006
sg63
(lp1013
g56
(g77
g58
NtRp1014
(dp1015
g61
(dp1016
g81
g82
ssg70
g1010
sg63
(lp1017
g270
asbag56
(g77
g58
NtRp1018
(dp1019
g61
(dp1020
g88
g89
ssg70
g1010
sg63
(lp1021
S':'
asbag56
(g77
g58
NtRp1022
(dp1023
g61
(dp1024
sg70
g1010
sg63
(lp1025
g56
(g57
g58
NtRp1026
(dp1027
g61
(dp1028
g69
I3
ssg70
g1022
sg63
(lp1029
S''
asbasbasbag56
(g72
g58
NtRp1030
(dp1031
g61
(dp1032
sg70
g1006
sg63
(lp1033
g56
(g77
g58
NtRp1034
(dp1035
g61
(dp1036
g81
g82
ssg70
g1030
sg63
(lp1037
g291
asbag56
(g77
g58
NtRp1038
(dp1039
g61
(dp1040
g88
g89
ssg70
g1030
sg63
(lp1041
S':'
asbag56
(g77
g58
NtRp1042
(dp1043
g61
(dp1044
sg70
g1030
sg63
(lp1045
g56
(g57
g58
NtRp1046
(dp1047
g61
(dp1048
g69
I3
ssg70
g1042
sg63
(lp1049
S''
asbasbasbag56
(g72
g58
NtRp1050
(dp1051
g61
(dp1052
sg70
g1006
sg63
(lp1053
g56
(g77
g58
NtRp1054
(dp1055
g61
(dp1056
g81
g82
ssg70
g1050
sg63
(lp1057
g312
asbag56
(g77
g58
NtRp1058
(dp1059
g61
(dp1060
g88
g89
ssg70
g1050
sg63
(lp1061
S':'
asbag56
(g77
g58
NtRp1062
(dp1063
g61
(dp1064
sg70
g1050
sg63
(lp1065
g56
(g57
g58
NtRp1066
(dp1067
g61
(dp1068
g69
I3
ssg70
g1062
sg63
(lp1069
S''
asbasbasbag56
(g72
g58
NtRp1070
(dp1071
g61
(dp1072
sg70
g1006
sg63
(lp1073
g56
(g77
g58
NtRp1074
(dp1075
g61
(dp1076
g81
g82
ssg70
g1070
sg63
(lp1077
g333
asbag56
(g77
g58
NtRp1078
(dp1079
g61
(dp1080
g88
g89
ssg70
g1070
sg63
(lp1081
S':'
asbag56
(g77
g58
NtRp1082
(dp1083
g61
(dp1084
sg70
g1070
sg63
(lp1085
g56
(g57
g58
NtRp1086
(dp1087
g61
(dp1088
g69
I3
ssg70
g1082
sg63
(lp1089
S''
asbasbasbag56
(g72
g58
NtRp1090
(dp1091
g61
(dp1092
sg70
g1006
sg63
(lp1093
g56
(g77
g58
NtRp1094
(dp1095
g61
(dp1096
g81
g82
ssg70
g1090
sg63
(lp1097
g354
asbag56
(g77
g58
NtRp1098
(dp1099
g61
(dp1100
g88
g89
ssg70
g1090
sg63
(lp1101
S':'
asbag56
(g77
g58
NtRp1102
(dp1103
g61
(dp1104
sg70
g1090
sg63
(lp1105
g56
(g57
g58
NtRp1106
(dp1107
g61
(dp1108
g69
I3
ssg70
g1102
sg63
(lp1109
S''
asbasbasbag56
(g72
g58
NtRp1110
(dp1111
g61
(dp1112
sg70
g1006
sg63
(lp1113
g56
(g77
g58
NtRp1114
(dp1115
g61
(dp1116
g81
g82
ssg70
g1110
sg63
(lp1117
g375
asbag56
(g77
g58
NtRp1118
(dp1119
g61
(dp1120
g88
g89
ssg70
g1110
sg63
(lp1121
S':'
asbag56
(g77
g58
NtRp1122
(dp1123
g61
(dp1124
sg70
g1110
sg63
(lp1125
g56
(g57
g58
NtRp1126
(dp1127
g61
(dp1128
g69
I3
ssg70
g1122
sg63
(lp1129
S''
asbasbasbag56
(g72
g58
NtRp1130
(dp1131
g61
(dp1132
sg70
g1006
sg63
(lp1133
g56
(g77
g58
NtRp1134
(dp1135
g61
(dp1136
g81
g82
ssg70
g1130
sg63
(lp1137
g396
asbag56
(g77
g58
NtRp1138
(dp1139
g61
(dp1140
g88
g89
ssg70
g1130
sg63
(lp1141
S':'
asbag56
(g77
g58
NtRp1142
(dp1143
g61
(dp1144
sg70
g1130
sg63
(lp1145
g56
(g57
g58
NtRp1146
(dp1147
g61
(dp1148
g69
I3
ssg70
g1142
sg63
(lp1149
S''
asbasbasbag56
(g72
g58
NtRp1150
(dp1151
g61
(dp1152
sg70
g1006
sg63
(lp1153
g56
(g77
g58
NtRp1154
(dp1155
g61
(dp1156
g81
g82
ssg70
g1150
sg63
(lp1157
g417
asbag56
(g77
g58
NtRp1158
(dp1159
g61
(dp1160
g88
g89
ssg70
g1150
sg63
(lp1161
S':'
asbag56
(g77
g58
NtRp1162
(dp1163
g61
(dp1164
sg70
g1150
sg63
(lp1165
g56
(g57
g58
NtRp1166
(dp1167
g61
(dp1168
g69
I3
ssg70
g1162
sg63
(lp1169
S''
asbasbasbasbasbasbasbag56
(g72
g58
NtRp1170
(dp1171
g61
(dp1172
sg70
g233
sg63
(lp1173
g56
(g77
g58
NtRp1174
(dp1175
g61
(dp1176
g81
g82
ssg70
g1170
sg63
(lp1177
S'session_id_welcome'
p1178
asbag56
(g77
g58
NtRp1179
(dp1180
g61
(dp1181
g88
g89
ssg70
g1170
sg63
(lp1182
S':'
asbag56
(g77
g58
NtRp1183
(dp1184
g61
(dp1185
sg70
g1170
sg63
(lp1186
g56
(g57
g58
NtRp1187
(dp1188
g61
(dp1189
g69
I4
ssg70
g1183
sg63
(lp1190
g56
(g65
g58
NtRp1191
(dp1192
g61
(dp1193
g69
I3
ssg70
Nsg63
(lp1194
g56
(g72
g58
NtRp1195
(dp1196
g61
(dp1197
sg70
g1191
sg63
(lp1198
g56
(g77
g58
NtRp1199
(dp1200
g61
(dp1201
g81
g82
ssg70
g1195
sg63
(lp1202
g270
asbag56
(g77
g58
NtRp1203
(dp1204
g61
(dp1205
g88
g89
ssg70
g1195
sg63
(lp1206
S':'
asbag56
(g77
g58
NtRp1207
(dp1208
g61
(dp1209
sg70
g1195
sg63
(lp1210
g56
(g57
g58
NtRp1211
(dp1212
g61
(dp1213
g69
I3
ssg70
g1207
sg63
(lp1214
S''
asbasbasbag56
(g72
g58
NtRp1215
(dp1216
g61
(dp1217
sg70
g1191
sg63
(lp1218
g56
(g77
g58
NtRp1219
(dp1220
g61
(dp1221
g81
g82
ssg70
g1215
sg63
(lp1222
g291
asbag56
(g77
g58
NtRp1223
(dp1224
g61
(dp1225
g88
g89
ssg70
g1215
sg63
(lp1226
S':'
asbag56
(g77
g58
NtRp1227
(dp1228
g61
(dp1229
sg70
g1215
sg63
(lp1230
g56
(g57
g58
NtRp1231
(dp1232
g61
(dp1233
g69
I3
ssg70
g1227
sg63
(lp1234
S''
asbasbasbag56
(g72
g58
NtRp1235
(dp1236
g61
(dp1237
sg70
g1191
sg63
(lp1238
g56
(g77
g58
NtRp1239
(dp1240
g61
(dp1241
g81
g82
ssg70
g1235
sg63
(lp1242
g312
asbag56
(g77
g58
NtRp1243
(dp1244
g61
(dp1245
g88
g89
ssg70
g1235
sg63
(lp1246
S':'
asbag56
(g77
g58
NtRp1247
(dp1248
g61
(dp1249
sg70
g1235
sg63
(lp1250
g56
(g57
g58
NtRp1251
(dp1252
g61
(dp1253
g69
I3
ssg70
g1247
sg63
(lp1254
S''
asbasbasbag56
(g72
g58
NtRp1255
(dp1256
g61
(dp1257
sg70
g1191
sg63
(lp1258
g56
(g77
g58
NtRp1259
(dp1260
g61
(dp1261
g81
g82
ssg70
g1255
sg63
(lp1262
g333
asbag56
(g77
g58
NtRp1263
(dp1264
g61
(dp1265
g88
g89
ssg70
g1255
sg63
(lp1266
S':'
asbag56
(g77
g58
NtRp1267
(dp1268
g61
(dp1269
sg70
g1255
sg63
(lp1270
g56
(g57
g58
NtRp1271
(dp1272
g61
(dp1273
g69
I3
ssg70
g1267
sg63
(lp1274
S''
asbasbasbag56
(g72
g58
NtRp1275
(dp1276
g61
(dp1277
sg70
g1191
sg63
(lp1278
g56
(g77
g58
NtRp1279
(dp1280
g61
(dp1281
g81
g82
ssg70
g1275
sg63
(lp1282
g354
asbag56
(g77
g58
NtRp1283
(dp1284
g61
(dp1285
g88
g89
ssg70
g1275
sg63
(lp1286
S':'
asbag56
(g77
g58
NtRp1287
(dp1288
g61
(dp1289
sg70
g1275
sg63
(lp1290
g56
(g57
g58
NtRp1291
(dp1292
g61
(dp1293
g69
I3
ssg70
g1287
sg63
(lp1294
S''
asbasbasbag56
(g72
g58
NtRp1295
(dp1296
g61
(dp1297
sg70
g1191
sg63
(lp1298
g56
(g77
g58
NtRp1299
(dp1300
g61
(dp1301
g81
g82
ssg70
g1295
sg63
(lp1302
g375
asbag56
(g77
g58
NtRp1303
(dp1304
g61
(dp1305
g88
g89
ssg70
g1295
sg63
(lp1306
S':'
asbag56
(g77
g58
NtRp1307
(dp1308
g61
(dp1309
sg70
g1295
sg63
(lp1310
g56
(g57
g58
NtRp1311
(dp1312
g61
(dp1313
g69
I3
ssg70
g1307
sg63
(lp1314
S''
asbasbasbag56
(g72
g58
NtRp1315
(dp1316
g61
(dp1317
sg70
g1191
sg63
(lp1318
g56
(g77
g58
NtRp1319
(dp1320
g61
(dp1321
g81
g82
ssg70
g1315
sg63
(lp1322
g396
asbag56
(g77
g58
NtRp1323
(dp1324
g61
(dp1325
g88
g89
ssg70
g1315
sg63
(lp1326
S':'
asbag56
(g77
g58
NtRp1327
(dp1328
g61
(dp1329
sg70
g1315
sg63
(lp1330
g56
(g57
g58
NtRp1331
(dp1332
g61
(dp1333
g69
I3
ssg70
g1327
sg63
(lp1334
S''
asbasbasbag56
(g72
g58
NtRp1335
(dp1336
g61
(dp1337
sg70
g1191
sg63
(lp1338
g56
(g77
g58
NtRp1339
(dp1340
g61
(dp1341
g81
g82
ssg70
g1335
sg63
(lp1342
g417
asbag56
(g77
g58
NtRp1343
(dp1344
g61
(dp1345
g88
g89
ssg70
g1335
sg63
(lp1346
S':'
asbag56
(g77
g58
NtRp1347
(dp1348
g61
(dp1349
sg70
g1335
sg63
(lp1350
g56
(g57
g58
NtRp1351
(dp1352
g61
(dp1353
g69
I3
ssg70
g1347
sg63
(lp1354
S''
asbasbasbasbasbasbasbasbasbasbasbag56
(g72
g58
NtRp1355
(dp1356
g61
(dp1357
sg70
g66
sg63
(lp1358
g56
(g77
g58
NtRp1359
(dp1360
g61
(dp1361
g81
g82
ssg70
g1355
sg63
(lp1362
S'env'
p1363
asbag56
(g77
g58
NtRp1364
(dp1365
g61
(dp1366
g88
g89
ssg70
g1355
sg63
(lp1367
S':'
asbag56
(g77
g58
NtRp1368
(dp1369
g61
(dp1370
sg70
g1355
sg63
(lp1371
g56
(g57
g58
NtRp1372
(dp1373
g61
(dp1374
g69
I5
ssg70
g1368
sg63
(lp1375
g56
(g65
g58
NtRp1376
(dp1377
g61
(dp1378
g69
I4
ssg70
Nsg63
(lp1379
g56
(g72
g58
NtRp1380
(dp1381
g61
(dp1382
sg70
g1376
sg63
(lp1383
g56
(g77
g58
NtRp1384
(dp1385
g61
(dp1386
g81
g82
ssg70
g1380
sg63
(lp1387
S'app_folders'
p1388
asbag56
(g77
g58
NtRp1389
(dp1390
g61
(dp1391
g88
g89
ssg70
g1380
sg63
(lp1392
S':'
asbag56
(g77
g58
NtRp1393
(dp1394
g61
(dp1395
sg70
g1380
sg63
(lp1396
g56
(g57
g58
NtRp1397
(dp1398
g61
(dp1399
g69
I4
ssg70
g1393
sg63
(lp1400
S"set(['/home/marco/proyectos/web2py-trunk/applications/mvstore/', '/home/marco/proyectos/web2py-trunk/applications/admin/', '/home/marco/proyectos/web2py-trunk/applications/jornadasdemo/', '/home/marco/proyectos/web2py-trunk/applications/welcome/', '/home/marco/proyectos/web2py-trunk/applications/napp/', '/home/marco/proyectos/web2py-trunk/applications/conf2py/', '/home/marco/proyectos/web2py-trunk/applications/moviestore/'])"
p1401
asbasbasbag56
(g72
g58
NtRp1402
(dp1403
g61
(dp1404
sg70
g1376
sg63
(lp1405
g56
(g77
g58
NtRp1406
(dp1407
g61
(dp1408
g81
g82
ssg70
g1402
sg63
(lp1409
S'applications_parent'
p1410
asbag56
(g77
g58
NtRp1411
(dp1412
g61
(dp1413
g88
g89
ssg70
g1402
sg63
(lp1414
S':'
asbag56
(g77
g58
NtRp1415
(dp1416
g61
(dp1417
sg70
g1402
sg63
(lp1418
g56
(g57
g58
NtRp1419
(dp1420
g61
(dp1421
g69
I4
ssg70
g1415
sg63
(lp1422
S'/home/marco/proyectos/web2py-trunk'
p1423
asbasbasbag56
(g72
g58
NtRp1424
(dp1425
g61
(dp1426
sg70
g1376
sg63
(lp1427
g56
(g77
g58
NtRp1428
(dp1429
g61
(dp1430
g81
g82
ssg70
g1424
sg63
(lp1431
S'cmd_args'
p1432
asbag56
(g77
g58
NtRp1433
(dp1434
g61
(dp1435
g88
g89
ssg70
g1424
sg63
(lp1436
S':'
asbag56
(g77
g58
NtRp1437
(dp1438
g61
(dp1439
sg70
g1424
sg63
(lp1440
g56
(g57
g58
NtRp1441
(dp1442
g61
(dp1443
g69
I4
ssg70
g1437
sg63
(lp1444
g56
(g65
g58
NtRp1445
(dp1446
g61
(dp1447
g69
I3
ssg70
Nsg63
(lp1448
sbasbasbasbag56
(g72
g58
NtRp1449
(dp1450
g61
(dp1451
sg70
g1376
sg63
(lp1452
g56
(g77
g58
NtRp1453
(dp1454
g61
(dp1455
g81
g82
ssg70
g1449
sg63
(lp1456
S'cmd_options'
p1457
asbag56
(g77
g58
NtRp1458
(dp1459
g61
(dp1460
g88
g89
ssg70
g1449
sg63
(lp1461
S':'
asbag56
(g77
g58
NtRp1462
(dp1463
g61
(dp1464
sg70
g1449
sg63
(lp1465
g56
(g57
g58
NtRp1466
(dp1467
g61
(dp1468
g69
I4
ssg70
g1462
sg63
(lp1469
S"<Values at 0x1ffcb90: {'verbose': False, 'ip': '127.0.0.1', 'shutdown_timeout': 5, 'taskbar': False, 'port': 8000, 'maxthreads': None, 'softcron': False, 'server_name': 'kiki', 'bpython': False, 'nogui': False, 'nocron': False, 'extcron': False, 'debuglevel': 30, 'test': None, 'folder': '/home/marco/proyectos/web2py-trunk', 'config': '', 'import_models': False, 'winservice': '', 'shell': None, 'run': '', 'log_filename': 'httpserver.log', 'args': [''], 'profiler_filename': None, 'ssl_private_key': '', 'password': '<ask>', 'request_queue_size': 5, 'ssl_certificate': '', 'cronjob': False, 'plain': False, 'quiet': False, 'interfaces': None, 'minthreads': None, 'timeout': 10, 'numthreads': None, 'nobanner': False, 'pid_filename': 'httpserver.pid'}>"
p1470
asbasbasbag56
(g72
g58
NtRp1471
(dp1472
g61
(dp1473
sg70
g1376
sg63
(lp1474
g56
(g77
g58
NtRp1475
(dp1476
g61
(dp1477
g81
g82
ssg70
g1471
sg63
(lp1478
S'db_sessions'
p1479
asbag56
(g77
g58
NtRp1480
(dp1481
g61
(dp1482
g88
g89
ssg70
g1471
sg63
(lp1483
S':'
asbag56
(g77
g58
NtRp1484
(dp1485
g61
(dp1486
sg70
g1471
sg63
(lp1487
g56
(g57
g58
NtRp1488
(dp1489
g61
(dp1490
g69
I4
ssg70
g1484
sg63
(lp1491
S'set([])'
p1492
asbasbasbag56
(g72
g58
NtRp1493
(dp1494
g61
(dp1495
sg70
g1376
sg63
(lp1496
g56
(g77
g58
NtRp1497
(dp1498
g61
(dp1499
g81
g82
ssg70
g1493
sg63
(lp1500
S'debugging'
p1501
asbag56
(g77
g58
NtRp1502
(dp1503
g61
(dp1504
g88
g89
ssg70
g1493
sg63
(lp1505
S':'
asbag56
(g77
g58
NtRp1506
(dp1507
g61
(dp1508
sg70
g1493
sg63
(lp1509
g56
(g57
g58
NtRp1510
(dp1511
g61
(dp1512
g69
I4
ssg70
g1506
sg63
(lp1513
g99
asbasbasbag56
(g72
g58
NtRp1514
(dp1515
g61
(dp1516
sg70
g1376
sg63
(lp1517
g56
(g77
g58
NtRp1518
(dp1519
g61
(dp1520
g81
g82
ssg70
g1514
sg63
(lp1521
S'gluon_parent'
p1522
asbag56
(g77
g58
NtRp1523
(dp1524
g61
(dp1525
g88
g89
ssg70
g1514
sg63
(lp1526
S':'
asbag56
(g77
g58
NtRp1527
(dp1528
g61
(dp1529
sg70
g1514
sg63
(lp1530
g56
(g57
g58
NtRp1531
(dp1532
g61
(dp1533
g69
I4
ssg70
g1527
sg63
(lp1534
S'/home/marco/proyectos/web2py-trunk'
p1535
asbasbasbag56
(g72
g58
NtRp1536
(dp1537
g61
(dp1538
sg70
g1376
sg63
(lp1539
g56
(g77
g58
NtRp1540
(dp1541
g61
(dp1542
g81
g82
ssg70
g1536
sg63
(lp1543
S'http_accept'
p1544
asbag56
(g77
g58
NtRp1545
(dp1546
g61
(dp1547
g88
g89
ssg70
g1536
sg63
(lp1548
S':'
asbag56
(g77
g58
NtRp1549
(dp1550
g61
(dp1551
sg70
g1536
sg63
(lp1552
g56
(g57
g58
NtRp1553
(dp1554
g61
(dp1555
g69
I4
ssg70
g1549
sg63
(lp1556
S'application/xml,application/xhtml+xml,text/html;q=0.9,text/plain;q=0.8,image/png,*/*;q=0.5'
p1557
asbasbasbag56
(g72
g58
NtRp1558
(dp1559
g61
(dp1560
sg70
g1376
sg63
(lp1561
g56
(g77
g58
NtRp1562
(dp1563
g61
(dp1564
g81
g82
ssg70
g1558
sg63
(lp1565
S'http_accept_charset'
p1566
asbag56
(g77
g58
NtRp1567
(dp1568
g61
(dp1569
g88
g89
ssg70
g1558
sg63
(lp1570
S':'
asbag56
(g77
g58
NtRp1571
(dp1572
g61
(dp1573
sg70
g1558
sg63
(lp1574
g56
(g57
g58
NtRp1575
(dp1576
g61
(dp1577
g69
I4
ssg70
g1571
sg63
(lp1578
S'ISO-8859-1,utf-8;q=0.7,*;q=0.3'
p1579
asbasbasbag56
(g72
g58
NtRp1580
(dp1581
g61
(dp1582
sg70
g1376
sg63
(lp1583
g56
(g77
g58
NtRp1584
(dp1585
g61
(dp1586
g81
g82
ssg70
g1580
sg63
(lp1587
S'http_accept_encoding'
p1588
asbag56
(g77
g58
NtRp1589
(dp1590
g61
(dp1591
g88
g89
ssg70
g1580
sg63
(lp1592
S':'
asbag56
(g77
g58
NtRp1593
(dp1594
g61
(dp1595
sg70
g1580
sg63
(lp1596
g56
(g57
g58
NtRp1597
(dp1598
g61
(dp1599
g69
I4
ssg70
g1593
sg63
(lp1600
S'gzip,deflate,sdch'
p1601
asbasbasbag56
(g72
g58
NtRp1602
(dp1603
g61
(dp1604
sg70
g1376
sg63
(lp1605
g56
(g77
g58
NtRp1606
(dp1607
g61
(dp1608
g81
g82
ssg70
g1602
sg63
(lp1609
S'http_accept_language'
p1610
asbag56
(g77
g58
NtRp1611
(dp1612
g61
(dp1613
g88
g89
ssg70
g1602
sg63
(lp1614
S':'
asbag56
(g77
g58
NtRp1615
(dp1616
g61
(dp1617
sg70
g1602
sg63
(lp1618
g56
(g57
g58
NtRp1619
(dp1620
g61
(dp1621
g69
I4
ssg70
g1615
sg63
(lp1622
S'es-419,es;q=0.8'
p1623
asbasbasbag56
(g72
g58
NtRp1624
(dp1625
g61
(dp1626
sg70
g1376
sg63
(lp1627
g56
(g77
g58
NtRp1628
(dp1629
g61
(dp1630
g81
g82
ssg70
g1624
sg63
(lp1631
S'http_connection'
p1632
asbag56
(g77
g58
NtRp1633
(dp1634
g61
(dp1635
g88
g89
ssg70
g1624
sg63
(lp1636
S':'
asbag56
(g77
g58
NtRp1637
(dp1638
g61
(dp1639
sg70
g1624
sg63
(lp1640
g56
(g57
g58
NtRp1641
(dp1642
g61
(dp1643
g69
I4
ssg70
g1637
sg63
(lp1644
S'keep-alive'
p1645
asbasbasbag56
(g72
g58
NtRp1646
(dp1647
g61
(dp1648
sg70
g1376
sg63
(lp1649
g56
(g77
g58
NtRp1650
(dp1651
g61
(dp1652
g81
g82
ssg70
g1646
sg63
(lp1653
S'http_cookie'
p1654
asbag56
(g77
g58
NtRp1655
(dp1656
g61
(dp1657
g88
g89
ssg70
g1646
sg63
(lp1658
S':'
asbag56
(g77
g58
NtRp1659
(dp1660
g61
(dp1661
sg70
g1646
sg63
(lp1662
g56
(g57
g58
NtRp1663
(dp1664
g61
(dp1665
g69
I4
ssg70
g1659
sg63
(lp1666
S'session_id_welcome=127.0.0.1-42aeeffb-91ad-41cf-a19a-c542b618bc3b; session_id_jornadasdemo=127.0.0.1-c2aedcb7-3cda-4472-95a7-e206025ae0aa; session_id_moviestore=127.0.0.1-b659915f-a893-4edf-9389-3d1d816b6d14; session_id_napp=127.0.0.1-5892b436-4013-46df-be21-176a66b88855; session_id_mvstore=127.0.0.1-0b059b4c-5741-4722-be03-f31fed87a8d7; session_id_admin=127.0.0.1-6d5f70af-c182-4a4b-bb48-a3442921674a'
p1667
asbasbasbag56
(g72
g58
NtRp1668
(dp1669
g61
(dp1670
sg70
g1376
sg63
(lp1671
g56
(g77
g58
NtRp1672
(dp1673
g61
(dp1674
g81
g82
ssg70
g1668
sg63
(lp1675
S'http_host'
p1676
asbag56
(g77
g58
NtRp1677
(dp1678
g61
(dp1679
g88
g89
ssg70
g1668
sg63
(lp1680
S':'
asbag56
(g77
g58
NtRp1681
(dp1682
g61
(dp1683
sg70
g1668
sg63
(lp1684
g56
(g57
g58
NtRp1685
(dp1686
g61
(dp1687
g69
I4
ssg70
g1681
sg63
(lp1688
S'127.0.0.1:8000'
p1689
asbasbasbag56
(g72
g58
NtRp1690
(dp1691
g61
(dp1692
sg70
g1376
sg63
(lp1693
g56
(g77
g58
NtRp1694
(dp1695
g61
(dp1696
g81
g82
ssg70
g1690
sg63
(lp1697
S'http_referer'
p1698
asbag56
(g77
g58
NtRp1699
(dp1700
g61
(dp1701
g88
g89
ssg70
g1690
sg63
(lp1702
S':'
asbag56
(g77
g58
NtRp1703
(dp1704
g61
(dp1705
sg70
g1690
sg63
(lp1706
g56
(g57
g58
NtRp1707
(dp1708
g61
(dp1709
g69
I4
ssg70
g1703
sg63
(lp1710
S'http://127.0.0.1:8000/admin/default/design/mvstore'
p1711
asbasbasbag56
(g72
g58
NtRp1712
(dp1713
g61
(dp1714
sg70
g1376
sg63
(lp1715
g56
(g77
g58
NtRp1716
(dp1717
g61
(dp1718
g81
g82
ssg70
g1712
sg63
(lp1719
S'http_user_agent'
p1720
asbag56
(g77
g58
NtRp1721
(dp1722
g61
(dp1723
g88
g89
ssg70
g1712
sg63
(lp1724
S':'
asbag56
(g77
g58
NtRp1725
(dp1726
g61
(dp1727
sg70
g1712
sg63
(lp1728
g56
(g57
g58
NtRp1729
(dp1730
g61
(dp1731
g69
I4
ssg70
g1725
sg63
(lp1732
S'Mozilla/5.0 (X11; Linux x86_64) AppleWebKit/534.24 (KHTML, like Gecko) Chrome/11.0.696.71 Safari/534.24'
p1733
asbasbasbag56
(g72
g58
NtRp1734
(dp1735
g61
(dp1736
sg70
g1376
sg63
(lp1737
g56
(g77
g58
NtRp1738
(dp1739
g61
(dp1740
g81
g82
ssg70
g1734
sg63
(lp1741
S'path_info'
p1742
asbag56
(g77
g58
NtRp1743
(dp1744
g61
(dp1745
g88
g89
ssg70
g1734
sg63
(lp1746
S':'
asbag56
(g77
g58
NtRp1747
(dp1748
g61
(dp1749
sg70
g1734
sg63
(lp1750
g56
(g57
g58
NtRp1751
(dp1752
g61
(dp1753
g69
I4
ssg70
g1747
sg63
(lp1754
S'/mvstore/default/prestamos'
p1755
asbasbasbag56
(g72
g58
NtRp1756
(dp1757
g61
(dp1758
sg70
g1376
sg63
(lp1759
g56
(g77
g58
NtRp1760
(dp1761
g61
(dp1762
g81
g82
ssg70
g1756
sg63
(lp1763
S'query_string'
p1764
asbag56
(g77
g58
NtRp1765
(dp1766
g61
(dp1767
g88
g89
ssg70
g1756
sg63
(lp1768
S':'
asbag56
(g77
g58
NtRp1769
(dp1770
g61
(dp1771
sg70
g1756
sg63
(lp1772
g56
(g57
g58
NtRp1773
(dp1774
g61
(dp1775
g69
I4
ssg70
g1769
sg63
(lp1776
S''
asbasbasbag56
(g72
g58
NtRp1777
(dp1778
g61
(dp1779
sg70
g1376
sg63
(lp1780
g56
(g77
g58
NtRp1781
(dp1782
g61
(dp1783
g81
g82
ssg70
g1777
sg63
(lp1784
S'remote_addr'
p1785
asbag56
(g77
g58
NtRp1786
(dp1787
g61
(dp1788
g88
g89
ssg70
g1777
sg63
(lp1789
S':'
asbag56
(g77
g58
NtRp1790
(dp1791
g61
(dp1792
sg70
g1777
sg63
(lp1793
g56
(g57
g58
NtRp1794
(dp1795
g61
(dp1796
g69
I4
ssg70
g1790
sg63
(lp1797
g189
asbasbasbag56
(g72
g58
NtRp1798
(dp1799
g61
(dp1800
sg70
g1376
sg63
(lp1801
g56
(g77
g58
NtRp1802
(dp1803
g61
(dp1804
g81
g82
ssg70
g1798
sg63
(lp1805
S'remote_port'
p1806
asbag56
(g77
g58
NtRp1807
(dp1808
g61
(dp1809
g88
g89
ssg70
g1798
sg63
(lp1810
S':'
asbag56
(g77
g58
NtRp1811
(dp1812
g61
(dp1813
sg70
g1798
sg63
(lp1814
g56
(g57
g58
NtRp1815
(dp1816
g61
(dp1817
g69
I4
ssg70
g1811
sg63
(lp1818
S'44652'
p1819
asbasbasbag56
(g72
g58
NtRp1820
(dp1821
g61
(dp1822
sg70
g1376
sg63
(lp1823
g56
(g77
g58
NtRp1824
(dp1825
g61
(dp1826
g81
g82
ssg70
g1820
sg63
(lp1827
S'request_method'
p1828
asbag56
(g77
g58
NtRp1829
(dp1830
g61
(dp1831
g88
g89
ssg70
g1820
sg63
(lp1832
S':'
asbag56
(g77
g58
NtRp1833
(dp1834
g61
(dp1835
sg70
g1820
sg63
(lp1836
g56
(g57
g58
NtRp1837
(dp1838
g61
(dp1839
g69
I4
ssg70
g1833
sg63
(lp1840
S'GET'
p1841
asbasbasbag56
(g72
g58
NtRp1842
(dp1843
g61
(dp1844
sg70
g1376
sg63
(lp1845
g56
(g77
g58
NtRp1846
(dp1847
g61
(dp1848
g81
g82
ssg70
g1842
sg63
(lp1849
S'script_name'
p1850
asbag56
(g77
g58
NtRp1851
(dp1852
g61
(dp1853
g88
g89
ssg70
g1842
sg63
(lp1854
S':'
asbag56
(g77
g58
NtRp1855
(dp1856
g61
(dp1857
sg70
g1842
sg63
(lp1858
g56
(g57
g58
NtRp1859
(dp1860
g61
(dp1861
g69
I4
ssg70
g1855
sg63
(lp1862
S''
asbasbasbag56
(g72
g58
NtRp1863
(dp1864
g61
(dp1865
sg70
g1376
sg63
(lp1866
g56
(g77
g58
NtRp1867
(dp1868
g61
(dp1869
g81
g82
ssg70
g1863
sg63
(lp1870
S'server_name'
p1871
asbag56
(g77
g58
NtRp1872
(dp1873
g61
(dp1874
g88
g89
ssg70
g1863
sg63
(lp1875
S':'
asbag56
(g77
g58
NtRp1876
(dp1877
g61
(dp1878
sg70
g1863
sg63
(lp1879
g56
(g57
g58
NtRp1880
(dp1881
g61
(dp1882
g69
I4
ssg70
g1876
sg63
(lp1883
S'kiki'
p1884
asbasbasbag56
(g72
g58
NtRp1885
(dp1886
g61
(dp1887
sg70
g1376
sg63
(lp1888
g56
(g77
g58
NtRp1889
(dp1890
g61
(dp1891
g81
g82
ssg70
g1885
sg63
(lp1892
S'server_port'
p1893
asbag56
(g77
g58
NtRp1894
(dp1895
g61
(dp1896
g88
g89
ssg70
g1885
sg63
(lp1897
S':'
asbag56
(g77
g58
NtRp1898
(dp1899
g61
(dp1900
sg70
g1885
sg63
(lp1901
g56
(g57
g58
NtRp1902
(dp1903
g61
(dp1904
g69
I4
ssg70
g1898
sg63
(lp1905
S'8000'
p1906
asbasbasbag56
(g72
g58
NtRp1907
(dp1908
g61
(dp1909
sg70
g1376
sg63
(lp1910
g56
(g77
g58
NtRp1911
(dp1912
g61
(dp1913
g81
g82
ssg70
g1907
sg63
(lp1914
S'server_protocol'
p1915
asbag56
(g77
g58
NtRp1916
(dp1917
g61
(dp1918
g88
g89
ssg70
g1907
sg63
(lp1919
S':'
asbag56
(g77
g58
NtRp1920
(dp1921
g61
(dp1922
sg70
g1907
sg63
(lp1923
g56
(g57
g58
NtRp1924
(dp1925
g61
(dp1926
g69
I4
ssg70
g1920
sg63
(lp1927
S'HTTP/1.1'
p1928
asbasbasbag56
(g72
g58
NtRp1929
(dp1930
g61
(dp1931
sg70
g1376
sg63
(lp1932
g56
(g77
g58
NtRp1933
(dp1934
g61
(dp1935
g81
g82
ssg70
g1929
sg63
(lp1936
S'server_software'
p1937
asbag56
(g77
g58
NtRp1938
(dp1939
g61
(dp1940
g88
g89
ssg70
g1929
sg63
(lp1941
S':'
asbag56
(g77
g58
NtRp1942
(dp1943
g61
(dp1944
sg70
g1929
sg63
(lp1945
g56
(g57
g58
NtRp1946
(dp1947
g61
(dp1948
g69
I4
ssg70
g1942
sg63
(lp1949
S'Rocket 1.2.2'
p1950
asbasbasbag56
(g72
g58
NtRp1951
(dp1952
g61
(dp1953
sg70
g1376
sg63
(lp1954
g56
(g77
g58
NtRp1955
(dp1956
g61
(dp1957
g81
g82
ssg70
g1951
sg63
(lp1958
S'web2py_crontype'
p1959
asbag56
(g77
g58
NtRp1960
(dp1961
g61
(dp1962
g88
g89
ssg70
g1951
sg63
(lp1963
S':'
asbag56
(g77
g58
NtRp1964
(dp1965
g61
(dp1966
sg70
g1951
sg63
(lp1967
g56
(g57
g58
NtRp1968
(dp1969
g61
(dp1970
g69
I4
ssg70
g1964
sg63
(lp1971
S'hard'
p1972
asbasbasbag56
(g72
g58
NtRp1973
(dp1974
g61
(dp1975
sg70
g1376
sg63
(lp1976
g56
(g77
g58
NtRp1977
(dp1978
g61
(dp1979
g81
g82
ssg70
g1973
sg63
(lp1980
S'web2py_path'
p1981
asbag56
(g77
g58
NtRp1982
(dp1983
g61
(dp1984
g88
g89
ssg70
g1973
sg63
(lp1985
S':'
asbag56
(g77
g58
NtRp1986
(dp1987
g61
(dp1988
sg70
g1973
sg63
(lp1989
g56
(g57
g58
NtRp1990
(dp1991
g61
(dp1992
g69
I4
ssg70
g1986
sg63
(lp1993
g1423
asbasbasbag56
(g72
g58
NtRp1994
(dp1995
g61
(dp1996
sg70
g1376
sg63
(lp1997
g56
(g77
g58
NtRp1998
(dp1999
g61
(dp2000
g81
g82
ssg70
g1994
sg63
(lp2001
S'web2py_version'
p2002
asbag56
(g77
g58
NtRp2003
(dp2004
g61
(dp2005
g88
g89
ssg70
g1994
sg63
(lp2006
S':'
asbag56
(g77
g58
NtRp2007
(dp2008
g61
(dp2009
sg70
g1994
sg63
(lp2010
g56
(g57
g58
NtRp2011
(dp2012
g61
(dp2013
g69
I4
ssg70
g2007
sg63
(lp2014
S'        iersion 1.94.1 (2011-03-17 16:30:58)\n'
p2015
asbasbasbag56
(g72
g58
NtRp2016
(dp2017
g61
(dp2018
sg70
g1376
sg63
(lp2019
g56
(g77
g58
NtRp2020
(dp2021
g61
(dp2022
g81
g82
ssg70
g2016
sg63
(lp2023
S'wsgi_errors'
p2024
asbag56
(g77
g58
NtRp2025
(dp2026
g61
(dp2027
g88
g89
ssg70
g2016
sg63
(lp2028
S':'
asbag56
(g77
g58
NtRp2029
(dp2030
g61
(dp2031
sg70
g2016
sg63
(lp2032
g56
(g57
g58
NtRp2033
(dp2034
g61
(dp2035
g69
I4
ssg70
g2029
sg63
(lp2036
S"<open file '<stderr>', mode 'w' at 0x7f8a1045a1e0>"
p2037
asbasbasbag56
(g72
g58
NtRp2038
(dp2039
g61
(dp2040
sg70
g1376
sg63
(lp2041
g56
(g77
g58
NtRp2042
(dp2043
g61
(dp2044
g81
g82
ssg70
g2038
sg63
(lp2045
S'wsgi_file_wrapper'
p2046
asbag56
(g77
g58
NtRp2047
(dp2048
g61
(dp2049
g88
g89
ssg70
g2038
sg63
(lp2050
S':'
asbag56
(g77
g58
NtRp2051
(dp2052
g61
(dp2053
sg70
g2038
sg63
(lp2054
g56
(g57
g58
NtRp2055
(dp2056
g61
(dp2057
g69
I4
ssg70
g2051
sg63
(lp2058
S'<class gluon.rocket.FileWrapper at 0x1e6f3b0>'
p2059
asbasbasbag56
(g72
g58
NtRp2060
(dp2061
g61
(dp2062
sg70
g1376
sg63
(lp2063
g56
(g77
g58
NtRp2064
(dp2065
g61
(dp2066
g81
g82
ssg70
g2060
sg63
(lp2067
S'wsgi_input'
p2068
asbag56
(g77
g58
NtRp2069
(dp2070
g61
(dp2071
g88
g89
ssg70
g2060
sg63
(lp2072
S':'
asbag56
(g77
g58
NtRp2073
(dp2074
g61
(dp2075
sg70
g2060
sg63
(lp2076
g56
(g57
g58
NtRp2077
(dp2078
g61
(dp2079
g69
I4
ssg70
g2073
sg63
(lp2080
S'<socket._fileobject object at 0x360f750>'
p2081
asbasbasbag56
(g72
g58
NtRp2082
(dp2083
g61
(dp2084
sg70
g1376
sg63
(lp2085
g56
(g77
g58
NtRp2086
(dp2087
g61
(dp2088
g81
g82
ssg70
g2082
sg63
(lp2089
S'wsgi_multiprocess'
p2090
asbag56
(g77
g58
NtRp2091
(dp2092
g61
(dp2093
g88
g89
ssg70
g2082
sg63
(lp2094
S':'
asbag56
(g77
g58
NtRp2095
(dp2096
g61
(dp2097
sg70
g2082
sg63
(lp2098
g56
(g57
g58
NtRp2099
(dp2100
g61
(dp2101
g69
I4
ssg70
g2095
sg63
(lp2102
g99
asbasbasbag56
(g72
g58
NtRp2103
(dp2104
g61
(dp2105
sg70
g1376
sg63
(lp2106
g56
(g77
g58
NtRp2107
(dp2108
g61
(dp2109
g81
g82
ssg70
g2103
sg63
(lp2110
S'wsgi_multithread'
p2111
asbag56
(g77
g58
NtRp2112
(dp2113
g61
(dp2114
g88
g89
ssg70
g2103
sg63
(lp2115
S':'
asbag56
(g77
g58
NtRp2116
(dp2117
g61
(dp2118
sg70
g2103
sg63
(lp2119
g56
(g57
g58
NtRp2120
(dp2121
g61
(dp2122
g69
I4
ssg70
g2116
sg63
(lp2123
S'True'
p2124
asbasbasbag56
(g72
g58
NtRp2125
(dp2126
g61
(dp2127
sg70
g1376
sg63
(lp2128
g56
(g77
g58
NtRp2129
(dp2130
g61
(dp2131
g81
g82
ssg70
g2125
sg63
(lp2132
S'wsgi_run_once'
p2133
asbag56
(g77
g58
NtRp2134
(dp2135
g61
(dp2136
g88
g89
ssg70
g2125
sg63
(lp2137
S':'
asbag56
(g77
g58
NtRp2138
(dp2139
g61
(dp2140
sg70
g2125
sg63
(lp2141
g56
(g57
g58
NtRp2142
(dp2143
g61
(dp2144
g69
I4
ssg70
g2138
sg63
(lp2145
g99
asbasbasbag56
(g72
g58
NtRp2146
(dp2147
g61
(dp2148
sg70
g1376
sg63
(lp2149
g56
(g77
g58
NtRp2150
(dp2151
g61
(dp2152
g81
g82
ssg70
g2146
sg63
(lp2153
S'wsgi_url_scheme'
p2154
asbag56
(g77
g58
NtRp2155
(dp2156
g61
(dp2157
g88
g89
ssg70
g2146
sg63
(lp2158
S':'
asbag56
(g77
g58
NtRp2159
(dp2160
g61
(dp2161
sg70
g2146
sg63
(lp2162
g56
(g57
g58
NtRp2163
(dp2164
g61
(dp2165
g69
I4
ssg70
g2159
sg63
(lp2166
S'http'
p2167
asbasbasbag56
(g72
g58
NtRp2168
(dp2169
g61
(dp2170
sg70
g1376
sg63
(lp2171
g56
(g77
g58
NtRp2172
(dp2173
g61
(dp2174
g81
g82
ssg70
g2168
sg63
(lp2175
S'wsgi_version'
p2176
asbag56
(g77
g58
NtRp2177
(dp2178
g61
(dp2179
g88
g89
ssg70
g2168
sg63
(lp2180
S':'
asbag56
(g77
g58
NtRp2181
(dp2182
g61
(dp2183
sg70
g2168
sg63
(lp2184
g56
(g57
g58
NtRp2185
(dp2186
g61
(dp2187
g69
I4
ssg70
g2181
sg63
(lp2188
g56
(g65
g58
NtRp2189
(dp2190
g61
(dp2191
g69
I3
ssg70
Nsg63
(lp2192
g56
(g72
g58
NtRp2193
(dp2194
g61
(dp2195
sg70
g2189
sg63
(lp2196
g56
(g77
g58
NtRp2197
(dp2198
g61
(dp2199
sg70
g2193
sg63
(lp2200
g56
(g57
g58
NtRp2201
(dp2202
g61
(dp2203
g69
I3
ssg70
g2197
sg63
(lp2204
S'1'
asbasbasbag56
(g72
g58
NtRp2205
(dp2206
g61
(dp2207
sg70
g2189
sg63
(lp2208
g56
(g77
g58
NtRp2209
(dp2210
g61
(dp2211
sg70
g2205
sg63
(lp2212
g56
(g57
g58
NtRp2213
(dp2214
g61
(dp2215
g69
I3
ssg70
g2209
sg63
(lp2216
S'0'
asbasbasbasbasbasbasbasbasbasbasbag56
(g72
g58
NtRp2217
(dp2218
g61
(dp2219
sg70
g66
sg63
(lp2220
g56
(g77
g58
NtRp2221
(dp2222
g61
(dp2223
g81
g82
ssg70
g2217
sg63
(lp2224
S'extension'
p2225
asbag56
(g77
g58
NtRp2226
(dp2227
g61
(dp2228
g88
g89
ssg70
g2217
sg63
(lp2229
S':'
asbag56
(g77
g58
NtRp2230
(dp2231
g61
(dp2232
sg70
g2217
sg63
(lp2233
g56
(g57
g58
NtRp2234
(dp2235
g61
(dp2236
g69
I5
ssg70
g2230
sg63
(lp2237
S'html'
p2238
asbasbasbag56
(g72
g58
NtRp2239
(dp2240
g61
(dp2241
sg70
g66
sg63
(lp2242
g56
(g77
g58
NtRp2243
(dp2244
g61
(dp2245
g81
g82
ssg70
g2239
sg63
(lp2246
S'folder'
p2247
asbag56
(g77
g58
NtRp2248
(dp2249
g61
(dp2250
g88
g89
ssg70
g2239
sg63
(lp2251
S':'
asbag56
(g77
g58
NtRp2252
(dp2253
g61
(dp2254
sg70
g2239
sg63
(lp2255
g56
(g57
g58
NtRp2256
(dp2257
g61
(dp2258
g69
I5
ssg70
g2252
sg63
(lp2259
S'/home/marco/proyectos/web2py-trunk/applications/mvstore/'
p2260
asbasbasbag56
(g72
g58
NtRp2261
(dp2262
g61
(dp2263
sg70
g66
sg63
(lp2264
g56
(g77
g58
NtRp2265
(dp2266
g61
(dp2267
g81
g82
ssg70
g2261
sg63
(lp2268
S'function'
p2269
asbag56
(g77
g58
NtRp2270
(dp2271
g61
(dp2272
g88
g89
ssg70
g2261
sg63
(lp2273
S':'
asbag56
(g77
g58
NtRp2274
(dp2275
g61
(dp2276
sg70
g2261
sg63
(lp2277
g56
(g57
g58
NtRp2278
(dp2279
g61
(dp2280
g69
I5
ssg70
g2274
sg63
(lp2281
S'prestamos'
p2282
asbasbasbag56
(g72
g58
NtRp2283
(dp2284
g61
(dp2285
sg70
g66
sg63
(lp2286
g56
(g77
g58
NtRp2287
(dp2288
g61
(dp2289
g81
g82
ssg70
g2283
sg63
(lp2290
S'get_vars'
p2291
asbag56
(g77
g58
NtRp2292
(dp2293
g61
(dp2294
g88
g89
ssg70
g2283
sg63
(lp2295
S':'
asbag56
(g77
g58
NtRp2296
(dp2297
g61
(dp2298
sg70
g2283
sg63
(lp2299
g56
(g57
g58
NtRp2300
(dp2301
g61
(dp2302
g69
I5
ssg70
g2296
sg63
(lp2303
g56
(g65
g58
NtRp2304
(dp2305
g61
(dp2306
g69
I4
ssg70
Nsg63
(lp2307
sbasbasbasbag56
(g72
g58
NtRp2308
(dp2309
g61
(dp2310
sg70
g66
sg63
(lp2311
g56
(g77
g58
NtRp2312
(dp2313
g61
(dp2314
g81
g82
ssg70
g2308
sg63
(lp2315
S'is_https'
p2316
asbag56
(g77
g58
NtRp2317
(dp2318
g61
(dp2319
g88
g89
ssg70
g2308
sg63
(lp2320
S':'
asbag56
(g77
g58
NtRp2321
(dp2322
g61
(dp2323
sg70
g2308
sg63
(lp2324
g56
(g57
g58
NtRp2325
(dp2326
g61
(dp2327
g69
I5
ssg70
g2321
sg63
(lp2328
g99
asbasbasbag56
(g72
g58
NtRp2329
(dp2330
g61
(dp2331
sg70
g66
sg63
(lp2332
g56
(g77
g58
NtRp2333
(dp2334
g61
(dp2335
g81
g82
ssg70
g2329
sg63
(lp2336
S'is_local'
p2337
asbag56
(g77
g58
NtRp2338
(dp2339
g61
(dp2340
g88
g89
ssg70
g2329
sg63
(lp2341
S':'
asbag56
(g77
g58
NtRp2342
(dp2343
g61
(dp2344
sg70
g2329
sg63
(lp2345
g56
(g57
g58
NtRp2346
(dp2347
g61
(dp2348
g69
I5
ssg70
g2342
sg63
(lp2349
g2124
asbasbasbag56
(g72
g58
NtRp2350
(dp2351
g61
(dp2352
sg70
g66
sg63
(lp2353
g56
(g77
g58
NtRp2354
(dp2355
g61
(dp2356
g81
g82
ssg70
g2350
sg63
(lp2357
S'is_restful'
p2358
asbag56
(g77
g58
NtRp2359
(dp2360
g61
(dp2361
g88
g89
ssg70
g2350
sg63
(lp2362
S':'
asbag56
(g77
g58
NtRp2363
(dp2364
g61
(dp2365
sg70
g2350
sg63
(lp2366
g56
(g57
g58
NtRp2367
(dp2368
g61
(dp2369
g69
I5
ssg70
g2363
sg63
(lp2370
g99
asbasbasbag56
(g72
g58
NtRp2371
(dp2372
g61
(dp2373
sg70
g66
sg63
(lp2374
g56
(g77
g58
NtRp2375
(dp2376
g61
(dp2377
g81
g82
ssg70
g2371
sg63
(lp2378
S'now'
p2379
asbag56
(g77
g58
NtRp2380
(dp2381
g61
(dp2382
g88
g89
ssg70
g2371
sg63
(lp2383
S':'
asbag56
(g77
g58
NtRp2384
(dp2385
g61
(dp2386
sg70
g2371
sg63
(lp2387
g56
(g57
g58
NtRp2388
(dp2389
g61
(dp2390
g69
I5
ssg70
g2384
sg63
(lp2391
S'datetime.datetime(2011, 6, 18, 0, 55, 20, 215643)'
p2392
asbasbasbag56
(g72
g58
NtRp2393
(dp2394
g61
(dp2395
sg70
g66
sg63
(lp2396
g56
(g77
g58
NtRp2397
(dp2398
g61
(dp2399
g81
g82
ssg70
g2393
sg63
(lp2400
S'post_vars'
p2401
asbag56
(g77
g58
NtRp2402
(dp2403
g61
(dp2404
g88
g89
ssg70
g2393
sg63
(lp2405
S':'
asbag56
(g77
g58
NtRp2406
(dp2407
g61
(dp2408
sg70
g2393
sg63
(lp2409
g56
(g57
g58
NtRp2410
(dp2411
g61
(dp2412
g69
I5
ssg70
g2406
sg63
(lp2413
g56
(g65
g58
NtRp2414
(dp2415
g61
(dp2416
g69
I4
ssg70
Nsg63
(lp2417
sbasbasbasbag56
(g72
g58
NtRp2418
(dp2419
g61
(dp2420
sg70
g66
sg63
(lp2421
g56
(g77
g58
NtRp2422
(dp2423
g61
(dp2424
g81
g82
ssg70
g2418
sg63
(lp2425
S'url'
p2426
asbag56
(g77
g58
NtRp2427
(dp2428
g61
(dp2429
g88
g89
ssg70
g2418
sg63
(lp2430
S':'
asbag56
(g77
g58
NtRp2431
(dp2432
g61
(dp2433
sg70
g2418
sg63
(lp2434
g56
(g57
g58
NtRp2435
(dp2436
g61
(dp2437
g69
I5
ssg70
g2431
sg63
(lp2438
S'/mvstore/default/prestamos'
p2439
asbasbasbag56
(g72
g58
NtRp2440
(dp2441
g61
(dp2442
sg70
g66
sg63
(lp2443
g56
(g77
g58
NtRp2444
(dp2445
g61
(dp2446
g81
g82
ssg70
g2440
sg63
(lp2447
S'uuid'
p2448
asbag56
(g77
g58
NtRp2449
(dp2450
g61
(dp2451
g88
g89
ssg70
g2440
sg63
(lp2452
S':'
asbag56
(g77
g58
NtRp2453
(dp2454
g61
(dp2455
sg70
g2440
sg63
(lp2456
g56
(g57
g58
NtRp2457
(dp2458
g61
(dp2459
g69
I5
ssg70
g2453
sg63
(lp2460
S'mvstore/127.0.0.1.2011-06-18.00-55-20.93d94531-33c5-43b5-a931-8fc6afe1b318'
p2461
asbasbasbag56
(g72
g58
NtRp2462
(dp2463
g61
(dp2464
sg70
g66
sg63
(lp2465
g56
(g77
g58
NtRp2466
(dp2467
g61
(dp2468
g81
g82
ssg70
g2462
sg63
(lp2469
S'vars'
p2470
asbag56
(g77
g58
NtRp2471
(dp2472
g61
(dp2473
g88
g89
ssg70
g2462
sg63
(lp2474
S':'
asbag56
(g77
g58
NtRp2475
(dp2476
g61
(dp2477
sg70
g2462
sg63
(lp2478
g56
(g57
g58
NtRp2479
(dp2480
g61
(dp2481
g69
I5
ssg70
g2475
sg63
(lp2482
g56
(g65
g58
NtRp2483
(dp2484
g61
(dp2485
g69
I4
ssg70
Nsg63
(lp2486
sbasbasbasbag56
(g72
g58
NtRp2487
(dp2488
g61
(dp2489
sg70
g66
sg63
(lp2490
g56
(g77
g58
NtRp2491
(dp2492
g61
(dp2493
g81
g82
ssg70
g2487
sg63
(lp2494
S'wsgi'
p2495
asbag56
(g77
g58
NtRp2496
(dp2497
g61
(dp2498
g88
g89
ssg70
g2487
sg63
(lp2499
S':'
asbag56
(g77
g58
NtRp2500
(dp2501
g61
(dp2502
sg70
g2487
sg63
(lp2503
g56
(g57
g58
NtRp2504
(dp2505
g61
(dp2506
g69
I5
ssg70
g2500
sg63
(lp2507
g56
(g65
g58
NtRp2508
(dp2509
g61
(dp2510
g69
I4
ssg70
Nsg63
(lp2511
g56
(g72
g58
NtRp2512
(dp2513
g61
(dp2514
sg70
g2508
sg63
(lp2515
g56
(g77
g58
NtRp2516
(dp2517
g61
(dp2518
g81
g82
ssg70
g2512
sg63
(lp2519
S'environ'
p2520
asbag56
(g77
g58
NtRp2521
(dp2522
g61
(dp2523
g88
g89
ssg70
g2512
sg63
(lp2524
S':'
asbag56
(g77
g58
NtRp2525
(dp2526
g61
(dp2527
sg70
g2512
sg63
(lp2528
g56
(g57
g58
NtRp2529
(dp2530
g61
(dp2531
g69
I4
ssg70
g2525
sg63
(lp2532
g56
(g65
g58
NtRp2533
(dp2534
g61
(dp2535
g69
I3
ssg70
Nsg63
(lp2536
g56
(g72
g58
NtRp2537
(dp2538
g61
(dp2539
sg70
g2533
sg63
(lp2540
g56
(g77
g58
NtRp2541
(dp2542
g61
(dp2543
g81
g82
ssg70
g2537
sg63
(lp2544
S'HTTP_ACCEPT'
p2545
asbag56
(g77
g58
NtRp2546
(dp2547
g61
(dp2548
g88
g89
ssg70
g2537
sg63
(lp2549
S':'
asbag56
(g77
g58
NtRp2550
(dp2551
g61
(dp2552
sg70
g2537
sg63
(lp2553
g56
(g57
g58
NtRp2554
(dp2555
g61
(dp2556
g69
I3
ssg70
g2550
sg63
(lp2557
g1557
asbasbasbag56
(g72
g58
NtRp2558
(dp2559
g61
(dp2560
sg70
g2533
sg63
(lp2561
g56
(g77
g58
NtRp2562
(dp2563
g61
(dp2564
g81
g82
ssg70
g2558
sg63
(lp2565
S'HTTP_ACCEPT_CHARSET'
p2566
asbag56
(g77
g58
NtRp2567
(dp2568
g61
(dp2569
g88
g89
ssg70
g2558
sg63
(lp2570
S':'
asbag56
(g77
g58
NtRp2571
(dp2572
g61
(dp2573
sg70
g2558
sg63
(lp2574
g56
(g57
g58
NtRp2575
(dp2576
g61
(dp2577
g69
I3
ssg70
g2571
sg63
(lp2578
g1579
asbasbasbag56
(g72
g58
NtRp2579
(dp2580
g61
(dp2581
sg70
g2533
sg63
(lp2582
g56
(g77
g58
NtRp2583
(dp2584
g61
(dp2585
g81
g82
ssg70
g2579
sg63
(lp2586
S'HTTP_ACCEPT_ENCODING'
p2587
asbag56
(g77
g58
NtRp2588
(dp2589
g61
(dp2590
g88
g89
ssg70
g2579
sg63
(lp2591
S':'
asbag56
(g77
g58
NtRp2592
(dp2593
g61
(dp2594
sg70
g2579
sg63
(lp2595
g56
(g57
g58
NtRp2596
(dp2597
g61
(dp2598
g69
I3
ssg70
g2592
sg63
(lp2599
g1601
asbasbasbag56
(g72
g58
NtRp2600
(dp2601
g61
(dp2602
sg70
g2533
sg63
(lp2603
g56
(g77
g58
NtRp2604
(dp2605
g61
(dp2606
g81
g82
ssg70
g2600
sg63
(lp2607
S'HTTP_ACCEPT_LANGUAGE'
p2608
asbag56
(g77
g58
NtRp2609
(dp2610
g61
(dp2611
g88
g89
ssg70
g2600
sg63
(lp2612
S':'
asbag56
(g77
g58
NtRp2613
(dp2614
g61
(dp2615
sg70
g2600
sg63
(lp2616
g56
(g57
g58
NtRp2617
(dp2618
g61
(dp2619
g69
I3
ssg70
g2613
sg63
(lp2620
g1623
asbasbasbag56
(g72
g58
NtRp2621
(dp2622
g61
(dp2623
sg70
g2533
sg63
(lp2624
g56
(g77
g58
NtRp2625
(dp2626
g61
(dp2627
g81
g82
ssg70
g2621
sg63
(lp2628
S'HTTP_CONNECTION'
p2629
asbag56
(g77
g58
NtRp2630
(dp2631
g61
(dp2632
g88
g89
ssg70
g2621
sg63
(lp2633
S':'
asbag56
(g77
g58
NtRp2634
(dp2635
g61
(dp2636
sg70
g2621
sg63
(lp2637
g56
(g57
g58
NtRp2638
(dp2639
g61
(dp2640
g69
I3
ssg70
g2634
sg63
(lp2641
g1645
asbasbasbag56
(g72
g58
NtRp2642
(dp2643
g61
(dp2644
sg70
g2533
sg63
(lp2645
g56
(g77
g58
NtRp2646
(dp2647
g61
(dp2648
g81
g82
ssg70
g2642
sg63
(lp2649
S'HTTP_COOKIE'
p2650
asbag56
(g77
g58
NtRp2651
(dp2652
g61
(dp2653
g88
g89
ssg70
g2642
sg63
(lp2654
S':'
asbag56
(g77
g58
NtRp2655
(dp2656
g61
(dp2657
sg70
g2642
sg63
(lp2658
g56
(g57
g58
NtRp2659
(dp2660
g61
(dp2661
g69
I3
ssg70
g2655
sg63
(lp2662
g1667
asbasbasbag56
(g72
g58
NtRp2663
(dp2664
g61
(dp2665
sg70
g2533
sg63
(lp2666
g56
(g77
g58
NtRp2667
(dp2668
g61
(dp2669
g81
g82
ssg70
g2663
sg63
(lp2670
S'HTTP_HOST'
p2671
asbag56
(g77
g58
NtRp2672
(dp2673
g61
(dp2674
g88
g89
ssg70
g2663
sg63
(lp2675
S':'
asbag56
(g77
g58
NtRp2676
(dp2677
g61
(dp2678
sg70
g2663
sg63
(lp2679
g56
(g57
g58
NtRp2680
(dp2681
g61
(dp2682
g69
I3
ssg70
g2676
sg63
(lp2683
g1689
asbasbasbag56
(g72
g58
NtRp2684
(dp2685
g61
(dp2686
sg70
g2533
sg63
(lp2687
g56
(g77
g58
NtRp2688
(dp2689
g61
(dp2690
g81
g82
ssg70
g2684
sg63
(lp2691
S'HTTP_REFERER'
p2692
asbag56
(g77
g58
NtRp2693
(dp2694
g61
(dp2695
g88
g89
ssg70
g2684
sg63
(lp2696
S':'
asbag56
(g77
g58
NtRp2697
(dp2698
g61
(dp2699
sg70
g2684
sg63
(lp2700
g56
(g57
g58
NtRp2701
(dp2702
g61
(dp2703
g69
I3
ssg70
g2697
sg63
(lp2704
g1711
asbasbasbag56
(g72
g58
NtRp2705
(dp2706
g61
(dp2707
sg70
g2533
sg63
(lp2708
g56
(g77
g58
NtRp2709
(dp2710
g61
(dp2711
g81
g82
ssg70
g2705
sg63
(lp2712
S'HTTP_USER_AGENT'
p2713
asbag56
(g77
g58
NtRp2714
(dp2715
g61
(dp2716
g88
g89
ssg70
g2705
sg63
(lp2717
S':'
asbag56
(g77
g58
NtRp2718
(dp2719
g61
(dp2720
sg70
g2705
sg63
(lp2721
g56
(g57
g58
NtRp2722
(dp2723
g61
(dp2724
g69
I3
ssg70
g2718
sg63
(lp2725
g1733
asbasbasbag56
(g72
g58
NtRp2726
(dp2727
g61
(dp2728
sg70
g2533
sg63
(lp2729
g56
(g77
g58
NtRp2730
(dp2731
g61
(dp2732
g81
g82
ssg70
g2726
sg63
(lp2733
S'PATH_INFO'
p2734
asbag56
(g77
g58
NtRp2735
(dp2736
g61
(dp2737
g88
g89
ssg70
g2726
sg63
(lp2738
S':'
asbag56
(g77
g58
NtRp2739
(dp2740
g61
(dp2741
sg70
g2726
sg63
(lp2742
g56
(g57
g58
NtRp2743
(dp2744
g61
(dp2745
g69
I3
ssg70
g2739
sg63
(lp2746
g1755
asbasbasbag56
(g72
g58
NtRp2747
(dp2748
g61
(dp2749
sg70
g2533
sg63
(lp2750
g56
(g77
g58
NtRp2751
(dp2752
g61
(dp2753
g81
g82
ssg70
g2747
sg63
(lp2754
S'QUERY_STRING'
p2755
asbag56
(g77
g58
NtRp2756
(dp2757
g61
(dp2758
g88
g89
ssg70
g2747
sg63
(lp2759
S':'
asbag56
(g77
g58
NtRp2760
(dp2761
g61
(dp2762
sg70
g2747
sg63
(lp2763
g56
(g57
g58
NtRp2764
(dp2765
g61
(dp2766
g69
I3
ssg70
g2760
sg63
(lp2767
S''
asbasbasbag56
(g72
g58
NtRp2768
(dp2769
g61
(dp2770
sg70
g2533
sg63
(lp2771
g56
(g77
g58
NtRp2772
(dp2773
g61
(dp2774
g81
g82
ssg70
g2768
sg63
(lp2775
S'REMOTE_ADDR'
p2776
asbag56
(g77
g58
NtRp2777
(dp2778
g61
(dp2779
g88
g89
ssg70
g2768
sg63
(lp2780
S':'
asbag56
(g77
g58
NtRp2781
(dp2782
g61
(dp2783
sg70
g2768
sg63
(lp2784
g56
(g57
g58
NtRp2785
(dp2786
g61
(dp2787
g69
I3
ssg70
g2781
sg63
(lp2788
g189
asbasbasbag56
(g72
g58
NtRp2789
(dp2790
g61
(dp2791
sg70
g2533
sg63
(lp2792
g56
(g77
g58
NtRp2793
(dp2794
g61
(dp2795
g81
g82
ssg70
g2789
sg63
(lp2796
S'REMOTE_PORT'
p2797
asbag56
(g77
g58
NtRp2798
(dp2799
g61
(dp2800
g88
g89
ssg70
g2789
sg63
(lp2801
S':'
asbag56
(g77
g58
NtRp2802
(dp2803
g61
(dp2804
sg70
g2789
sg63
(lp2805
g56
(g57
g58
NtRp2806
(dp2807
g61
(dp2808
g69
I3
ssg70
g2802
sg63
(lp2809
g1819
asbasbasbag56
(g72
g58
NtRp2810
(dp2811
g61
(dp2812
sg70
g2533
sg63
(lp2813
g56
(g77
g58
NtRp2814
(dp2815
g61
(dp2816
g81
g82
ssg70
g2810
sg63
(lp2817
S'REQUEST_METHOD'
p2818
asbag56
(g77
g58
NtRp2819
(dp2820
g61
(dp2821
g88
g89
ssg70
g2810
sg63
(lp2822
S':'
asbag56
(g77
g58
NtRp2823
(dp2824
g61
(dp2825
sg70
g2810
sg63
(lp2826
g56
(g57
g58
NtRp2827
(dp2828
g61
(dp2829
g69
I3
ssg70
g2823
sg63
(lp2830
g1841
asbasbasbag56
(g72
g58
NtRp2831
(dp2832
g61
(dp2833
sg70
g2533
sg63
(lp2834
g56
(g77
g58
NtRp2835
(dp2836
g61
(dp2837
g81
g82
ssg70
g2831
sg63
(lp2838
S'SCRIPT_NAME'
p2839
asbag56
(g77
g58
NtRp2840
(dp2841
g61
(dp2842
g88
g89
ssg70
g2831
sg63
(lp2843
S':'
asbag56
(g77
g58
NtRp2844
(dp2845
g61
(dp2846
sg70
g2831
sg63
(lp2847
g56
(g57
g58
NtRp2848
(dp2849
g61
(dp2850
g69
I3
ssg70
g2844
sg63
(lp2851
S''
asbasbasbag56
(g72
g58
NtRp2852
(dp2853
g61
(dp2854
sg70
g2533
sg63
(lp2855
g56
(g77
g58
NtRp2856
(dp2857
g61
(dp2858
g81
g82
ssg70
g2852
sg63
(lp2859
S'SERVER_NAME'
p2860
asbag56
(g77
g58
NtRp2861
(dp2862
g61
(dp2863
g88
g89
ssg70
g2852
sg63
(lp2864
S':'
asbag56
(g77
g58
NtRp2865
(dp2866
g61
(dp2867
sg70
g2852
sg63
(lp2868
g56
(g57
g58
NtRp2869
(dp2870
g61
(dp2871
g69
I3
ssg70
g2865
sg63
(lp2872
g1884
asbasbasbag56
(g72
g58
NtRp2873
(dp2874
g61
(dp2875
sg70
g2533
sg63
(lp2876
g56
(g77
g58
NtRp2877
(dp2878
g61
(dp2879
g81
g82
ssg70
g2873
sg63
(lp2880
S'SERVER_PORT'
p2881
asbag56
(g77
g58
NtRp2882
(dp2883
g61
(dp2884
g88
g89
ssg70
g2873
sg63
(lp2885
S':'
asbag56
(g77
g58
NtRp2886
(dp2887
g61
(dp2888
sg70
g2873
sg63
(lp2889
g56
(g57
g58
NtRp2890
(dp2891
g61
(dp2892
g69
I3
ssg70
g2886
sg63
(lp2893
g1906
asbasbasbag56
(g72
g58
NtRp2894
(dp2895
g61
(dp2896
sg70
g2533
sg63
(lp2897
g56
(g77
g58
NtRp2898
(dp2899
g61
(dp2900
g81
g82
ssg70
g2894
sg63
(lp2901
S'SERVER_PROTOCOL'
p2902
asbag56
(g77
g58
NtRp2903
(dp2904
g61
(dp2905
g88
g89
ssg70
g2894
sg63
(lp2906
S':'
asbag56
(g77
g58
NtRp2907
(dp2908
g61
(dp2909
sg70
g2894
sg63
(lp2910
g56
(g57
g58
NtRp2911
(dp2912
g61
(dp2913
g69
I3
ssg70
g2907
sg63
(lp2914
g1928
asbasbasbag56
(g72
g58
NtRp2915
(dp2916
g61
(dp2917
sg70
g2533
sg63
(lp2918
g56
(g77
g58
NtRp2919
(dp2920
g61
(dp2921
g81
g82
ssg70
g2915
sg63
(lp2922
S'SERVER_SOFTWARE'
p2923
asbag56
(g77
g58
NtRp2924
(dp2925
g61
(dp2926
g88
g89
ssg70
g2915
sg63
(lp2927
S':'
asbag56
(g77
g58
NtRp2928
(dp2929
g61
(dp2930
sg70
g2915
sg63
(lp2931
g56
(g57
g58
NtRp2932
(dp2933
g61
(dp2934
g69
I3
ssg70
g2928
sg63
(lp2935
g1950
asbasbasbag56
(g72
g58
NtRp2936
(dp2937
g61
(dp2938
sg70
g2533
sg63
(lp2939
g56
(g77
g58
NtRp2940
(dp2941
g61
(dp2942
g81
g82
ssg70
g2936
sg63
(lp2943
S'wsgi.errors'
p2944
asbag56
(g77
g58
NtRp2945
(dp2946
g61
(dp2947
g88
g89
ssg70
g2936
sg63
(lp2948
S':'
asbag56
(g77
g58
NtRp2949
(dp2950
g61
(dp2951
sg70
g2936
sg63
(lp2952
g56
(g57
g58
NtRp2953
(dp2954
g61
(dp2955
g69
I3
ssg70
g2949
sg63
(lp2956
S"<open file '<stderr>', mode 'w' at 0x7f8a1045a1e0>"
p2957
asbasbasbag56
(g72
g58
NtRp2958
(dp2959
g61
(dp2960
sg70
g2533
sg63
(lp2961
g56
(g77
g58
NtRp2962
(dp2963
g61
(dp2964
g81
g82
ssg70
g2958
sg63
(lp2965
S'wsgi.file_wrapper'
p2966
asbag56
(g77
g58
NtRp2967
(dp2968
g61
(dp2969
g88
g89
ssg70
g2958
sg63
(lp2970
S':'
asbag56
(g77
g58
NtRp2971
(dp2972
g61
(dp2973
sg70
g2958
sg63
(lp2974
g56
(g57
g58
NtRp2975
(dp2976
g61
(dp2977
g69
I3
ssg70
g2971
sg63
(lp2978
S'<class gluon.rocket.FileWrapper at 0x1e6f3b0>'
p2979
asbasbasbag56
(g72
g58
NtRp2980
(dp2981
g61
(dp2982
sg70
g2533
sg63
(lp2983
g56
(g77
g58
NtRp2984
(dp2985
g61
(dp2986
g81
g82
ssg70
g2980
sg63
(lp2987
S'wsgi.input'
p2988
asbag56
(g77
g58
NtRp2989
(dp2990
g61
(dp2991
g88
g89
ssg70
g2980
sg63
(lp2992
S':'
asbag56
(g77
g58
NtRp2993
(dp2994
g61
(dp2995
sg70
g2980
sg63
(lp2996
g56
(g57
g58
NtRp2997
(dp2998
g61
(dp2999
g69
I3
ssg70
g2993
sg63
(lp3000
S'<cStringIO.StringO object at 0x37ca308>'
p3001
asbasbasbag56
(g72
g58
NtRp3002
(dp3003
g61
(dp3004
sg70
g2533
sg63
(lp3005
g56
(g77
g58
NtRp3006
(dp3007
g61
(dp3008
g81
g82
ssg70
g3002
sg63
(lp3009
S'wsgi.multiprocess'
p3010
asbag56
(g77
g58
NtRp3011
(dp3012
g61
(dp3013
g88
g89
ssg70
g3002
sg63
(lp3014
S':'
asbag56
(g77
g58
NtRp3015
(dp3016
g61
(dp3017
sg70
g3002
sg63
(lp3018
g56
(g57
g58
NtRp3019
(dp3020
g61
(dp3021
g69
I3
ssg70
g3015
sg63
(lp3022
g99
asbasbasbag56
(g72
g58
NtRp3023
(dp3024
g61
(dp3025
sg70
g2533
sg63
(lp3026
g56
(g77
g58
NtRp3027
(dp3028
g61
(dp3029
g81
g82
ssg70
g3023
sg63
(lp3030
S'wsgi.multithread'
p3031
asbag56
(g77
g58
NtRp3032
(dp3033
g61
(dp3034
g88
g89
ssg70
g3023
sg63
(lp3035
S':'
asbag56
(g77
g58
NtRp3036
(dp3037
g61
(dp3038
sg70
g3023
sg63
(lp3039
g56
(g57
g58
NtRp3040
(dp3041
g61
(dp3042
g69
I3
ssg70
g3036
sg63
(lp3043
g2124
asbasbasbag56
(g72
g58
NtRp3044
(dp3045
g61
(dp3046
sg70
g2533
sg63
(lp3047
g56
(g77
g58
NtRp3048
(dp3049
g61
(dp3050
g81
g82
ssg70
g3044
sg63
(lp3051
S'wsgi.run_once'
p3052
asbag56
(g77
g58
NtRp3053
(dp3054
g61
(dp3055
g88
g89
ssg70
g3044
sg63
(lp3056
S':'
asbag56
(g77
g58
NtRp3057
(dp3058
g61
(dp3059
sg70
g3044
sg63
(lp3060
g56
(g57
g58
NtRp3061
(dp3062
g61
(dp3063
g69
I3
ssg70
g3057
sg63
(lp3064
g99
asbasbasbag56
(g72
g58
NtRp3065
(dp3066
g61
(dp3067
sg70
g2533
sg63
(lp3068
g56
(g77
g58
NtRp3069
(dp3070
g61
(dp3071
g81
g82
ssg70
g3065
sg63
(lp3072
S'wsgi.url_scheme'
p3073
asbag56
(g77
g58
NtRp3074
(dp3075
g61
(dp3076
g88
g89
ssg70
g3065
sg63
(lp3077
S':'
asbag56
(g77
g58
NtRp3078
(dp3079
g61
(dp3080
sg70
g3065
sg63
(lp3081
g56
(g57
g58
NtRp3082
(dp3083
g61
(dp3084
g69
I3
ssg70
g3078
sg63
(lp3085
g2167
asbasbasbag56
(g72
g58
NtRp3086
(dp3087
g61
(dp3088
sg70
g2533
sg63
(lp3089
g56
(g77
g58
NtRp3090
(dp3091
g61
(dp3092
g81
g82
ssg70
g3086
sg63
(lp3093
S'wsgi.version'
p3094
asbag56
(g77
g58
NtRp3095
(dp3096
g61
(dp3097
g88
g89
ssg70
g3086
sg63
(lp3098
S':'
asbag56
(g77
g58
NtRp3099
(dp3100
g61
(dp3101
sg70
g3086
sg63
(lp3102
g56
(g57
g58
NtRp3103
(dp3104
g61
(dp3105
g69
I3
ssg70
g3099
sg63
(lp3106
S'1'
asbasbasbasbasbasbasbasbasbasbasbasbasbsS'frames'
p3107
(lp3108
(dp3109
S'file'
p3110
S'/home/marco/proyectos/web2py-trunk/gluon/restricted.py'
p3111
sS'dump'
p3112
(dp3113
S'environment'
p3114
S"{'A': <class 'gluon.html.A'>, 'Auth': <class 'gluon.tools.Auth'>, 'B': <class 'gluon.html.B'>, 'BEAUTIFY': <class 'gluon.html.BEAUTIFY'>, 'BODY': <class 'gluon.html.BODY'>, 'BR': <class 'gluon.html.BR'>, 'BUTTON': <class 'gluon.html.BUTTON'>, 'CENTER': <class 'gluon.html.CENTER'>, 'CLEANUP': <class 'gluon.validators.CLEANUP'>, 'CODE': <class 'gluon.html.CODE'>, ...}"
p3115
sS'ccode'
p3116
S'<code object <module> at 0x3519af8, file "/home/...cations/mvstore/controllers/default.py", line 12>'
p3117
ssS'lnum'
p3118
I192
sS'lines'
p3119
(dp3120
I192
S'        exec ccode in environment'
p3121
sI193
S'    except HTTP:'
p3122
sI194
S'        raise'
p3123
sI195
S'    except Exception:'
p3124
sI196
S'        # XXX Show exception in Wing IDE if running in debugger'
p3125
sI187
S'    try:'
p3126
sI188
S'        if type(code) == types.CodeType:'
p3127
sI189
S'            ccode = code'
p3128
sI190
S'        else:'
p3129
sI191
S'            ccode = compile2(code,layer)'
p3130
ssS'call'
p3131
S"(code='#-*- coding: utf-8 -*-\\n# this file is released u...orm)\\n\\nresponse._vars=response._caller(prestamos)\\n', environment={'A': <class 'gluon.html.A'>, 'Auth': <class 'gluon.tools.Auth'>, 'B': <class 'gluon.html.B'>, 'BEAUTIFY': <class 'gluon.html.BEAUTIFY'>, 'BODY': <class 'gluon.html.BODY'>, 'BR': <class 'gluon.html.BR'>, 'BUTTON': <class 'gluon.html.BUTTON'>, 'CENTER': <class 'gluon.html.CENTER'>, 'CLEANUP': <class 'gluon.validators.CLEANUP'>, 'CODE': <class 'gluon.html.CODE'>, ...}, layer='/home/marco/proyectos/web2py-trunk/applications/mvstore/controllers/default.py')"
p3132
sS'func'
p3133
S'restricted'
p3134
sa(dp3135
g3110
S'/home/marco/proyectos/web2py-trunk/applications/mvstore/controllers/default.py'
p3136
sg3112
(dp3137
sg3118
I70
sg3119
(dp3138
I64
S'    return dict(form=form)'
p3139
sI65
S''
sI66
S'def prestamos():'
p3140
sI67
S'    form=crud.create(db.prestamos)'
p3141
sI68
S'    return dict(form=form)'
p3142
sI59
S'    form=crud.create(db.clientes)'
p3143
sI60
S'    return dict(form=form)'
p3144
sI61
S''
sI62
S'def peliculas():'
p3145
sI63
S'    form=crud.create(db.peliculas)'
p3146
ssg3131
S'()'
p3147
sg3133
S'<module>'
p3148
sa(dp3149
g3110
S'/home/marco/proyectos/web2py-trunk/gluon/globals.py'
p3150
sg3112
(dp3151
S'self'
p3152
S'undefined'
p3153
sS'f'
S'<function prestamos>'
p3154
ssg3118
I137
sg3119
(dp3155
I132
S"        self.flash = ''           # used by the default view layout"
p3156
sI133
S'        self.meta = Storage()     # used by web2py_ajax.html'
p3157
sI134
S'        self.menu = []            # used by the default view layout'
p3158
sI135
S'        self.files = []           # used by web2py_ajax.html'
p3159
sI136
S'        self._vars = None'
p3160
sI137
S'        self._caller = lambda f: f()'
p3161
sI138
S'        self._view_environment = None'
p3162
sI139
S'        self._custom_commit = None'
p3163
sI140
S'        self._custom_rollback = None'
p3164
sI141
S''
ssg3131
S'(f=<function prestamos>)'
p3165
sg3133
S'<lambda>'
p3166
sa(dp3167
g3110
S'/home/marco/proyectos/web2py-trunk/applications/mvstore/controllers/default.py'
p3168
sg3112
(dp3169
S'global crud'
p3170
S'<gluon.tools.Crud object>'
p3171
sS'crud.create'
p3172
S'<bound method Crud.create of <gluon.tools.Crud object>>'
p3173
sS'global db'
p3174
S"<DAL {'auth_event': <Table {'origin': <gluon.dal..., 'id': <gluon.dal.Field object at 0x350ec90>}>}>"
p3175
sS'form'
p3176
g3153
sS'db.prestamos'
p3177
S"<Table {'mora': <gluon.dal.Field object at 0x350...y-trunk/applications/mvstore/databases/sql.log'}>"
p3178
ssg3118
I67
sg3119
(dp3179
I64
S'    return dict(form=form)'
p3180
sI65
S''
sI66
S'def prestamos():'
p3181
sI67
S'    form=crud.create(db.prestamos)'
p3182
sI68
S'    return dict(form=form)'
p3183
sI59
S'    form=crud.create(db.clientes)'
p3184
sI60
S'    return dict(form=form)'
p3185
sI61
S''
sI62
S'def peliculas():'
p3186
sI63
S'    form=crud.create(db.peliculas)'
p3187
ssg3131
S'()'
p3188
sg3133
S'prestamos'
p3189
sa(dp3190
g3110
S'/home/marco/proyectos/web2py-trunk/gluon/tools.py'
p3191
sg3112
(dp3192
S'formname'
p3193
S'<function <lambda>>'
p3194
ssg3118
I3120
sg3119
(dp3195
I3115
S'            onvalidation=onvalidation,'
p3196
sI3116
S'            onaccept=onaccept,'
p3197
sI3117
S'            log=log,'
p3198
sI3118
S'            message=message,'
p3199
sI3119
S'            deletable=False,'
p3200
sI3120
S'            formname=formname,'
p3201
sI3121
S'            )'
p3202
sI3122
S''
sI3123
S'    def read(self, table, record):'
p3203
sI3124
S'        if not (isinstance(table, self.db.Table) or table in self.db.tables) \\'
p3204
ssg3131
S"(self=<gluon.tools.Crud object>, table=<Table {'mora': <gluon.dal.Field object at 0x350...y-trunk/applications/mvstore/databases/sql.log'}>, next=None, onvalidation=<Storage {}>, onaccept=<Storage {}>, log='Record %(id)s created', message='Record Created', formname=<function <lambda>>)"
p3205
sg3133
S'create'
p3206
sa(dp3207
g3110
S'/home/marco/proyectos/web2py-trunk/gluon/tools.py'
p3208
sg3112
(dp3209
S'formstyle'
p3210
g3153
sS'self'
p3211
S'<gluon.tools.Crud object>'
p3212
sS'self.settings'
p3213
S"<Storage {'showid': False, 'delete_onaccept': <S...ble': True, 'create_onvalidation': <Storage {}>}>"
p3214
sS'self.settings.formstyle'
p3215
S"'table3cols'"
p3216
ssg3118
I3032
sg3119
(dp3217
I3027
S'            showid=self.settings.showid,'
p3218
sI3028
S'            submit_button=self.messages.submit_button,'
p3219
sI3029
S'            delete_label=self.messages.delete_label,'
p3220
sI3030
S'            deletable=deletable,'
p3221
sI3031
S'            upload=self.settings.download_url,'
p3222
sI3032
S'            formstyle=self.settings.formstyle'
p3223
sI3033
S'            )'
p3224
sI3034
S'        self.accepted = False'
p3225
sI3035
S'        self.deleted = False'
p3226
sI3036
S'        captcha = self.settings.update_captcha or \\'
p3227
ssg3131
S"(self=<gluon.tools.Crud object>, table=<Table {'mora': <gluon.dal.Field object at 0x350...y-trunk/applications/mvstore/databases/sql.log'}>, record=None, next=None, onvalidation=<Storage {}>, onaccept=<Storage {}>, ondelete=<Storage {}>, log='Record %(id)s created', message='Record Created', deletable=False, formname=<function <lambda>>)"
p3228
sg3133
S'update'
p3229
sa(dp3230
g3110
S'/home/marco/proyectos/web2py-trunk/gluon/sqlhtml.py'
p3231
sg3112
(dp3232
S'default'
p3233
S'None'
p3234
sS'self.widgets.options.widget'
p3235
S'<function widget>'
p3236
sS'self'
p3237
S'<gluon.sqlhtml.SQLFORM object>'
p3238
sS'inp'
p3239
S'<gluon.html.INPUT object>'
p3240
sS'self.widgets'
p3241
S"<Storage {'multiple': <class 'gluon.sqlhtml.Mult...ss 'gluon.sqlhtml.OptionsWidget'>, 'blob': None}>"
p3242
sS'field'
p3243
S'<gluon.dal.Field object>'
p3244
sS'self.widgets.options'
p3245
S"<class 'gluon.sqlhtml.OptionsWidget'>"
p3246
ssg3118
I817
sg3119
(dp3247
I812
S"                    inpval = 'checked'"
p3248
sI813
S'                else:'
p3249
sI814
S"                    inpval = ''"
p3250
sI815
S'            elif OptionsWidget.has_options(field):'
p3251
sI816
S'                if not field.requires.multiple:'
p3252
sI817
S'                    inp = self.widgets.options.widget(field, default)'
p3253
sI818
S'                else:'
p3254
sI819
S'                    inp = self.widgets.multiple.widget(field, default)'
p3255
sI820
S'                if fieldname in keepopts:'
p3256
sI821
S"                    inpval = TAG[''](*inp.components)"
p3257
ssg3131
S"(self=<gluon.sqlhtml.SQLFORM object>, table=<Table {'mora': <gluon.dal.Field object at 0x350...y-trunk/applications/mvstore/databases/sql.log'}>, record=None, deletable=False, linkto=None, upload='/mvstore/default/download', fields=['id', 'titulo', 'cliente', 'empleado', 'fecha', 'devol', 'costo', 'mora'], labels=None, col3={}, submit_button='Submit', delete_label='Check to delete:', showid=False, readonly=False, comments=True, keepopts=[], ignore_rw=False, record_id=None, formstyle='table3cols', buttons=['submit'], **attributes={'hidden': {'_next': None}})"
p3258
sg3133
g49
sa(dp3259
g3110
S'/home/marco/proyectos/web2py-trunk/gluon/sqlhtml.py'
p3260
sg3112
(dp3261
S'].options'
p3262
g3153
sS'requires'
p3263
S'[<gluon.validators.IS_IN_DB object>]'
p3264
sS'options'
p3265
g3153
ssg3118
I206
sg3119
(dp3266
I201
S'        requires = field.requires'
p3267
sI202
S'        if not isinstance(requires, (list, tuple)):'
p3268
sI203
S'            requires = [requires]'
p3269
sI204
S'        if requires:'
p3270
sI205
S"            if hasattr(requires[0], 'options'):"
p3271
sI206
S'                options = requires[0].options()'
p3272
sI207
S'            else:'
p3273
sI208
S"                raise SyntaxError, 'widget cannot determine options of %s' \\"
p3274
sI209
S'                    % field'
p3275
sI210
S'        opts = [OPTION(v, _value=k) for (k, v) in options]'
p3276
ssg3131
S'(field=<gluon.dal.Field object>, value=None, **attributes={})'
p3277
sg3133
S'widget'
p3278
sa(dp3279
g3110
S'/home/marco/proyectos/web2py-trunk/gluon/validators.py'
p3280
sg3112
(dp3281
S'self'
p3282
S'<gluon.validators.IS_IN_DB object>'
p3283
sS'self.build_set'
p3284
S'<bound method IS_IN_DB.build_set of <gluon.validators.IS_IN_DB object>>'
p3285
ssg3118
I438
sg3119
(dp3286
I433
S'            self.labels = [self.label % dict(r) for r in records]'
p3287
sI434
S'        else:'
p3288
sI435
S'            self.labels = [self.label(r) for r in records]'
p3289
sI436
S''
sI437
S'    def options(self):'
p3290
sI438
S'        self.build_set()'
p3291
sI439
S'        items = [(k, self.labels[i]) for (i, k) in enumerate(self.theset)]'
p3292
sI440
S'        if self.sort:'
p3293
sI441
S'            items.sort(options_sorter)'
p3294
sI442
S'        if self.zero != None and not self.multiple:'
p3295
ssg3131
S'(self=<gluon.validators.IS_IN_DB object>)'
p3296
sg3133
S'options'
p3297
sa(dp3298
g3110
S'/home/marco/proyectos/web2py-trunk/gluon/validators.py'
p3299
sg3112
(dp3300
S'self.dbset'
p3301
S'<gluon.dal.Set object>'
p3302
sS'fields'
p3303
g3153
sS'self'
p3304
S'<gluon.validators.IS_IN_DB object>'
p3305
sS'self.ktable'
p3306
S"'clientes'"
p3307
sS'self.fields'
p3308
S"['first_name', 'last_name', 'id']"
p3309
sS'self.dbset.db'
p3310
S"<DAL {'auth_event': <Table {'origin': <gluon.dal..., 'id': <gluon.dal.Field object at 0x350ec90>}>}>"
p3311
sS'k'
S"'first_name'"
p3312
ssg3118
I421
sg3119
(dp3313
I416
S''
sI417
S'    def build_set(self):'
p3314
sI418
S"        if self.fields == 'all':"
p3315
sI419
S'            fields = [f for f in self.dbset.db[self.ktable]]'
p3316
sI420
S'        else:'
p3317
sI421
S'            fields = [self.dbset.db[self.ktable][k] for k in self.fields]'
p3318
sI422
S"        if self.dbset.db._dbname != 'gae':"
p3319
sI423
S'            orderby = self.orderby or reduce(lambda a,b:a|b,fields)'
p3320
sI424
S'            groupby = self.groupby'
p3321
sI425
S'            dd = dict(orderby=orderby, groupby=groupby, cache=self.cache)'
p3322
ssg3131
S'(self=<gluon.validators.IS_IN_DB object>)'
p3323
sg3133
S'build_set'
p3324
sa(dp3325
g3110
S'/home/marco/proyectos/web2py-trunk/gluon/dal.py'
p3326
sg3112
(dp3327
S'builtinstr'
p3328
S"<type 'str'>"
p3329
sS'self'
p3330
S"<Table {'foto': <gluon.dal.Field object at 0x350...cumento': <gluon.dal.Field object at 0x350b990>}>"
p3331
sS'dict.__getitem__'
p3332
S"<method '__getitem__' of 'dict' objects>"
p3333
sS'key'
p3334
S"'first_name'"
p3335
sS'builtindict'
p3336
S"<type 'dict'>"
p3337
ssg3118
I4592
sg3119
(dp3338
I4587
S'                return rows[0]'
p3339
sI4588
S'            return None'
p3340
sI4589
S'        elif str(key).isdigit():'
p3341
sI4590
S'            return self._db(self._id == key).select(limitby=(0,1)).first()'
p3342
sI4591
S'        elif key:'
p3343
sI4592
S'            return dict.__getitem__(self, str(key))'
p3344
sI4593
S''
sI4594
S'    def __call__(self, key=DEFAULT, **kwargs):'
p3345
sI4595
S'        if key!=DEFAULT:'
p3346
sI4596
S'            if isinstance(key, Query):'
p3347
ssg3131
S"(self=<Table {'foto': <gluon.dal.Field object at 0x350...cumento': <gluon.dal.Field object at 0x350b990>}>, key='first_name')"
p3348
sg3133
g19
sasS'pyver'
p3349
S'Python 2.6.6: /usr/bin/python'
p3350
sS'session'
p3351
g56
(g57
g58
NtRp3352
(dp3353
g61
(dp3354
sg63
(lp3355
g56
(g65
g58
NtRp3356
(dp3357
g61
(dp3358
g69
I5
ssg70
Nsg63
(lp3359
sbasbsS'etype'
p3360
S"<type 'exceptions.KeyError'>"
p3361
sS'date'
p3362
S'Sat Jun 18 00:55:20 2011'
p3363
sS'response'
p3364
g56
(g57
g58
NtRp3365
(dp3366
g61
(dp3367
sg63
(lp3368
g56
(g65
g58
NtRp3369
(dp3370
g61
(dp3371
g69
I5
ssg70
Nsg63
(lp3372
g56
(g72
g58
NtRp3373
(dp3374
g61
(dp3375
sg70
g3369
sg63
(lp3376
g56
(g77
g58
NtRp3377
(dp3378
g61
(dp3379
g81
g82
ssg70
g3373
sg63
(lp3380
g154
asbag56
(g77
g58
NtRp3381
(dp3382
g61
(dp3383
g88
g89
ssg70
g3373
sg63
(lp3384
S':'
asbag56
(g77
g58
NtRp3385
(dp3386
g61
(dp3387
sg70
g3373
sg63
(lp3388
g56
(g57
g58
NtRp3389
(dp3390
g61
(dp3391
g69
I5
ssg70
g3385
sg63
(lp3392
S'<cStringIO.StringO object at 0x281bfb8>'
p3393
asbasbasbag56
(g72
g58
NtRp3394
(dp3395
g61
(dp3396
sg70
g3369
sg63
(lp3397
g56
(g77
g58
NtRp3398
(dp3399
g61
(dp3400
g81
g82
ssg70
g3394
sg63
(lp3401
g220
asbag56
(g77
g58
NtRp3402
(dp3403
g61
(dp3404
g88
g89
ssg70
g3394
sg63
(lp3405
S':'
asbag56
(g77
g58
NtRp3406
(dp3407
g61
(dp3408
sg70
g3394
sg63
(lp3409
g56
(g57
g58
NtRp3410
(dp3411
g61
(dp3412
g69
I5
ssg70
g3406
sg63
(lp3413
g56
(g65
g58
NtRp3414
(dp3415
g61
(dp3416
g69
I4
ssg70
Nsg63
(lp3417
g56
(g72
g58
NtRp3418
(dp3419
g61
(dp3420
sg70
g3414
sg63
(lp3421
g56
(g77
g58
NtRp3422
(dp3423
g61
(dp3424
g81
g82
ssg70
g3418
sg63
(lp3425
S'session_id_mvstore'
p3426
asbag56
(g77
g58
NtRp3427
(dp3428
g61
(dp3429
g88
g89
ssg70
g3418
sg63
(lp3430
S':'
asbag56
(g77
g58
NtRp3431
(dp3432
g61
(dp3433
sg70
g3418
sg63
(lp3434
g56
(g57
g58
NtRp3435
(dp3436
g61
(dp3437
g69
I4
ssg70
g3431
sg63
(lp3438
g56
(g65
g58
NtRp3439
(dp3440
g61
(dp3441
g69
I3
ssg70
Nsg63
(lp3442
g56
(g72
g58
NtRp3443
(dp3444
g61
(dp3445
sg70
g3439
sg63
(lp3446
g56
(g77
g58
NtRp3447
(dp3448
g61
(dp3449
g81
g82
ssg70
g3443
sg63
(lp3450
g270
asbag56
(g77
g58
NtRp3451
(dp3452
g61
(dp3453
g88
g89
ssg70
g3443
sg63
(lp3454
S':'
asbag56
(g77
g58
NtRp3455
(dp3456
g61
(dp3457
sg70
g3443
sg63
(lp3458
g56
(g57
g58
NtRp3459
(dp3460
g61
(dp3461
g69
I3
ssg70
g3455
sg63
(lp3462
S''
asbasbasbag56
(g72
g58
NtRp3463
(dp3464
g61
(dp3465
sg70
g3439
sg63
(lp3466
g56
(g77
g58
NtRp3467
(dp3468
g61
(dp3469
g81
g82
ssg70
g3463
sg63
(lp3470
g291
asbag56
(g77
g58
NtRp3471
(dp3472
g61
(dp3473
g88
g89
ssg70
g3463
sg63
(lp3474
S':'
asbag56
(g77
g58
NtRp3475
(dp3476
g61
(dp3477
sg70
g3463
sg63
(lp3478
g56
(g57
g58
NtRp3479
(dp3480
g61
(dp3481
g69
I3
ssg70
g3475
sg63
(lp3482
S''
asbasbasbag56
(g72
g58
NtRp3483
(dp3484
g61
(dp3485
sg70
g3439
sg63
(lp3486
g56
(g77
g58
NtRp3487
(dp3488
g61
(dp3489
g81
g82
ssg70
g3483
sg63
(lp3490
g312
asbag56
(g77
g58
NtRp3491
(dp3492
g61
(dp3493
g88
g89
ssg70
g3483
sg63
(lp3494
S':'
asbag56
(g77
g58
NtRp3495
(dp3496
g61
(dp3497
sg70
g3483
sg63
(lp3498
g56
(g57
g58
NtRp3499
(dp3500
g61
(dp3501
g69
I3
ssg70
g3495
sg63
(lp3502
S''
asbasbasbag56
(g72
g58
NtRp3503
(dp3504
g61
(dp3505
sg70
g3439
sg63
(lp3506
g56
(g77
g58
NtRp3507
(dp3508
g61
(dp3509
g81
g82
ssg70
g3503
sg63
(lp3510
g333
asbag56
(g77
g58
NtRp3511
(dp3512
g61
(dp3513
g88
g89
ssg70
g3503
sg63
(lp3514
S':'
asbag56
(g77
g58
NtRp3515
(dp3516
g61
(dp3517
sg70
g3503
sg63
(lp3518
g56
(g57
g58
NtRp3519
(dp3520
g61
(dp3521
g69
I3
ssg70
g3515
sg63
(lp3522
S''
asbasbasbag56
(g72
g58
NtRp3523
(dp3524
g61
(dp3525
sg70
g3439
sg63
(lp3526
g56
(g77
g58
NtRp3527
(dp3528
g61
(dp3529
g81
g82
ssg70
g3523
sg63
(lp3530
g354
asbag56
(g77
g58
NtRp3531
(dp3532
g61
(dp3533
g88
g89
ssg70
g3523
sg63
(lp3534
S':'
asbag56
(g77
g58
NtRp3535
(dp3536
g61
(dp3537
sg70
g3523
sg63
(lp3538
g56
(g57
g58
NtRp3539
(dp3540
g61
(dp3541
g69
I3
ssg70
g3535
sg63
(lp3542
S''
asbasbasbag56
(g72
g58
NtRp3543
(dp3544
g61
(dp3545
sg70
g3439
sg63
(lp3546
g56
(g77
g58
NtRp3547
(dp3548
g61
(dp3549
g81
g82
ssg70
g3543
sg63
(lp3550
g375
asbag56
(g77
g58
NtRp3551
(dp3552
g61
(dp3553
g88
g89
ssg70
g3543
sg63
(lp3554
S':'
asbag56
(g77
g58
NtRp3555
(dp3556
g61
(dp3557
sg70
g3543
sg63
(lp3558
g56
(g57
g58
NtRp3559
(dp3560
g61
(dp3561
g69
I3
ssg70
g3555
sg63
(lp3562
S'/'
asbasbasbag56
(g72
g58
NtRp3563
(dp3564
g61
(dp3565
sg70
g3439
sg63
(lp3566
g56
(g77
g58
NtRp3567
(dp3568
g61
(dp3569
g81
g82
ssg70
g3563
sg63
(lp3570
g396
asbag56
(g77
g58
NtRp3571
(dp3572
g61
(dp3573
g88
g89
ssg70
g3563
sg63
(lp3574
S':'
asbag56
(g77
g58
NtRp3575
(dp3576
g61
(dp3577
sg70
g3563
sg63
(lp3578
g56
(g57
g58
NtRp3579
(dp3580
g61
(dp3581
g69
I3
ssg70
g3575
sg63
(lp3582
S''
asbasbasbag56
(g72
g58
NtRp3583
(dp3584
g61
(dp3585
sg70
g3439
sg63
(lp3586
g56
(g77
g58
NtRp3587
(dp3588
g61
(dp3589
g81
g82
ssg70
g3583
sg63
(lp3590
g417
asbag56
(g77
g58
NtRp3591
(dp3592
g61
(dp3593
g88
g89
ssg70
g3583
sg63
(lp3594
S':'
asbag56
(g77
g58
NtRp3595
(dp3596
g61
(dp3597
sg70
g3583
sg63
(lp3598
g56
(g57
g58
NtRp3599
(dp3600
g61
(dp3601
g69
I3
ssg70
g3595
sg63
(lp3602
S''
asbasbasbasbasbasbasbasbasbasbasbag56
(g72
g58
NtRp3603
(dp3604
g61
(dp3605
sg70
g3369
sg63
(lp3606
g56
(g77
g58
NtRp3607
(dp3608
g61
(dp3609
g81
g82
ssg70
g3603
sg63
(lp3610
S'files'
p3611
asbag56
(g77
g58
NtRp3612
(dp3613
g61
(dp3614
g88
g89
ssg70
g3603
sg63
(lp3615
S':'
asbag56
(g77
g58
NtRp3616
(dp3617
g61
(dp3618
sg70
g3603
sg63
(lp3619
g56
(g57
g58
NtRp3620
(dp3621
g61
(dp3622
g69
I5
ssg70
g3616
sg63
(lp3623
g56
(g65
g58
NtRp3624
(dp3625
g61
(dp3626
g69
I4
ssg70
Nsg63
(lp3627
sbasbasbasbag56
(g72
g58
NtRp3628
(dp3629
g61
(dp3630
sg70
g3369
sg63
(lp3631
g56
(g77
g58
NtRp3632
(dp3633
g61
(dp3634
g81
g82
ssg70
g3628
sg63
(lp3635
S'flash'
p3636
asbag56
(g77
g58
NtRp3637
(dp3638
g61
(dp3639
g88
g89
ssg70
g3628
sg63
(lp3640
S':'
asbag56
(g77
g58
NtRp3641
(dp3642
g61
(dp3643
sg70
g3628
sg63
(lp3644
g56
(g57
g58
NtRp3645
(dp3646
g61
(dp3647
g69
I5
ssg70
g3641
sg63
(lp3648
S''
asbasbasbag56
(g72
g58
NtRp3649
(dp3650
g61
(dp3651
sg70
g3369
sg63
(lp3652
g56
(g77
g58
NtRp3653
(dp3654
g61
(dp3655
g81
g82
ssg70
g3649
sg63
(lp3656
S'headers'
p3657
asbag56
(g77
g58
NtRp3658
(dp3659
g61
(dp3660
g88
g89
ssg70
g3649
sg63
(lp3661
S':'
asbag56
(g77
g58
NtRp3662
(dp3663
g61
(dp3664
sg70
g3649
sg63
(lp3665
g56
(g57
g58
NtRp3666
(dp3667
g61
(dp3668
g69
I5
ssg70
g3662
sg63
(lp3669
g56
(g65
g58
NtRp3670
(dp3671
g61
(dp3672
g69
I4
ssg70
Nsg63
(lp3673
g56
(g72
g58
NtRp3674
(dp3675
g61
(dp3676
sg70
g3670
sg63
(lp3677
g56
(g77
g58
NtRp3678
(dp3679
g61
(dp3680
g81
g82
ssg70
g3674
sg63
(lp3681
S'Cache-Control'
p3682
asbag56
(g77
g58
NtRp3683
(dp3684
g61
(dp3685
g88
g89
ssg70
g3674
sg63
(lp3686
S':'
asbag56
(g77
g58
NtRp3687
(dp3688
g61
(dp3689
sg70
g3674
sg63
(lp3690
g56
(g57
g58
NtRp3691
(dp3692
g61
(dp3693
g69
I4
ssg70
g3687
sg63
(lp3694
S'no-store, no-cache, must-revalidate, post-check=0, pre-check=0'
p3695
asbasbasbag56
(g72
g58
NtRp3696
(dp3697
g61
(dp3698
sg70
g3670
sg63
(lp3699
g56
(g77
g58
NtRp3700
(dp3701
g61
(dp3702
g81
g82
ssg70
g3696
sg63
(lp3703
S'Content-Type'
p3704
asbag56
(g77
g58
NtRp3705
(dp3706
g61
(dp3707
g88
g89
ssg70
g3696
sg63
(lp3708
S':'
asbag56
(g77
g58
NtRp3709
(dp3710
g61
(dp3711
sg70
g3696
sg63
(lp3712
g56
(g57
g58
NtRp3713
(dp3714
g61
(dp3715
g69
I4
ssg70
g3709
sg63
(lp3716
S'text/html; charset=utf-8'
p3717
asbasbasbag56
(g72
g58
NtRp3718
(dp3719
g61
(dp3720
sg70
g3670
sg63
(lp3721
g56
(g77
g58
NtRp3722
(dp3723
g61
(dp3724
g81
g82
ssg70
g3718
sg63
(lp3725
S'Expires'
p3726
asbag56
(g77
g58
NtRp3727
(dp3728
g61
(dp3729
g88
g89
ssg70
g3718
sg63
(lp3730
S':'
asbag56
(g77
g58
NtRp3731
(dp3732
g61
(dp3733
sg70
g3718
sg63
(lp3734
g56
(g57
g58
NtRp3735
(dp3736
g61
(dp3737
g69
I4
ssg70
g3731
sg63
(lp3738
S'Sat, 18 Jun 2011 03:55:20 GMT'
p3739
asbasbasbag56
(g72
g58
NtRp3740
(dp3741
g61
(dp3742
sg70
g3670
sg63
(lp3743
g56
(g77
g58
NtRp3744
(dp3745
g61
(dp3746
g81
g82
ssg70
g3740
sg63
(lp3747
S'Pragma'
p3748
asbag56
(g77
g58
NtRp3749
(dp3750
g61
(dp3751
g88
g89
ssg70
g3740
sg63
(lp3752
S':'
asbag56
(g77
g58
NtRp3753
(dp3754
g61
(dp3755
sg70
g3740
sg63
(lp3756
g56
(g57
g58
NtRp3757
(dp3758
g61
(dp3759
g69
I4
ssg70
g3753
sg63
(lp3760
S'no-cache'
p3761
asbasbasbag56
(g72
g58
NtRp3762
(dp3763
g61
(dp3764
sg70
g3670
sg63
(lp3765
g56
(g77
g58
NtRp3766
(dp3767
g61
(dp3768
g81
g82
ssg70
g3762
sg63
(lp3769
S'X-Powered-By'
p3770
asbag56
(g77
g58
NtRp3771
(dp3772
g61
(dp3773
g88
g89
ssg70
g3762
sg63
(lp3774
S':'
asbag56
(g77
g58
NtRp3775
(dp3776
g61
(dp3777
sg70
g3762
sg63
(lp3778
g56
(g57
g58
NtRp3779
(dp3780
g61
(dp3781
g69
I4
ssg70
g3775
sg63
(lp3782
S'web2py'
p3783
asbasbasbasbasbasbasbag56
(g72
g58
NtRp3784
(dp3785
g61
(dp3786
sg70
g3369
sg63
(lp3787
g56
(g77
g58
NtRp3788
(dp3789
g61
(dp3790
g81
g82
ssg70
g3784
sg63
(lp3791
S'menu'
p3792
asbag56
(g77
g58
NtRp3793
(dp3794
g61
(dp3795
g88
g89
ssg70
g3784
sg63
(lp3796
S':'
asbag56
(g77
g58
NtRp3797
(dp3798
g61
(dp3799
sg70
g3784
sg63
(lp3800
g56
(g57
g58
NtRp3801
(dp3802
g61
(dp3803
g69
I5
ssg70
g3797
sg63
(lp3804
g56
(g65
g58
NtRp3805
(dp3806
g61
(dp3807
g69
I4
ssg70
Nsg63
(lp3808
g56
(g72
g58
NtRp3809
(dp3810
g61
(dp3811
sg70
g3805
sg63
(lp3812
g56
(g77
g58
NtRp3813
(dp3814
g61
(dp3815
sg70
g3809
sg63
(lp3816
g56
(g57
g58
NtRp3817
(dp3818
g61
(dp3819
g69
I4
ssg70
g3813
sg63
(lp3820
g56
(g65
g58
NtRp3821
(dp3822
g61
(dp3823
g69
I3
ssg70
Nsg63
(lp3824
g56
(g72
g58
NtRp3825
(dp3826
g61
(dp3827
sg70
g3821
sg63
(lp3828
g56
(g77
g58
NtRp3829
(dp3830
g61
(dp3831
sg70
g3825
sg63
(lp3832
g56
(g57
g58
NtRp3833
(dp3834
g61
(dp3835
g69
I3
ssg70
g3829
sg63
(lp3836
cgluon.languages
lazyT_unpickle
p3837
(S's\x04\x00\x00\x00Home'
tRp3838
asbasbasbag56
(g72
g58
NtRp3839
(dp3840
g61
(dp3841
sg70
g3821
sg63
(lp3842
g56
(g77
g58
NtRp3843
(dp3844
g61
(dp3845
sg70
g3839
sg63
(lp3846
g56
(g57
g58
NtRp3847
(dp3848
g61
(dp3849
g69
I3
ssg70
g3843
sg63
(lp3850
g99
asbasbasbag56
(g72
g58
NtRp3851
(dp3852
g61
(dp3853
sg70
g3821
sg63
(lp3854
g56
(g77
g58
NtRp3855
(dp3856
g61
(dp3857
sg70
g3851
sg63
(lp3858
g56
(g57
g58
NtRp3859
(dp3860
g61
(dp3861
g69
I3
ssg70
g3855
sg63
(lp3862
S'/mvstore/default/index'
p3863
asbasbasbag56
(g72
g58
NtRp3864
(dp3865
g61
(dp3866
sg70
g3821
sg63
(lp3867
g56
(g77
g58
NtRp3868
(dp3869
g61
(dp3870
sg70
g3864
sg63
(lp3871
g56
(g57
g58
NtRp3872
(dp3873
g61
(dp3874
g69
I3
ssg70
g3868
sg63
(lp3875
g56
(g65
g58
NtRp3876
(dp3877
g61
(dp3878
g69
I2
ssg70
Nsg63
(lp3879
sbasbasbasbasbasbasbasbag56
(g72
g58
NtRp3880
(dp3881
g61
(dp3882
sg70
g3805
sg63
(lp3883
g56
(g77
g58
NtRp3884
(dp3885
g61
(dp3886
sg70
g3880
sg63
(lp3887
g56
(g57
g58
NtRp3888
(dp3889
g61
(dp3890
g69
I4
ssg70
g3884
sg63
(lp3891
g56
(g65
g58
NtRp3892
(dp3893
g61
(dp3894
g69
I3
ssg70
Nsg63
(lp3895
g56
(g72
g58
NtRp3896
(dp3897
g61
(dp3898
sg70
g3892
sg63
(lp3899
g56
(g77
g58
NtRp3900
(dp3901
g61
(dp3902
sg70
g3896
sg63
(lp3903
g56
(g57
g58
NtRp3904
(dp3905
g61
(dp3906
g69
I3
ssg70
g3900
sg63
(lp3907
g3837
(S's\x08\x00\x00\x00This App'
tRp3908
asbasbasbag56
(g72
g58
NtRp3909
(dp3910
g61
(dp3911
sg70
g3892
sg63
(lp3912
g56
(g77
g58
NtRp3913
(dp3914
g61
(dp3915
sg70
g3909
sg63
(lp3916
g56
(g57
g58
NtRp3917
(dp3918
g61
(dp3919
g69
I3
ssg70
g3913
sg63
(lp3920
g99
asbasbasbag56
(g72
g58
NtRp3921
(dp3922
g61
(dp3923
sg70
g3892
sg63
(lp3924
g56
(g77
g58
NtRp3925
(dp3926
g61
(dp3927
sg70
g3921
sg63
(lp3928
g56
(g57
g58
NtRp3929
(dp3930
g61
(dp3931
g69
I3
ssg70
g3925
sg63
(lp3932
S'/admin/default/design/mvstore'
p3933
asbasbasbag56
(g72
g58
NtRp3934
(dp3935
g61
(dp3936
sg70
g3892
sg63
(lp3937
g56
(g77
g58
NtRp3938
(dp3939
g61
(dp3940
sg70
g3934
sg63
(lp3941
g56
(g57
g58
NtRp3942
(dp3943
g61
(dp3944
g69
I3
ssg70
g3938
sg63
(lp3945
g56
(g65
g58
NtRp3946
(dp3947
g61
(dp3948
g69
I2
ssg70
Nsg63
(lp3949
g56
(g72
g58
NtRp3950
(dp3951
g61
(dp3952
sg70
g3946
sg63
(lp3953
g56
(g77
g58
NtRp3954
(dp3955
g61
(dp3956
sg70
g3950
sg63
(lp3957
g56
(g57
g58
NtRp3958
(dp3959
g61
(dp3960
g69
I2
ssg70
g3954
sg63
(lp3961
g56
(g65
g58
NtRp3962
(dp3963
g61
(dp3964
g69
I1
ssg70
Nsg63
(lp3965
g56
(g72
g58
NtRp3966
(dp3967
g61
(dp3968
sg70
g3962
sg63
(lp3969
g56
(g77
g58
NtRp3970
(dp3971
g61
(dp3972
sg70
g3966
sg63
(lp3973
g56
(g57
g58
NtRp3974
(dp3975
g61
(dp3976
g69
I1
ssg70
g3970
sg63
(lp3977
g3837
(S's\n\x00\x00\x00Controller'
tRp3978
asbasbasbag56
(g72
g58
NtRp3979
(dp3980
g61
(dp3981
sg70
g3962
sg63
(lp3982
g56
(g77
g58
NtRp3983
(dp3984
g61
(dp3985
sg70
g3979
sg63
(lp3986
g56
(g57
g58
NtRp3987
(dp3988
g61
(dp3989
g69
I1
ssg70
g3983
sg63
(lp3990
I00
asbasbasbag56
(g72
g58
NtRp3991
(dp3992
g61
(dp3993
sg70
g3962
sg63
(lp3994
g56
(g77
g58
NtRp3995
(dp3996
g61
(dp3997
sg70
g3991
sg63
(lp3998
g56
(g57
g58
NtRp3999
(dp4000
g61
(dp4001
g69
I1
ssg70
g3995
sg63
(lp4002
S'/admin/default/edit/mvstore/controllers/default.py'
p4003
asbasbasbasbasbasbasbag56
(g72
g58
NtRp4004
(dp4005
g61
(dp4006
sg70
g3946
sg63
(lp4007
g56
(g77
g58
NtRp4008
(dp4009
g61
(dp4010
sg70
g4004
sg63
(lp4011
g56
(g57
g58
NtRp4012
(dp4013
g61
(dp4014
g69
I2
ssg70
g4008
sg63
(lp4015
g56
(g65
g58
NtRp4016
(dp4017
g61
(dp4018
g69
I1
ssg70
Nsg63
(lp4019
g56
(g72
g58
NtRp4020
(dp4021
g61
(dp4022
sg70
g4016
sg63
(lp4023
g56
(g77
g58
NtRp4024
(dp4025
g61
(dp4026
sg70
g4020
sg63
(lp4027
g56
(g57
g58
NtRp4028
(dp4029
g61
(dp4030
g69
I1
ssg70
g4024
sg63
(lp4031
g3837
(S's\x04\x00\x00\x00View'
tRp4032
asbasbasbag56
(g72
g58
NtRp4033
(dp4034
g61
(dp4035
sg70
g4016
sg63
(lp4036
g56
(g77
g58
NtRp4037
(dp4038
g61
(dp4039
sg70
g4033
sg63
(lp4040
g56
(g57
g58
NtRp4041
(dp4042
g61
(dp4043
g69
I1
ssg70
g4037
sg63
(lp4044
I00
asbasbasbag56
(g72
g58
NtRp4045
(dp4046
g61
(dp4047
sg70
g4016
sg63
(lp4048
g56
(g77
g58
NtRp4049
(dp4050
g61
(dp4051
sg70
g4045
sg63
(lp4052
g56
(g57
g58
NtRp4053
(dp4054
g61
(dp4055
g69
I1
ssg70
g4049
sg63
(lp4056
S'/admin/default/edit/mvstore/views/default/prestamos.html'
p4057
asbasbasbasbasbasbasbag56
(g72
g58
NtRp4058
(dp4059
g61
(dp4060
sg70
g3946
sg63
(lp4061
g56
(g77
g58
NtRp4062
(dp4063
g61
(dp4064
sg70
g4058
sg63
(lp4065
g56
(g57
g58
NtRp4066
(dp4067
g61
(dp4068
g69
I2
ssg70
g4062
sg63
(lp4069
g56
(g65
g58
NtRp4070
(dp4071
g61
(dp4072
g69
I1
ssg70
Nsg63
(lp4073
g56
(g72
g58
NtRp4074
(dp4075
g61
(dp4076
sg70
g4070
sg63
(lp4077
g56
(g77
g58
NtRp4078
(dp4079
g61
(dp4080
sg70
g4074
sg63
(lp4081
g56
(g57
g58
NtRp4082
(dp4083
g61
(dp4084
g69
I1
ssg70
g4078
sg63
(lp4085
g3837
(S's\x06\x00\x00\x00Layout'
tRp4086
asbasbasbag56
(g72
g58
NtRp4087
(dp4088
g61
(dp4089
sg70
g4070
sg63
(lp4090
g56
(g77
g58
NtRp4091
(dp4092
g61
(dp4093
sg70
g4087
sg63
(lp4094
g56
(g57
g58
NtRp4095
(dp4096
g61
(dp4097
g69
I1
ssg70
g4091
sg63
(lp4098
I00
asbasbasbag56
(g72
g58
NtRp4099
(dp4100
g61
(dp4101
sg70
g4070
sg63
(lp4102
g56
(g77
g58
NtRp4103
(dp4104
g61
(dp4105
sg70
g4099
sg63
(lp4106
g56
(g57
g58
NtRp4107
(dp4108
g61
(dp4109
g69
I1
ssg70
g4103
sg63
(lp4110
S'/admin/default/edit/mvstore/views/layout.html'
p4111
asbasbasbasbasbasbasbag56
(g72
g58
NtRp4112
(dp4113
g61
(dp4114
sg70
g3946
sg63
(lp4115
g56
(g77
g58
NtRp4116
(dp4117
g61
(dp4118
sg70
g4112
sg63
(lp4119
g56
(g57
g58
NtRp4120
(dp4121
g61
(dp4122
g69
I2
ssg70
g4116
sg63
(lp4123
g56
(g65
g58
NtRp4124
(dp4125
g61
(dp4126
g69
I1
ssg70
Nsg63
(lp4127
g56
(g72
g58
NtRp4128
(dp4129
g61
(dp4130
sg70
g4124
sg63
(lp4131
g56
(g77
g58
NtRp4132
(dp4133
g61
(dp4134
sg70
g4128
sg63
(lp4135
g56
(g57
g58
NtRp4136
(dp4137
g61
(dp4138
g69
I1
ssg70
g4132
sg63
(lp4139
g3837
(S's\n\x00\x00\x00Stylesheet'
tRp4140
asbasbasbag56
(g72
g58
NtRp4141
(dp4142
g61
(dp4143
sg70
g4124
sg63
(lp4144
g56
(g77
g58
NtRp4145
(dp4146
g61
(dp4147
sg70
g4141
sg63
(lp4148
g56
(g57
g58
NtRp4149
(dp4150
g61
(dp4151
g69
I1
ssg70
g4145
sg63
(lp4152
I00
asbasbasbag56
(g72
g58
NtRp4153
(dp4154
g61
(dp4155
sg70
g4124
sg63
(lp4156
g56
(g77
g58
NtRp4157
(dp4158
g61
(dp4159
sg70
g4153
sg63
(lp4160
g56
(g57
g58
NtRp4161
(dp4162
g61
(dp4163
g69
I1
ssg70
g4157
sg63
(lp4164
S'/admin/default/edit/mvstore/static/base.css'
p4165
asbasbasbasbasbasbasbag56
(g72
g58
NtRp4166
(dp4167
g61
(dp4168
sg70
g3946
sg63
(lp4169
g56
(g77
g58
NtRp4170
(dp4171
g61
(dp4172
sg70
g4166
sg63
(lp4173
g56
(g57
g58
NtRp4174
(dp4175
g61
(dp4176
g69
I2
ssg70
g4170
sg63
(lp4177
g56
(g65
g58
NtRp4178
(dp4179
g61
(dp4180
g69
I1
ssg70
Nsg63
(lp4181
g56
(g72
g58
NtRp4182
(dp4183
g61
(dp4184
sg70
g4178
sg63
(lp4185
g56
(g77
g58
NtRp4186
(dp4187
g61
(dp4188
sg70
g4182
sg63
(lp4189
g56
(g57
g58
NtRp4190
(dp4191
g61
(dp4192
g69
I1
ssg70
g4186
sg63
(lp4193
g3837
(S's\x08\x00\x00\x00DB Model'
tRp4194
asbasbasbag56
(g72
g58
NtRp4195
(dp4196
g61
(dp4197
sg70
g4178
sg63
(lp4198
g56
(g77
g58
NtRp4199
(dp4200
g61
(dp4201
sg70
g4195
sg63
(lp4202
g56
(g57
g58
NtRp4203
(dp4204
g61
(dp4205
g69
I1
ssg70
g4199
sg63
(lp4206
I00
asbasbasbag56
(g72
g58
NtRp4207
(dp4208
g61
(dp4209
sg70
g4178
sg63
(lp4210
g56
(g77
g58
NtRp4211
(dp4212
g61
(dp4213
sg70
g4207
sg63
(lp4214
g56
(g57
g58
NtRp4215
(dp4216
g61
(dp4217
g69
I1
ssg70
g4211
sg63
(lp4218
S'/admin/default/edit/mvstore/models/db.py'
p4219
asbasbasbasbasbasbasbag56
(g72
g58
NtRp4220
(dp4221
g61
(dp4222
sg70
g3946
sg63
(lp4223
g56
(g77
g58
NtRp4224
(dp4225
g61
(dp4226
sg70
g4220
sg63
(lp4227
g56
(g57
g58
NtRp4228
(dp4229
g61
(dp4230
g69
I2
ssg70
g4224
sg63
(lp4231
g56
(g65
g58
NtRp4232
(dp4233
g61
(dp4234
g69
I1
ssg70
Nsg63
(lp4235
g56
(g72
g58
NtRp4236
(dp4237
g61
(dp4238
sg70
g4232
sg63
(lp4239
g56
(g77
g58
NtRp4240
(dp4241
g61
(dp4242
sg70
g4236
sg63
(lp4243
g56
(g57
g58
NtRp4244
(dp4245
g61
(dp4246
g69
I1
ssg70
g4240
sg63
(lp4247
g3837
(S's\n\x00\x00\x00Menu Model'
tRp4248
asbasbasbag56
(g72
g58
NtRp4249
(dp4250
g61
(dp4251
sg70
g4232
sg63
(lp4252
g56
(g77
g58
NtRp4253
(dp4254
g61
(dp4255
sg70
g4249
sg63
(lp4256
g56
(g57
g58
NtRp4257
(dp4258
g61
(dp4259
g69
I1
ssg70
g4253
sg63
(lp4260
I00
asbasbasbag56
(g72
g58
NtRp4261
(dp4262
g61
(dp4263
sg70
g4232
sg63
(lp4264
g56
(g77
g58
NtRp4265
(dp4266
g61
(dp4267
sg70
g4261
sg63
(lp4268
g56
(g57
g58
NtRp4269
(dp4270
g61
(dp4271
g69
I1
ssg70
g4265
sg63
(lp4272
S'/admin/default/edit/mvstore/models/menu.py'
p4273
asbasbasbasbasbasbasbag56
(g72
g58
NtRp4274
(dp4275
g61
(dp4276
sg70
g3946
sg63
(lp4277
g56
(g77
g58
NtRp4278
(dp4279
g61
(dp4280
sg70
g4274
sg63
(lp4281
g56
(g57
g58
NtRp4282
(dp4283
g61
(dp4284
g69
I2
ssg70
g4278
sg63
(lp4285
g56
(g65
g58
NtRp4286
(dp4287
g61
(dp4288
g69
I1
ssg70
Nsg63
(lp4289
g56
(g72
g58
NtRp4290
(dp4291
g61
(dp4292
sg70
g4286
sg63
(lp4293
g56
(g77
g58
NtRp4294
(dp4295
g61
(dp4296
sg70
g4290
sg63
(lp4297
g56
(g57
g58
NtRp4298
(dp4299
g61
(dp4300
g69
I1
ssg70
g4294
sg63
(lp4301
g3837
(S's\x08\x00\x00\x00Database'
tRp4302
asbasbasbag56
(g72
g58
NtRp4303
(dp4304
g61
(dp4305
sg70
g4286
sg63
(lp4306
g56
(g77
g58
NtRp4307
(dp4308
g61
(dp4309
sg70
g4303
sg63
(lp4310
g56
(g57
g58
NtRp4311
(dp4312
g61
(dp4313
g69
I1
ssg70
g4307
sg63
(lp4314
I00
asbasbasbag56
(g72
g58
NtRp4315
(dp4316
g61
(dp4317
sg70
g4286
sg63
(lp4318
g56
(g77
g58
NtRp4319
(dp4320
g61
(dp4321
sg70
g4315
sg63
(lp4322
g56
(g57
g58
NtRp4323
(dp4324
g61
(dp4325
g69
I1
ssg70
g4319
sg63
(lp4326
S'/mvstore/appadmin/index'
p4327
asbasbasbasbasbasbasbag56
(g72
g58
NtRp4328
(dp4329
g61
(dp4330
sg70
g3946
sg63
(lp4331
g56
(g77
g58
NtRp4332
(dp4333
g61
(dp4334
sg70
g4328
sg63
(lp4335
g56
(g57
g58
NtRp4336
(dp4337
g61
(dp4338
g69
I2
ssg70
g4332
sg63
(lp4339
g56
(g65
g58
NtRp4340
(dp4341
g61
(dp4342
g69
I1
ssg70
Nsg63
(lp4343
g56
(g72
g58
NtRp4344
(dp4345
g61
(dp4346
sg70
g4340
sg63
(lp4347
g56
(g77
g58
NtRp4348
(dp4349
g61
(dp4350
sg70
g4344
sg63
(lp4351
g56
(g57
g58
NtRp4352
(dp4353
g61
(dp4354
g69
I1
ssg70
g4348
sg63
(lp4355
g3837
(S's\x06\x00\x00\x00Errors'
tRp4356
asbasbasbag56
(g72
g58
NtRp4357
(dp4358
g61
(dp4359
sg70
g4340
sg63
(lp4360
g56
(g77
g58
NtRp4361
(dp4362
g61
(dp4363
sg70
g4357
sg63
(lp4364
g56
(g57
g58
NtRp4365
(dp4366
g61
(dp4367
g69
I1
ssg70
g4361
sg63
(lp4368
I00
asbasbasbag56
(g72
g58
NtRp4369
(dp4370
g61
(dp4371
sg70
g4340
sg63
(lp4372
g56
(g77
g58
NtRp4373
(dp4374
g61
(dp4375
sg70
g4369
sg63
(lp4376
g56
(g57
g58
NtRp4377
(dp4378
g61
(dp4379
g69
I1
ssg70
g4373
sg63
(lp4380
S'/admin/default/errors/mvstore'
p4381
asbasbasbasbasbasbasbag56
(g72
g58
NtRp4382
(dp4383
g61
(dp4384
sg70
g3946
sg63
(lp4385
g56
(g77
g58
NtRp4386
(dp4387
g61
(dp4388
sg70
g4382
sg63
(lp4389
g56
(g57
g58
NtRp4390
(dp4391
g61
(dp4392
g69
I2
ssg70
g4386
sg63
(lp4393
g56
(g65
g58
NtRp4394
(dp4395
g61
(dp4396
g69
I1
ssg70
Nsg63
(lp4397
g56
(g72
g58
NtRp4398
(dp4399
g61
(dp4400
sg70
g4394
sg63
(lp4401
g56
(g77
g58
NtRp4402
(dp4403
g61
(dp4404
sg70
g4398
sg63
(lp4405
g56
(g57
g58
NtRp4406
(dp4407
g61
(dp4408
g69
I1
ssg70
g4402
sg63
(lp4409
g3837
(S's\x05\x00\x00\x00About'
tRp4410
asbasbasbag56
(g72
g58
NtRp4411
(dp4412
g61
(dp4413
sg70
g4394
sg63
(lp4414
g56
(g77
g58
NtRp4415
(dp4416
g61
(dp4417
sg70
g4411
sg63
(lp4418
g56
(g57
g58
NtRp4419
(dp4420
g61
(dp4421
g69
I1
ssg70
g4415
sg63
(lp4422
I00
asbasbasbag56
(g72
g58
NtRp4423
(dp4424
g61
(dp4425
sg70
g4394
sg63
(lp4426
g56
(g77
g58
NtRp4427
(dp4428
g61
(dp4429
sg70
g4423
sg63
(lp4430
g56
(g57
g58
NtRp4431
(dp4432
g61
(dp4433
g69
I1
ssg70
g4427
sg63
(lp4434
S'/admin/default/about/mvstore'
p4435
asbasbasbasbasbasbasbasbasbasbasbasbasbasbasbag56
(g72
g58
NtRp4436
(dp4437
g61
(dp4438
sg70
g3805
sg63
(lp4439
g56
(g77
g58
NtRp4440
(dp4441
g61
(dp4442
sg70
g4436
sg63
(lp4443
g56
(g57
g58
NtRp4444
(dp4445
g61
(dp4446
g69
I4
ssg70
g4440
sg63
(lp4447
g56
(g65
g58
NtRp4448
(dp4449
g61
(dp4450
g69
I3
ssg70
Nsg63
(lp4451
g56
(g72
g58
NtRp4452
(dp4453
g61
(dp4454
sg70
g4448
sg63
(lp4455
g56
(g77
g58
NtRp4456
(dp4457
g61
(dp4458
sg70
g4452
sg63
(lp4459
g56
(g57
g58
NtRp4460
(dp4461
g61
(dp4462
g69
I3
ssg70
g4456
sg63
(lp4463
g3837
(S's\t\x00\x00\x00Resources'
tRp4464
asbasbasbag56
(g72
g58
NtRp4465
(dp4466
g61
(dp4467
sg70
g4448
sg63
(lp4468
g56
(g77
g58
NtRp4469
(dp4470
g61
(dp4471
sg70
g4465
sg63
(lp4472
g56
(g57
g58
NtRp4473
(dp4474
g61
(dp4475
g69
I3
ssg70
g4469
sg63
(lp4476
g99
asbasbasbag56
(g72
g58
NtRp4477
(dp4478
g61
(dp4479
sg70
g4448
sg63
(lp4480
g56
(g77
g58
NtRp4481
(dp4482
g61
(dp4483
sg70
g4477
sg63
(lp4484
g56
(g57
g58
NtRp4485
(dp4486
g61
(dp4487
g69
I3
ssg70
g4481
sg63
(lp4488
S'None'
p4489
asbasbasbag56
(g72
g58
NtRp4490
(dp4491
g61
(dp4492
sg70
g4448
sg63
(lp4493
g56
(g77
g58
NtRp4494
(dp4495
g61
(dp4496
sg70
g4490
sg63
(lp4497
g56
(g57
g58
NtRp4498
(dp4499
g61
(dp4500
g69
I3
ssg70
g4494
sg63
(lp4501
g56
(g65
g58
NtRp4502
(dp4503
g61
(dp4504
g69
I2
ssg70
Nsg63
(lp4505
g56
(g72
g58
NtRp4506
(dp4507
g61
(dp4508
sg70
g4502
sg63
(lp4509
g56
(g77
g58
NtRp4510
(dp4511
g61
(dp4512
sg70
g4506
sg63
(lp4513
g56
(g57
g58
NtRp4514
(dp4515
g61
(dp4516
g69
I2
ssg70
g4510
sg63
(lp4517
g56
(g65
g58
NtRp4518
(dp4519
g61
(dp4520
g69
I1
ssg70
Nsg63
(lp4521
g56
(g72
g58
NtRp4522
(dp4523
g61
(dp4524
sg70
g4518
sg63
(lp4525
g56
(g77
g58
NtRp4526
(dp4527
g61
(dp4528
sg70
g4522
sg63
(lp4529
g56
(g57
g58
NtRp4530
(dp4531
g61
(dp4532
g69
I1
ssg70
g4526
sg63
(lp4533
g3837
(S's\r\x00\x00\x00Documentation'
tRp4534
asbasbasbag56
(g72
g58
NtRp4535
(dp4536
g61
(dp4537
sg70
g4518
sg63
(lp4538
g56
(g77
g58
NtRp4539
(dp4540
g61
(dp4541
sg70
g4535
sg63
(lp4542
g56
(g57
g58
NtRp4543
(dp4544
g61
(dp4545
g69
I1
ssg70
g4539
sg63
(lp4546
I00
asbasbasbag56
(g72
g58
NtRp4547
(dp4548
g61
(dp4549
sg70
g4518
sg63
(lp4550
g56
(g77
g58
NtRp4551
(dp4552
g61
(dp4553
sg70
g4547
sg63
(lp4554
g56
(g57
g58
NtRp4555
(dp4556
g61
(dp4557
g69
I1
ssg70
g4551
sg63
(lp4558
S'http://www.web2py.com/book'
p4559
asbasbasbag56
(g72
g58
NtRp4560
(dp4561
g61
(dp4562
sg70
g4518
sg63
(lp4563
g56
(g77
g58
NtRp4564
(dp4565
g61
(dp4566
sg70
g4560
sg63
(lp4567
g56
(g57
g58
NtRp4568
(dp4569
g61
(dp4570
g69
I1
ssg70
g4564
sg63
(lp4571
(lp4572
(g3837
(S's\x07\x00\x00\x00Preface'
tRp4573
I00
S'http://www.web2py.com/book/default/chapter/00'
tp4574
a(g3837
(S's\x0c\x00\x00\x00Introduction'
tRp4575
I00
S'http://www.web2py.com/book/default/chapter/01'
tp4576
a(g3837
(S's\x06\x00\x00\x00Python'
tRp4577
I00
S'http://www.web2py.com/book/default/chapter/02'
tp4578
a(g3837
(S's\x08\x00\x00\x00Overview'
tRp4579
I00
S'http://www.web2py.com/book/default/chapter/03'
tp4580
a(g3837
(S's\x08\x00\x00\x00The Core'
tRp4581
I00
S'http://www.web2py.com/book/default/chapter/04'
tp4582
a(g3837
(S's\t\x00\x00\x00The Views'
tRp4583
I00
S'http://www.web2py.com/book/default/chapter/05'
tp4584
a(g3837
(S's\x08\x00\x00\x00Database'
tRp4585
I00
S'http://www.web2py.com/book/default/chapter/06'
tp4586
a(g3837
(S's\x14\x00\x00\x00Forms and Validators'
tRp4587
I00
S'http://www.web2py.com/book/default/chapter/07'
tp4588
a(g3837
(S's\x0e\x00\x00\x00Access Control'
tRp4589
I00
S'http://www.web2py.com/book/default/chapter/08'
tp4590
a(g3837
(S's\x08\x00\x00\x00Services'
tRp4591
I00
S'http://www.web2py.com/book/default/chapter/09'
tp4592
a(g3837
(S's\x0c\x00\x00\x00Ajax Recipes'
tRp4593
I00
S'http://www.web2py.com/book/default/chapter/10'
tp4594
a(g3837
(S's\x12\x00\x00\x00Deployment Recipes'
tRp4595
I00
S'http://www.web2py.com/book/default/chapter/11'
tp4596
a(g3837
(S's\r\x00\x00\x00Other Recipes'
tRp4597
I00
S'http://www.web2py.com/book/default/chapter/12'
tp4598
a(g3837
(S's\r\x00\x00\x00Buy this book'
tRp4599
I00
S'http://stores.lulu.com/web2py'
tp4600
aasbasbasbasbasbasbasbag56
(g72
g58
NtRp4601
(dp4602
g61
(dp4603
sg70
g4502
sg63
(lp4604
g56
(g77
g58
NtRp4605
(dp4606
g61
(dp4607
sg70
g4601
sg63
(lp4608
g56
(g57
g58
NtRp4609
(dp4610
g61
(dp4611
g69
I2
ssg70
g4605
sg63
(lp4612
g56
(g65
g58
NtRp4613
(dp4614
g61
(dp4615
g69
I1
ssg70
Nsg63
(lp4616
g56
(g72
g58
NtRp4617
(dp4618
g61
(dp4619
sg70
g4613
sg63
(lp4620
g56
(g77
g58
NtRp4621
(dp4622
g61
(dp4623
sg70
g4617
sg63
(lp4624
g56
(g57
g58
NtRp4625
(dp4626
g61
(dp4627
g69
I1
ssg70
g4621
sg63
(lp4628
g3837
(S's\t\x00\x00\x00Community'
tRp4629
asbasbasbag56
(g72
g58
NtRp4630
(dp4631
g61
(dp4632
sg70
g4613
sg63
(lp4633
g56
(g77
g58
NtRp4634
(dp4635
g61
(dp4636
sg70
g4630
sg63
(lp4637
g56
(g57
g58
NtRp4638
(dp4639
g61
(dp4640
g69
I1
ssg70
g4634
sg63
(lp4641
I00
asbasbasbag56
(g72
g58
NtRp4642
(dp4643
g61
(dp4644
sg70
g4613
sg63
(lp4645
g56
(g77
g58
NtRp4646
(dp4647
g61
(dp4648
sg70
g4642
sg63
(lp4649
g56
(g57
g58
NtRp4650
(dp4651
g61
(dp4652
g69
I1
ssg70
g4646
sg63
(lp4653
Nasbasbasbag56
(g72
g58
NtRp4654
(dp4655
g61
(dp4656
sg70
g4613
sg63
(lp4657
g56
(g77
g58
NtRp4658
(dp4659
g61
(dp4660
sg70
g4654
sg63
(lp4661
g56
(g57
g58
NtRp4662
(dp4663
g61
(dp4664
g69
I1
ssg70
g4658
sg63
(lp4665
(lp4666
(g3837
(S's\x06\x00\x00\x00Groups'
tRp4667
I00
S'http://www.web2py.com/examples/default/usergroups'
tp4668
a(g3837
(S's\x07\x00\x00\x00Twitter'
tRp4669
I00
S'http://twitter.com/web2py'
tp4670
a(g3837
(S's\t\x00\x00\x00Live chat'
tRp4671
I00
S'http://mibbit.com/?channel=%23web2py&server=irc.mibbit.net'
tp4672
a(g3837
(S's\n\x00\x00\x00User Voice'
tRp4673
I00
S'http://web2py.uservoice.com/'
tp4674
aasbasbasbasbasbasbasbag56
(g72
g58
NtRp4675
(dp4676
g61
(dp4677
sg70
g4502
sg63
(lp4678
g56
(g77
g58
NtRp4679
(dp4680
g61
(dp4681
sg70
g4675
sg63
(lp4682
g56
(g57
g58
NtRp4683
(dp4684
g61
(dp4685
g69
I2
ssg70
g4679
sg63
(lp4686
g56
(g65
g58
NtRp4687
(dp4688
g61
(dp4689
g69
I1
ssg70
Nsg63
(lp4690
g56
(g72
g58
NtRp4691
(dp4692
g61
(dp4693
sg70
g4687
sg63
(lp4694
g56
(g77
g58
NtRp4695
(dp4696
g61
(dp4697
sg70
g4691
sg63
(lp4698
g56
(g57
g58
NtRp4699
(dp4700
g61
(dp4701
g69
I1
ssg70
g4695
sg63
(lp4702
g3837
(S's\x06\x00\x00\x00Web2py'
tRp4703
asbasbasbag56
(g72
g58
NtRp4704
(dp4705
g61
(dp4706
sg70
g4687
sg63
(lp4707
g56
(g77
g58
NtRp4708
(dp4709
g61
(dp4710
sg70
g4704
sg63
(lp4711
g56
(g57
g58
NtRp4712
(dp4713
g61
(dp4714
g69
I1
ssg70
g4708
sg63
(lp4715
I00
asbasbasbag56
(g72
g58
NtRp4716
(dp4717
g61
(dp4718
sg70
g4687
sg63
(lp4719
g56
(g77
g58
NtRp4720
(dp4721
g61
(dp4722
sg70
g4716
sg63
(lp4723
g56
(g57
g58
NtRp4724
(dp4725
g61
(dp4726
g69
I1
ssg70
g4720
sg63
(lp4727
S'http://www.web2py.com'
p4728
asbasbasbag56
(g72
g58
NtRp4729
(dp4730
g61
(dp4731
sg70
g4687
sg63
(lp4732
g56
(g77
g58
NtRp4733
(dp4734
g61
(dp4735
sg70
g4729
sg63
(lp4736
g56
(g57
g58
NtRp4737
(dp4738
g61
(dp4739
g69
I1
ssg70
g4733
sg63
(lp4740
(lp4741
(g3837
(S's\x08\x00\x00\x00Download'
tRp4742
I00
S'http://www.web2py.com/examples/default/download'
tp4743
a(g3837
(S's\x07\x00\x00\x00Support'
tRp4744
I00
S'http://www.web2py.com/examples/default/support'
tp4745
a(g3837
(S's\x0e\x00\x00\x00Quick Examples'
tRp4746
I00
S'http://web2py.com/examples/default/examples'
tp4747
a(g3837
(S's\x03\x00\x00\x00FAQ'
tRp4748
I00
S'http://web2py.com/AlterEgo'
tp4749
a(g3837
(S's\x11\x00\x00\x00Free Applications'
tRp4750
I00
S'http://web2py.com/appliances'
tp4751
a(g3837
(S's\x07\x00\x00\x00Plugins'
tRp4752
I00
S'http://web2py.com/plugins'
tp4753
a(g3837
(S's\x07\x00\x00\x00Recipes'
tRp4754
I00
S'http://web2pyslices.com/'
tp4755
a(g3837
(S's\x04\x00\x00\x00Demo'
tRp4756
I00
S'http://web2py.com/demo_admin'
tp4757
a(g3837
(S's\x08\x00\x00\x00Semantic'
tRp4758
I00
S'http://web2py.com/semantic'
tp4759
a(g3837
(S's\x07\x00\x00\x00Layouts'
tRp4760
I00
S'http://web2py.com/layouts'
tp4761
a(g3837
(S's\x06\x00\x00\x00Videos'
tRp4762
I00
S'http://www.web2py.com/examples/default/videos/'
tp4763
aasbasbasbasbasbasbasbasbasbasbasbasbasbasbasbasbasbasbasbag56
(g72
g58
NtRp4764
(dp4765
g61
(dp4766
sg70
g3369
sg63
(lp4767
g56
(g77
g58
NtRp4768
(dp4769
g61
(dp4770
g81
g82
ssg70
g4764
sg63
(lp4771
S'meta'
p4772
asbag56
(g77
g58
NtRp4773
(dp4774
g61
(dp4775
g88
g89
ssg70
g4764
sg63
(lp4776
S':'
asbag56
(g77
g58
NtRp4777
(dp4778
g61
(dp4779
sg70
g4764
sg63
(lp4780
g56
(g57
g58
NtRp4781
(dp4782
g61
(dp4783
g69
I5
ssg70
g4777
sg63
(lp4784
g56
(g65
g58
NtRp4785
(dp4786
g61
(dp4787
g69
I4
ssg70
Nsg63
(lp4788
g56
(g72
g58
NtRp4789
(dp4790
g61
(dp4791
sg70
g4785
sg63
(lp4792
g56
(g77
g58
NtRp4793
(dp4794
g61
(dp4795
g81
g82
ssg70
g4789
sg63
(lp4796
S'author'
p4797
asbag56
(g77
g58
NtRp4798
(dp4799
g61
(dp4800
g88
g89
ssg70
g4789
sg63
(lp4801
S':'
asbag56
(g77
g58
NtRp4802
(dp4803
g61
(dp4804
sg70
g4789
sg63
(lp4805
g56
(g57
g58
NtRp4806
(dp4807
g61
(dp4808
g69
I4
ssg70
g4802
sg63
(lp4809
S'you'
p4810
asbasbasbag56
(g72
g58
NtRp4811
(dp4812
g61
(dp4813
sg70
g4785
sg63
(lp4814
g56
(g77
g58
NtRp4815
(dp4816
g61
(dp4817
g81
g82
ssg70
g4811
sg63
(lp4818
S'copyright'
p4819
asbag56
(g77
g58
NtRp4820
(dp4821
g61
(dp4822
g88
g89
ssg70
g4811
sg63
(lp4823
S':'
asbag56
(g77
g58
NtRp4824
(dp4825
g61
(dp4826
sg70
g4811
sg63
(lp4827
g56
(g57
g58
NtRp4828
(dp4829
g61
(dp4830
g69
I4
ssg70
g4824
sg63
(lp4831
S'Copyright 2007-2010'
p4832
asbasbasbag56
(g72
g58
NtRp4833
(dp4834
g61
(dp4835
sg70
g4785
sg63
(lp4836
g56
(g77
g58
NtRp4837
(dp4838
g61
(dp4839
g81
g82
ssg70
g4833
sg63
(lp4840
S'description'
p4841
asbag56
(g77
g58
NtRp4842
(dp4843
g61
(dp4844
g88
g89
ssg70
g4833
sg63
(lp4845
S':'
asbag56
(g77
g58
NtRp4846
(dp4847
g61
(dp4848
sg70
g4833
sg63
(lp4849
g56
(g57
g58
NtRp4850
(dp4851
g61
(dp4852
g69
I4
ssg70
g4846
sg63
(lp4853
S'Free and open source full-stack enterprise framework for agile development of fast, scalable, secure and portable database-driven web-based applications. Written and programmable in Python'
p4854
asbasbasbag56
(g72
g58
NtRp4855
(dp4856
g61
(dp4857
sg70
g4785
sg63
(lp4858
g56
(g77
g58
NtRp4859
(dp4860
g61
(dp4861
g81
g82
ssg70
g4855
sg63
(lp4862
S'generator'
p4863
asbag56
(g77
g58
NtRp4864
(dp4865
g61
(dp4866
g88
g89
ssg70
g4855
sg63
(lp4867
S':'
asbag56
(g77
g58
NtRp4868
(dp4869
g61
(dp4870
sg70
g4855
sg63
(lp4871
g56
(g57
g58
NtRp4872
(dp4873
g61
(dp4874
g69
I4
ssg70
g4868
sg63
(lp4875
S'Web2py Enterprise Framework'
p4876
asbasbasbag56
(g72
g58
NtRp4877
(dp4878
g61
(dp4879
sg70
g4785
sg63
(lp4880
g56
(g77
g58
NtRp4881
(dp4882
g61
(dp4883
g81
g82
ssg70
g4877
sg63
(lp4884
S'keywords'
p4885
asbag56
(g77
g58
NtRp4886
(dp4887
g61
(dp4888
g88
g89
ssg70
g4877
sg63
(lp4889
S':'
asbag56
(g77
g58
NtRp4890
(dp4891
g61
(dp4892
sg70
g4877
sg63
(lp4893
g56
(g57
g58
NtRp4894
(dp4895
g61
(dp4896
g69
I4
ssg70
g4890
sg63
(lp4897
S'web2py, python, framework'
p4898
asbasbasbasbasbasbasbag56
(g72
g58
NtRp4899
(dp4900
g61
(dp4901
sg70
g3369
sg63
(lp4902
g56
(g77
g58
NtRp4903
(dp4904
g61
(dp4905
g81
g82
ssg70
g4899
sg63
(lp4906
S'postprocessing'
p4907
asbag56
(g77
g58
NtRp4908
(dp4909
g61
(dp4910
g88
g89
ssg70
g4899
sg63
(lp4911
S':'
asbag56
(g77
g58
NtRp4912
(dp4913
g61
(dp4914
sg70
g4899
sg63
(lp4915
g56
(g57
g58
NtRp4916
(dp4917
g61
(dp4918
g69
I5
ssg70
g4912
sg63
(lp4919
g56
(g65
g58
NtRp4920
(dp4921
g61
(dp4922
g69
I4
ssg70
Nsg63
(lp4923
sbasbasbasbag56
(g72
g58
NtRp4924
(dp4925
g61
(dp4926
sg70
g3369
sg63
(lp4927
g56
(g77
g58
NtRp4928
(dp4929
g61
(dp4930
g81
g82
ssg70
g4924
sg63
(lp4931
S'session_file'
p4932
asbag56
(g77
g58
NtRp4933
(dp4934
g61
(dp4935
g88
g89
ssg70
g4924
sg63
(lp4936
S':'
asbag56
(g77
g58
NtRp4937
(dp4938
g61
(dp4939
sg70
g4924
sg63
(lp4940
g56
(g57
g58
NtRp4941
(dp4942
g61
(dp4943
g69
I5
ssg70
g4937
sg63
(lp4944
S"<open file '/home/marco/proyectos/web2py-trunk/applications/mvstore/sessions/127.0.0.1-0b059b4c-5741-4722-be03-f31fed87a8d7', mode 'rb+' at 0x2515930>"
p4945
asbasbasbag56
(g72
g58
NtRp4946
(dp4947
g61
(dp4948
sg70
g3369
sg63
(lp4949
g56
(g77
g58
NtRp4950
(dp4951
g61
(dp4952
g81
g82
ssg70
g4946
sg63
(lp4953
S'session_filename'
p4954
asbag56
(g77
g58
NtRp4955
(dp4956
g61
(dp4957
g88
g89
ssg70
g4946
sg63
(lp4958
S':'
asbag56
(g77
g58
NtRp4959
(dp4960
g61
(dp4961
sg70
g4946
sg63
(lp4962
g56
(g57
g58
NtRp4963
(dp4964
g61
(dp4965
g69
I5
ssg70
g4959
sg63
(lp4966
S'/home/marco/proyectos/web2py-trunk/applications/mvstore/sessions/127.0.0.1-0b059b4c-5741-4722-be03-f31fed87a8d7'
p4967
asbasbasbag56
(g72
g58
NtRp4968
(dp4969
g61
(dp4970
sg70
g3369
sg63
(lp4971
g56
(g77
g58
NtRp4972
(dp4973
g61
(dp4974
g81
g82
ssg70
g4968
sg63
(lp4975
S'session_id'
p4976
asbag56
(g77
g58
NtRp4977
(dp4978
g61
(dp4979
g88
g89
ssg70
g4968
sg63
(lp4980
S':'
asbag56
(g77
g58
NtRp4981
(dp4982
g61
(dp4983
sg70
g4968
sg63
(lp4984
g56
(g57
g58
NtRp4985
(dp4986
g61
(dp4987
g69
I5
ssg70
g4981
sg63
(lp4988
S'127.0.0.1-0b059b4c-5741-4722-be03-f31fed87a8d7'
p4989
asbasbasbag56
(g72
g58
NtRp4990
(dp4991
g61
(dp4992
sg70
g3369
sg63
(lp4993
g56
(g77
g58
NtRp4994
(dp4995
g61
(dp4996
g81
g82
ssg70
g4990
sg63
(lp4997
S'session_id_name'
p4998
asbag56
(g77
g58
NtRp4999
(dp5000
g61
(dp5001
g88
g89
ssg70
g4990
sg63
(lp5002
S':'
asbag56
(g77
g58
NtRp5003
(dp5004
g61
(dp5005
sg70
g4990
sg63
(lp5006
g56
(g57
g58
NtRp5007
(dp5008
g61
(dp5009
g69
I5
ssg70
g5003
sg63
(lp5010
g3426
asbasbasbag56
(g72
g58
NtRp5011
(dp5012
g61
(dp5013
sg70
g3369
sg63
(lp5014
g56
(g77
g58
NtRp5015
(dp5016
g61
(dp5017
g81
g82
ssg70
g5011
sg63
(lp5018
S'session_locked'
p5019
asbag56
(g77
g58
NtRp5020
(dp5021
g61
(dp5022
g88
g89
ssg70
g5011
sg63
(lp5023
S':'
asbag56
(g77
g58
NtRp5024
(dp5025
g61
(dp5026
sg70
g5011
sg63
(lp5027
g56
(g57
g58
NtRp5028
(dp5029
g61
(dp5030
g69
I5
ssg70
g5024
sg63
(lp5031
g2124
asbasbasbag56
(g72
g58
NtRp5032
(dp5033
g61
(dp5034
sg70
g3369
sg63
(lp5035
g56
(g77
g58
NtRp5036
(dp5037
g61
(dp5038
g81
g82
ssg70
g5032
sg63
(lp5039
S'session_new'
p5040
asbag56
(g77
g58
NtRp5041
(dp5042
g61
(dp5043
g88
g89
ssg70
g5032
sg63
(lp5044
S':'
asbag56
(g77
g58
NtRp5045
(dp5046
g61
(dp5047
sg70
g5032
sg63
(lp5048
g56
(g57
g58
NtRp5049
(dp5050
g61
(dp5051
g69
I5
ssg70
g5045
sg63
(lp5052
g99
asbasbasbag56
(g72
g58
NtRp5053
(dp5054
g61
(dp5055
sg70
g3369
sg63
(lp5056
g56
(g77
g58
NtRp5057
(dp5058
g61
(dp5059
g81
g82
ssg70
g5053
sg63
(lp5060
S'status'
p5061
asbag56
(g77
g58
NtRp5062
(dp5063
g61
(dp5064
g88
g89
ssg70
g5053
sg63
(lp5065
S':'
asbag56
(g77
g58
NtRp5066
(dp5067
g61
(dp5068
sg70
g5053
sg63
(lp5069
g56
(g57
g58
NtRp5070
(dp5071
g61
(dp5072
g69
I5
ssg70
g5066
sg63
(lp5073
S'200'
p5074
asbasbasbag56
(g72
g58
NtRp5075
(dp5076
g61
(dp5077
sg70
g3369
sg63
(lp5078
g56
(g77
g58
NtRp5079
(dp5080
g61
(dp5081
g81
g82
ssg70
g5075
sg63
(lp5082
S'subtitle'
p5083
asbag56
(g77
g58
NtRp5084
(dp5085
g61
(dp5086
g88
g89
ssg70
g5075
sg63
(lp5087
S':'
asbag56
(g77
g58
NtRp5088
(dp5089
g61
(dp5090
sg70
g5075
sg63
(lp5091
g56
(g57
g58
NtRp5092
(dp5093
g61
(dp5094
g69
I5
ssg70
g5088
sg63
(lp5095
g3837
(S's\r\x00\x00\x00customize me!'
tRp5096
asbasbasbag56
(g72
g58
NtRp5097
(dp5098
g61
(dp5099
sg70
g3369
sg63
(lp5100
g56
(g77
g58
NtRp5101
(dp5102
g61
(dp5103
g81
g82
ssg70
g5097
sg63
(lp5104
S'title'
p5105
asbag56
(g77
g58
NtRp5106
(dp5107
g61
(dp5108
g88
g89
ssg70
g5097
sg63
(lp5109
S':'
asbag56
(g77
g58
NtRp5110
(dp5111
g61
(dp5112
sg70
g5097
sg63
(lp5113
g56
(g57
g58
NtRp5114
(dp5115
g61
(dp5116
g69
I5
ssg70
g5110
sg63
(lp5117
g121
asbasbasbag56
(g72
g58
NtRp5118
(dp5119
g61
(dp5120
sg70
g3369
sg63
(lp5121
g56
(g77
g58
NtRp5122
(dp5123
g61
(dp5124
g81
g82
ssg70
g5118
sg63
(lp5125
g2448
asbag56
(g77
g58
NtRp5126
(dp5127
g61
(dp5128
g88
g89
ssg70
g5118
sg63
(lp5129
S':'
asbag56
(g77
g58
NtRp5130
(dp5131
g61
(dp5132
sg70
g5118
sg63
(lp5133
g56
(g57
g58
NtRp5134
(dp5135
g61
(dp5136
g69
I5
ssg70
g5130
sg63
(lp5137
g2461
asbasbasbag56
(g72
g58
NtRp5138
(dp5139
g61
(dp5140
sg70
g3369
sg63
(lp5141
g56
(g77
g58
NtRp5142
(dp5143
g61
(dp5144
g81
g82
ssg70
g5138
sg63
(lp5145
S'view'
p5146
asbag56
(g77
g58
NtRp5147
(dp5148
g61
(dp5149
g88
g89
ssg70
g5138
sg63
(lp5150
S':'
asbag56
(g77
g58
NtRp5151
(dp5152
g61
(dp5153
sg70
g5138
sg63
(lp5154
g56
(g57
g58
NtRp5155
(dp5156
g61
(dp5157
g69
I5
ssg70
g5151
sg63
(lp5158
S'default/prestamos.html'
p5159
asbasbasbasbasbsS'locals'
p5160
(dp5161
S'self'
p5162
S"<Table {'foto': <gluon.dal.Field object at 0x350...cumento': <gluon.dal.Field object at 0x350b990>}>"
p5163
sS'key'
p5164
S"'first_name'"
p5165
sssS'traceback'
p5166
S'Traceback (most recent call last):\n  File "/home/marco/proyectos/web2py-trunk/gluon/restricted.py", line 192, in restricted\n    exec ccode in environment\n  File "/home/marco/proyectos/web2py-trunk/applications/mvstore/controllers/default.py", line 70, in <module>\n  File "/home/marco/proyectos/web2py-trunk/gluon/globals.py", line 137, in <lambda>\n    self._caller = lambda f: f()\n  File "/home/marco/proyectos/web2py-trunk/applications/mvstore/controllers/default.py", line 67, in prestamos\n    form=crud.create(db.prestamos)\n  File "/home/marco/proyectos/web2py-trunk/gluon/tools.py", line 3120, in create\n    formname=formname,\n  File "/home/marco/proyectos/web2py-trunk/gluon/tools.py", line 3032, in update\n    formstyle=self.settings.formstyle\n  File "/home/marco/proyectos/web2py-trunk/gluon/sqlhtml.py", line 817, in __init__\n    inp = self.widgets.options.widget(field, default)\n  File "/home/marco/proyectos/web2py-trunk/gluon/sqlhtml.py", line 206, in widget\n    options = requires[0].options()\n  File "/home/marco/proyectos/web2py-trunk/gluon/validators.py", line 438, in options\n    self.build_set()\n  File "/home/marco/proyectos/web2py-trunk/gluon/validators.py", line 421, in build_set\n    fields = [self.dbset.db[self.ktable][k] for k in self.fields]\n  File "/home/marco/proyectos/web2py-trunk/gluon/dal.py", line 4592, in __getitem__\n    return dict.__getitem__(self, str(key))\nKeyError: \'first_name\'\n'
p5167
s.