(dp1
S'output'
p2
S''
sS'layer'
p3
S'/home/marco/proyectos/web2py-trunk/applications/mvstore/controllers/default.py'
p4
sS'code'
p5
S'#-*- coding: utf-8 -*-\n# this file is released under public domain and you can use without limitations\n\n#########################################################################\n## This is a samples controller\n## - index is the default action of any application\n## - user is required for authentication and authorization\n## - download is for downloading files uploaded in the db (does streaming)\n## - call exposes all registered services (none by default)\n#########################################################################\n\ndef index():\n    """\n    example action using the internationalization operator T and flash\n    rendered by views/default/index.html or views/generic.html\n    """\n    return dict(message=T(\'Hello World\'))\n\ndef user():\n    """\n    exposes:\n    http://..../[app]/default/user/login\n    http://..../[app]/default/user/logout\n    http://..../[app]/default/user/register\n    http://..../[app]/default/user/profile\n    http://..../[app]/default/user/retrieve_password\n    http://..../[app]/default/user/change_password\n    use @auth.requires_login()\n        @auth.requires_membership(\'group name\')\n        @auth.requires_permission(\'read\',\'table name\',record_id)\n    to decorate functions that need access control\n    """\n    return dict(form=auth())\n\n\ndef download():\n    """\n    allows downloading of uploaded files\n    http://..../[app]/default/download/[filename]\n    """\n    return response.download(request,db)\n\n\ndef call():\n    """\n    exposes services. for example:\n    http://..../[app]/default/call/jsonrpc\n    decorate with @services.jsonrpc the functions to expose\n    supports xml, json, xmlrpc, jsonrpc, amfrpc, rss, csv\n    """\n    session.forget()\n    return service()\n\ndef empleados():\n    form=crud.create(db.empleados)\n    if form.accepts(request.vars, session):\n        response.flash = \'Agregado exitosamente\'\n    elif form.errors:\n        response.flash = \'El formulario tiene errores\'\n    else:\n        response.flash = \'Por favor, complete el formulario\'\n        \n    return dict(form=form)\n\ndef clientes():\n    form=crud.create(db.clientes)\n    if form.accepts(request.vars, session):\n        response.flash = \'Agregado exitosamente\'\n    elif form.errors:\n        response.flash = \'El formulario tiene errores\'\n    else:\n        response.flash = \'Por favor, complete el formulario\'\n    return dict(form=form)\n\ndef peliculas():\n    form=crud.create(db.peliculas)\n    if form.accepts(request.vars, session):\n        response.flash = \'Agregado exitosamente\'\n    elif form.errors:\n        response.flash = \'El formulario tiene errores\'\n    else:\n        response.flash = \'Por favor, complete el formulario\'    \n    return dict(form=form)\n    \n\ndef prestamos():\n    form=crud.create(db.prestamos)\n    if form.accepts(request.vars, session):\n        response.flash = \'Agregado exitosamente\'\n    elif form.errors:\n        response.flash = \'El formulario tiene errores\'\n    else:\n        response.flash = \'Por favor, complete el formulario\'\n    return dict(form=form)\n    \ndef personal():\n    return dict(records=db().select(db.empleados.ALL))\n\ndef clientesall():\n    return dict(records=db().select(db.clientes.ALL))\n    \ndef peliculasall():\n    return dict(records=db().select(db.peliculas.ALL))\n    \ndef prestados():\n    return dict(records=db().select(db.prestamos.ALL))\n\ndef updateempleados():\n    form = SQLFORM(db().empleados, record, deletable=True, delete_label=T(\'Check to delete\'),\n                   ignore_rw=ignore_rw and not keyed,\n                   linkto=URL(\'select\', args=request.args[:1]),\n                   upload=URL(r=request, f=\'download\', args=request.args[:1]))\n\n    if form.accepts(request.vars, session):\n        session.flash = T(\'done!\')\n        qry = query_by_table_type(table, db)\n        redirect(URL(\'select\', args=request.args[:1], vars=dict(query=qry))\n    \n    return dict(form=form,table=db().empleados)\n\nresponse._vars=response._caller(prestamos)\n'
p6
sS'snapshot'
p7
(dp8
S'exception'
p9
(dp10
S'__getslice__'
p11
S"<method-wrapper '__getslice__' of exceptions.SyntaxError object>"
p12
sS'text'
p13
S"'    return dict(form=form,table=db().empleados)\\n'"
p14
sS'__str__'
p15
S"<method-wrapper '__str__' of exceptions.SyntaxError object>"
p16
sS'__reduce__'
p17
S'<built-in method __reduce__ of exceptions.SyntaxError object>'
p18
sS'__dict__'
p19
S'{}'
p20
sS'__sizeof__'
p21
S'<built-in method __sizeof__ of exceptions.SyntaxError object>'
p22
sS'__init__'
p23
S"<method-wrapper '__init__' of exceptions.SyntaxError object>"
p24
sS'__setattr__'
p25
S"<method-wrapper '__setattr__' of exceptions.SyntaxError object>"
p26
sS'__reduce_ex__'
p27
S'<built-in method __reduce_ex__ of exceptions.SyntaxError object>'
p28
sS'__new__'
p29
S'<built-in method __new__ of type object>'
p30
sS'__format__'
p31
S'<built-in method __format__ of exceptions.SyntaxError object>'
p32
sS'__class__'
p33
S"<type 'exceptions.SyntaxError'>"
p34
sS'filename'
p35
S"'/home/marco/proyectos/web2py-trunk/applications/mvstore/controllers/default.py'"
p36
sS'lineno'
p37
S'119'
p38
sS'msg'
p39
S"'invalid syntax'"
p40
sS'__doc__'
p41
S"'Invalid syntax.'"
p42
sS'__getitem__'
p43
S"<method-wrapper '__getitem__' of exceptions.SyntaxError object>"
p44
sS'__setstate__'
p45
S'<built-in method __setstate__ of exceptions.SyntaxError object>'
p46
sS'__getattribute__'
p47
S"<method-wrapper '__getattribute__' of exceptions.SyntaxError object>"
p48
sS'print_file_and_line'
p49
S'None'
p50
sS'args'
p51
S"('invalid syntax', ('/home/marco/proyectos/web2py-trunk/applications/mvstore/controllers/default.py', 119, 10, '    return dict(form=form,table=db().empleados)\\n'))"
p52
sS'__subclasshook__'
p53
S'<built-in method __subclasshook__ of type object>'
p54
sS'offset'
p55
S'10'
p56
sS'__unicode__'
p57
S'<built-in method __unicode__ of exceptions.SyntaxError object>'
p58
sS'__delattr__'
p59
S"<method-wrapper '__delattr__' of exceptions.SyntaxError object>"
p60
sS'__repr__'
p61
S"<method-wrapper '__repr__' of exceptions.SyntaxError object>"
p62
sS'__hash__'
p63
S"<method-wrapper '__hash__' of exceptions.SyntaxError object>"
p64
ssS'evalue'
p65
S'invalid syntax (default.py, line 119)'
p66
sS'request'
p67
ccopy_reg
_reconstructor
p68
(cgluon.html
BEAUTIFY
p69
c__builtin__
object
p70
NtRp71
(dp72
S'attributes'
p73
(dp74
sS'components'
p75
(lp76
g68
(cgluon.html
TABLE
p77
g70
NtRp78
(dp79
g73
(dp80
S'level'
p81
I5
ssS'parent'
p82
Nsg75
(lp83
g68
(cgluon.html
TR
p84
g70
NtRp85
(dp86
g73
(dp87
sg82
g78
sg75
(lp88
g68
(cgluon.html
TD
p89
g70
NtRp90
(dp91
g73
(dp92
S'_style'
p93
S'font-weight:bold;'
p94
ssg82
g85
sg75
(lp95
S'ajax'
p96
asbag68
(g89
g70
NtRp97
(dp98
g73
(dp99
S'_valign'
p100
S'top'
p101
ssg82
g85
sg75
(lp102
S':'
asbag68
(g89
g70
NtRp103
(dp104
g73
(dp105
sg82
g85
sg75
(lp106
g68
(g69
g70
NtRp107
(dp108
g73
(dp109
g81
I5
ssg82
g103
sg75
(lp110
S'False'
p111
asbasbasbag68
(g84
g70
NtRp112
(dp113
g73
(dp114
sg82
g78
sg75
(lp115
g68
(g89
g70
NtRp116
(dp117
g73
(dp118
g93
g94
ssg82
g112
sg75
(lp119
S'application'
p120
asbag68
(g89
g70
NtRp121
(dp122
g73
(dp123
g100
g101
ssg82
g112
sg75
(lp124
S':'
asbag68
(g89
g70
NtRp125
(dp126
g73
(dp127
sg82
g112
sg75
(lp128
g68
(g69
g70
NtRp129
(dp130
g73
(dp131
g81
I5
ssg82
g125
sg75
(lp132
S'mvstore'
p133
asbasbasbag68
(g84
g70
NtRp134
(dp135
g73
(dp136
sg82
g78
sg75
(lp137
g68
(g89
g70
NtRp138
(dp139
g73
(dp140
g93
g94
ssg82
g134
sg75
(lp141
g51
asbag68
(g89
g70
NtRp142
(dp143
g73
(dp144
g100
g101
ssg82
g134
sg75
(lp145
S':'
asbag68
(g89
g70
NtRp146
(dp147
g73
(dp148
sg82
g134
sg75
(lp149
g68
(g69
g70
NtRp150
(dp151
g73
(dp152
g81
I5
ssg82
g146
sg75
(lp153
g68
(g77
g70
NtRp154
(dp155
g73
(dp156
g81
I4
ssg82
Nsg75
(lp157
sbasbasbasbag68
(g84
g70
NtRp158
(dp159
g73
(dp160
sg82
g78
sg75
(lp161
g68
(g89
g70
NtRp162
(dp163
g73
(dp164
g93
g94
ssg82
g158
sg75
(lp165
S'body'
p166
asbag68
(g89
g70
NtRp167
(dp168
g73
(dp169
g100
g101
ssg82
g158
sg75
(lp170
S':'
asbag68
(g89
g70
NtRp171
(dp172
g73
(dp173
sg82
g158
sg75
(lp174
g68
(g69
g70
NtRp175
(dp176
g73
(dp177
g81
I5
ssg82
g171
sg75
(lp178
S'<cStringIO.StringO object at 0x23c9378>'
p179
asbasbasbag68
(g84
g70
NtRp180
(dp181
g73
(dp182
sg82
g78
sg75
(lp183
g68
(g89
g70
NtRp184
(dp185
g73
(dp186
g93
g94
ssg82
g180
sg75
(lp187
S'client'
p188
asbag68
(g89
g70
NtRp189
(dp190
g73
(dp191
g100
g101
ssg82
g180
sg75
(lp192
S':'
asbag68
(g89
g70
NtRp193
(dp194
g73
(dp195
sg82
g180
sg75
(lp196
g68
(g69
g70
NtRp197
(dp198
g73
(dp199
g81
I5
ssg82
g193
sg75
(lp200
S'127.0.0.1'
p201
asbasbasbag68
(g84
g70
NtRp202
(dp203
g73
(dp204
sg82
g78
sg75
(lp205
g68
(g89
g70
NtRp206
(dp207
g73
(dp208
g93
g94
ssg82
g202
sg75
(lp209
S'controller'
p210
asbag68
(g89
g70
NtRp211
(dp212
g73
(dp213
g100
g101
ssg82
g202
sg75
(lp214
S':'
asbag68
(g89
g70
NtRp215
(dp216
g73
(dp217
sg82
g202
sg75
(lp218
g68
(g69
g70
NtRp219
(dp220
g73
(dp221
g81
I5
ssg82
g215
sg75
(lp222
S'default'
p223
asbasbasbag68
(g84
g70
NtRp224
(dp225
g73
(dp226
sg82
g78
sg75
(lp227
g68
(g89
g70
NtRp228
(dp229
g73
(dp230
g93
g94
ssg82
g224
sg75
(lp231
S'cookies'
p232
asbag68
(g89
g70
NtRp233
(dp234
g73
(dp235
g100
g101
ssg82
g224
sg75
(lp236
S':'
asbag68
(g89
g70
NtRp237
(dp238
g73
(dp239
sg82
g224
sg75
(lp240
g68
(g69
g70
NtRp241
(dp242
g73
(dp243
g81
I5
ssg82
g237
sg75
(lp244
g68
(g77
g70
NtRp245
(dp246
g73
(dp247
g81
I4
ssg82
Nsg75
(lp248
g68
(g84
g70
NtRp249
(dp250
g73
(dp251
sg82
g245
sg75
(lp252
g68
(g89
g70
NtRp253
(dp254
g73
(dp255
g93
g94
ssg82
g249
sg75
(lp256
S'session_id_admin'
p257
asbag68
(g89
g70
NtRp258
(dp259
g73
(dp260
g100
g101
ssg82
g249
sg75
(lp261
S':'
asbag68
(g89
g70
NtRp262
(dp263
g73
(dp264
sg82
g249
sg75
(lp265
g68
(g69
g70
NtRp266
(dp267
g73
(dp268
g81
I4
ssg82
g262
sg75
(lp269
g68
(g77
g70
NtRp270
(dp271
g73
(dp272
g81
I3
ssg82
Nsg75
(lp273
g68
(g84
g70
NtRp274
(dp275
g73
(dp276
sg82
g270
sg75
(lp277
g68
(g89
g70
NtRp278
(dp279
g73
(dp280
g93
g94
ssg82
g274
sg75
(lp281
S'comment'
p282
asbag68
(g89
g70
NtRp283
(dp284
g73
(dp285
g100
g101
ssg82
g274
sg75
(lp286
S':'
asbag68
(g89
g70
NtRp287
(dp288
g73
(dp289
sg82
g274
sg75
(lp290
g68
(g69
g70
NtRp291
(dp292
g73
(dp293
g81
I3
ssg82
g287
sg75
(lp294
S''
asbasbasbag68
(g84
g70
NtRp295
(dp296
g73
(dp297
sg82
g270
sg75
(lp298
g68
(g89
g70
NtRp299
(dp300
g73
(dp301
g93
g94
ssg82
g295
sg75
(lp302
S'domain'
p303
asbag68
(g89
g70
NtRp304
(dp305
g73
(dp306
g100
g101
ssg82
g295
sg75
(lp307
S':'
asbag68
(g89
g70
NtRp308
(dp309
g73
(dp310
sg82
g295
sg75
(lp311
g68
(g69
g70
NtRp312
(dp313
g73
(dp314
g81
I3
ssg82
g308
sg75
(lp315
S''
asbasbasbag68
(g84
g70
NtRp316
(dp317
g73
(dp318
sg82
g270
sg75
(lp319
g68
(g89
g70
NtRp320
(dp321
g73
(dp322
g93
g94
ssg82
g316
sg75
(lp323
S'expires'
p324
asbag68
(g89
g70
NtRp325
(dp326
g73
(dp327
g100
g101
ssg82
g316
sg75
(lp328
S':'
asbag68
(g89
g70
NtRp329
(dp330
g73
(dp331
sg82
g316
sg75
(lp332
g68
(g69
g70
NtRp333
(dp334
g73
(dp335
g81
I3
ssg82
g329
sg75
(lp336
S''
asbasbasbag68
(g84
g70
NtRp337
(dp338
g73
(dp339
sg82
g270
sg75
(lp340
g68
(g89
g70
NtRp341
(dp342
g73
(dp343
g93
g94
ssg82
g337
sg75
(lp344
S'httponly'
p345
asbag68
(g89
g70
NtRp346
(dp347
g73
(dp348
g100
g101
ssg82
g337
sg75
(lp349
S':'
asbag68
(g89
g70
NtRp350
(dp351
g73
(dp352
sg82
g337
sg75
(lp353
g68
(g69
g70
NtRp354
(dp355
g73
(dp356
g81
I3
ssg82
g350
sg75
(lp357
S''
asbasbasbag68
(g84
g70
NtRp358
(dp359
g73
(dp360
sg82
g270
sg75
(lp361
g68
(g89
g70
NtRp362
(dp363
g73
(dp364
g93
g94
ssg82
g358
sg75
(lp365
S'max-age'
p366
asbag68
(g89
g70
NtRp367
(dp368
g73
(dp369
g100
g101
ssg82
g358
sg75
(lp370
S':'
asbag68
(g89
g70
NtRp371
(dp372
g73
(dp373
sg82
g358
sg75
(lp374
g68
(g69
g70
NtRp375
(dp376
g73
(dp377
g81
I3
ssg82
g371
sg75
(lp378
S''
asbasbasbag68
(g84
g70
NtRp379
(dp380
g73
(dp381
sg82
g270
sg75
(lp382
g68
(g89
g70
NtRp383
(dp384
g73
(dp385
g93
g94
ssg82
g379
sg75
(lp386
S'path'
p387
asbag68
(g89
g70
NtRp388
(dp389
g73
(dp390
g100
g101
ssg82
g379
sg75
(lp391
S':'
asbag68
(g89
g70
NtRp392
(dp393
g73
(dp394
sg82
g379
sg75
(lp395
g68
(g69
g70
NtRp396
(dp397
g73
(dp398
g81
I3
ssg82
g392
sg75
(lp399
S''
asbasbasbag68
(g84
g70
NtRp400
(dp401
g73
(dp402
sg82
g270
sg75
(lp403
g68
(g89
g70
NtRp404
(dp405
g73
(dp406
g93
g94
ssg82
g400
sg75
(lp407
S'secure'
p408
asbag68
(g89
g70
NtRp409
(dp410
g73
(dp411
g100
g101
ssg82
g400
sg75
(lp412
S':'
asbag68
(g89
g70
NtRp413
(dp414
g73
(dp415
sg82
g400
sg75
(lp416
g68
(g69
g70
NtRp417
(dp418
g73
(dp419
g81
I3
ssg82
g413
sg75
(lp420
S''
asbasbasbag68
(g84
g70
NtRp421
(dp422
g73
(dp423
sg82
g270
sg75
(lp424
g68
(g89
g70
NtRp425
(dp426
g73
(dp427
g93
g94
ssg82
g421
sg75
(lp428
S'version'
p429
asbag68
(g89
g70
NtRp430
(dp431
g73
(dp432
g100
g101
ssg82
g421
sg75
(lp433
S':'
asbag68
(g89
g70
NtRp434
(dp435
g73
(dp436
sg82
g421
sg75
(lp437
g68
(g69
g70
NtRp438
(dp439
g73
(dp440
g81
I3
ssg82
g434
sg75
(lp441
S''
asbasbasbasbasbasbasbasbasbasbasbag68
(g84
g70
NtRp442
(dp443
g73
(dp444
sg82
g78
sg75
(lp445
g68
(g89
g70
NtRp446
(dp447
g73
(dp448
g93
g94
ssg82
g442
sg75
(lp449
S'env'
p450
asbag68
(g89
g70
NtRp451
(dp452
g73
(dp453
g100
g101
ssg82
g442
sg75
(lp454
S':'
asbag68
(g89
g70
NtRp455
(dp456
g73
(dp457
sg82
g442
sg75
(lp458
g68
(g69
g70
NtRp459
(dp460
g73
(dp461
g81
I5
ssg82
g455
sg75
(lp462
g68
(g77
g70
NtRp463
(dp464
g73
(dp465
g81
I4
ssg82
Nsg75
(lp466
g68
(g84
g70
NtRp467
(dp468
g73
(dp469
sg82
g463
sg75
(lp470
g68
(g89
g70
NtRp471
(dp472
g73
(dp473
g93
g94
ssg82
g467
sg75
(lp474
S'app_folders'
p475
asbag68
(g89
g70
NtRp476
(dp477
g73
(dp478
g100
g101
ssg82
g467
sg75
(lp479
S':'
asbag68
(g89
g70
NtRp480
(dp481
g73
(dp482
sg82
g467
sg75
(lp483
g68
(g69
g70
NtRp484
(dp485
g73
(dp486
g81
I4
ssg82
g480
sg75
(lp487
S"set(['/home/marco/proyectos/web2py-trunk/applications/mvstore/', '/home/marco/proyectos/web2py-trunk/applications/admin/'])"
p488
asbasbasbag68
(g84
g70
NtRp489
(dp490
g73
(dp491
sg82
g463
sg75
(lp492
g68
(g89
g70
NtRp493
(dp494
g73
(dp495
g93
g94
ssg82
g489
sg75
(lp496
S'applications_parent'
p497
asbag68
(g89
g70
NtRp498
(dp499
g73
(dp500
g100
g101
ssg82
g489
sg75
(lp501
S':'
asbag68
(g89
g70
NtRp502
(dp503
g73
(dp504
sg82
g489
sg75
(lp505
g68
(g69
g70
NtRp506
(dp507
g73
(dp508
g81
I4
ssg82
g502
sg75
(lp509
S'/home/marco/proyectos/web2py-trunk'
p510
asbasbasbag68
(g84
g70
NtRp511
(dp512
g73
(dp513
sg82
g463
sg75
(lp514
g68
(g89
g70
NtRp515
(dp516
g73
(dp517
g93
g94
ssg82
g511
sg75
(lp518
S'cmd_args'
p519
asbag68
(g89
g70
NtRp520
(dp521
g73
(dp522
g100
g101
ssg82
g511
sg75
(lp523
S':'
asbag68
(g89
g70
NtRp524
(dp525
g73
(dp526
sg82
g511
sg75
(lp527
g68
(g69
g70
NtRp528
(dp529
g73
(dp530
g81
I4
ssg82
g524
sg75
(lp531
g68
(g77
g70
NtRp532
(dp533
g73
(dp534
g81
I3
ssg82
Nsg75
(lp535
sbasbasbasbag68
(g84
g70
NtRp536
(dp537
g73
(dp538
sg82
g463
sg75
(lp539
g68
(g89
g70
NtRp540
(dp541
g73
(dp542
g93
g94
ssg82
g536
sg75
(lp543
S'cmd_options'
p544
asbag68
(g89
g70
NtRp545
(dp546
g73
(dp547
g100
g101
ssg82
g536
sg75
(lp548
S':'
asbag68
(g89
g70
NtRp549
(dp550
g73
(dp551
sg82
g536
sg75
(lp552
g68
(g69
g70
NtRp553
(dp554
g73
(dp555
g81
I4
ssg82
g549
sg75
(lp556
S"<Values at 0x1e61b90: {'verbose': False, 'ip': '127.0.0.1', 'shutdown_timeout': 5, 'taskbar': False, 'port': 8000, 'maxthreads': None, 'softcron': False, 'server_name': 'kiki', 'bpython': False, 'nogui': False, 'nocron': False, 'extcron': False, 'debuglevel': 30, 'test': None, 'folder': '/home/marco/proyectos/web2py-trunk', 'config': '', 'import_models': False, 'winservice': '', 'shell': None, 'run': '', 'log_filename': 'httpserver.log', 'args': [''], 'profiler_filename': None, 'ssl_private_key': '', 'password': 'asd', 'request_queue_size': 5, 'ssl_certificate': '', 'cronjob': False, 'plain': False, 'quiet': False, 'interfaces': None, 'minthreads': None, 'timeout': 10, 'numthreads': None, 'nobanner': False, 'pid_filename': 'httpserver.pid'}>"
p557
asbasbasbag68
(g84
g70
NtRp558
(dp559
g73
(dp560
sg82
g463
sg75
(lp561
g68
(g89
g70
NtRp562
(dp563
g73
(dp564
g93
g94
ssg82
g558
sg75
(lp565
S'db_sessions'
p566
asbag68
(g89
g70
NtRp567
(dp568
g73
(dp569
g100
g101
ssg82
g558
sg75
(lp570
S':'
asbag68
(g89
g70
NtRp571
(dp572
g73
(dp573
sg82
g558
sg75
(lp574
g68
(g69
g70
NtRp575
(dp576
g73
(dp577
g81
I4
ssg82
g571
sg75
(lp578
S'set([])'
p579
asbasbasbag68
(g84
g70
NtRp580
(dp581
g73
(dp582
sg82
g463
sg75
(lp583
g68
(g89
g70
NtRp584
(dp585
g73
(dp586
g93
g94
ssg82
g580
sg75
(lp587
S'debugging'
p588
asbag68
(g89
g70
NtRp589
(dp590
g73
(dp591
g100
g101
ssg82
g580
sg75
(lp592
S':'
asbag68
(g89
g70
NtRp593
(dp594
g73
(dp595
sg82
g580
sg75
(lp596
g68
(g69
g70
NtRp597
(dp598
g73
(dp599
g81
I4
ssg82
g593
sg75
(lp600
g111
asbasbasbag68
(g84
g70
NtRp601
(dp602
g73
(dp603
sg82
g463
sg75
(lp604
g68
(g89
g70
NtRp605
(dp606
g73
(dp607
g93
g94
ssg82
g601
sg75
(lp608
S'gluon_parent'
p609
asbag68
(g89
g70
NtRp610
(dp611
g73
(dp612
g100
g101
ssg82
g601
sg75
(lp613
S':'
asbag68
(g89
g70
NtRp614
(dp615
g73
(dp616
sg82
g601
sg75
(lp617
g68
(g69
g70
NtRp618
(dp619
g73
(dp620
g81
I4
ssg82
g614
sg75
(lp621
S'/home/marco/proyectos/web2py-trunk'
p622
asbasbasbag68
(g84
g70
NtRp623
(dp624
g73
(dp625
sg82
g463
sg75
(lp626
g68
(g89
g70
NtRp627
(dp628
g73
(dp629
g93
g94
ssg82
g623
sg75
(lp630
S'http_accept'
p631
asbag68
(g89
g70
NtRp632
(dp633
g73
(dp634
g100
g101
ssg82
g623
sg75
(lp635
S':'
asbag68
(g89
g70
NtRp636
(dp637
g73
(dp638
sg82
g623
sg75
(lp639
g68
(g69
g70
NtRp640
(dp641
g73
(dp642
g81
I4
ssg82
g636
sg75
(lp643
S'application/xml,application/xhtml+xml,text/html;q=0.9,text/plain;q=0.8,image/png,*/*;q=0.5'
p644
asbasbasbag68
(g84
g70
NtRp645
(dp646
g73
(dp647
sg82
g463
sg75
(lp648
g68
(g89
g70
NtRp649
(dp650
g73
(dp651
g93
g94
ssg82
g645
sg75
(lp652
S'http_accept_charset'
p653
asbag68
(g89
g70
NtRp654
(dp655
g73
(dp656
g100
g101
ssg82
g645
sg75
(lp657
S':'
asbag68
(g89
g70
NtRp658
(dp659
g73
(dp660
sg82
g645
sg75
(lp661
g68
(g69
g70
NtRp662
(dp663
g73
(dp664
g81
I4
ssg82
g658
sg75
(lp665
S'ISO-8859-1,utf-8;q=0.7,*;q=0.3'
p666
asbasbasbag68
(g84
g70
NtRp667
(dp668
g73
(dp669
sg82
g463
sg75
(lp670
g68
(g89
g70
NtRp671
(dp672
g73
(dp673
g93
g94
ssg82
g667
sg75
(lp674
S'http_accept_encoding'
p675
asbag68
(g89
g70
NtRp676
(dp677
g73
(dp678
g100
g101
ssg82
g667
sg75
(lp679
S':'
asbag68
(g89
g70
NtRp680
(dp681
g73
(dp682
sg82
g667
sg75
(lp683
g68
(g69
g70
NtRp684
(dp685
g73
(dp686
g81
I4
ssg82
g680
sg75
(lp687
S'gzip,deflate,sdch'
p688
asbasbasbag68
(g84
g70
NtRp689
(dp690
g73
(dp691
sg82
g463
sg75
(lp692
g68
(g89
g70
NtRp693
(dp694
g73
(dp695
g93
g94
ssg82
g689
sg75
(lp696
S'http_accept_language'
p697
asbag68
(g89
g70
NtRp698
(dp699
g73
(dp700
g100
g101
ssg82
g689
sg75
(lp701
S':'
asbag68
(g89
g70
NtRp702
(dp703
g73
(dp704
sg82
g689
sg75
(lp705
g68
(g69
g70
NtRp706
(dp707
g73
(dp708
g81
I4
ssg82
g702
sg75
(lp709
S'es,en-US;q=0.8,en;q=0.6'
p710
asbasbasbag68
(g84
g70
NtRp711
(dp712
g73
(dp713
sg82
g463
sg75
(lp714
g68
(g89
g70
NtRp715
(dp716
g73
(dp717
g93
g94
ssg82
g711
sg75
(lp718
S'http_cache_control'
p719
asbag68
(g89
g70
NtRp720
(dp721
g73
(dp722
g100
g101
ssg82
g711
sg75
(lp723
S':'
asbag68
(g89
g70
NtRp724
(dp725
g73
(dp726
sg82
g711
sg75
(lp727
g68
(g69
g70
NtRp728
(dp729
g73
(dp730
g81
I4
ssg82
g724
sg75
(lp731
S'max-age=0'
p732
asbasbasbag68
(g84
g70
NtRp733
(dp734
g73
(dp735
sg82
g463
sg75
(lp736
g68
(g89
g70
NtRp737
(dp738
g73
(dp739
g93
g94
ssg82
g733
sg75
(lp740
S'http_connection'
p741
asbag68
(g89
g70
NtRp742
(dp743
g73
(dp744
g100
g101
ssg82
g733
sg75
(lp745
S':'
asbag68
(g89
g70
NtRp746
(dp747
g73
(dp748
sg82
g733
sg75
(lp749
g68
(g69
g70
NtRp750
(dp751
g73
(dp752
g81
I4
ssg82
g746
sg75
(lp753
S'keep-alive'
p754
asbasbasbag68
(g84
g70
NtRp755
(dp756
g73
(dp757
sg82
g463
sg75
(lp758
g68
(g89
g70
NtRp759
(dp760
g73
(dp761
g93
g94
ssg82
g755
sg75
(lp762
S'http_cookie'
p763
asbag68
(g89
g70
NtRp764
(dp765
g73
(dp766
g100
g101
ssg82
g755
sg75
(lp767
S':'
asbag68
(g89
g70
NtRp768
(dp769
g73
(dp770
sg82
g755
sg75
(lp771
g68
(g69
g70
NtRp772
(dp773
g73
(dp774
g81
I4
ssg82
g768
sg75
(lp775
S'session_id_admin=127.0.0.1-da4b3bc6-19bf-4a7c-8c73-17607af696fa'
p776
asbasbasbag68
(g84
g70
NtRp777
(dp778
g73
(dp779
sg82
g463
sg75
(lp780
g68
(g89
g70
NtRp781
(dp782
g73
(dp783
g93
g94
ssg82
g777
sg75
(lp784
S'http_host'
p785
asbag68
(g89
g70
NtRp786
(dp787
g73
(dp788
g100
g101
ssg82
g777
sg75
(lp789
S':'
asbag68
(g89
g70
NtRp790
(dp791
g73
(dp792
sg82
g777
sg75
(lp793
g68
(g69
g70
NtRp794
(dp795
g73
(dp796
g81
I4
ssg82
g790
sg75
(lp797
S'127.0.0.1:8000'
p798
asbasbasbag68
(g84
g70
NtRp799
(dp800
g73
(dp801
sg82
g463
sg75
(lp802
g68
(g89
g70
NtRp803
(dp804
g73
(dp805
g93
g94
ssg82
g799
sg75
(lp806
S'http_referer'
p807
asbag68
(g89
g70
NtRp808
(dp809
g73
(dp810
g100
g101
ssg82
g799
sg75
(lp811
S':'
asbag68
(g89
g70
NtRp812
(dp813
g73
(dp814
sg82
g799
sg75
(lp815
g68
(g69
g70
NtRp816
(dp817
g73
(dp818
g81
I4
ssg82
g812
sg75
(lp819
S'http://127.0.0.1:8000/mvstore/default/prestamos'
p820
asbasbasbag68
(g84
g70
NtRp821
(dp822
g73
(dp823
sg82
g463
sg75
(lp824
g68
(g89
g70
NtRp825
(dp826
g73
(dp827
g93
g94
ssg82
g821
sg75
(lp828
S'http_user_agent'
p829
asbag68
(g89
g70
NtRp830
(dp831
g73
(dp832
g100
g101
ssg82
g821
sg75
(lp833
S':'
asbag68
(g89
g70
NtRp834
(dp835
g73
(dp836
sg82
g821
sg75
(lp837
g68
(g69
g70
NtRp838
(dp839
g73
(dp840
g81
I4
ssg82
g834
sg75
(lp841
S'Mozilla/5.0 (X11; U; Linux x86_64; en-US) AppleWebKit/534.16 (KHTML, like Gecko) Chrome/10.0.648.205 Safari/534.16'
p842
asbasbasbag68
(g84
g70
NtRp843
(dp844
g73
(dp845
sg82
g463
sg75
(lp846
g68
(g89
g70
NtRp847
(dp848
g73
(dp849
g93
g94
ssg82
g843
sg75
(lp850
S'path_info'
p851
asbag68
(g89
g70
NtRp852
(dp853
g73
(dp854
g100
g101
ssg82
g843
sg75
(lp855
S':'
asbag68
(g89
g70
NtRp856
(dp857
g73
(dp858
sg82
g843
sg75
(lp859
g68
(g69
g70
NtRp860
(dp861
g73
(dp862
g81
I4
ssg82
g856
sg75
(lp863
S'/mvstore/default/prestamos'
p864
asbasbasbag68
(g84
g70
NtRp865
(dp866
g73
(dp867
sg82
g463
sg75
(lp868
g68
(g89
g70
NtRp869
(dp870
g73
(dp871
g93
g94
ssg82
g865
sg75
(lp872
S'query_string'
p873
asbag68
(g89
g70
NtRp874
(dp875
g73
(dp876
g100
g101
ssg82
g865
sg75
(lp877
S':'
asbag68
(g89
g70
NtRp878
(dp879
g73
(dp880
sg82
g865
sg75
(lp881
g68
(g69
g70
NtRp882
(dp883
g73
(dp884
g81
I4
ssg82
g878
sg75
(lp885
S''
asbasbasbag68
(g84
g70
NtRp886
(dp887
g73
(dp888
sg82
g463
sg75
(lp889
g68
(g89
g70
NtRp890
(dp891
g73
(dp892
g93
g94
ssg82
g886
sg75
(lp893
S'remote_addr'
p894
asbag68
(g89
g70
NtRp895
(dp896
g73
(dp897
g100
g101
ssg82
g886
sg75
(lp898
S':'
asbag68
(g89
g70
NtRp899
(dp900
g73
(dp901
sg82
g886
sg75
(lp902
g68
(g69
g70
NtRp903
(dp904
g73
(dp905
g81
I4
ssg82
g899
sg75
(lp906
g201
asbasbasbag68
(g84
g70
NtRp907
(dp908
g73
(dp909
sg82
g463
sg75
(lp910
g68
(g89
g70
NtRp911
(dp912
g73
(dp913
g93
g94
ssg82
g907
sg75
(lp914
S'remote_port'
p915
asbag68
(g89
g70
NtRp916
(dp917
g73
(dp918
g100
g101
ssg82
g907
sg75
(lp919
S':'
asbag68
(g89
g70
NtRp920
(dp921
g73
(dp922
sg82
g907
sg75
(lp923
g68
(g69
g70
NtRp924
(dp925
g73
(dp926
g81
I4
ssg82
g920
sg75
(lp927
S'46513'
p928
asbasbasbag68
(g84
g70
NtRp929
(dp930
g73
(dp931
sg82
g463
sg75
(lp932
g68
(g89
g70
NtRp933
(dp934
g73
(dp935
g93
g94
ssg82
g929
sg75
(lp936
S'request_method'
p937
asbag68
(g89
g70
NtRp938
(dp939
g73
(dp940
g100
g101
ssg82
g929
sg75
(lp941
S':'
asbag68
(g89
g70
NtRp942
(dp943
g73
(dp944
sg82
g929
sg75
(lp945
g68
(g69
g70
NtRp946
(dp947
g73
(dp948
g81
I4
ssg82
g942
sg75
(lp949
S'GET'
p950
asbasbasbag68
(g84
g70
NtRp951
(dp952
g73
(dp953
sg82
g463
sg75
(lp954
g68
(g89
g70
NtRp955
(dp956
g73
(dp957
g93
g94
ssg82
g951
sg75
(lp958
S'script_name'
p959
asbag68
(g89
g70
NtRp960
(dp961
g73
(dp962
g100
g101
ssg82
g951
sg75
(lp963
S':'
asbag68
(g89
g70
NtRp964
(dp965
g73
(dp966
sg82
g951
sg75
(lp967
g68
(g69
g70
NtRp968
(dp969
g73
(dp970
g81
I4
ssg82
g964
sg75
(lp971
S''
asbasbasbag68
(g84
g70
NtRp972
(dp973
g73
(dp974
sg82
g463
sg75
(lp975
g68
(g89
g70
NtRp976
(dp977
g73
(dp978
g93
g94
ssg82
g972
sg75
(lp979
S'server_name'
p980
asbag68
(g89
g70
NtRp981
(dp982
g73
(dp983
g100
g101
ssg82
g972
sg75
(lp984
S':'
asbag68
(g89
g70
NtRp985
(dp986
g73
(dp987
sg82
g972
sg75
(lp988
g68
(g69
g70
NtRp989
(dp990
g73
(dp991
g81
I4
ssg82
g985
sg75
(lp992
S'kiki'
p993
asbasbasbag68
(g84
g70
NtRp994
(dp995
g73
(dp996
sg82
g463
sg75
(lp997
g68
(g89
g70
NtRp998
(dp999
g73
(dp1000
g93
g94
ssg82
g994
sg75
(lp1001
S'server_port'
p1002
asbag68
(g89
g70
NtRp1003
(dp1004
g73
(dp1005
g100
g101
ssg82
g994
sg75
(lp1006
S':'
asbag68
(g89
g70
NtRp1007
(dp1008
g73
(dp1009
sg82
g994
sg75
(lp1010
g68
(g69
g70
NtRp1011
(dp1012
g73
(dp1013
g81
I4
ssg82
g1007
sg75
(lp1014
S'8000'
p1015
asbasbasbag68
(g84
g70
NtRp1016
(dp1017
g73
(dp1018
sg82
g463
sg75
(lp1019
g68
(g89
g70
NtRp1020
(dp1021
g73
(dp1022
g93
g94
ssg82
g1016
sg75
(lp1023
S'server_protocol'
p1024
asbag68
(g89
g70
NtRp1025
(dp1026
g73
(dp1027
g100
g101
ssg82
g1016
sg75
(lp1028
S':'
asbag68
(g89
g70
NtRp1029
(dp1030
g73
(dp1031
sg82
g1016
sg75
(lp1032
g68
(g69
g70
NtRp1033
(dp1034
g73
(dp1035
g81
I4
ssg82
g1029
sg75
(lp1036
S'HTTP/1.1'
p1037
asbasbasbag68
(g84
g70
NtRp1038
(dp1039
g73
(dp1040
sg82
g463
sg75
(lp1041
g68
(g89
g70
NtRp1042
(dp1043
g73
(dp1044
g93
g94
ssg82
g1038
sg75
(lp1045
S'server_software'
p1046
asbag68
(g89
g70
NtRp1047
(dp1048
g73
(dp1049
g100
g101
ssg82
g1038
sg75
(lp1050
S':'
asbag68
(g89
g70
NtRp1051
(dp1052
g73
(dp1053
sg82
g1038
sg75
(lp1054
g68
(g69
g70
NtRp1055
(dp1056
g73
(dp1057
g81
I4
ssg82
g1051
sg75
(lp1058
S'Rocket 1.2.2'
p1059
asbasbasbag68
(g84
g70
NtRp1060
(dp1061
g73
(dp1062
sg82
g463
sg75
(lp1063
g68
(g89
g70
NtRp1064
(dp1065
g73
(dp1066
g93
g94
ssg82
g1060
sg75
(lp1067
S'web2py_crontype'
p1068
asbag68
(g89
g70
NtRp1069
(dp1070
g73
(dp1071
g100
g101
ssg82
g1060
sg75
(lp1072
S':'
asbag68
(g89
g70
NtRp1073
(dp1074
g73
(dp1075
sg82
g1060
sg75
(lp1076
g68
(g69
g70
NtRp1077
(dp1078
g73
(dp1079
g81
I4
ssg82
g1073
sg75
(lp1080
S'hard'
p1081
asbasbasbag68
(g84
g70
NtRp1082
(dp1083
g73
(dp1084
sg82
g463
sg75
(lp1085
g68
(g89
g70
NtRp1086
(dp1087
g73
(dp1088
g93
g94
ssg82
g1082
sg75
(lp1089
S'web2py_path'
p1090
asbag68
(g89
g70
NtRp1091
(dp1092
g73
(dp1093
g100
g101
ssg82
g1082
sg75
(lp1094
S':'
asbag68
(g89
g70
NtRp1095
(dp1096
g73
(dp1097
sg82
g1082
sg75
(lp1098
g68
(g69
g70
NtRp1099
(dp1100
g73
(dp1101
g81
I4
ssg82
g1095
sg75
(lp1102
g510
asbasbasbag68
(g84
g70
NtRp1103
(dp1104
g73
(dp1105
sg82
g463
sg75
(lp1106
g68
(g89
g70
NtRp1107
(dp1108
g73
(dp1109
g93
g94
ssg82
g1103
sg75
(lp1110
S'web2py_version'
p1111
asbag68
(g89
g70
NtRp1112
(dp1113
g73
(dp1114
g100
g101
ssg82
g1103
sg75
(lp1115
S':'
asbag68
(g89
g70
NtRp1116
(dp1117
g73
(dp1118
sg82
g1103
sg75
(lp1119
g68
(g69
g70
NtRp1120
(dp1121
g73
(dp1122
g81
I4
ssg82
g1116
sg75
(lp1123
S'        iersion 1.94.1 (2011-03-17 16:30:58)\n'
p1124
asbasbasbag68
(g84
g70
NtRp1125
(dp1126
g73
(dp1127
sg82
g463
sg75
(lp1128
g68
(g89
g70
NtRp1129
(dp1130
g73
(dp1131
g93
g94
ssg82
g1125
sg75
(lp1132
S'wsgi_errors'
p1133
asbag68
(g89
g70
NtRp1134
(dp1135
g73
(dp1136
g100
g101
ssg82
g1125
sg75
(lp1137
S':'
asbag68
(g89
g70
NtRp1138
(dp1139
g73
(dp1140
sg82
g1125
sg75
(lp1141
g68
(g69
g70
NtRp1142
(dp1143
g73
(dp1144
g81
I4
ssg82
g1138
sg75
(lp1145
S"<open file '<stderr>', mode 'w' at 0x7f65db6f81e0>"
p1146
asbasbasbag68
(g84
g70
NtRp1147
(dp1148
g73
(dp1149
sg82
g463
sg75
(lp1150
g68
(g89
g70
NtRp1151
(dp1152
g73
(dp1153
g93
g94
ssg82
g1147
sg75
(lp1154
S'wsgi_file_wrapper'
p1155
asbag68
(g89
g70
NtRp1156
(dp1157
g73
(dp1158
g100
g101
ssg82
g1147
sg75
(lp1159
S':'
asbag68
(g89
g70
NtRp1160
(dp1161
g73
(dp1162
sg82
g1147
sg75
(lp1163
g68
(g69
g70
NtRp1164
(dp1165
g73
(dp1166
g81
I4
ssg82
g1160
sg75
(lp1167
S'<class gluon.rocket.FileWrapper at 0x1cd43b0>'
p1168
asbasbasbag68
(g84
g70
NtRp1169
(dp1170
g73
(dp1171
sg82
g463
sg75
(lp1172
g68
(g89
g70
NtRp1173
(dp1174
g73
(dp1175
g93
g94
ssg82
g1169
sg75
(lp1176
S'wsgi_input'
p1177
asbag68
(g89
g70
NtRp1178
(dp1179
g73
(dp1180
g100
g101
ssg82
g1169
sg75
(lp1181
S':'
asbag68
(g89
g70
NtRp1182
(dp1183
g73
(dp1184
sg82
g1169
sg75
(lp1185
g68
(g69
g70
NtRp1186
(dp1187
g73
(dp1188
g81
I4
ssg82
g1182
sg75
(lp1189
S'<socket._fileobject object at 0x2449ad0>'
p1190
asbasbasbag68
(g84
g70
NtRp1191
(dp1192
g73
(dp1193
sg82
g463
sg75
(lp1194
g68
(g89
g70
NtRp1195
(dp1196
g73
(dp1197
g93
g94
ssg82
g1191
sg75
(lp1198
S'wsgi_multiprocess'
p1199
asbag68
(g89
g70
NtRp1200
(dp1201
g73
(dp1202
g100
g101
ssg82
g1191
sg75
(lp1203
S':'
asbag68
(g89
g70
NtRp1204
(dp1205
g73
(dp1206
sg82
g1191
sg75
(lp1207
g68
(g69
g70
NtRp1208
(dp1209
g73
(dp1210
g81
I4
ssg82
g1204
sg75
(lp1211
g111
asbasbasbag68
(g84
g70
NtRp1212
(dp1213
g73
(dp1214
sg82
g463
sg75
(lp1215
g68
(g89
g70
NtRp1216
(dp1217
g73
(dp1218
g93
g94
ssg82
g1212
sg75
(lp1219
S'wsgi_multithread'
p1220
asbag68
(g89
g70
NtRp1221
(dp1222
g73
(dp1223
g100
g101
ssg82
g1212
sg75
(lp1224
S':'
asbag68
(g89
g70
NtRp1225
(dp1226
g73
(dp1227
sg82
g1212
sg75
(lp1228
g68
(g69
g70
NtRp1229
(dp1230
g73
(dp1231
g81
I4
ssg82
g1225
sg75
(lp1232
S'True'
p1233
asbasbasbag68
(g84
g70
NtRp1234
(dp1235
g73
(dp1236
sg82
g463
sg75
(lp1237
g68
(g89
g70
NtRp1238
(dp1239
g73
(dp1240
g93
g94
ssg82
g1234
sg75
(lp1241
S'wsgi_run_once'
p1242
asbag68
(g89
g70
NtRp1243
(dp1244
g73
(dp1245
g100
g101
ssg82
g1234
sg75
(lp1246
S':'
asbag68
(g89
g70
NtRp1247
(dp1248
g73
(dp1249
sg82
g1234
sg75
(lp1250
g68
(g69
g70
NtRp1251
(dp1252
g73
(dp1253
g81
I4
ssg82
g1247
sg75
(lp1254
g111
asbasbasbag68
(g84
g70
NtRp1255
(dp1256
g73
(dp1257
sg82
g463
sg75
(lp1258
g68
(g89
g70
NtRp1259
(dp1260
g73
(dp1261
g93
g94
ssg82
g1255
sg75
(lp1262
S'wsgi_url_scheme'
p1263
asbag68
(g89
g70
NtRp1264
(dp1265
g73
(dp1266
g100
g101
ssg82
g1255
sg75
(lp1267
S':'
asbag68
(g89
g70
NtRp1268
(dp1269
g73
(dp1270
sg82
g1255
sg75
(lp1271
g68
(g69
g70
NtRp1272
(dp1273
g73
(dp1274
g81
I4
ssg82
g1268
sg75
(lp1275
S'http'
p1276
asbasbasbag68
(g84
g70
NtRp1277
(dp1278
g73
(dp1279
sg82
g463
sg75
(lp1280
g68
(g89
g70
NtRp1281
(dp1282
g73
(dp1283
g93
g94
ssg82
g1277
sg75
(lp1284
S'wsgi_version'
p1285
asbag68
(g89
g70
NtRp1286
(dp1287
g73
(dp1288
g100
g101
ssg82
g1277
sg75
(lp1289
S':'
asbag68
(g89
g70
NtRp1290
(dp1291
g73
(dp1292
sg82
g1277
sg75
(lp1293
g68
(g69
g70
NtRp1294
(dp1295
g73
(dp1296
g81
I4
ssg82
g1290
sg75
(lp1297
g68
(g77
g70
NtRp1298
(dp1299
g73
(dp1300
g81
I3
ssg82
Nsg75
(lp1301
g68
(g84
g70
NtRp1302
(dp1303
g73
(dp1304
sg82
g1298
sg75
(lp1305
g68
(g89
g70
NtRp1306
(dp1307
g73
(dp1308
sg82
g1302
sg75
(lp1309
g68
(g69
g70
NtRp1310
(dp1311
g73
(dp1312
g81
I3
ssg82
g1306
sg75
(lp1313
S'1'
asbasbasbag68
(g84
g70
NtRp1314
(dp1315
g73
(dp1316
sg82
g1298
sg75
(lp1317
g68
(g89
g70
NtRp1318
(dp1319
g73
(dp1320
sg82
g1314
sg75
(lp1321
g68
(g69
g70
NtRp1322
(dp1323
g73
(dp1324
g81
I3
ssg82
g1318
sg75
(lp1325
S'0'
asbasbasbasbasbasbasbasbasbasbasbag68
(g84
g70
NtRp1326
(dp1327
g73
(dp1328
sg82
g78
sg75
(lp1329
g68
(g89
g70
NtRp1330
(dp1331
g73
(dp1332
g93
g94
ssg82
g1326
sg75
(lp1333
S'extension'
p1334
asbag68
(g89
g70
NtRp1335
(dp1336
g73
(dp1337
g100
g101
ssg82
g1326
sg75
(lp1338
S':'
asbag68
(g89
g70
NtRp1339
(dp1340
g73
(dp1341
sg82
g1326
sg75
(lp1342
g68
(g69
g70
NtRp1343
(dp1344
g73
(dp1345
g81
I5
ssg82
g1339
sg75
(lp1346
S'html'
p1347
asbasbasbag68
(g84
g70
NtRp1348
(dp1349
g73
(dp1350
sg82
g78
sg75
(lp1351
g68
(g89
g70
NtRp1352
(dp1353
g73
(dp1354
g93
g94
ssg82
g1348
sg75
(lp1355
S'folder'
p1356
asbag68
(g89
g70
NtRp1357
(dp1358
g73
(dp1359
g100
g101
ssg82
g1348
sg75
(lp1360
S':'
asbag68
(g89
g70
NtRp1361
(dp1362
g73
(dp1363
sg82
g1348
sg75
(lp1364
g68
(g69
g70
NtRp1365
(dp1366
g73
(dp1367
g81
I5
ssg82
g1361
sg75
(lp1368
S'/home/marco/proyectos/web2py-trunk/applications/mvstore/'
p1369
asbasbasbag68
(g84
g70
NtRp1370
(dp1371
g73
(dp1372
sg82
g78
sg75
(lp1373
g68
(g89
g70
NtRp1374
(dp1375
g73
(dp1376
g93
g94
ssg82
g1370
sg75
(lp1377
S'function'
p1378
asbag68
(g89
g70
NtRp1379
(dp1380
g73
(dp1381
g100
g101
ssg82
g1370
sg75
(lp1382
S':'
asbag68
(g89
g70
NtRp1383
(dp1384
g73
(dp1385
sg82
g1370
sg75
(lp1386
g68
(g69
g70
NtRp1387
(dp1388
g73
(dp1389
g81
I5
ssg82
g1383
sg75
(lp1390
S'prestamos'
p1391
asbasbasbag68
(g84
g70
NtRp1392
(dp1393
g73
(dp1394
sg82
g78
sg75
(lp1395
g68
(g89
g70
NtRp1396
(dp1397
g73
(dp1398
g93
g94
ssg82
g1392
sg75
(lp1399
S'get_vars'
p1400
asbag68
(g89
g70
NtRp1401
(dp1402
g73
(dp1403
g100
g101
ssg82
g1392
sg75
(lp1404
S':'
asbag68
(g89
g70
NtRp1405
(dp1406
g73
(dp1407
sg82
g1392
sg75
(lp1408
g68
(g69
g70
NtRp1409
(dp1410
g73
(dp1411
g81
I5
ssg82
g1405
sg75
(lp1412
g68
(g77
g70
NtRp1413
(dp1414
g73
(dp1415
g81
I4
ssg82
Nsg75
(lp1416
sbasbasbasbag68
(g84
g70
NtRp1417
(dp1418
g73
(dp1419
sg82
g78
sg75
(lp1420
g68
(g89
g70
NtRp1421
(dp1422
g73
(dp1423
g93
g94
ssg82
g1417
sg75
(lp1424
S'is_https'
p1425
asbag68
(g89
g70
NtRp1426
(dp1427
g73
(dp1428
g100
g101
ssg82
g1417
sg75
(lp1429
S':'
asbag68
(g89
g70
NtRp1430
(dp1431
g73
(dp1432
sg82
g1417
sg75
(lp1433
g68
(g69
g70
NtRp1434
(dp1435
g73
(dp1436
g81
I5
ssg82
g1430
sg75
(lp1437
g111
asbasbasbag68
(g84
g70
NtRp1438
(dp1439
g73
(dp1440
sg82
g78
sg75
(lp1441
g68
(g89
g70
NtRp1442
(dp1443
g73
(dp1444
g93
g94
ssg82
g1438
sg75
(lp1445
S'is_local'
p1446
asbag68
(g89
g70
NtRp1447
(dp1448
g73
(dp1449
g100
g101
ssg82
g1438
sg75
(lp1450
S':'
asbag68
(g89
g70
NtRp1451
(dp1452
g73
(dp1453
sg82
g1438
sg75
(lp1454
g68
(g69
g70
NtRp1455
(dp1456
g73
(dp1457
g81
I5
ssg82
g1451
sg75
(lp1458
g1233
asbasbasbag68
(g84
g70
NtRp1459
(dp1460
g73
(dp1461
sg82
g78
sg75
(lp1462
g68
(g89
g70
NtRp1463
(dp1464
g73
(dp1465
g93
g94
ssg82
g1459
sg75
(lp1466
S'is_restful'
p1467
asbag68
(g89
g70
NtRp1468
(dp1469
g73
(dp1470
g100
g101
ssg82
g1459
sg75
(lp1471
S':'
asbag68
(g89
g70
NtRp1472
(dp1473
g73
(dp1474
sg82
g1459
sg75
(lp1475
g68
(g69
g70
NtRp1476
(dp1477
g73
(dp1478
g81
I5
ssg82
g1472
sg75
(lp1479
g111
asbasbasbag68
(g84
g70
NtRp1480
(dp1481
g73
(dp1482
sg82
g78
sg75
(lp1483
g68
(g89
g70
NtRp1484
(dp1485
g73
(dp1486
g93
g94
ssg82
g1480
sg75
(lp1487
S'now'
p1488
asbag68
(g89
g70
NtRp1489
(dp1490
g73
(dp1491
g100
g101
ssg82
g1480
sg75
(lp1492
S':'
asbag68
(g89
g70
NtRp1493
(dp1494
g73
(dp1495
sg82
g1480
sg75
(lp1496
g68
(g69
g70
NtRp1497
(dp1498
g73
(dp1499
g81
I5
ssg82
g1493
sg75
(lp1500
S'datetime.datetime(2011, 6, 19, 20, 55, 39, 713568)'
p1501
asbasbasbag68
(g84
g70
NtRp1502
(dp1503
g73
(dp1504
sg82
g78
sg75
(lp1505
g68
(g89
g70
NtRp1506
(dp1507
g73
(dp1508
g93
g94
ssg82
g1502
sg75
(lp1509
S'post_vars'
p1510
asbag68
(g89
g70
NtRp1511
(dp1512
g73
(dp1513
g100
g101
ssg82
g1502
sg75
(lp1514
S':'
asbag68
(g89
g70
NtRp1515
(dp1516
g73
(dp1517
sg82
g1502
sg75
(lp1518
g68
(g69
g70
NtRp1519
(dp1520
g73
(dp1521
g81
I5
ssg82
g1515
sg75
(lp1522
g68
(g77
g70
NtRp1523
(dp1524
g73
(dp1525
g81
I4
ssg82
Nsg75
(lp1526
sbasbasbasbag68
(g84
g70
NtRp1527
(dp1528
g73
(dp1529
sg82
g78
sg75
(lp1530
g68
(g89
g70
NtRp1531
(dp1532
g73
(dp1533
g93
g94
ssg82
g1527
sg75
(lp1534
S'url'
p1535
asbag68
(g89
g70
NtRp1536
(dp1537
g73
(dp1538
g100
g101
ssg82
g1527
sg75
(lp1539
S':'
asbag68
(g89
g70
NtRp1540
(dp1541
g73
(dp1542
sg82
g1527
sg75
(lp1543
g68
(g69
g70
NtRp1544
(dp1545
g73
(dp1546
g81
I5
ssg82
g1540
sg75
(lp1547
S'/mvstore/default/prestamos'
p1548
asbasbasbag68
(g84
g70
NtRp1549
(dp1550
g73
(dp1551
sg82
g78
sg75
(lp1552
g68
(g89
g70
NtRp1553
(dp1554
g73
(dp1555
g93
g94
ssg82
g1549
sg75
(lp1556
S'uuid'
p1557
asbag68
(g89
g70
NtRp1558
(dp1559
g73
(dp1560
g100
g101
ssg82
g1549
sg75
(lp1561
S':'
asbag68
(g89
g70
NtRp1562
(dp1563
g73
(dp1564
sg82
g1549
sg75
(lp1565
g68
(g69
g70
NtRp1566
(dp1567
g73
(dp1568
g81
I5
ssg82
g1562
sg75
(lp1569
S'mvstore/127.0.0.1.2011-06-19.20-55-39.986a4584-b163-4488-84d2-0390974cd052'
p1570
asbasbasbag68
(g84
g70
NtRp1571
(dp1572
g73
(dp1573
sg82
g78
sg75
(lp1574
g68
(g89
g70
NtRp1575
(dp1576
g73
(dp1577
g93
g94
ssg82
g1571
sg75
(lp1578
S'vars'
p1579
asbag68
(g89
g70
NtRp1580
(dp1581
g73
(dp1582
g100
g101
ssg82
g1571
sg75
(lp1583
S':'
asbag68
(g89
g70
NtRp1584
(dp1585
g73
(dp1586
sg82
g1571
sg75
(lp1587
g68
(g69
g70
NtRp1588
(dp1589
g73
(dp1590
g81
I5
ssg82
g1584
sg75
(lp1591
g68
(g77
g70
NtRp1592
(dp1593
g73
(dp1594
g81
I4
ssg82
Nsg75
(lp1595
sbasbasbasbag68
(g84
g70
NtRp1596
(dp1597
g73
(dp1598
sg82
g78
sg75
(lp1599
g68
(g89
g70
NtRp1600
(dp1601
g73
(dp1602
g93
g94
ssg82
g1596
sg75
(lp1603
S'wsgi'
p1604
asbag68
(g89
g70
NtRp1605
(dp1606
g73
(dp1607
g100
g101
ssg82
g1596
sg75
(lp1608
S':'
asbag68
(g89
g70
NtRp1609
(dp1610
g73
(dp1611
sg82
g1596
sg75
(lp1612
g68
(g69
g70
NtRp1613
(dp1614
g73
(dp1615
g81
I5
ssg82
g1609
sg75
(lp1616
g68
(g77
g70
NtRp1617
(dp1618
g73
(dp1619
g81
I4
ssg82
Nsg75
(lp1620
g68
(g84
g70
NtRp1621
(dp1622
g73
(dp1623
sg82
g1617
sg75
(lp1624
g68
(g89
g70
NtRp1625
(dp1626
g73
(dp1627
g93
g94
ssg82
g1621
sg75
(lp1628
S'environ'
p1629
asbag68
(g89
g70
NtRp1630
(dp1631
g73
(dp1632
g100
g101
ssg82
g1621
sg75
(lp1633
S':'
asbag68
(g89
g70
NtRp1634
(dp1635
g73
(dp1636
sg82
g1621
sg75
(lp1637
g68
(g69
g70
NtRp1638
(dp1639
g73
(dp1640
g81
I4
ssg82
g1634
sg75
(lp1641
g68
(g77
g70
NtRp1642
(dp1643
g73
(dp1644
g81
I3
ssg82
Nsg75
(lp1645
g68
(g84
g70
NtRp1646
(dp1647
g73
(dp1648
sg82
g1642
sg75
(lp1649
g68
(g89
g70
NtRp1650
(dp1651
g73
(dp1652
g93
g94
ssg82
g1646
sg75
(lp1653
S'HTTP_ACCEPT'
p1654
asbag68
(g89
g70
NtRp1655
(dp1656
g73
(dp1657
g100
g101
ssg82
g1646
sg75
(lp1658
S':'
asbag68
(g89
g70
NtRp1659
(dp1660
g73
(dp1661
sg82
g1646
sg75
(lp1662
g68
(g69
g70
NtRp1663
(dp1664
g73
(dp1665
g81
I3
ssg82
g1659
sg75
(lp1666
g644
asbasbasbag68
(g84
g70
NtRp1667
(dp1668
g73
(dp1669
sg82
g1642
sg75
(lp1670
g68
(g89
g70
NtRp1671
(dp1672
g73
(dp1673
g93
g94
ssg82
g1667
sg75
(lp1674
S'HTTP_ACCEPT_CHARSET'
p1675
asbag68
(g89
g70
NtRp1676
(dp1677
g73
(dp1678
g100
g101
ssg82
g1667
sg75
(lp1679
S':'
asbag68
(g89
g70
NtRp1680
(dp1681
g73
(dp1682
sg82
g1667
sg75
(lp1683
g68
(g69
g70
NtRp1684
(dp1685
g73
(dp1686
g81
I3
ssg82
g1680
sg75
(lp1687
g666
asbasbasbag68
(g84
g70
NtRp1688
(dp1689
g73
(dp1690
sg82
g1642
sg75
(lp1691
g68
(g89
g70
NtRp1692
(dp1693
g73
(dp1694
g93
g94
ssg82
g1688
sg75
(lp1695
S'HTTP_ACCEPT_ENCODING'
p1696
asbag68
(g89
g70
NtRp1697
(dp1698
g73
(dp1699
g100
g101
ssg82
g1688
sg75
(lp1700
S':'
asbag68
(g89
g70
NtRp1701
(dp1702
g73
(dp1703
sg82
g1688
sg75
(lp1704
g68
(g69
g70
NtRp1705
(dp1706
g73
(dp1707
g81
I3
ssg82
g1701
sg75
(lp1708
g688
asbasbasbag68
(g84
g70
NtRp1709
(dp1710
g73
(dp1711
sg82
g1642
sg75
(lp1712
g68
(g89
g70
NtRp1713
(dp1714
g73
(dp1715
g93
g94
ssg82
g1709
sg75
(lp1716
S'HTTP_ACCEPT_LANGUAGE'
p1717
asbag68
(g89
g70
NtRp1718
(dp1719
g73
(dp1720
g100
g101
ssg82
g1709
sg75
(lp1721
S':'
asbag68
(g89
g70
NtRp1722
(dp1723
g73
(dp1724
sg82
g1709
sg75
(lp1725
g68
(g69
g70
NtRp1726
(dp1727
g73
(dp1728
g81
I3
ssg82
g1722
sg75
(lp1729
g710
asbasbasbag68
(g84
g70
NtRp1730
(dp1731
g73
(dp1732
sg82
g1642
sg75
(lp1733
g68
(g89
g70
NtRp1734
(dp1735
g73
(dp1736
g93
g94
ssg82
g1730
sg75
(lp1737
S'HTTP_CACHE_CONTROL'
p1738
asbag68
(g89
g70
NtRp1739
(dp1740
g73
(dp1741
g100
g101
ssg82
g1730
sg75
(lp1742
S':'
asbag68
(g89
g70
NtRp1743
(dp1744
g73
(dp1745
sg82
g1730
sg75
(lp1746
g68
(g69
g70
NtRp1747
(dp1748
g73
(dp1749
g81
I3
ssg82
g1743
sg75
(lp1750
g732
asbasbasbag68
(g84
g70
NtRp1751
(dp1752
g73
(dp1753
sg82
g1642
sg75
(lp1754
g68
(g89
g70
NtRp1755
(dp1756
g73
(dp1757
g93
g94
ssg82
g1751
sg75
(lp1758
S'HTTP_CONNECTION'
p1759
asbag68
(g89
g70
NtRp1760
(dp1761
g73
(dp1762
g100
g101
ssg82
g1751
sg75
(lp1763
S':'
asbag68
(g89
g70
NtRp1764
(dp1765
g73
(dp1766
sg82
g1751
sg75
(lp1767
g68
(g69
g70
NtRp1768
(dp1769
g73
(dp1770
g81
I3
ssg82
g1764
sg75
(lp1771
g754
asbasbasbag68
(g84
g70
NtRp1772
(dp1773
g73
(dp1774
sg82
g1642
sg75
(lp1775
g68
(g89
g70
NtRp1776
(dp1777
g73
(dp1778
g93
g94
ssg82
g1772
sg75
(lp1779
S'HTTP_COOKIE'
p1780
asbag68
(g89
g70
NtRp1781
(dp1782
g73
(dp1783
g100
g101
ssg82
g1772
sg75
(lp1784
S':'
asbag68
(g89
g70
NtRp1785
(dp1786
g73
(dp1787
sg82
g1772
sg75
(lp1788
g68
(g69
g70
NtRp1789
(dp1790
g73
(dp1791
g81
I3
ssg82
g1785
sg75
(lp1792
g776
asbasbasbag68
(g84
g70
NtRp1793
(dp1794
g73
(dp1795
sg82
g1642
sg75
(lp1796
g68
(g89
g70
NtRp1797
(dp1798
g73
(dp1799
g93
g94
ssg82
g1793
sg75
(lp1800
S'HTTP_HOST'
p1801
asbag68
(g89
g70
NtRp1802
(dp1803
g73
(dp1804
g100
g101
ssg82
g1793
sg75
(lp1805
S':'
asbag68
(g89
g70
NtRp1806
(dp1807
g73
(dp1808
sg82
g1793
sg75
(lp1809
g68
(g69
g70
NtRp1810
(dp1811
g73
(dp1812
g81
I3
ssg82
g1806
sg75
(lp1813
g798
asbasbasbag68
(g84
g70
NtRp1814
(dp1815
g73
(dp1816
sg82
g1642
sg75
(lp1817
g68
(g89
g70
NtRp1818
(dp1819
g73
(dp1820
g93
g94
ssg82
g1814
sg75
(lp1821
S'HTTP_REFERER'
p1822
asbag68
(g89
g70
NtRp1823
(dp1824
g73
(dp1825
g100
g101
ssg82
g1814
sg75
(lp1826
S':'
asbag68
(g89
g70
NtRp1827
(dp1828
g73
(dp1829
sg82
g1814
sg75
(lp1830
g68
(g69
g70
NtRp1831
(dp1832
g73
(dp1833
g81
I3
ssg82
g1827
sg75
(lp1834
g820
asbasbasbag68
(g84
g70
NtRp1835
(dp1836
g73
(dp1837
sg82
g1642
sg75
(lp1838
g68
(g89
g70
NtRp1839
(dp1840
g73
(dp1841
g93
g94
ssg82
g1835
sg75
(lp1842
S'HTTP_USER_AGENT'
p1843
asbag68
(g89
g70
NtRp1844
(dp1845
g73
(dp1846
g100
g101
ssg82
g1835
sg75
(lp1847
S':'
asbag68
(g89
g70
NtRp1848
(dp1849
g73
(dp1850
sg82
g1835
sg75
(lp1851
g68
(g69
g70
NtRp1852
(dp1853
g73
(dp1854
g81
I3
ssg82
g1848
sg75
(lp1855
g842
asbasbasbag68
(g84
g70
NtRp1856
(dp1857
g73
(dp1858
sg82
g1642
sg75
(lp1859
g68
(g89
g70
NtRp1860
(dp1861
g73
(dp1862
g93
g94
ssg82
g1856
sg75
(lp1863
S'PATH_INFO'
p1864
asbag68
(g89
g70
NtRp1865
(dp1866
g73
(dp1867
g100
g101
ssg82
g1856
sg75
(lp1868
S':'
asbag68
(g89
g70
NtRp1869
(dp1870
g73
(dp1871
sg82
g1856
sg75
(lp1872
g68
(g69
g70
NtRp1873
(dp1874
g73
(dp1875
g81
I3
ssg82
g1869
sg75
(lp1876
g864
asbasbasbag68
(g84
g70
NtRp1877
(dp1878
g73
(dp1879
sg82
g1642
sg75
(lp1880
g68
(g89
g70
NtRp1881
(dp1882
g73
(dp1883
g93
g94
ssg82
g1877
sg75
(lp1884
S'QUERY_STRING'
p1885
asbag68
(g89
g70
NtRp1886
(dp1887
g73
(dp1888
g100
g101
ssg82
g1877
sg75
(lp1889
S':'
asbag68
(g89
g70
NtRp1890
(dp1891
g73
(dp1892
sg82
g1877
sg75
(lp1893
g68
(g69
g70
NtRp1894
(dp1895
g73
(dp1896
g81
I3
ssg82
g1890
sg75
(lp1897
S''
asbasbasbag68
(g84
g70
NtRp1898
(dp1899
g73
(dp1900
sg82
g1642
sg75
(lp1901
g68
(g89
g70
NtRp1902
(dp1903
g73
(dp1904
g93
g94
ssg82
g1898
sg75
(lp1905
S'REMOTE_ADDR'
p1906
asbag68
(g89
g70
NtRp1907
(dp1908
g73
(dp1909
g100
g101
ssg82
g1898
sg75
(lp1910
S':'
asbag68
(g89
g70
NtRp1911
(dp1912
g73
(dp1913
sg82
g1898
sg75
(lp1914
g68
(g69
g70
NtRp1915
(dp1916
g73
(dp1917
g81
I3
ssg82
g1911
sg75
(lp1918
g201
asbasbasbag68
(g84
g70
NtRp1919
(dp1920
g73
(dp1921
sg82
g1642
sg75
(lp1922
g68
(g89
g70
NtRp1923
(dp1924
g73
(dp1925
g93
g94
ssg82
g1919
sg75
(lp1926
S'REMOTE_PORT'
p1927
asbag68
(g89
g70
NtRp1928
(dp1929
g73
(dp1930
g100
g101
ssg82
g1919
sg75
(lp1931
S':'
asbag68
(g89
g70
NtRp1932
(dp1933
g73
(dp1934
sg82
g1919
sg75
(lp1935
g68
(g69
g70
NtRp1936
(dp1937
g73
(dp1938
g81
I3
ssg82
g1932
sg75
(lp1939
g928
asbasbasbag68
(g84
g70
NtRp1940
(dp1941
g73
(dp1942
sg82
g1642
sg75
(lp1943
g68
(g89
g70
NtRp1944
(dp1945
g73
(dp1946
g93
g94
ssg82
g1940
sg75
(lp1947
S'REQUEST_METHOD'
p1948
asbag68
(g89
g70
NtRp1949
(dp1950
g73
(dp1951
g100
g101
ssg82
g1940
sg75
(lp1952
S':'
asbag68
(g89
g70
NtRp1953
(dp1954
g73
(dp1955
sg82
g1940
sg75
(lp1956
g68
(g69
g70
NtRp1957
(dp1958
g73
(dp1959
g81
I3
ssg82
g1953
sg75
(lp1960
g950
asbasbasbag68
(g84
g70
NtRp1961
(dp1962
g73
(dp1963
sg82
g1642
sg75
(lp1964
g68
(g89
g70
NtRp1965
(dp1966
g73
(dp1967
g93
g94
ssg82
g1961
sg75
(lp1968
S'SCRIPT_NAME'
p1969
asbag68
(g89
g70
NtRp1970
(dp1971
g73
(dp1972
g100
g101
ssg82
g1961
sg75
(lp1973
S':'
asbag68
(g89
g70
NtRp1974
(dp1975
g73
(dp1976
sg82
g1961
sg75
(lp1977
g68
(g69
g70
NtRp1978
(dp1979
g73
(dp1980
g81
I3
ssg82
g1974
sg75
(lp1981
S''
asbasbasbag68
(g84
g70
NtRp1982
(dp1983
g73
(dp1984
sg82
g1642
sg75
(lp1985
g68
(g89
g70
NtRp1986
(dp1987
g73
(dp1988
g93
g94
ssg82
g1982
sg75
(lp1989
S'SERVER_NAME'
p1990
asbag68
(g89
g70
NtRp1991
(dp1992
g73
(dp1993
g100
g101
ssg82
g1982
sg75
(lp1994
S':'
asbag68
(g89
g70
NtRp1995
(dp1996
g73
(dp1997
sg82
g1982
sg75
(lp1998
g68
(g69
g70
NtRp1999
(dp2000
g73
(dp2001
g81
I3
ssg82
g1995
sg75
(lp2002
g993
asbasbasbag68
(g84
g70
NtRp2003
(dp2004
g73
(dp2005
sg82
g1642
sg75
(lp2006
g68
(g89
g70
NtRp2007
(dp2008
g73
(dp2009
g93
g94
ssg82
g2003
sg75
(lp2010
S'SERVER_PORT'
p2011
asbag68
(g89
g70
NtRp2012
(dp2013
g73
(dp2014
g100
g101
ssg82
g2003
sg75
(lp2015
S':'
asbag68
(g89
g70
NtRp2016
(dp2017
g73
(dp2018
sg82
g2003
sg75
(lp2019
g68
(g69
g70
NtRp2020
(dp2021
g73
(dp2022
g81
I3
ssg82
g2016
sg75
(lp2023
g1015
asbasbasbag68
(g84
g70
NtRp2024
(dp2025
g73
(dp2026
sg82
g1642
sg75
(lp2027
g68
(g89
g70
NtRp2028
(dp2029
g73
(dp2030
g93
g94
ssg82
g2024
sg75
(lp2031
S'SERVER_PROTOCOL'
p2032
asbag68
(g89
g70
NtRp2033
(dp2034
g73
(dp2035
g100
g101
ssg82
g2024
sg75
(lp2036
S':'
asbag68
(g89
g70
NtRp2037
(dp2038
g73
(dp2039
sg82
g2024
sg75
(lp2040
g68
(g69
g70
NtRp2041
(dp2042
g73
(dp2043
g81
I3
ssg82
g2037
sg75
(lp2044
g1037
asbasbasbag68
(g84
g70
NtRp2045
(dp2046
g73
(dp2047
sg82
g1642
sg75
(lp2048
g68
(g89
g70
NtRp2049
(dp2050
g73
(dp2051
g93
g94
ssg82
g2045
sg75
(lp2052
S'SERVER_SOFTWARE'
p2053
asbag68
(g89
g70
NtRp2054
(dp2055
g73
(dp2056
g100
g101
ssg82
g2045
sg75
(lp2057
S':'
asbag68
(g89
g70
NtRp2058
(dp2059
g73
(dp2060
sg82
g2045
sg75
(lp2061
g68
(g69
g70
NtRp2062
(dp2063
g73
(dp2064
g81
I3
ssg82
g2058
sg75
(lp2065
g1059
asbasbasbag68
(g84
g70
NtRp2066
(dp2067
g73
(dp2068
sg82
g1642
sg75
(lp2069
g68
(g89
g70
NtRp2070
(dp2071
g73
(dp2072
g93
g94
ssg82
g2066
sg75
(lp2073
S'wsgi.errors'
p2074
asbag68
(g89
g70
NtRp2075
(dp2076
g73
(dp2077
g100
g101
ssg82
g2066
sg75
(lp2078
S':'
asbag68
(g89
g70
NtRp2079
(dp2080
g73
(dp2081
sg82
g2066
sg75
(lp2082
g68
(g69
g70
NtRp2083
(dp2084
g73
(dp2085
g81
I3
ssg82
g2079
sg75
(lp2086
S"<open file '<stderr>', mode 'w' at 0x7f65db6f81e0>"
p2087
asbasbasbag68
(g84
g70
NtRp2088
(dp2089
g73
(dp2090
sg82
g1642
sg75
(lp2091
g68
(g89
g70
NtRp2092
(dp2093
g73
(dp2094
g93
g94
ssg82
g2088
sg75
(lp2095
S'wsgi.file_wrapper'
p2096
asbag68
(g89
g70
NtRp2097
(dp2098
g73
(dp2099
g100
g101
ssg82
g2088
sg75
(lp2100
S':'
asbag68
(g89
g70
NtRp2101
(dp2102
g73
(dp2103
sg82
g2088
sg75
(lp2104
g68
(g69
g70
NtRp2105
(dp2106
g73
(dp2107
g81
I3
ssg82
g2101
sg75
(lp2108
S'<class gluon.rocket.FileWrapper at 0x1cd43b0>'
p2109
asbasbasbag68
(g84
g70
NtRp2110
(dp2111
g73
(dp2112
sg82
g1642
sg75
(lp2113
g68
(g89
g70
NtRp2114
(dp2115
g73
(dp2116
g93
g94
ssg82
g2110
sg75
(lp2117
S'wsgi.input'
p2118
asbag68
(g89
g70
NtRp2119
(dp2120
g73
(dp2121
g100
g101
ssg82
g2110
sg75
(lp2122
S':'
asbag68
(g89
g70
NtRp2123
(dp2124
g73
(dp2125
sg82
g2110
sg75
(lp2126
g68
(g69
g70
NtRp2127
(dp2128
g73
(dp2129
g81
I3
ssg82
g2123
sg75
(lp2130
S'<cStringIO.StringO object at 0x23c9378>'
p2131
asbasbasbag68
(g84
g70
NtRp2132
(dp2133
g73
(dp2134
sg82
g1642
sg75
(lp2135
g68
(g89
g70
NtRp2136
(dp2137
g73
(dp2138
g93
g94
ssg82
g2132
sg75
(lp2139
S'wsgi.multiprocess'
p2140
asbag68
(g89
g70
NtRp2141
(dp2142
g73
(dp2143
g100
g101
ssg82
g2132
sg75
(lp2144
S':'
asbag68
(g89
g70
NtRp2145
(dp2146
g73
(dp2147
sg82
g2132
sg75
(lp2148
g68
(g69
g70
NtRp2149
(dp2150
g73
(dp2151
g81
I3
ssg82
g2145
sg75
(lp2152
g111
asbasbasbag68
(g84
g70
NtRp2153
(dp2154
g73
(dp2155
sg82
g1642
sg75
(lp2156
g68
(g89
g70
NtRp2157
(dp2158
g73
(dp2159
g93
g94
ssg82
g2153
sg75
(lp2160
S'wsgi.multithread'
p2161
asbag68
(g89
g70
NtRp2162
(dp2163
g73
(dp2164
g100
g101
ssg82
g2153
sg75
(lp2165
S':'
asbag68
(g89
g70
NtRp2166
(dp2167
g73
(dp2168
sg82
g2153
sg75
(lp2169
g68
(g69
g70
NtRp2170
(dp2171
g73
(dp2172
g81
I3
ssg82
g2166
sg75
(lp2173
g1233
asbasbasbag68
(g84
g70
NtRp2174
(dp2175
g73
(dp2176
sg82
g1642
sg75
(lp2177
g68
(g89
g70
NtRp2178
(dp2179
g73
(dp2180
g93
g94
ssg82
g2174
sg75
(lp2181
S'wsgi.run_once'
p2182
asbag68
(g89
g70
NtRp2183
(dp2184
g73
(dp2185
g100
g101
ssg82
g2174
sg75
(lp2186
S':'
asbag68
(g89
g70
NtRp2187
(dp2188
g73
(dp2189
sg82
g2174
sg75
(lp2190
g68
(g69
g70
NtRp2191
(dp2192
g73
(dp2193
g81
I3
ssg82
g2187
sg75
(lp2194
g111
asbasbasbag68
(g84
g70
NtRp2195
(dp2196
g73
(dp2197
sg82
g1642
sg75
(lp2198
g68
(g89
g70
NtRp2199
(dp2200
g73
(dp2201
g93
g94
ssg82
g2195
sg75
(lp2202
S'wsgi.url_scheme'
p2203
asbag68
(g89
g70
NtRp2204
(dp2205
g73
(dp2206
g100
g101
ssg82
g2195
sg75
(lp2207
S':'
asbag68
(g89
g70
NtRp2208
(dp2209
g73
(dp2210
sg82
g2195
sg75
(lp2211
g68
(g69
g70
NtRp2212
(dp2213
g73
(dp2214
g81
I3
ssg82
g2208
sg75
(lp2215
g1276
asbasbasbag68
(g84
g70
NtRp2216
(dp2217
g73
(dp2218
sg82
g1642
sg75
(lp2219
g68
(g89
g70
NtRp2220
(dp2221
g73
(dp2222
g93
g94
ssg82
g2216
sg75
(lp2223
S'wsgi.version'
p2224
asbag68
(g89
g70
NtRp2225
(dp2226
g73
(dp2227
g100
g101
ssg82
g2216
sg75
(lp2228
S':'
asbag68
(g89
g70
NtRp2229
(dp2230
g73
(dp2231
sg82
g2216
sg75
(lp2232
g68
(g69
g70
NtRp2233
(dp2234
g73
(dp2235
g81
I3
ssg82
g2229
sg75
(lp2236
S'1'
asbasbasbasbasbasbasbasbasbasbasbasbasbsS'frames'
p2237
(lp2238
(dp2239
S'file'
p2240
S'/home/marco/proyectos/web2py-trunk/gluon/restricted.py'
p2241
sS'dump'
p2242
(dp2243
S'code'
p2244
S"'#-*- coding: utf-8 -*-\\n# this file is released u...dos)\\n\\nresponse._vars=response._caller(prestamos)\\n'"
p2245
sS'layer'
p2246
S"'/home/marco/proyectos/web2py-trunk/applications/mvstore/controllers/default.py'"
p2247
sS'global compile2'
p2248
S'<function compile2>'
p2249
sS'ccode'
p2250
S'undefined'
p2251
ssS'lnum'
p2252
I191
sS'lines'
p2253
(dp2254
I192
S'        exec ccode in environment'
p2255
sI193
S'    except HTTP:'
p2256
sI194
S'        raise'
p2257
sI195
S'    except Exception:'
p2258
sI186
S"    environment['__file__'] = layer"
p2259
sI187
S'    try:'
p2260
sI188
S'        if type(code) == types.CodeType:'
p2261
sI189
S'            ccode = code'
p2262
sI190
S'        else:'
p2263
sI191
S'            ccode = compile2(code,layer)'
p2264
ssS'call'
p2265
S"(code='#-*- coding: utf-8 -*-\\n# this file is released u...dos)\\n\\nresponse._vars=response._caller(prestamos)\\n', environment={'A': <class 'gluon.html.A'>, 'Auth': <class 'gluon.tools.Auth'>, 'B': <class 'gluon.html.B'>, 'BEAUTIFY': <class 'gluon.html.BEAUTIFY'>, 'BODY': <class 'gluon.html.BODY'>, 'BR': <class 'gluon.html.BR'>, 'BUTTON': <class 'gluon.html.BUTTON'>, 'CENTER': <class 'gluon.html.CENTER'>, 'CLEANUP': <class 'gluon.validators.CLEANUP'>, 'CODE': <class 'gluon.html.CODE'>, ...}, layer='/home/marco/proyectos/web2py-trunk/applications/mvstore/controllers/default.py')"
p2266
sS'func'
p2267
S'restricted'
p2268
sa(dp2269
g2240
S'/home/marco/proyectos/web2py-trunk/gluon/restricted.py'
p2270
sg2242
(dp2271
S'builtincompile'
p2272
S'<built-in function compile>'
p2273
sS'code'
p2274
S"'#-*- coding: utf-8 -*-\\n# this file is released u...dos)\\n\\nresponse._vars=response._caller(prestamos)\\n'"
p2275
sS'code.rstrip'
p2276
S'<built-in method rstrip of str object>'
p2277
sS').replace'
p2278
g2251
sS'layer'
p2279
S"'/home/marco/proyectos/web2py-trunk/applications/mvstore/controllers/default.py'"
p2280
ssg2252
I178
sg2253
(dp2281
I173
S''
sI174
S'def compile2(code,layer):'
p2282
sI175
S'    """'
p2283
sI176
S"    The +'\\n' is necessary else compile fails when code ends in a comment."
p2284
sI177
S'    """'
p2285
sI178
S"    return compile(code.rstrip().replace('\\r\\n','\\n')+'\\n', layer, 'exec')"
p2286
sI179
S''
sI180
S"def restricted(code, environment={}, layer='Unknown'):"
p2287
sI181
S'    """'
p2288
sI182
S'    runs code in environment and returns the output. if an exception occurs'
p2289
ssg2265
S"(code='#-*- coding: utf-8 -*-\\n# this file is released u...dos)\\n\\nresponse._vars=response._caller(prestamos)\\n', layer='/home/marco/proyectos/web2py-trunk/applications/mvstore/controllers/default.py')"
p2290
sg2267
S'compile2'
p2291
sasS'pyver'
p2292
S'Python 2.6.6: /usr/bin/python'
p2293
sS'session'
p2294
g68
(g69
g70
NtRp2295
(dp2296
g73
(dp2297
sg75
(lp2298
g68
(g77
g70
NtRp2299
(dp2300
g73
(dp2301
g81
I5
ssg82
Nsg75
(lp2302
sbasbsS'etype'
p2303
S"<type 'exceptions.SyntaxError'>"
p2304
sS'date'
p2305
S'Sun Jun 19 20:55:39 2011'
p2306
sS'response'
p2307
g68
(g69
g70
NtRp2308
(dp2309
g73
(dp2310
sg75
(lp2311
g68
(g77
g70
NtRp2312
(dp2313
g73
(dp2314
g81
I5
ssg82
Nsg75
(lp2315
g68
(g84
g70
NtRp2316
(dp2317
g73
(dp2318
sg82
g2312
sg75
(lp2319
g68
(g89
g70
NtRp2320
(dp2321
g73
(dp2322
g93
g94
ssg82
g2316
sg75
(lp2323
g166
asbag68
(g89
g70
NtRp2324
(dp2325
g73
(dp2326
g100
g101
ssg82
g2316
sg75
(lp2327
S':'
asbag68
(g89
g70
NtRp2328
(dp2329
g73
(dp2330
sg82
g2316
sg75
(lp2331
g68
(g69
g70
NtRp2332
(dp2333
g73
(dp2334
g81
I5
ssg82
g2328
sg75
(lp2335
S'<cStringIO.StringO object at 0x2aa3618>'
p2336
asbasbasbag68
(g84
g70
NtRp2337
(dp2338
g73
(dp2339
sg82
g2312
sg75
(lp2340
g68
(g89
g70
NtRp2341
(dp2342
g73
(dp2343
g93
g94
ssg82
g2337
sg75
(lp2344
g232
asbag68
(g89
g70
NtRp2345
(dp2346
g73
(dp2347
g100
g101
ssg82
g2337
sg75
(lp2348
S':'
asbag68
(g89
g70
NtRp2349
(dp2350
g73
(dp2351
sg82
g2337
sg75
(lp2352
g68
(g69
g70
NtRp2353
(dp2354
g73
(dp2355
g81
I5
ssg82
g2349
sg75
(lp2356
g68
(g77
g70
NtRp2357
(dp2358
g73
(dp2359
g81
I4
ssg82
Nsg75
(lp2360
g68
(g84
g70
NtRp2361
(dp2362
g73
(dp2363
sg82
g2357
sg75
(lp2364
g68
(g89
g70
NtRp2365
(dp2366
g73
(dp2367
g93
g94
ssg82
g2361
sg75
(lp2368
S'session_id_mvstore'
p2369
asbag68
(g89
g70
NtRp2370
(dp2371
g73
(dp2372
g100
g101
ssg82
g2361
sg75
(lp2373
S':'
asbag68
(g89
g70
NtRp2374
(dp2375
g73
(dp2376
sg82
g2361
sg75
(lp2377
g68
(g69
g70
NtRp2378
(dp2379
g73
(dp2380
g81
I4
ssg82
g2374
sg75
(lp2381
g68
(g77
g70
NtRp2382
(dp2383
g73
(dp2384
g81
I3
ssg82
Nsg75
(lp2385
g68
(g84
g70
NtRp2386
(dp2387
g73
(dp2388
sg82
g2382
sg75
(lp2389
g68
(g89
g70
NtRp2390
(dp2391
g73
(dp2392
g93
g94
ssg82
g2386
sg75
(lp2393
g282
asbag68
(g89
g70
NtRp2394
(dp2395
g73
(dp2396
g100
g101
ssg82
g2386
sg75
(lp2397
S':'
asbag68
(g89
g70
NtRp2398
(dp2399
g73
(dp2400
sg82
g2386
sg75
(lp2401
g68
(g69
g70
NtRp2402
(dp2403
g73
(dp2404
g81
I3
ssg82
g2398
sg75
(lp2405
S''
asbasbasbag68
(g84
g70
NtRp2406
(dp2407
g73
(dp2408
sg82
g2382
sg75
(lp2409
g68
(g89
g70
NtRp2410
(dp2411
g73
(dp2412
g93
g94
ssg82
g2406
sg75
(lp2413
g303
asbag68
(g89
g70
NtRp2414
(dp2415
g73
(dp2416
g100
g101
ssg82
g2406
sg75
(lp2417
S':'
asbag68
(g89
g70
NtRp2418
(dp2419
g73
(dp2420
sg82
g2406
sg75
(lp2421
g68
(g69
g70
NtRp2422
(dp2423
g73
(dp2424
g81
I3
ssg82
g2418
sg75
(lp2425
S''
asbasbasbag68
(g84
g70
NtRp2426
(dp2427
g73
(dp2428
sg82
g2382
sg75
(lp2429
g68
(g89
g70
NtRp2430
(dp2431
g73
(dp2432
g93
g94
ssg82
g2426
sg75
(lp2433
g324
asbag68
(g89
g70
NtRp2434
(dp2435
g73
(dp2436
g100
g101
ssg82
g2426
sg75
(lp2437
S':'
asbag68
(g89
g70
NtRp2438
(dp2439
g73
(dp2440
sg82
g2426
sg75
(lp2441
g68
(g69
g70
NtRp2442
(dp2443
g73
(dp2444
g81
I3
ssg82
g2438
sg75
(lp2445
S''
asbasbasbag68
(g84
g70
NtRp2446
(dp2447
g73
(dp2448
sg82
g2382
sg75
(lp2449
g68
(g89
g70
NtRp2450
(dp2451
g73
(dp2452
g93
g94
ssg82
g2446
sg75
(lp2453
g345
asbag68
(g89
g70
NtRp2454
(dp2455
g73
(dp2456
g100
g101
ssg82
g2446
sg75
(lp2457
S':'
asbag68
(g89
g70
NtRp2458
(dp2459
g73
(dp2460
sg82
g2446
sg75
(lp2461
g68
(g69
g70
NtRp2462
(dp2463
g73
(dp2464
g81
I3
ssg82
g2458
sg75
(lp2465
S''
asbasbasbag68
(g84
g70
NtRp2466
(dp2467
g73
(dp2468
sg82
g2382
sg75
(lp2469
g68
(g89
g70
NtRp2470
(dp2471
g73
(dp2472
g93
g94
ssg82
g2466
sg75
(lp2473
g366
asbag68
(g89
g70
NtRp2474
(dp2475
g73
(dp2476
g100
g101
ssg82
g2466
sg75
(lp2477
S':'
asbag68
(g89
g70
NtRp2478
(dp2479
g73
(dp2480
sg82
g2466
sg75
(lp2481
g68
(g69
g70
NtRp2482
(dp2483
g73
(dp2484
g81
I3
ssg82
g2478
sg75
(lp2485
S''
asbasbasbag68
(g84
g70
NtRp2486
(dp2487
g73
(dp2488
sg82
g2382
sg75
(lp2489
g68
(g89
g70
NtRp2490
(dp2491
g73
(dp2492
g93
g94
ssg82
g2486
sg75
(lp2493
g387
asbag68
(g89
g70
NtRp2494
(dp2495
g73
(dp2496
g100
g101
ssg82
g2486
sg75
(lp2497
S':'
asbag68
(g89
g70
NtRp2498
(dp2499
g73
(dp2500
sg82
g2486
sg75
(lp2501
g68
(g69
g70
NtRp2502
(dp2503
g73
(dp2504
g81
I3
ssg82
g2498
sg75
(lp2505
S'/'
asbasbasbag68
(g84
g70
NtRp2506
(dp2507
g73
(dp2508
sg82
g2382
sg75
(lp2509
g68
(g89
g70
NtRp2510
(dp2511
g73
(dp2512
g93
g94
ssg82
g2506
sg75
(lp2513
g408
asbag68
(g89
g70
NtRp2514
(dp2515
g73
(dp2516
g100
g101
ssg82
g2506
sg75
(lp2517
S':'
asbag68
(g89
g70
NtRp2518
(dp2519
g73
(dp2520
sg82
g2506
sg75
(lp2521
g68
(g69
g70
NtRp2522
(dp2523
g73
(dp2524
g81
I3
ssg82
g2518
sg75
(lp2525
S''
asbasbasbag68
(g84
g70
NtRp2526
(dp2527
g73
(dp2528
sg82
g2382
sg75
(lp2529
g68
(g89
g70
NtRp2530
(dp2531
g73
(dp2532
g93
g94
ssg82
g2526
sg75
(lp2533
g429
asbag68
(g89
g70
NtRp2534
(dp2535
g73
(dp2536
g100
g101
ssg82
g2526
sg75
(lp2537
S':'
asbag68
(g89
g70
NtRp2538
(dp2539
g73
(dp2540
sg82
g2526
sg75
(lp2541
g68
(g69
g70
NtRp2542
(dp2543
g73
(dp2544
g81
I3
ssg82
g2538
sg75
(lp2545
S''
asbasbasbasbasbasbasbasbasbasbasbag68
(g84
g70
NtRp2546
(dp2547
g73
(dp2548
sg82
g2312
sg75
(lp2549
g68
(g89
g70
NtRp2550
(dp2551
g73
(dp2552
g93
g94
ssg82
g2546
sg75
(lp2553
S'files'
p2554
asbag68
(g89
g70
NtRp2555
(dp2556
g73
(dp2557
g100
g101
ssg82
g2546
sg75
(lp2558
S':'
asbag68
(g89
g70
NtRp2559
(dp2560
g73
(dp2561
sg82
g2546
sg75
(lp2562
g68
(g69
g70
NtRp2563
(dp2564
g73
(dp2565
g81
I5
ssg82
g2559
sg75
(lp2566
g68
(g77
g70
NtRp2567
(dp2568
g73
(dp2569
g81
I4
ssg82
Nsg75
(lp2570
sbasbasbasbag68
(g84
g70
NtRp2571
(dp2572
g73
(dp2573
sg82
g2312
sg75
(lp2574
g68
(g89
g70
NtRp2575
(dp2576
g73
(dp2577
g93
g94
ssg82
g2571
sg75
(lp2578
S'flash'
p2579
asbag68
(g89
g70
NtRp2580
(dp2581
g73
(dp2582
g100
g101
ssg82
g2571
sg75
(lp2583
S':'
asbag68
(g89
g70
NtRp2584
(dp2585
g73
(dp2586
sg82
g2571
sg75
(lp2587
g68
(g69
g70
NtRp2588
(dp2589
g73
(dp2590
g81
I5
ssg82
g2584
sg75
(lp2591
S''
asbasbasbag68
(g84
g70
NtRp2592
(dp2593
g73
(dp2594
sg82
g2312
sg75
(lp2595
g68
(g89
g70
NtRp2596
(dp2597
g73
(dp2598
g93
g94
ssg82
g2592
sg75
(lp2599
S'headers'
p2600
asbag68
(g89
g70
NtRp2601
(dp2602
g73
(dp2603
g100
g101
ssg82
g2592
sg75
(lp2604
S':'
asbag68
(g89
g70
NtRp2605
(dp2606
g73
(dp2607
sg82
g2592
sg75
(lp2608
g68
(g69
g70
NtRp2609
(dp2610
g73
(dp2611
g81
I5
ssg82
g2605
sg75
(lp2612
g68
(g77
g70
NtRp2613
(dp2614
g73
(dp2615
g81
I4
ssg82
Nsg75
(lp2616
g68
(g84
g70
NtRp2617
(dp2618
g73
(dp2619
sg82
g2613
sg75
(lp2620
g68
(g89
g70
NtRp2621
(dp2622
g73
(dp2623
g93
g94
ssg82
g2617
sg75
(lp2624
S'Cache-Control'
p2625
asbag68
(g89
g70
NtRp2626
(dp2627
g73
(dp2628
g100
g101
ssg82
g2617
sg75
(lp2629
S':'
asbag68
(g89
g70
NtRp2630
(dp2631
g73
(dp2632
sg82
g2617
sg75
(lp2633
g68
(g69
g70
NtRp2634
(dp2635
g73
(dp2636
g81
I4
ssg82
g2630
sg75
(lp2637
S'no-store, no-cache, must-revalidate, post-check=0, pre-check=0'
p2638
asbasbasbag68
(g84
g70
NtRp2639
(dp2640
g73
(dp2641
sg82
g2613
sg75
(lp2642
g68
(g89
g70
NtRp2643
(dp2644
g73
(dp2645
g93
g94
ssg82
g2639
sg75
(lp2646
S'Content-Type'
p2647
asbag68
(g89
g70
NtRp2648
(dp2649
g73
(dp2650
g100
g101
ssg82
g2639
sg75
(lp2651
S':'
asbag68
(g89
g70
NtRp2652
(dp2653
g73
(dp2654
sg82
g2639
sg75
(lp2655
g68
(g69
g70
NtRp2656
(dp2657
g73
(dp2658
g81
I4
ssg82
g2652
sg75
(lp2659
S'text/html; charset=utf-8'
p2660
asbasbasbag68
(g84
g70
NtRp2661
(dp2662
g73
(dp2663
sg82
g2613
sg75
(lp2664
g68
(g89
g70
NtRp2665
(dp2666
g73
(dp2667
g93
g94
ssg82
g2661
sg75
(lp2668
S'Expires'
p2669
asbag68
(g89
g70
NtRp2670
(dp2671
g73
(dp2672
g100
g101
ssg82
g2661
sg75
(lp2673
S':'
asbag68
(g89
g70
NtRp2674
(dp2675
g73
(dp2676
sg82
g2661
sg75
(lp2677
g68
(g69
g70
NtRp2678
(dp2679
g73
(dp2680
g81
I4
ssg82
g2674
sg75
(lp2681
S'Sun, 19 Jun 2011 23:55:39 GMT'
p2682
asbasbasbag68
(g84
g70
NtRp2683
(dp2684
g73
(dp2685
sg82
g2613
sg75
(lp2686
g68
(g89
g70
NtRp2687
(dp2688
g73
(dp2689
g93
g94
ssg82
g2683
sg75
(lp2690
S'Pragma'
p2691
asbag68
(g89
g70
NtRp2692
(dp2693
g73
(dp2694
g100
g101
ssg82
g2683
sg75
(lp2695
S':'
asbag68
(g89
g70
NtRp2696
(dp2697
g73
(dp2698
sg82
g2683
sg75
(lp2699
g68
(g69
g70
NtRp2700
(dp2701
g73
(dp2702
g81
I4
ssg82
g2696
sg75
(lp2703
S'no-cache'
p2704
asbasbasbag68
(g84
g70
NtRp2705
(dp2706
g73
(dp2707
sg82
g2613
sg75
(lp2708
g68
(g89
g70
NtRp2709
(dp2710
g73
(dp2711
g93
g94
ssg82
g2705
sg75
(lp2712
S'X-Powered-By'
p2713
asbag68
(g89
g70
NtRp2714
(dp2715
g73
(dp2716
g100
g101
ssg82
g2705
sg75
(lp2717
S':'
asbag68
(g89
g70
NtRp2718
(dp2719
g73
(dp2720
sg82
g2705
sg75
(lp2721
g68
(g69
g70
NtRp2722
(dp2723
g73
(dp2724
g81
I4
ssg82
g2718
sg75
(lp2725
S'web2py'
p2726
asbasbasbasbasbasbasbag68
(g84
g70
NtRp2727
(dp2728
g73
(dp2729
sg82
g2312
sg75
(lp2730
g68
(g89
g70
NtRp2731
(dp2732
g73
(dp2733
g93
g94
ssg82
g2727
sg75
(lp2734
S'menu'
p2735
asbag68
(g89
g70
NtRp2736
(dp2737
g73
(dp2738
g100
g101
ssg82
g2727
sg75
(lp2739
S':'
asbag68
(g89
g70
NtRp2740
(dp2741
g73
(dp2742
sg82
g2727
sg75
(lp2743
g68
(g69
g70
NtRp2744
(dp2745
g73
(dp2746
g81
I5
ssg82
g2740
sg75
(lp2747
g68
(g77
g70
NtRp2748
(dp2749
g73
(dp2750
g81
I4
ssg82
Nsg75
(lp2751
g68
(g84
g70
NtRp2752
(dp2753
g73
(dp2754
sg82
g2748
sg75
(lp2755
g68
(g89
g70
NtRp2756
(dp2757
g73
(dp2758
sg82
g2752
sg75
(lp2759
g68
(g69
g70
NtRp2760
(dp2761
g73
(dp2762
g81
I4
ssg82
g2756
sg75
(lp2763
g68
(g77
g70
NtRp2764
(dp2765
g73
(dp2766
g81
I3
ssg82
Nsg75
(lp2767
g68
(g84
g70
NtRp2768
(dp2769
g73
(dp2770
sg82
g2764
sg75
(lp2771
g68
(g89
g70
NtRp2772
(dp2773
g73
(dp2774
sg82
g2768
sg75
(lp2775
g68
(g69
g70
NtRp2776
(dp2777
g73
(dp2778
g81
I3
ssg82
g2772
sg75
(lp2779
cgluon.languages
lazyT_unpickle
p2780
(S's\x04\x00\x00\x00Home'
tRp2781
asbasbasbag68
(g84
g70
NtRp2782
(dp2783
g73
(dp2784
sg82
g2764
sg75
(lp2785
g68
(g89
g70
NtRp2786
(dp2787
g73
(dp2788
sg82
g2782
sg75
(lp2789
g68
(g69
g70
NtRp2790
(dp2791
g73
(dp2792
g81
I3
ssg82
g2786
sg75
(lp2793
g111
asbasbasbag68
(g84
g70
NtRp2794
(dp2795
g73
(dp2796
sg82
g2764
sg75
(lp2797
g68
(g89
g70
NtRp2798
(dp2799
g73
(dp2800
sg82
g2794
sg75
(lp2801
g68
(g69
g70
NtRp2802
(dp2803
g73
(dp2804
g81
I3
ssg82
g2798
sg75
(lp2805
S'/mvstore/default/index'
p2806
asbasbasbag68
(g84
g70
NtRp2807
(dp2808
g73
(dp2809
sg82
g2764
sg75
(lp2810
g68
(g89
g70
NtRp2811
(dp2812
g73
(dp2813
sg82
g2807
sg75
(lp2814
g68
(g69
g70
NtRp2815
(dp2816
g73
(dp2817
g81
I3
ssg82
g2811
sg75
(lp2818
g68
(g77
g70
NtRp2819
(dp2820
g73
(dp2821
g81
I2
ssg82
Nsg75
(lp2822
sbasbasbasbasbasbasbasbag68
(g84
g70
NtRp2823
(dp2824
g73
(dp2825
sg82
g2748
sg75
(lp2826
g68
(g89
g70
NtRp2827
(dp2828
g73
(dp2829
sg82
g2823
sg75
(lp2830
g68
(g69
g70
NtRp2831
(dp2832
g73
(dp2833
g81
I4
ssg82
g2827
sg75
(lp2834
g68
(g77
g70
NtRp2835
(dp2836
g73
(dp2837
g81
I3
ssg82
Nsg75
(lp2838
g68
(g84
g70
NtRp2839
(dp2840
g73
(dp2841
sg82
g2835
sg75
(lp2842
g68
(g89
g70
NtRp2843
(dp2844
g73
(dp2845
sg82
g2839
sg75
(lp2846
g68
(g69
g70
NtRp2847
(dp2848
g73
(dp2849
g81
I3
ssg82
g2843
sg75
(lp2850
g2780
(S's\x08\x00\x00\x00This App'
tRp2851
asbasbasbag68
(g84
g70
NtRp2852
(dp2853
g73
(dp2854
sg82
g2835
sg75
(lp2855
g68
(g89
g70
NtRp2856
(dp2857
g73
(dp2858
sg82
g2852
sg75
(lp2859
g68
(g69
g70
NtRp2860
(dp2861
g73
(dp2862
g81
I3
ssg82
g2856
sg75
(lp2863
g111
asbasbasbag68
(g84
g70
NtRp2864
(dp2865
g73
(dp2866
sg82
g2835
sg75
(lp2867
g68
(g89
g70
NtRp2868
(dp2869
g73
(dp2870
sg82
g2864
sg75
(lp2871
g68
(g69
g70
NtRp2872
(dp2873
g73
(dp2874
g81
I3
ssg82
g2868
sg75
(lp2875
S'/mvstore/default/index'
p2876
asbasbasbag68
(g84
g70
NtRp2877
(dp2878
g73
(dp2879
sg82
g2835
sg75
(lp2880
g68
(g89
g70
NtRp2881
(dp2882
g73
(dp2883
sg82
g2877
sg75
(lp2884
g68
(g69
g70
NtRp2885
(dp2886
g73
(dp2887
g81
I3
ssg82
g2881
sg75
(lp2888
g68
(g77
g70
NtRp2889
(dp2890
g73
(dp2891
g81
I2
ssg82
Nsg75
(lp2892
g68
(g84
g70
NtRp2893
(dp2894
g73
(dp2895
sg82
g2889
sg75
(lp2896
g68
(g89
g70
NtRp2897
(dp2898
g73
(dp2899
sg82
g2893
sg75
(lp2900
g68
(g69
g70
NtRp2901
(dp2902
g73
(dp2903
g81
I2
ssg82
g2897
sg75
(lp2904
g68
(g77
g70
NtRp2905
(dp2906
g73
(dp2907
g81
I1
ssg82
Nsg75
(lp2908
g68
(g84
g70
NtRp2909
(dp2910
g73
(dp2911
sg82
g2905
sg75
(lp2912
g68
(g89
g70
NtRp2913
(dp2914
g73
(dp2915
sg82
g2909
sg75
(lp2916
g68
(g69
g70
NtRp2917
(dp2918
g73
(dp2919
g81
I1
ssg82
g2913
sg75
(lp2920
g2780
(S's\n\x00\x00\x00Controller'
tRp2921
asbasbasbag68
(g84
g70
NtRp2922
(dp2923
g73
(dp2924
sg82
g2905
sg75
(lp2925
g68
(g89
g70
NtRp2926
(dp2927
g73
(dp2928
sg82
g2922
sg75
(lp2929
g68
(g69
g70
NtRp2930
(dp2931
g73
(dp2932
g81
I1
ssg82
g2926
sg75
(lp2933
I00
asbasbasbag68
(g84
g70
NtRp2934
(dp2935
g73
(dp2936
sg82
g2905
sg75
(lp2937
g68
(g89
g70
NtRp2938
(dp2939
g73
(dp2940
sg82
g2934
sg75
(lp2941
g68
(g69
g70
NtRp2942
(dp2943
g73
(dp2944
g81
I1
ssg82
g2938
sg75
(lp2945
S'/admin/default/edit/mvstore/controllers/default.py'
p2946
asbasbasbasbasbasbasbag68
(g84
g70
NtRp2947
(dp2948
g73
(dp2949
sg82
g2889
sg75
(lp2950
g68
(g89
g70
NtRp2951
(dp2952
g73
(dp2953
sg82
g2947
sg75
(lp2954
g68
(g69
g70
NtRp2955
(dp2956
g73
(dp2957
g81
I2
ssg82
g2951
sg75
(lp2958
g68
(g77
g70
NtRp2959
(dp2960
g73
(dp2961
g81
I1
ssg82
Nsg75
(lp2962
g68
(g84
g70
NtRp2963
(dp2964
g73
(dp2965
sg82
g2959
sg75
(lp2966
g68
(g89
g70
NtRp2967
(dp2968
g73
(dp2969
sg82
g2963
sg75
(lp2970
g68
(g69
g70
NtRp2971
(dp2972
g73
(dp2973
g81
I1
ssg82
g2967
sg75
(lp2974
g2780
(S's\x04\x00\x00\x00View'
tRp2975
asbasbasbag68
(g84
g70
NtRp2976
(dp2977
g73
(dp2978
sg82
g2959
sg75
(lp2979
g68
(g89
g70
NtRp2980
(dp2981
g73
(dp2982
sg82
g2976
sg75
(lp2983
g68
(g69
g70
NtRp2984
(dp2985
g73
(dp2986
g81
I1
ssg82
g2980
sg75
(lp2987
I00
asbasbasbag68
(g84
g70
NtRp2988
(dp2989
g73
(dp2990
sg82
g2959
sg75
(lp2991
g68
(g89
g70
NtRp2992
(dp2993
g73
(dp2994
sg82
g2988
sg75
(lp2995
g68
(g69
g70
NtRp2996
(dp2997
g73
(dp2998
g81
I1
ssg82
g2992
sg75
(lp2999
S'/admin/default/edit/mvstore/views/default/prestamos.html'
p3000
asbasbasbasbasbasbasbag68
(g84
g70
NtRp3001
(dp3002
g73
(dp3003
sg82
g2889
sg75
(lp3004
g68
(g89
g70
NtRp3005
(dp3006
g73
(dp3007
sg82
g3001
sg75
(lp3008
g68
(g69
g70
NtRp3009
(dp3010
g73
(dp3011
g81
I2
ssg82
g3005
sg75
(lp3012
g68
(g77
g70
NtRp3013
(dp3014
g73
(dp3015
g81
I1
ssg82
Nsg75
(lp3016
g68
(g84
g70
NtRp3017
(dp3018
g73
(dp3019
sg82
g3013
sg75
(lp3020
g68
(g89
g70
NtRp3021
(dp3022
g73
(dp3023
sg82
g3017
sg75
(lp3024
g68
(g69
g70
NtRp3025
(dp3026
g73
(dp3027
g81
I1
ssg82
g3021
sg75
(lp3028
g2780
(S's\x06\x00\x00\x00Layout'
tRp3029
asbasbasbag68
(g84
g70
NtRp3030
(dp3031
g73
(dp3032
sg82
g3013
sg75
(lp3033
g68
(g89
g70
NtRp3034
(dp3035
g73
(dp3036
sg82
g3030
sg75
(lp3037
g68
(g69
g70
NtRp3038
(dp3039
g73
(dp3040
g81
I1
ssg82
g3034
sg75
(lp3041
I00
asbasbasbag68
(g84
g70
NtRp3042
(dp3043
g73
(dp3044
sg82
g3013
sg75
(lp3045
g68
(g89
g70
NtRp3046
(dp3047
g73
(dp3048
sg82
g3042
sg75
(lp3049
g68
(g69
g70
NtRp3050
(dp3051
g73
(dp3052
g81
I1
ssg82
g3046
sg75
(lp3053
S'/admin/default/edit/mvstore/views/layout.html'
p3054
asbasbasbasbasbasbasbag68
(g84
g70
NtRp3055
(dp3056
g73
(dp3057
sg82
g2889
sg75
(lp3058
g68
(g89
g70
NtRp3059
(dp3060
g73
(dp3061
sg82
g3055
sg75
(lp3062
g68
(g69
g70
NtRp3063
(dp3064
g73
(dp3065
g81
I2
ssg82
g3059
sg75
(lp3066
g68
(g77
g70
NtRp3067
(dp3068
g73
(dp3069
g81
I1
ssg82
Nsg75
(lp3070
g68
(g84
g70
NtRp3071
(dp3072
g73
(dp3073
sg82
g3067
sg75
(lp3074
g68
(g89
g70
NtRp3075
(dp3076
g73
(dp3077
sg82
g3071
sg75
(lp3078
g68
(g69
g70
NtRp3079
(dp3080
g73
(dp3081
g81
I1
ssg82
g3075
sg75
(lp3082
g2780
(S's\n\x00\x00\x00Stylesheet'
tRp3083
asbasbasbag68
(g84
g70
NtRp3084
(dp3085
g73
(dp3086
sg82
g3067
sg75
(lp3087
g68
(g89
g70
NtRp3088
(dp3089
g73
(dp3090
sg82
g3084
sg75
(lp3091
g68
(g69
g70
NtRp3092
(dp3093
g73
(dp3094
g81
I1
ssg82
g3088
sg75
(lp3095
I00
asbasbasbag68
(g84
g70
NtRp3096
(dp3097
g73
(dp3098
sg82
g3067
sg75
(lp3099
g68
(g89
g70
NtRp3100
(dp3101
g73
(dp3102
sg82
g3096
sg75
(lp3103
g68
(g69
g70
NtRp3104
(dp3105
g73
(dp3106
g81
I1
ssg82
g3100
sg75
(lp3107
S'/admin/default/edit/mvstore/static/base.css'
p3108
asbasbasbasbasbasbasbag68
(g84
g70
NtRp3109
(dp3110
g73
(dp3111
sg82
g2889
sg75
(lp3112
g68
(g89
g70
NtRp3113
(dp3114
g73
(dp3115
sg82
g3109
sg75
(lp3116
g68
(g69
g70
NtRp3117
(dp3118
g73
(dp3119
g81
I2
ssg82
g3113
sg75
(lp3120
g68
(g77
g70
NtRp3121
(dp3122
g73
(dp3123
g81
I1
ssg82
Nsg75
(lp3124
g68
(g84
g70
NtRp3125
(dp3126
g73
(dp3127
sg82
g3121
sg75
(lp3128
g68
(g89
g70
NtRp3129
(dp3130
g73
(dp3131
sg82
g3125
sg75
(lp3132
g68
(g69
g70
NtRp3133
(dp3134
g73
(dp3135
g81
I1
ssg82
g3129
sg75
(lp3136
g2780
(S's\x08\x00\x00\x00DB Model'
tRp3137
asbasbasbag68
(g84
g70
NtRp3138
(dp3139
g73
(dp3140
sg82
g3121
sg75
(lp3141
g68
(g89
g70
NtRp3142
(dp3143
g73
(dp3144
sg82
g3138
sg75
(lp3145
g68
(g69
g70
NtRp3146
(dp3147
g73
(dp3148
g81
I1
ssg82
g3142
sg75
(lp3149
I00
asbasbasbag68
(g84
g70
NtRp3150
(dp3151
g73
(dp3152
sg82
g3121
sg75
(lp3153
g68
(g89
g70
NtRp3154
(dp3155
g73
(dp3156
sg82
g3150
sg75
(lp3157
g68
(g69
g70
NtRp3158
(dp3159
g73
(dp3160
g81
I1
ssg82
g3154
sg75
(lp3161
S'/admin/default/edit/mvstore/models/db.py'
p3162
asbasbasbasbasbasbasbag68
(g84
g70
NtRp3163
(dp3164
g73
(dp3165
sg82
g2889
sg75
(lp3166
g68
(g89
g70
NtRp3167
(dp3168
g73
(dp3169
sg82
g3163
sg75
(lp3170
g68
(g69
g70
NtRp3171
(dp3172
g73
(dp3173
g81
I2
ssg82
g3167
sg75
(lp3174
g68
(g77
g70
NtRp3175
(dp3176
g73
(dp3177
g81
I1
ssg82
Nsg75
(lp3178
g68
(g84
g70
NtRp3179
(dp3180
g73
(dp3181
sg82
g3175
sg75
(lp3182
g68
(g89
g70
NtRp3183
(dp3184
g73
(dp3185
sg82
g3179
sg75
(lp3186
g68
(g69
g70
NtRp3187
(dp3188
g73
(dp3189
g81
I1
ssg82
g3183
sg75
(lp3190
g2780
(S's\n\x00\x00\x00Menu Model'
tRp3191
asbasbasbag68
(g84
g70
NtRp3192
(dp3193
g73
(dp3194
sg82
g3175
sg75
(lp3195
g68
(g89
g70
NtRp3196
(dp3197
g73
(dp3198
sg82
g3192
sg75
(lp3199
g68
(g69
g70
NtRp3200
(dp3201
g73
(dp3202
g81
I1
ssg82
g3196
sg75
(lp3203
I00
asbasbasbag68
(g84
g70
NtRp3204
(dp3205
g73
(dp3206
sg82
g3175
sg75
(lp3207
g68
(g89
g70
NtRp3208
(dp3209
g73
(dp3210
sg82
g3204
sg75
(lp3211
g68
(g69
g70
NtRp3212
(dp3213
g73
(dp3214
g81
I1
ssg82
g3208
sg75
(lp3215
S'/admin/default/edit/mvstore/models/menu.py'
p3216
asbasbasbasbasbasbasbag68
(g84
g70
NtRp3217
(dp3218
g73
(dp3219
sg82
g2889
sg75
(lp3220
g68
(g89
g70
NtRp3221
(dp3222
g73
(dp3223
sg82
g3217
sg75
(lp3224
g68
(g69
g70
NtRp3225
(dp3226
g73
(dp3227
g81
I2
ssg82
g3221
sg75
(lp3228
g68
(g77
g70
NtRp3229
(dp3230
g73
(dp3231
g81
I1
ssg82
Nsg75
(lp3232
g68
(g84
g70
NtRp3233
(dp3234
g73
(dp3235
sg82
g3229
sg75
(lp3236
g68
(g89
g70
NtRp3237
(dp3238
g73
(dp3239
sg82
g3233
sg75
(lp3240
g68
(g69
g70
NtRp3241
(dp3242
g73
(dp3243
g81
I1
ssg82
g3237
sg75
(lp3244
g2780
(S's\x08\x00\x00\x00Database'
tRp3245
asbasbasbag68
(g84
g70
NtRp3246
(dp3247
g73
(dp3248
sg82
g3229
sg75
(lp3249
g68
(g89
g70
NtRp3250
(dp3251
g73
(dp3252
sg82
g3246
sg75
(lp3253
g68
(g69
g70
NtRp3254
(dp3255
g73
(dp3256
g81
I1
ssg82
g3250
sg75
(lp3257
I00
asbasbasbag68
(g84
g70
NtRp3258
(dp3259
g73
(dp3260
sg82
g3229
sg75
(lp3261
g68
(g89
g70
NtRp3262
(dp3263
g73
(dp3264
sg82
g3258
sg75
(lp3265
g68
(g69
g70
NtRp3266
(dp3267
g73
(dp3268
g81
I1
ssg82
g3262
sg75
(lp3269
S'/mvstore/appadmin/index'
p3270
asbasbasbasbasbasbasbag68
(g84
g70
NtRp3271
(dp3272
g73
(dp3273
sg82
g2889
sg75
(lp3274
g68
(g89
g70
NtRp3275
(dp3276
g73
(dp3277
sg82
g3271
sg75
(lp3278
g68
(g69
g70
NtRp3279
(dp3280
g73
(dp3281
g81
I2
ssg82
g3275
sg75
(lp3282
g68
(g77
g70
NtRp3283
(dp3284
g73
(dp3285
g81
I1
ssg82
Nsg75
(lp3286
g68
(g84
g70
NtRp3287
(dp3288
g73
(dp3289
sg82
g3283
sg75
(lp3290
g68
(g89
g70
NtRp3291
(dp3292
g73
(dp3293
sg82
g3287
sg75
(lp3294
g68
(g69
g70
NtRp3295
(dp3296
g73
(dp3297
g81
I1
ssg82
g3291
sg75
(lp3298
g2780
(S's\x06\x00\x00\x00Errors'
tRp3299
asbasbasbag68
(g84
g70
NtRp3300
(dp3301
g73
(dp3302
sg82
g3283
sg75
(lp3303
g68
(g89
g70
NtRp3304
(dp3305
g73
(dp3306
sg82
g3300
sg75
(lp3307
g68
(g69
g70
NtRp3308
(dp3309
g73
(dp3310
g81
I1
ssg82
g3304
sg75
(lp3311
I00
asbasbasbag68
(g84
g70
NtRp3312
(dp3313
g73
(dp3314
sg82
g3283
sg75
(lp3315
g68
(g89
g70
NtRp3316
(dp3317
g73
(dp3318
sg82
g3312
sg75
(lp3319
g68
(g69
g70
NtRp3320
(dp3321
g73
(dp3322
g81
I1
ssg82
g3316
sg75
(lp3323
S'/admin/default/errors/mvstore'
p3324
asbasbasbasbasbasbasbag68
(g84
g70
NtRp3325
(dp3326
g73
(dp3327
sg82
g2889
sg75
(lp3328
g68
(g89
g70
NtRp3329
(dp3330
g73
(dp3331
sg82
g3325
sg75
(lp3332
g68
(g69
g70
NtRp3333
(dp3334
g73
(dp3335
g81
I2
ssg82
g3329
sg75
(lp3336
g68
(g77
g70
NtRp3337
(dp3338
g73
(dp3339
g81
I1
ssg82
Nsg75
(lp3340
g68
(g84
g70
NtRp3341
(dp3342
g73
(dp3343
sg82
g3337
sg75
(lp3344
g68
(g89
g70
NtRp3345
(dp3346
g73
(dp3347
sg82
g3341
sg75
(lp3348
g68
(g69
g70
NtRp3349
(dp3350
g73
(dp3351
g81
I1
ssg82
g3345
sg75
(lp3352
g2780
(S's\x05\x00\x00\x00About'
tRp3353
asbasbasbag68
(g84
g70
NtRp3354
(dp3355
g73
(dp3356
sg82
g3337
sg75
(lp3357
g68
(g89
g70
NtRp3358
(dp3359
g73
(dp3360
sg82
g3354
sg75
(lp3361
g68
(g69
g70
NtRp3362
(dp3363
g73
(dp3364
g81
I1
ssg82
g3358
sg75
(lp3365
I00
asbasbasbag68
(g84
g70
NtRp3366
(dp3367
g73
(dp3368
sg82
g3337
sg75
(lp3369
g68
(g89
g70
NtRp3370
(dp3371
g73
(dp3372
sg82
g3366
sg75
(lp3373
g68
(g69
g70
NtRp3374
(dp3375
g73
(dp3376
g81
I1
ssg82
g3370
sg75
(lp3377
S'/admin/default/about/mvstore'
p3378
asbasbasbasbasbasbasbasbasbasbasbasbasbasbasbag68
(g84
g70
NtRp3379
(dp3380
g73
(dp3381
sg82
g2748
sg75
(lp3382
g68
(g89
g70
NtRp3383
(dp3384
g73
(dp3385
sg82
g3379
sg75
(lp3386
g68
(g69
g70
NtRp3387
(dp3388
g73
(dp3389
g81
I4
ssg82
g3383
sg75
(lp3390
g68
(g77
g70
NtRp3391
(dp3392
g73
(dp3393
g81
I3
ssg82
Nsg75
(lp3394
g68
(g84
g70
NtRp3395
(dp3396
g73
(dp3397
sg82
g3391
sg75
(lp3398
g68
(g89
g70
NtRp3399
(dp3400
g73
(dp3401
sg82
g3395
sg75
(lp3402
g68
(g69
g70
NtRp3403
(dp3404
g73
(dp3405
g81
I3
ssg82
g3399
sg75
(lp3406
g2780
(S's\x12\x00\x00\x00Adding information'
tRp3407
asbasbasbag68
(g84
g70
NtRp3408
(dp3409
g73
(dp3410
sg82
g3391
sg75
(lp3411
g68
(g89
g70
NtRp3412
(dp3413
g73
(dp3414
sg82
g3408
sg75
(lp3415
g68
(g69
g70
NtRp3416
(dp3417
g73
(dp3418
g81
I3
ssg82
g3412
sg75
(lp3419
g111
asbasbasbag68
(g84
g70
NtRp3420
(dp3421
g73
(dp3422
sg82
g3391
sg75
(lp3423
g68
(g89
g70
NtRp3424
(dp3425
g73
(dp3426
sg82
g3420
sg75
(lp3427
g68
(g69
g70
NtRp3428
(dp3429
g73
(dp3430
g81
I3
ssg82
g3424
sg75
(lp3431
S'/mvstore/default/index'
p3432
asbasbasbag68
(g84
g70
NtRp3433
(dp3434
g73
(dp3435
sg82
g3391
sg75
(lp3436
g68
(g89
g70
NtRp3437
(dp3438
g73
(dp3439
sg82
g3433
sg75
(lp3440
g68
(g69
g70
NtRp3441
(dp3442
g73
(dp3443
g81
I3
ssg82
g3437
sg75
(lp3444
g68
(g77
g70
NtRp3445
(dp3446
g73
(dp3447
g81
I2
ssg82
Nsg75
(lp3448
g68
(g84
g70
NtRp3449
(dp3450
g73
(dp3451
sg82
g3445
sg75
(lp3452
g68
(g89
g70
NtRp3453
(dp3454
g73
(dp3455
sg82
g3449
sg75
(lp3456
g68
(g69
g70
NtRp3457
(dp3458
g73
(dp3459
g81
I2
ssg82
g3453
sg75
(lp3460
g68
(g77
g70
NtRp3461
(dp3462
g73
(dp3463
g81
I1
ssg82
Nsg75
(lp3464
g68
(g84
g70
NtRp3465
(dp3466
g73
(dp3467
sg82
g3461
sg75
(lp3468
g68
(g89
g70
NtRp3469
(dp3470
g73
(dp3471
sg82
g3465
sg75
(lp3472
g68
(g69
g70
NtRp3473
(dp3474
g73
(dp3475
g81
I1
ssg82
g3469
sg75
(lp3476
g2780
(S's\t\x00\x00\x00Add Users'
tRp3477
asbasbasbag68
(g84
g70
NtRp3478
(dp3479
g73
(dp3480
sg82
g3461
sg75
(lp3481
g68
(g89
g70
NtRp3482
(dp3483
g73
(dp3484
sg82
g3478
sg75
(lp3485
g68
(g69
g70
NtRp3486
(dp3487
g73
(dp3488
g81
I1
ssg82
g3482
sg75
(lp3489
I00
asbasbasbag68
(g84
g70
NtRp3490
(dp3491
g73
(dp3492
sg82
g3461
sg75
(lp3493
g68
(g89
g70
NtRp3494
(dp3495
g73
(dp3496
sg82
g3490
sg75
(lp3497
g68
(g69
g70
NtRp3498
(dp3499
g73
(dp3500
g81
I1
ssg82
g3494
sg75
(lp3501
S'/mvstore/default/empleados'
p3502
asbasbasbag68
(g84
g70
NtRp3503
(dp3504
g73
(dp3505
sg82
g3461
sg75
(lp3506
g68
(g89
g70
NtRp3507
(dp3508
g73
(dp3509
sg82
g3503
sg75
(lp3510
g68
(g69
g70
NtRp3511
(dp3512
g73
(dp3513
g81
I1
ssg82
g3507
sg75
(lp3514
(lp3515
asbasbasbasbasbasbasbag68
(g84
g70
NtRp3516
(dp3517
g73
(dp3518
sg82
g3445
sg75
(lp3519
g68
(g89
g70
NtRp3520
(dp3521
g73
(dp3522
sg82
g3516
sg75
(lp3523
g68
(g69
g70
NtRp3524
(dp3525
g73
(dp3526
g81
I2
ssg82
g3520
sg75
(lp3527
g68
(g77
g70
NtRp3528
(dp3529
g73
(dp3530
g81
I1
ssg82
Nsg75
(lp3531
g68
(g84
g70
NtRp3532
(dp3533
g73
(dp3534
sg82
g3528
sg75
(lp3535
g68
(g89
g70
NtRp3536
(dp3537
g73
(dp3538
sg82
g3532
sg75
(lp3539
g68
(g69
g70
NtRp3540
(dp3541
g73
(dp3542
g81
I1
ssg82
g3536
sg75
(lp3543
g2780
(S's\x0b\x00\x00\x00Add Clients'
tRp3544
asbasbasbag68
(g84
g70
NtRp3545
(dp3546
g73
(dp3547
sg82
g3528
sg75
(lp3548
g68
(g89
g70
NtRp3549
(dp3550
g73
(dp3551
sg82
g3545
sg75
(lp3552
g68
(g69
g70
NtRp3553
(dp3554
g73
(dp3555
g81
I1
ssg82
g3549
sg75
(lp3556
I00
asbasbasbag68
(g84
g70
NtRp3557
(dp3558
g73
(dp3559
sg82
g3528
sg75
(lp3560
g68
(g89
g70
NtRp3561
(dp3562
g73
(dp3563
sg82
g3557
sg75
(lp3564
g68
(g69
g70
NtRp3565
(dp3566
g73
(dp3567
g81
I1
ssg82
g3561
sg75
(lp3568
S'/mvstore/default/clientes'
p3569
asbasbasbag68
(g84
g70
NtRp3570
(dp3571
g73
(dp3572
sg82
g3528
sg75
(lp3573
g68
(g89
g70
NtRp3574
(dp3575
g73
(dp3576
sg82
g3570
sg75
(lp3577
g68
(g69
g70
NtRp3578
(dp3579
g73
(dp3580
g81
I1
ssg82
g3574
sg75
(lp3581
(lp3582
asbasbasbasbasbasbasbag68
(g84
g70
NtRp3583
(dp3584
g73
(dp3585
sg82
g3445
sg75
(lp3586
g68
(g89
g70
NtRp3587
(dp3588
g73
(dp3589
sg82
g3583
sg75
(lp3590
g68
(g69
g70
NtRp3591
(dp3592
g73
(dp3593
g81
I2
ssg82
g3587
sg75
(lp3594
g68
(g77
g70
NtRp3595
(dp3596
g73
(dp3597
g81
I1
ssg82
Nsg75
(lp3598
g68
(g84
g70
NtRp3599
(dp3600
g73
(dp3601
sg82
g3595
sg75
(lp3602
g68
(g89
g70
NtRp3603
(dp3604
g73
(dp3605
sg82
g3599
sg75
(lp3606
g68
(g69
g70
NtRp3607
(dp3608
g73
(dp3609
g81
I1
ssg82
g3603
sg75
(lp3610
g2780
(S's\t\x00\x00\x00Add Movie'
tRp3611
asbasbasbag68
(g84
g70
NtRp3612
(dp3613
g73
(dp3614
sg82
g3595
sg75
(lp3615
g68
(g89
g70
NtRp3616
(dp3617
g73
(dp3618
sg82
g3612
sg75
(lp3619
g68
(g69
g70
NtRp3620
(dp3621
g73
(dp3622
g81
I1
ssg82
g3616
sg75
(lp3623
I00
asbasbasbag68
(g84
g70
NtRp3624
(dp3625
g73
(dp3626
sg82
g3595
sg75
(lp3627
g68
(g89
g70
NtRp3628
(dp3629
g73
(dp3630
sg82
g3624
sg75
(lp3631
g68
(g69
g70
NtRp3632
(dp3633
g73
(dp3634
g81
I1
ssg82
g3628
sg75
(lp3635
S'/mvstore/default/peliculas'
p3636
asbasbasbag68
(g84
g70
NtRp3637
(dp3638
g73
(dp3639
sg82
g3595
sg75
(lp3640
g68
(g89
g70
NtRp3641
(dp3642
g73
(dp3643
sg82
g3637
sg75
(lp3644
g68
(g69
g70
NtRp3645
(dp3646
g73
(dp3647
g81
I1
ssg82
g3641
sg75
(lp3648
(lp3649
asbasbasbasbasbasbasbag68
(g84
g70
NtRp3650
(dp3651
g73
(dp3652
sg82
g3445
sg75
(lp3653
g68
(g89
g70
NtRp3654
(dp3655
g73
(dp3656
sg82
g3650
sg75
(lp3657
g68
(g69
g70
NtRp3658
(dp3659
g73
(dp3660
g81
I2
ssg82
g3654
sg75
(lp3661
g68
(g77
g70
NtRp3662
(dp3663
g73
(dp3664
g81
I1
ssg82
Nsg75
(lp3665
g68
(g84
g70
NtRp3666
(dp3667
g73
(dp3668
sg82
g3662
sg75
(lp3669
g68
(g89
g70
NtRp3670
(dp3671
g73
(dp3672
sg82
g3666
sg75
(lp3673
g68
(g69
g70
NtRp3674
(dp3675
g73
(dp3676
g81
I1
ssg82
g3670
sg75
(lp3677
g2780
(S's\n\x00\x00\x00Add Rental'
tRp3678
asbasbasbag68
(g84
g70
NtRp3679
(dp3680
g73
(dp3681
sg82
g3662
sg75
(lp3682
g68
(g89
g70
NtRp3683
(dp3684
g73
(dp3685
sg82
g3679
sg75
(lp3686
g68
(g69
g70
NtRp3687
(dp3688
g73
(dp3689
g81
I1
ssg82
g3683
sg75
(lp3690
I00
asbasbasbag68
(g84
g70
NtRp3691
(dp3692
g73
(dp3693
sg82
g3662
sg75
(lp3694
g68
(g89
g70
NtRp3695
(dp3696
g73
(dp3697
sg82
g3691
sg75
(lp3698
g68
(g69
g70
NtRp3699
(dp3700
g73
(dp3701
g81
I1
ssg82
g3695
sg75
(lp3702
S'/mvstore/default/prestamos'
p3703
asbasbasbag68
(g84
g70
NtRp3704
(dp3705
g73
(dp3706
sg82
g3662
sg75
(lp3707
g68
(g89
g70
NtRp3708
(dp3709
g73
(dp3710
sg82
g3704
sg75
(lp3711
g68
(g69
g70
NtRp3712
(dp3713
g73
(dp3714
g81
I1
ssg82
g3708
sg75
(lp3715
(lp3716
asbasbasbasbasbasbasbasbasbasbasbasbasbasbasbag68
(g84
g70
NtRp3717
(dp3718
g73
(dp3719
sg82
g2748
sg75
(lp3720
g68
(g89
g70
NtRp3721
(dp3722
g73
(dp3723
sg82
g3717
sg75
(lp3724
g68
(g69
g70
NtRp3725
(dp3726
g73
(dp3727
g81
I4
ssg82
g3721
sg75
(lp3728
g68
(g77
g70
NtRp3729
(dp3730
g73
(dp3731
g81
I3
ssg82
Nsg75
(lp3732
g68
(g84
g70
NtRp3733
(dp3734
g73
(dp3735
sg82
g3729
sg75
(lp3736
g68
(g89
g70
NtRp3737
(dp3738
g73
(dp3739
sg82
g3733
sg75
(lp3740
g68
(g69
g70
NtRp3741
(dp3742
g73
(dp3743
g81
I3
ssg82
g3737
sg75
(lp3744
g2780
(S's\x16\x00\x00\x00Retreiving information'
tRp3745
asbasbasbag68
(g84
g70
NtRp3746
(dp3747
g73
(dp3748
sg82
g3729
sg75
(lp3749
g68
(g89
g70
NtRp3750
(dp3751
g73
(dp3752
sg82
g3746
sg75
(lp3753
g68
(g69
g70
NtRp3754
(dp3755
g73
(dp3756
g81
I3
ssg82
g3750
sg75
(lp3757
g111
asbasbasbag68
(g84
g70
NtRp3758
(dp3759
g73
(dp3760
sg82
g3729
sg75
(lp3761
g68
(g89
g70
NtRp3762
(dp3763
g73
(dp3764
sg82
g3758
sg75
(lp3765
g68
(g69
g70
NtRp3766
(dp3767
g73
(dp3768
g81
I3
ssg82
g3762
sg75
(lp3769
S'/mvstore/default/index'
p3770
asbasbasbag68
(g84
g70
NtRp3771
(dp3772
g73
(dp3773
sg82
g3729
sg75
(lp3774
g68
(g89
g70
NtRp3775
(dp3776
g73
(dp3777
sg82
g3771
sg75
(lp3778
g68
(g69
g70
NtRp3779
(dp3780
g73
(dp3781
g81
I3
ssg82
g3775
sg75
(lp3782
g68
(g77
g70
NtRp3783
(dp3784
g73
(dp3785
g81
I2
ssg82
Nsg75
(lp3786
g68
(g84
g70
NtRp3787
(dp3788
g73
(dp3789
sg82
g3783
sg75
(lp3790
g68
(g89
g70
NtRp3791
(dp3792
g73
(dp3793
sg82
g3787
sg75
(lp3794
g68
(g69
g70
NtRp3795
(dp3796
g73
(dp3797
g81
I2
ssg82
g3791
sg75
(lp3798
g68
(g77
g70
NtRp3799
(dp3800
g73
(dp3801
g81
I1
ssg82
Nsg75
(lp3802
g68
(g84
g70
NtRp3803
(dp3804
g73
(dp3805
sg82
g3799
sg75
(lp3806
g68
(g89
g70
NtRp3807
(dp3808
g73
(dp3809
sg82
g3803
sg75
(lp3810
g68
(g69
g70
NtRp3811
(dp3812
g73
(dp3813
g81
I1
ssg82
g3807
sg75
(lp3814
g2780
(S's\n\x00\x00\x00List Users'
tRp3815
asbasbasbag68
(g84
g70
NtRp3816
(dp3817
g73
(dp3818
sg82
g3799
sg75
(lp3819
g68
(g89
g70
NtRp3820
(dp3821
g73
(dp3822
sg82
g3816
sg75
(lp3823
g68
(g69
g70
NtRp3824
(dp3825
g73
(dp3826
g81
I1
ssg82
g3820
sg75
(lp3827
I00
asbasbasbag68
(g84
g70
NtRp3828
(dp3829
g73
(dp3830
sg82
g3799
sg75
(lp3831
g68
(g89
g70
NtRp3832
(dp3833
g73
(dp3834
sg82
g3828
sg75
(lp3835
g68
(g69
g70
NtRp3836
(dp3837
g73
(dp3838
g81
I1
ssg82
g3832
sg75
(lp3839
S'/mvstore/default/personal'
p3840
asbasbasbag68
(g84
g70
NtRp3841
(dp3842
g73
(dp3843
sg82
g3799
sg75
(lp3844
g68
(g89
g70
NtRp3845
(dp3846
g73
(dp3847
sg82
g3841
sg75
(lp3848
g68
(g69
g70
NtRp3849
(dp3850
g73
(dp3851
g81
I1
ssg82
g3845
sg75
(lp3852
(lp3853
asbasbasbasbasbasbasbag68
(g84
g70
NtRp3854
(dp3855
g73
(dp3856
sg82
g3783
sg75
(lp3857
g68
(g89
g70
NtRp3858
(dp3859
g73
(dp3860
sg82
g3854
sg75
(lp3861
g68
(g69
g70
NtRp3862
(dp3863
g73
(dp3864
g81
I2
ssg82
g3858
sg75
(lp3865
g68
(g77
g70
NtRp3866
(dp3867
g73
(dp3868
g81
I1
ssg82
Nsg75
(lp3869
g68
(g84
g70
NtRp3870
(dp3871
g73
(dp3872
sg82
g3866
sg75
(lp3873
g68
(g89
g70
NtRp3874
(dp3875
g73
(dp3876
sg82
g3870
sg75
(lp3877
g68
(g69
g70
NtRp3878
(dp3879
g73
(dp3880
g81
I1
ssg82
g3874
sg75
(lp3881
g2780
(S's\x0c\x00\x00\x00List Clients'
tRp3882
asbasbasbag68
(g84
g70
NtRp3883
(dp3884
g73
(dp3885
sg82
g3866
sg75
(lp3886
g68
(g89
g70
NtRp3887
(dp3888
g73
(dp3889
sg82
g3883
sg75
(lp3890
g68
(g69
g70
NtRp3891
(dp3892
g73
(dp3893
g81
I1
ssg82
g3887
sg75
(lp3894
I00
asbasbasbag68
(g84
g70
NtRp3895
(dp3896
g73
(dp3897
sg82
g3866
sg75
(lp3898
g68
(g89
g70
NtRp3899
(dp3900
g73
(dp3901
sg82
g3895
sg75
(lp3902
g68
(g69
g70
NtRp3903
(dp3904
g73
(dp3905
g81
I1
ssg82
g3899
sg75
(lp3906
S'/mvstore/default/clientesall'
p3907
asbasbasbag68
(g84
g70
NtRp3908
(dp3909
g73
(dp3910
sg82
g3866
sg75
(lp3911
g68
(g89
g70
NtRp3912
(dp3913
g73
(dp3914
sg82
g3908
sg75
(lp3915
g68
(g69
g70
NtRp3916
(dp3917
g73
(dp3918
g81
I1
ssg82
g3912
sg75
(lp3919
(lp3920
asbasbasbasbasbasbasbag68
(g84
g70
NtRp3921
(dp3922
g73
(dp3923
sg82
g3783
sg75
(lp3924
g68
(g89
g70
NtRp3925
(dp3926
g73
(dp3927
sg82
g3921
sg75
(lp3928
g68
(g69
g70
NtRp3929
(dp3930
g73
(dp3931
g81
I2
ssg82
g3925
sg75
(lp3932
g68
(g77
g70
NtRp3933
(dp3934
g73
(dp3935
g81
I1
ssg82
Nsg75
(lp3936
g68
(g84
g70
NtRp3937
(dp3938
g73
(dp3939
sg82
g3933
sg75
(lp3940
g68
(g89
g70
NtRp3941
(dp3942
g73
(dp3943
sg82
g3937
sg75
(lp3944
g68
(g69
g70
NtRp3945
(dp3946
g73
(dp3947
g81
I1
ssg82
g3941
sg75
(lp3948
g2780
(S's\x0b\x00\x00\x00List Movies'
tRp3949
asbasbasbag68
(g84
g70
NtRp3950
(dp3951
g73
(dp3952
sg82
g3933
sg75
(lp3953
g68
(g89
g70
NtRp3954
(dp3955
g73
(dp3956
sg82
g3950
sg75
(lp3957
g68
(g69
g70
NtRp3958
(dp3959
g73
(dp3960
g81
I1
ssg82
g3954
sg75
(lp3961
I00
asbasbasbag68
(g84
g70
NtRp3962
(dp3963
g73
(dp3964
sg82
g3933
sg75
(lp3965
g68
(g89
g70
NtRp3966
(dp3967
g73
(dp3968
sg82
g3962
sg75
(lp3969
g68
(g69
g70
NtRp3970
(dp3971
g73
(dp3972
g81
I1
ssg82
g3966
sg75
(lp3973
S'/mvstore/default/peliculasall'
p3974
asbasbasbag68
(g84
g70
NtRp3975
(dp3976
g73
(dp3977
sg82
g3933
sg75
(lp3978
g68
(g89
g70
NtRp3979
(dp3980
g73
(dp3981
sg82
g3975
sg75
(lp3982
g68
(g69
g70
NtRp3983
(dp3984
g73
(dp3985
g81
I1
ssg82
g3979
sg75
(lp3986
(lp3987
asbasbasbasbasbasbasbag68
(g84
g70
NtRp3988
(dp3989
g73
(dp3990
sg82
g3783
sg75
(lp3991
g68
(g89
g70
NtRp3992
(dp3993
g73
(dp3994
sg82
g3988
sg75
(lp3995
g68
(g69
g70
NtRp3996
(dp3997
g73
(dp3998
g81
I2
ssg82
g3992
sg75
(lp3999
g68
(g77
g70
NtRp4000
(dp4001
g73
(dp4002
g81
I1
ssg82
Nsg75
(lp4003
g68
(g84
g70
NtRp4004
(dp4005
g73
(dp4006
sg82
g4000
sg75
(lp4007
g68
(g89
g70
NtRp4008
(dp4009
g73
(dp4010
sg82
g4004
sg75
(lp4011
g68
(g69
g70
NtRp4012
(dp4013
g73
(dp4014
g81
I1
ssg82
g4008
sg75
(lp4015
g2780
(S's\x0c\x00\x00\x00List Rentals'
tRp4016
asbasbasbag68
(g84
g70
NtRp4017
(dp4018
g73
(dp4019
sg82
g4000
sg75
(lp4020
g68
(g89
g70
NtRp4021
(dp4022
g73
(dp4023
sg82
g4017
sg75
(lp4024
g68
(g69
g70
NtRp4025
(dp4026
g73
(dp4027
g81
I1
ssg82
g4021
sg75
(lp4028
I00
asbasbasbag68
(g84
g70
NtRp4029
(dp4030
g73
(dp4031
sg82
g4000
sg75
(lp4032
g68
(g89
g70
NtRp4033
(dp4034
g73
(dp4035
sg82
g4029
sg75
(lp4036
g68
(g69
g70
NtRp4037
(dp4038
g73
(dp4039
g81
I1
ssg82
g4033
sg75
(lp4040
S'/mvstore/default/prestados'
p4041
asbasbasbag68
(g84
g70
NtRp4042
(dp4043
g73
(dp4044
sg82
g4000
sg75
(lp4045
g68
(g89
g70
NtRp4046
(dp4047
g73
(dp4048
sg82
g4042
sg75
(lp4049
g68
(g69
g70
NtRp4050
(dp4051
g73
(dp4052
g81
I1
ssg82
g4046
sg75
(lp4053
(lp4054
asbasbasbasbasbasbasbag68
(g84
g70
NtRp4055
(dp4056
g73
(dp4057
sg82
g3783
sg75
(lp4058
g68
(g89
g70
NtRp4059
(dp4060
g73
(dp4061
sg82
g4055
sg75
(lp4062
g68
(g69
g70
NtRp4063
(dp4064
g73
(dp4065
g81
I2
ssg82
g4059
sg75
(lp4066
g68
(g77
g70
NtRp4067
(dp4068
g73
(dp4069
g81
I1
ssg82
Nsg75
(lp4070
g68
(g84
g70
NtRp4071
(dp4072
g73
(dp4073
sg82
g4067
sg75
(lp4074
g68
(g89
g70
NtRp4075
(dp4076
g73
(dp4077
sg82
g4071
sg75
(lp4078
g68
(g69
g70
NtRp4079
(dp4080
g73
(dp4081
g81
I1
ssg82
g4075
sg75
(lp4082
g2780
(S's\x06\x00\x00\x00Search'
tRp4083
asbasbasbag68
(g84
g70
NtRp4084
(dp4085
g73
(dp4086
sg82
g4067
sg75
(lp4087
g68
(g89
g70
NtRp4088
(dp4089
g73
(dp4090
sg82
g4084
sg75
(lp4091
g68
(g69
g70
NtRp4092
(dp4093
g73
(dp4094
g81
I1
ssg82
g4088
sg75
(lp4095
I00
asbasbasbag68
(g84
g70
NtRp4096
(dp4097
g73
(dp4098
sg82
g4067
sg75
(lp4099
g68
(g89
g70
NtRp4100
(dp4101
g73
(dp4102
sg82
g4096
sg75
(lp4103
g68
(g69
g70
NtRp4104
(dp4105
g73
(dp4106
g81
I1
ssg82
g4100
sg75
(lp4107
S'/mvstore/default/prestamos'
p4108
asbasbasbag68
(g84
g70
NtRp4109
(dp4110
g73
(dp4111
sg82
g4067
sg75
(lp4112
g68
(g89
g70
NtRp4113
(dp4114
g73
(dp4115
sg82
g4109
sg75
(lp4116
g68
(g69
g70
NtRp4117
(dp4118
g73
(dp4119
g81
I1
ssg82
g4113
sg75
(lp4120
(lp4121
asbasbasbasbasbasbasbasbasbasbasbasbasbasbasbag68
(g84
g70
NtRp4122
(dp4123
g73
(dp4124
sg82
g2748
sg75
(lp4125
g68
(g89
g70
NtRp4126
(dp4127
g73
(dp4128
sg82
g4122
sg75
(lp4129
g68
(g69
g70
NtRp4130
(dp4131
g73
(dp4132
g81
I4
ssg82
g4126
sg75
(lp4133
g68
(g77
g70
NtRp4134
(dp4135
g73
(dp4136
g81
I3
ssg82
Nsg75
(lp4137
g68
(g84
g70
NtRp4138
(dp4139
g73
(dp4140
sg82
g4134
sg75
(lp4141
g68
(g89
g70
NtRp4142
(dp4143
g73
(dp4144
sg82
g4138
sg75
(lp4145
g68
(g69
g70
NtRp4146
(dp4147
g73
(dp4148
g81
I3
ssg82
g4142
sg75
(lp4149
g2780
(S's\x15\x00\x00\x00Modifying information'
tRp4150
asbasbasbag68
(g84
g70
NtRp4151
(dp4152
g73
(dp4153
sg82
g4134
sg75
(lp4154
g68
(g89
g70
NtRp4155
(dp4156
g73
(dp4157
sg82
g4151
sg75
(lp4158
g68
(g69
g70
NtRp4159
(dp4160
g73
(dp4161
g81
I3
ssg82
g4155
sg75
(lp4162
g111
asbasbasbag68
(g84
g70
NtRp4163
(dp4164
g73
(dp4165
sg82
g4134
sg75
(lp4166
g68
(g89
g70
NtRp4167
(dp4168
g73
(dp4169
sg82
g4163
sg75
(lp4170
g68
(g69
g70
NtRp4171
(dp4172
g73
(dp4173
g81
I3
ssg82
g4167
sg75
(lp4174
S'/mvstore/default/index'
p4175
asbasbasbag68
(g84
g70
NtRp4176
(dp4177
g73
(dp4178
sg82
g4134
sg75
(lp4179
g68
(g89
g70
NtRp4180
(dp4181
g73
(dp4182
sg82
g4176
sg75
(lp4183
g68
(g69
g70
NtRp4184
(dp4185
g73
(dp4186
g81
I3
ssg82
g4180
sg75
(lp4187
g68
(g77
g70
NtRp4188
(dp4189
g73
(dp4190
g81
I2
ssg82
Nsg75
(lp4191
g68
(g84
g70
NtRp4192
(dp4193
g73
(dp4194
sg82
g4188
sg75
(lp4195
g68
(g89
g70
NtRp4196
(dp4197
g73
(dp4198
sg82
g4192
sg75
(lp4199
g68
(g69
g70
NtRp4200
(dp4201
g73
(dp4202
g81
I2
ssg82
g4196
sg75
(lp4203
g68
(g77
g70
NtRp4204
(dp4205
g73
(dp4206
g81
I1
ssg82
Nsg75
(lp4207
g68
(g84
g70
NtRp4208
(dp4209
g73
(dp4210
sg82
g4204
sg75
(lp4211
g68
(g89
g70
NtRp4212
(dp4213
g73
(dp4214
sg82
g4208
sg75
(lp4215
g68
(g69
g70
NtRp4216
(dp4217
g73
(dp4218
g81
I1
ssg82
g4212
sg75
(lp4219
g2780
(S's\x05\x00\x00\x00Users'
tRp4220
asbasbasbag68
(g84
g70
NtRp4221
(dp4222
g73
(dp4223
sg82
g4204
sg75
(lp4224
g68
(g89
g70
NtRp4225
(dp4226
g73
(dp4227
sg82
g4221
sg75
(lp4228
g68
(g69
g70
NtRp4229
(dp4230
g73
(dp4231
g81
I1
ssg82
g4225
sg75
(lp4232
I00
asbasbasbag68
(g84
g70
NtRp4233
(dp4234
g73
(dp4235
sg82
g4204
sg75
(lp4236
g68
(g89
g70
NtRp4237
(dp4238
g73
(dp4239
sg82
g4233
sg75
(lp4240
g68
(g69
g70
NtRp4241
(dp4242
g73
(dp4243
g81
I1
ssg82
g4237
sg75
(lp4244
S'/mvstore/default/empleados'
p4245
asbasbasbag68
(g84
g70
NtRp4246
(dp4247
g73
(dp4248
sg82
g4204
sg75
(lp4249
g68
(g89
g70
NtRp4250
(dp4251
g73
(dp4252
sg82
g4246
sg75
(lp4253
g68
(g69
g70
NtRp4254
(dp4255
g73
(dp4256
g81
I1
ssg82
g4250
sg75
(lp4257
(lp4258
asbasbasbasbasbasbasbag68
(g84
g70
NtRp4259
(dp4260
g73
(dp4261
sg82
g4188
sg75
(lp4262
g68
(g89
g70
NtRp4263
(dp4264
g73
(dp4265
sg82
g4259
sg75
(lp4266
g68
(g69
g70
NtRp4267
(dp4268
g73
(dp4269
g81
I2
ssg82
g4263
sg75
(lp4270
g68
(g77
g70
NtRp4271
(dp4272
g73
(dp4273
g81
I1
ssg82
Nsg75
(lp4274
g68
(g84
g70
NtRp4275
(dp4276
g73
(dp4277
sg82
g4271
sg75
(lp4278
g68
(g89
g70
NtRp4279
(dp4280
g73
(dp4281
sg82
g4275
sg75
(lp4282
g68
(g69
g70
NtRp4283
(dp4284
g73
(dp4285
g81
I1
ssg82
g4279
sg75
(lp4286
g2780
(S's\x07\x00\x00\x00Clients'
tRp4287
asbasbasbag68
(g84
g70
NtRp4288
(dp4289
g73
(dp4290
sg82
g4271
sg75
(lp4291
g68
(g89
g70
NtRp4292
(dp4293
g73
(dp4294
sg82
g4288
sg75
(lp4295
g68
(g69
g70
NtRp4296
(dp4297
g73
(dp4298
g81
I1
ssg82
g4292
sg75
(lp4299
I00
asbasbasbag68
(g84
g70
NtRp4300
(dp4301
g73
(dp4302
sg82
g4271
sg75
(lp4303
g68
(g89
g70
NtRp4304
(dp4305
g73
(dp4306
sg82
g4300
sg75
(lp4307
g68
(g69
g70
NtRp4308
(dp4309
g73
(dp4310
g81
I1
ssg82
g4304
sg75
(lp4311
S'/mvstore/default/clientes'
p4312
asbasbasbag68
(g84
g70
NtRp4313
(dp4314
g73
(dp4315
sg82
g4271
sg75
(lp4316
g68
(g89
g70
NtRp4317
(dp4318
g73
(dp4319
sg82
g4313
sg75
(lp4320
g68
(g69
g70
NtRp4321
(dp4322
g73
(dp4323
g81
I1
ssg82
g4317
sg75
(lp4324
(lp4325
asbasbasbasbasbasbasbag68
(g84
g70
NtRp4326
(dp4327
g73
(dp4328
sg82
g4188
sg75
(lp4329
g68
(g89
g70
NtRp4330
(dp4331
g73
(dp4332
sg82
g4326
sg75
(lp4333
g68
(g69
g70
NtRp4334
(dp4335
g73
(dp4336
g81
I2
ssg82
g4330
sg75
(lp4337
g68
(g77
g70
NtRp4338
(dp4339
g73
(dp4340
g81
I1
ssg82
Nsg75
(lp4341
g68
(g84
g70
NtRp4342
(dp4343
g73
(dp4344
sg82
g4338
sg75
(lp4345
g68
(g89
g70
NtRp4346
(dp4347
g73
(dp4348
sg82
g4342
sg75
(lp4349
g68
(g69
g70
NtRp4350
(dp4351
g73
(dp4352
g81
I1
ssg82
g4346
sg75
(lp4353
g2780
(S's\x06\x00\x00\x00Movies'
tRp4354
asbasbasbag68
(g84
g70
NtRp4355
(dp4356
g73
(dp4357
sg82
g4338
sg75
(lp4358
g68
(g89
g70
NtRp4359
(dp4360
g73
(dp4361
sg82
g4355
sg75
(lp4362
g68
(g69
g70
NtRp4363
(dp4364
g73
(dp4365
g81
I1
ssg82
g4359
sg75
(lp4366
I00
asbasbasbag68
(g84
g70
NtRp4367
(dp4368
g73
(dp4369
sg82
g4338
sg75
(lp4370
g68
(g89
g70
NtRp4371
(dp4372
g73
(dp4373
sg82
g4367
sg75
(lp4374
g68
(g69
g70
NtRp4375
(dp4376
g73
(dp4377
g81
I1
ssg82
g4371
sg75
(lp4378
S'/mvstore/default/peliculas'
p4379
asbasbasbag68
(g84
g70
NtRp4380
(dp4381
g73
(dp4382
sg82
g4338
sg75
(lp4383
g68
(g89
g70
NtRp4384
(dp4385
g73
(dp4386
sg82
g4380
sg75
(lp4387
g68
(g69
g70
NtRp4388
(dp4389
g73
(dp4390
g81
I1
ssg82
g4384
sg75
(lp4391
(lp4392
asbasbasbasbasbasbasbag68
(g84
g70
NtRp4393
(dp4394
g73
(dp4395
sg82
g4188
sg75
(lp4396
g68
(g89
g70
NtRp4397
(dp4398
g73
(dp4399
sg82
g4393
sg75
(lp4400
g68
(g69
g70
NtRp4401
(dp4402
g73
(dp4403
g81
I2
ssg82
g4397
sg75
(lp4404
g68
(g77
g70
NtRp4405
(dp4406
g73
(dp4407
g81
I1
ssg82
Nsg75
(lp4408
g68
(g84
g70
NtRp4409
(dp4410
g73
(dp4411
sg82
g4405
sg75
(lp4412
g68
(g89
g70
NtRp4413
(dp4414
g73
(dp4415
sg82
g4409
sg75
(lp4416
g68
(g69
g70
NtRp4417
(dp4418
g73
(dp4419
g81
I1
ssg82
g4413
sg75
(lp4420
g2780
(S's\x07\x00\x00\x00Rentals'
tRp4421
asbasbasbag68
(g84
g70
NtRp4422
(dp4423
g73
(dp4424
sg82
g4405
sg75
(lp4425
g68
(g89
g70
NtRp4426
(dp4427
g73
(dp4428
sg82
g4422
sg75
(lp4429
g68
(g69
g70
NtRp4430
(dp4431
g73
(dp4432
g81
I1
ssg82
g4426
sg75
(lp4433
I00
asbasbasbag68
(g84
g70
NtRp4434
(dp4435
g73
(dp4436
sg82
g4405
sg75
(lp4437
g68
(g89
g70
NtRp4438
(dp4439
g73
(dp4440
sg82
g4434
sg75
(lp4441
g68
(g69
g70
NtRp4442
(dp4443
g73
(dp4444
g81
I1
ssg82
g4438
sg75
(lp4445
S'/mvstore/default/prestamos'
p4446
asbasbasbag68
(g84
g70
NtRp4447
(dp4448
g73
(dp4449
sg82
g4405
sg75
(lp4450
g68
(g89
g70
NtRp4451
(dp4452
g73
(dp4453
sg82
g4447
sg75
(lp4454
g68
(g69
g70
NtRp4455
(dp4456
g73
(dp4457
g81
I1
ssg82
g4451
sg75
(lp4458
(lp4459
asbasbasbasbasbasbasbag68
(g84
g70
NtRp4460
(dp4461
g73
(dp4462
sg82
g4188
sg75
(lp4463
g68
(g89
g70
NtRp4464
(dp4465
g73
(dp4466
sg82
g4460
sg75
(lp4467
g68
(g69
g70
NtRp4468
(dp4469
g73
(dp4470
g81
I2
ssg82
g4464
sg75
(lp4471
g68
(g77
g70
NtRp4472
(dp4473
g73
(dp4474
g81
I1
ssg82
Nsg75
(lp4475
g68
(g84
g70
NtRp4476
(dp4477
g73
(dp4478
sg82
g4472
sg75
(lp4479
g68
(g89
g70
NtRp4480
(dp4481
g73
(dp4482
sg82
g4476
sg75
(lp4483
g68
(g69
g70
NtRp4484
(dp4485
g73
(dp4486
g81
I1
ssg82
g4480
sg75
(lp4487
g2780
(S's\x06\x00\x00\x00Search'
tRp4488
asbasbasbag68
(g84
g70
NtRp4489
(dp4490
g73
(dp4491
sg82
g4472
sg75
(lp4492
g68
(g89
g70
NtRp4493
(dp4494
g73
(dp4495
sg82
g4489
sg75
(lp4496
g68
(g69
g70
NtRp4497
(dp4498
g73
(dp4499
g81
I1
ssg82
g4493
sg75
(lp4500
I00
asbasbasbag68
(g84
g70
NtRp4501
(dp4502
g73
(dp4503
sg82
g4472
sg75
(lp4504
g68
(g89
g70
NtRp4505
(dp4506
g73
(dp4507
sg82
g4501
sg75
(lp4508
g68
(g69
g70
NtRp4509
(dp4510
g73
(dp4511
g81
I1
ssg82
g4505
sg75
(lp4512
S'/mvstore/default/prestamos'
p4513
asbasbasbag68
(g84
g70
NtRp4514
(dp4515
g73
(dp4516
sg82
g4472
sg75
(lp4517
g68
(g89
g70
NtRp4518
(dp4519
g73
(dp4520
sg82
g4514
sg75
(lp4521
g68
(g69
g70
NtRp4522
(dp4523
g73
(dp4524
g81
I1
ssg82
g4518
sg75
(lp4525
(lp4526
asbasbasbasbasbasbasbasbasbasbasbasbasbasbasbasbasbasbasbag68
(g84
g70
NtRp4527
(dp4528
g73
(dp4529
sg82
g2312
sg75
(lp4530
g68
(g89
g70
NtRp4531
(dp4532
g73
(dp4533
g93
g94
ssg82
g4527
sg75
(lp4534
S'meta'
p4535
asbag68
(g89
g70
NtRp4536
(dp4537
g73
(dp4538
g100
g101
ssg82
g4527
sg75
(lp4539
S':'
asbag68
(g89
g70
NtRp4540
(dp4541
g73
(dp4542
sg82
g4527
sg75
(lp4543
g68
(g69
g70
NtRp4544
(dp4545
g73
(dp4546
g81
I5
ssg82
g4540
sg75
(lp4547
g68
(g77
g70
NtRp4548
(dp4549
g73
(dp4550
g81
I4
ssg82
Nsg75
(lp4551
g68
(g84
g70
NtRp4552
(dp4553
g73
(dp4554
sg82
g4548
sg75
(lp4555
g68
(g89
g70
NtRp4556
(dp4557
g73
(dp4558
g93
g94
ssg82
g4552
sg75
(lp4559
S'author'
p4560
asbag68
(g89
g70
NtRp4561
(dp4562
g73
(dp4563
g100
g101
ssg82
g4552
sg75
(lp4564
S':'
asbag68
(g89
g70
NtRp4565
(dp4566
g73
(dp4567
sg82
g4552
sg75
(lp4568
g68
(g69
g70
NtRp4569
(dp4570
g73
(dp4571
g81
I4
ssg82
g4565
sg75
(lp4572
S'Marco Mansilla'
p4573
asbasbasbag68
(g84
g70
NtRp4574
(dp4575
g73
(dp4576
sg82
g4548
sg75
(lp4577
g68
(g89
g70
NtRp4578
(dp4579
g73
(dp4580
g93
g94
ssg82
g4574
sg75
(lp4581
S'copyright'
p4582
asbag68
(g89
g70
NtRp4583
(dp4584
g73
(dp4585
g100
g101
ssg82
g4574
sg75
(lp4586
S':'
asbag68
(g89
g70
NtRp4587
(dp4588
g73
(dp4589
sg82
g4574
sg75
(lp4590
g68
(g69
g70
NtRp4591
(dp4592
g73
(dp4593
g81
I4
ssg82
g4587
sg75
(lp4594
S'Copyright 2007-2010'
p4595
asbasbasbag68
(g84
g70
NtRp4596
(dp4597
g73
(dp4598
sg82
g4548
sg75
(lp4599
g68
(g89
g70
NtRp4600
(dp4601
g73
(dp4602
g93
g94
ssg82
g4596
sg75
(lp4603
S'description'
p4604
asbag68
(g89
g70
NtRp4605
(dp4606
g73
(dp4607
g100
g101
ssg82
g4596
sg75
(lp4608
S':'
asbag68
(g89
g70
NtRp4609
(dp4610
g73
(dp4611
sg82
g4596
sg75
(lp4612
g68
(g69
g70
NtRp4613
(dp4614
g73
(dp4615
g81
I4
ssg82
g4609
sg75
(lp4616
S'Free and open source full-stack enterprise framework for agile development of fast, scalable, secure and portable database-driven web-based applications. Written and programmable in Python'
p4617
asbasbasbag68
(g84
g70
NtRp4618
(dp4619
g73
(dp4620
sg82
g4548
sg75
(lp4621
g68
(g89
g70
NtRp4622
(dp4623
g73
(dp4624
g93
g94
ssg82
g4618
sg75
(lp4625
S'generator'
p4626
asbag68
(g89
g70
NtRp4627
(dp4628
g73
(dp4629
g100
g101
ssg82
g4618
sg75
(lp4630
S':'
asbag68
(g89
g70
NtRp4631
(dp4632
g73
(dp4633
sg82
g4618
sg75
(lp4634
g68
(g69
g70
NtRp4635
(dp4636
g73
(dp4637
g81
I4
ssg82
g4631
sg75
(lp4638
S'Web2py Enterprise Framework'
p4639
asbasbasbag68
(g84
g70
NtRp4640
(dp4641
g73
(dp4642
sg82
g4548
sg75
(lp4643
g68
(g89
g70
NtRp4644
(dp4645
g73
(dp4646
g93
g94
ssg82
g4640
sg75
(lp4647
S'keywords'
p4648
asbag68
(g89
g70
NtRp4649
(dp4650
g73
(dp4651
g100
g101
ssg82
g4640
sg75
(lp4652
S':'
asbag68
(g89
g70
NtRp4653
(dp4654
g73
(dp4655
sg82
g4640
sg75
(lp4656
g68
(g69
g70
NtRp4657
(dp4658
g73
(dp4659
g81
I4
ssg82
g4653
sg75
(lp4660
S'web2py, python, framework'
p4661
asbasbasbasbasbasbasbag68
(g84
g70
NtRp4662
(dp4663
g73
(dp4664
sg82
g2312
sg75
(lp4665
g68
(g89
g70
NtRp4666
(dp4667
g73
(dp4668
g93
g94
ssg82
g4662
sg75
(lp4669
S'postprocessing'
p4670
asbag68
(g89
g70
NtRp4671
(dp4672
g73
(dp4673
g100
g101
ssg82
g4662
sg75
(lp4674
S':'
asbag68
(g89
g70
NtRp4675
(dp4676
g73
(dp4677
sg82
g4662
sg75
(lp4678
g68
(g69
g70
NtRp4679
(dp4680
g73
(dp4681
g81
I5
ssg82
g4675
sg75
(lp4682
g68
(g77
g70
NtRp4683
(dp4684
g73
(dp4685
g81
I4
ssg82
Nsg75
(lp4686
sbasbasbasbag68
(g84
g70
NtRp4687
(dp4688
g73
(dp4689
sg82
g2312
sg75
(lp4690
g68
(g89
g70
NtRp4691
(dp4692
g73
(dp4693
g93
g94
ssg82
g4687
sg75
(lp4694
S'session_filename'
p4695
asbag68
(g89
g70
NtRp4696
(dp4697
g73
(dp4698
g100
g101
ssg82
g4687
sg75
(lp4699
S':'
asbag68
(g89
g70
NtRp4700
(dp4701
g73
(dp4702
sg82
g4687
sg75
(lp4703
g68
(g69
g70
NtRp4704
(dp4705
g73
(dp4706
g81
I5
ssg82
g4700
sg75
(lp4707
S'/home/marco/proyectos/web2py-trunk/applications/mvstore/sessions/127.0.0.1-b44a18b9-cf47-42e7-a676-665b0ce42f83'
p4708
asbasbasbag68
(g84
g70
NtRp4709
(dp4710
g73
(dp4711
sg82
g2312
sg75
(lp4712
g68
(g89
g70
NtRp4713
(dp4714
g73
(dp4715
g93
g94
ssg82
g4709
sg75
(lp4716
S'session_id'
p4717
asbag68
(g89
g70
NtRp4718
(dp4719
g73
(dp4720
g100
g101
ssg82
g4709
sg75
(lp4721
S':'
asbag68
(g89
g70
NtRp4722
(dp4723
g73
(dp4724
sg82
g4709
sg75
(lp4725
g68
(g69
g70
NtRp4726
(dp4727
g73
(dp4728
g81
I5
ssg82
g4722
sg75
(lp4729
S'127.0.0.1-b44a18b9-cf47-42e7-a676-665b0ce42f83'
p4730
asbasbasbag68
(g84
g70
NtRp4731
(dp4732
g73
(dp4733
sg82
g2312
sg75
(lp4734
g68
(g89
g70
NtRp4735
(dp4736
g73
(dp4737
g93
g94
ssg82
g4731
sg75
(lp4738
S'session_id_name'
p4739
asbag68
(g89
g70
NtRp4740
(dp4741
g73
(dp4742
g100
g101
ssg82
g4731
sg75
(lp4743
S':'
asbag68
(g89
g70
NtRp4744
(dp4745
g73
(dp4746
sg82
g4731
sg75
(lp4747
g68
(g69
g70
NtRp4748
(dp4749
g73
(dp4750
g81
I5
ssg82
g4744
sg75
(lp4751
g2369
asbasbasbag68
(g84
g70
NtRp4752
(dp4753
g73
(dp4754
sg82
g2312
sg75
(lp4755
g68
(g89
g70
NtRp4756
(dp4757
g73
(dp4758
g93
g94
ssg82
g4752
sg75
(lp4759
S'session_new'
p4760
asbag68
(g89
g70
NtRp4761
(dp4762
g73
(dp4763
g100
g101
ssg82
g4752
sg75
(lp4764
S':'
asbag68
(g89
g70
NtRp4765
(dp4766
g73
(dp4767
sg82
g4752
sg75
(lp4768
g68
(g69
g70
NtRp4769
(dp4770
g73
(dp4771
g81
I5
ssg82
g4765
sg75
(lp4772
g1233
asbasbasbag68
(g84
g70
NtRp4773
(dp4774
g73
(dp4775
sg82
g2312
sg75
(lp4776
g68
(g89
g70
NtRp4777
(dp4778
g73
(dp4779
g93
g94
ssg82
g4773
sg75
(lp4780
S'status'
p4781
asbag68
(g89
g70
NtRp4782
(dp4783
g73
(dp4784
g100
g101
ssg82
g4773
sg75
(lp4785
S':'
asbag68
(g89
g70
NtRp4786
(dp4787
g73
(dp4788
sg82
g4773
sg75
(lp4789
g68
(g69
g70
NtRp4790
(dp4791
g73
(dp4792
g81
I5
ssg82
g4786
sg75
(lp4793
S'200'
p4794
asbasbasbag68
(g84
g70
NtRp4795
(dp4796
g73
(dp4797
sg82
g2312
sg75
(lp4798
g68
(g89
g70
NtRp4799
(dp4800
g73
(dp4801
g93
g94
ssg82
g4795
sg75
(lp4802
S'subtitle'
p4803
asbag68
(g89
g70
NtRp4804
(dp4805
g73
(dp4806
g100
g101
ssg82
g4795
sg75
(lp4807
S':'
asbag68
(g89
g70
NtRp4808
(dp4809
g73
(dp4810
sg82
g4795
sg75
(lp4811
g68
(g69
g70
NtRp4812
(dp4813
g73
(dp4814
g81
I5
ssg82
g4808
sg75
(lp4815
g2780
(S's\r\x00\x00\x00customize me!'
tRp4816
asbasbasbag68
(g84
g70
NtRp4817
(dp4818
g73
(dp4819
sg82
g2312
sg75
(lp4820
g68
(g89
g70
NtRp4821
(dp4822
g73
(dp4823
g93
g94
ssg82
g4817
sg75
(lp4824
S'title'
p4825
asbag68
(g89
g70
NtRp4826
(dp4827
g73
(dp4828
g100
g101
ssg82
g4817
sg75
(lp4829
S':'
asbag68
(g89
g70
NtRp4830
(dp4831
g73
(dp4832
sg82
g4817
sg75
(lp4833
g68
(g69
g70
NtRp4834
(dp4835
g73
(dp4836
g81
I5
ssg82
g4830
sg75
(lp4837
g133
asbasbasbag68
(g84
g70
NtRp4838
(dp4839
g73
(dp4840
sg82
g2312
sg75
(lp4841
g68
(g89
g70
NtRp4842
(dp4843
g73
(dp4844
g93
g94
ssg82
g4838
sg75
(lp4845
g1557
asbag68
(g89
g70
NtRp4846
(dp4847
g73
(dp4848
g100
g101
ssg82
g4838
sg75
(lp4849
S':'
asbag68
(g89
g70
NtRp4850
(dp4851
g73
(dp4852
sg82
g4838
sg75
(lp4853
g68
(g69
g70
NtRp4854
(dp4855
g73
(dp4856
g81
I5
ssg82
g4850
sg75
(lp4857
g1570
asbasbasbag68
(g84
g70
NtRp4858
(dp4859
g73
(dp4860
sg82
g2312
sg75
(lp4861
g68
(g89
g70
NtRp4862
(dp4863
g73
(dp4864
g93
g94
ssg82
g4858
sg75
(lp4865
S'view'
p4866
asbag68
(g89
g70
NtRp4867
(dp4868
g73
(dp4869
g100
g101
ssg82
g4858
sg75
(lp4870
S':'
asbag68
(g89
g70
NtRp4871
(dp4872
g73
(dp4873
sg82
g4858
sg75
(lp4874
g68
(g69
g70
NtRp4875
(dp4876
g73
(dp4877
g81
I5
ssg82
g4871
sg75
(lp4878
S'default/prestamos.html'
p4879
asbasbasbasbasbsS'locals'
p4880
(dp4881
g3
S"'/home/marco/proyectos/web2py-trunk/applications/mvstore/controllers/default.py'"
p4882
sg5
S"'#-*- coding: utf-8 -*-\\n# this file is released u...dos)\\n\\nresponse._vars=response._caller(prestamos)\\n'"
p4883
sssS'traceback'
p4884
S'Traceback (most recent call last):\n  File "/home/marco/proyectos/web2py-trunk/gluon/restricted.py", line 191, in restricted\n    ccode = compile2(code,layer)\n  File "/home/marco/proyectos/web2py-trunk/gluon/restricted.py", line 178, in compile2\n    return compile(code.rstrip().replace(\'\\r\\n\',\'\\n\')+\'\\n\', layer, \'exec\')\n  File "/home/marco/proyectos/web2py-trunk/applications/mvstore/controllers/default.py", line 119\n    return dict(form=form,table=db().empleados)\n         ^\nSyntaxError: invalid syntax\n'
p4885
s.