(dp1
S'output'
p2
S''
sS'layer'
p3
S'/home/marco/proyectos/web2py-trunk/applications/mvstore/models/db.py'
p4
sS'code'
p5
S'# -*- coding: utf-8 -*-\n# this file is released under public domain and you can use without limitations\n\n#########################################################################\n## This scaffolding model makes your app work on Google App Engine too\n#########################################################################\n\nif request.env.web2py_runtime_gae:            # if running on Google App Engine\n    db = DAL(\'gae\')                           # connect to Google BigTable\n                                              # optional DAL(\'gae://namespace\')\n    session.connect(request, response, db = db) # and store sessions and tickets there\n    ### or use the following lines to store sessions in Memcache\n    # from gluon.contrib.memdb import MEMDB\n    # from google.appengine.api.memcache import Client\n    # session.connect(request, response, db = MEMDB(Client()))\nelse:                                         # else use a normal relational database\n    db = DAL(\'sqlite://storage.sqlite\')       # if not, use SQLite or other DB\n## if no need for session\n# session.forget()\n\n#########################################################################\n## Here is sample code if you need for\n## - email capabilities\n## - authentication (registration, login, logout, ... )\n## - authorization (role based authorization)\n## - services (xml, csv, json, xmlrpc, jsonrpc, amf, rss)\n## - crud actions\n## (more options discussed in gluon/tools.py)\n#########################################################################\n\nfrom gluon.tools import *\nmail = Mail()                                  # mailer\nauth = Auth(globals(),db)                      # authentication/authorization\ncrud = Crud(globals(),db)                      # for CRUD helpers using auth\nservice = Service(globals())                   # for json, xml, jsonrpc, xmlrpc, amfrpc\nplugins = PluginManager()\n\nmail.settings.server = \'logging\' or \'smtp.gmail.com:587\'  # your SMTP server\nmail.settings.sender = \'you@gmail.com\'         # your email\nmail.settings.login = \'username:password\'      # your credentials or None\n\nauth.settings.hmac_key = \'sha512:7fbe918c-a556-4879-a996-7618f8e7c6aa\'   # before define_tables()\nauth.define_tables()                           # creates all needed tables\nauth.settings.mailer = mail                    # for user email verification\nauth.settings.registration_requires_verification = False\nauth.settings.registration_requires_approval = False\nauth.messages.verify_email = \'Click on the link http://\'+request.env.http_host+URL(\'default\',\'user\',args=[\'verify_email\'])+\'/%(key)s to verify your email\'\nauth.settings.reset_password_requires_verification = True\nauth.messages.reset_password = \'Click on the link http://\'+request.env.http_host+URL(\'default\',\'user\',args=[\'reset_password\'])+\'/%(key)s to reset your password\'\n\n#########################################################################\n## If you need to use OpenID, Facebook, MySpace, Twitter, Linkedin, etc.\n## register with janrain.com, uncomment and customize following\n# from gluon.contrib.login_methods.rpx_account import RPXAccount\n# auth.settings.actions_disabled=[\'register\',\'change_password\',\'request_reset_password\']\n# auth.settings.login_form = RPXAccount(request, api_key=\'...\',domain=\'...\',\n#    url = "http://localhost:8000/%s/default/user/login" % request.application)\n## other login methods are in gluon/contrib/login_methods\n#########################################################################\n\ncrud.settings.auth = None                      # =auth to enforce authorization on crud\n\n#########################################################################\n## Define your tables below (or better in another model file) for example\n##\n## >>> db.define_table(\'mytable\',Field(\'myfield\',\'string\'))\n##\n## Fields can be \'string\',\'text\',\'password\',\'integer\',\'double\',\'boolean\'\n##       \'date\',\'time\',\'datetime\',\'blob\',\'upload\', \'reference TABLENAME\'\n## There is an implicit \'id integer autoincrement\' field\n## Consult manual for more options, validators, etc.\n##\n## More API examples for controllers:\n##\n## >>> db.mytable.insert(myfield=\'value\')\n## >>> rows=db(db.mytable.myfield==\'value\').select(db.mytable.ALL)\n## >>> for row in rows: print row.id, row.myfield\n#########################################################################\n\nfields=[\n        Field(\'documento\',\'string\'),\n        Field(\'nombre\',\'string\'),\n        Field(\'apellido\',\'string\'),\n        Field(\'foto\',\'upload\'),\n        Field(\'domicilio\',\'string\'),\n        Field(\'telefono\',\'string\'),\n        Field(\'fecha_load\',\'date\')\n        ]\n\ndb.define_table(\'empleados\',\n        format=\'%(first_name)s %(last_name)s\',\n        *fields\n        )\n\ndb.define_table(\'clientes\',\n        format=\'%(first_name)s %(last_name)s\',\n        *fields\n        )\n\ndb.define_table(\'peliculas\',\n        Field(\'titulo\',\'string\'),\n        Field(\'genero\',\'string\'),\n        Field(\'anio\',\'integer\'),\n        Field(\'sinopsis\',\'text\'),\n        Field(\'tapa\',\'upload\'),\n        Field(\'unidades\',\'integer\')\n        Field(\'fecha_ing\',\'date\'),\n        )\n\ndb.define_table(\'prestamos\',\n        Field(\'titulo\',\'reference peliculas\'),\n        Field(\'cliente\',\'reference clientes\'),\n        Field(\'empleado\',\'reference empleados\'),\n        Field(\'fecha\',\'datetime\'),\n        Field(\'devol\',\'datetime\'),\n        )\n\n'
p6
sS'snapshot'
p7
(dp8
S'exception'
p9
(dp10
S'__getslice__'
p11
S"<method-wrapper '__getslice__' of exceptions.SyntaxError object>"
p12
sS'text'
p13
S'"        Field(\'fecha_ing\',\'date\'),\\n"'
p14
sS'__str__'
p15
S"<method-wrapper '__str__' of exceptions.SyntaxError object>"
p16
sS'__reduce__'
p17
S'<built-in method __reduce__ of exceptions.SyntaxError object>'
p18
sS'__dict__'
p19
S'{}'
p20
sS'__sizeof__'
p21
S'<built-in method __sizeof__ of exceptions.SyntaxError object>'
p22
sS'__init__'
p23
S"<method-wrapper '__init__' of exceptions.SyntaxError object>"
p24
sS'__setattr__'
p25
S"<method-wrapper '__setattr__' of exceptions.SyntaxError object>"
p26
sS'__reduce_ex__'
p27
S'<built-in method __reduce_ex__ of exceptions.SyntaxError object>'
p28
sS'__new__'
p29
S'<built-in method __new__ of type object>'
p30
sS'__format__'
p31
S'<built-in method __format__ of exceptions.SyntaxError object>'
p32
sS'__class__'
p33
S"<type 'exceptions.SyntaxError'>"
p34
sS'filename'
p35
S"'/home/marco/proyectos/web2py-trunk/applications/mvstore/models/db.py'"
p36
sS'lineno'
p37
S'107'
p38
sS'msg'
p39
S"'invalid syntax'"
p40
sS'__doc__'
p41
S"'Invalid syntax.'"
p42
sS'__getitem__'
p43
S"<method-wrapper '__getitem__' of exceptions.SyntaxError object>"
p44
sS'__setstate__'
p45
S'<built-in method __setstate__ of exceptions.SyntaxError object>'
p46
sS'__getattribute__'
p47
S"<method-wrapper '__getattribute__' of exceptions.SyntaxError object>"
p48
sS'print_file_and_line'
p49
S'None'
p50
sS'args'
p51
S'(\'invalid syntax\', (\'/home/marco/proyectos/web2py-trunk/applications/mvstore/models/db.py\', 107, 13, "        Field(\'fecha_ing\',\'date\'),\\n"))'
p52
sS'__subclasshook__'
p53
S'<built-in method __subclasshook__ of type object>'
p54
sS'offset'
p55
S'13'
p56
sS'__unicode__'
p57
S'<built-in method __unicode__ of exceptions.SyntaxError object>'
p58
sS'__delattr__'
p59
S"<method-wrapper '__delattr__' of exceptions.SyntaxError object>"
p60
sS'__repr__'
p61
S"<method-wrapper '__repr__' of exceptions.SyntaxError object>"
p62
sS'__hash__'
p63
S"<method-wrapper '__hash__' of exceptions.SyntaxError object>"
p64
ssS'evalue'
p65
S'invalid syntax (db.py, line 107)'
p66
sS'request'
p67
ccopy_reg
_reconstructor
p68
(cgluon.html
BEAUTIFY
p69
c__builtin__
object
p70
NtRp71
(dp72
S'attributes'
p73
(dp74
sS'components'
p75
(lp76
g68
(cgluon.html
TABLE
p77
g70
NtRp78
(dp79
g73
(dp80
S'level'
p81
I5
ssS'parent'
p82
Nsg75
(lp83
g68
(cgluon.html
TR
p84
g70
NtRp85
(dp86
g73
(dp87
sg82
g78
sg75
(lp88
g68
(cgluon.html
TD
p89
g70
NtRp90
(dp91
g73
(dp92
S'_style'
p93
S'font-weight:bold;'
p94
ssg82
g85
sg75
(lp95
S'ajax'
p96
asbag68
(g89
g70
NtRp97
(dp98
g73
(dp99
S'_valign'
p100
S'top'
p101
ssg82
g85
sg75
(lp102
S':'
asbag68
(g89
g70
NtRp103
(dp104
g73
(dp105
sg82
g85
sg75
(lp106
g68
(g69
g70
NtRp107
(dp108
g73
(dp109
g81
I5
ssg82
g103
sg75
(lp110
S'False'
p111
asbasbasbag68
(g84
g70
NtRp112
(dp113
g73
(dp114
sg82
g78
sg75
(lp115
g68
(g89
g70
NtRp116
(dp117
g73
(dp118
g93
g94
ssg82
g112
sg75
(lp119
S'application'
p120
asbag68
(g89
g70
NtRp121
(dp122
g73
(dp123
g100
g101
ssg82
g112
sg75
(lp124
S':'
asbag68
(g89
g70
NtRp125
(dp126
g73
(dp127
sg82
g112
sg75
(lp128
g68
(g69
g70
NtRp129
(dp130
g73
(dp131
g81
I5
ssg82
g125
sg75
(lp132
S'mvstore'
p133
asbasbasbag68
(g84
g70
NtRp134
(dp135
g73
(dp136
sg82
g78
sg75
(lp137
g68
(g89
g70
NtRp138
(dp139
g73
(dp140
g93
g94
ssg82
g134
sg75
(lp141
g51
asbag68
(g89
g70
NtRp142
(dp143
g73
(dp144
g100
g101
ssg82
g134
sg75
(lp145
S':'
asbag68
(g89
g70
NtRp146
(dp147
g73
(dp148
sg82
g134
sg75
(lp149
g68
(g69
g70
NtRp150
(dp151
g73
(dp152
g81
I5
ssg82
g146
sg75
(lp153
g68
(g77
g70
NtRp154
(dp155
g73
(dp156
g81
I4
ssg82
Nsg75
(lp157
sbasbasbasbag68
(g84
g70
NtRp158
(dp159
g73
(dp160
sg82
g78
sg75
(lp161
g68
(g89
g70
NtRp162
(dp163
g73
(dp164
g93
g94
ssg82
g158
sg75
(lp165
S'body'
p166
asbag68
(g89
g70
NtRp167
(dp168
g73
(dp169
g100
g101
ssg82
g158
sg75
(lp170
S':'
asbag68
(g89
g70
NtRp171
(dp172
g73
(dp173
sg82
g158
sg75
(lp174
g68
(g69
g70
NtRp175
(dp176
g73
(dp177
g81
I5
ssg82
g171
sg75
(lp178
S'<cStringIO.StringO object at 0x35236f8>'
p179
asbasbasbag68
(g84
g70
NtRp180
(dp181
g73
(dp182
sg82
g78
sg75
(lp183
g68
(g89
g70
NtRp184
(dp185
g73
(dp186
g93
g94
ssg82
g180
sg75
(lp187
S'client'
p188
asbag68
(g89
g70
NtRp189
(dp190
g73
(dp191
g100
g101
ssg82
g180
sg75
(lp192
S':'
asbag68
(g89
g70
NtRp193
(dp194
g73
(dp195
sg82
g180
sg75
(lp196
g68
(g69
g70
NtRp197
(dp198
g73
(dp199
g81
I5
ssg82
g193
sg75
(lp200
S'127.0.0.1'
p201
asbasbasbag68
(g84
g70
NtRp202
(dp203
g73
(dp204
sg82
g78
sg75
(lp205
g68
(g89
g70
NtRp206
(dp207
g73
(dp208
g93
g94
ssg82
g202
sg75
(lp209
S'controller'
p210
asbag68
(g89
g70
NtRp211
(dp212
g73
(dp213
g100
g101
ssg82
g202
sg75
(lp214
S':'
asbag68
(g89
g70
NtRp215
(dp216
g73
(dp217
sg82
g202
sg75
(lp218
g68
(g69
g70
NtRp219
(dp220
g73
(dp221
g81
I5
ssg82
g215
sg75
(lp222
S'default'
p223
asbasbasbag68
(g84
g70
NtRp224
(dp225
g73
(dp226
sg82
g78
sg75
(lp227
g68
(g89
g70
NtRp228
(dp229
g73
(dp230
g93
g94
ssg82
g224
sg75
(lp231
S'cookies'
p232
asbag68
(g89
g70
NtRp233
(dp234
g73
(dp235
g100
g101
ssg82
g224
sg75
(lp236
S':'
asbag68
(g89
g70
NtRp237
(dp238
g73
(dp239
sg82
g224
sg75
(lp240
g68
(g69
g70
NtRp241
(dp242
g73
(dp243
g81
I5
ssg82
g237
sg75
(lp244
g68
(g77
g70
NtRp245
(dp246
g73
(dp247
g81
I4
ssg82
Nsg75
(lp248
g68
(g84
g70
NtRp249
(dp250
g73
(dp251
sg82
g245
sg75
(lp252
g68
(g89
g70
NtRp253
(dp254
g73
(dp255
g93
g94
ssg82
g249
sg75
(lp256
S'session_id_admin'
p257
asbag68
(g89
g70
NtRp258
(dp259
g73
(dp260
g100
g101
ssg82
g249
sg75
(lp261
S':'
asbag68
(g89
g70
NtRp262
(dp263
g73
(dp264
sg82
g249
sg75
(lp265
g68
(g69
g70
NtRp266
(dp267
g73
(dp268
g81
I4
ssg82
g262
sg75
(lp269
g68
(g77
g70
NtRp270
(dp271
g73
(dp272
g81
I3
ssg82
Nsg75
(lp273
g68
(g84
g70
NtRp274
(dp275
g73
(dp276
sg82
g270
sg75
(lp277
g68
(g89
g70
NtRp278
(dp279
g73
(dp280
g93
g94
ssg82
g274
sg75
(lp281
S'comment'
p282
asbag68
(g89
g70
NtRp283
(dp284
g73
(dp285
g100
g101
ssg82
g274
sg75
(lp286
S':'
asbag68
(g89
g70
NtRp287
(dp288
g73
(dp289
sg82
g274
sg75
(lp290
g68
(g69
g70
NtRp291
(dp292
g73
(dp293
g81
I3
ssg82
g287
sg75
(lp294
S''
asbasbasbag68
(g84
g70
NtRp295
(dp296
g73
(dp297
sg82
g270
sg75
(lp298
g68
(g89
g70
NtRp299
(dp300
g73
(dp301
g93
g94
ssg82
g295
sg75
(lp302
S'domain'
p303
asbag68
(g89
g70
NtRp304
(dp305
g73
(dp306
g100
g101
ssg82
g295
sg75
(lp307
S':'
asbag68
(g89
g70
NtRp308
(dp309
g73
(dp310
sg82
g295
sg75
(lp311
g68
(g69
g70
NtRp312
(dp313
g73
(dp314
g81
I3
ssg82
g308
sg75
(lp315
S''
asbasbasbag68
(g84
g70
NtRp316
(dp317
g73
(dp318
sg82
g270
sg75
(lp319
g68
(g89
g70
NtRp320
(dp321
g73
(dp322
g93
g94
ssg82
g316
sg75
(lp323
S'expires'
p324
asbag68
(g89
g70
NtRp325
(dp326
g73
(dp327
g100
g101
ssg82
g316
sg75
(lp328
S':'
asbag68
(g89
g70
NtRp329
(dp330
g73
(dp331
sg82
g316
sg75
(lp332
g68
(g69
g70
NtRp333
(dp334
g73
(dp335
g81
I3
ssg82
g329
sg75
(lp336
S''
asbasbasbag68
(g84
g70
NtRp337
(dp338
g73
(dp339
sg82
g270
sg75
(lp340
g68
(g89
g70
NtRp341
(dp342
g73
(dp343
g93
g94
ssg82
g337
sg75
(lp344
S'httponly'
p345
asbag68
(g89
g70
NtRp346
(dp347
g73
(dp348
g100
g101
ssg82
g337
sg75
(lp349
S':'
asbag68
(g89
g70
NtRp350
(dp351
g73
(dp352
sg82
g337
sg75
(lp353
g68
(g69
g70
NtRp354
(dp355
g73
(dp356
g81
I3
ssg82
g350
sg75
(lp357
S''
asbasbasbag68
(g84
g70
NtRp358
(dp359
g73
(dp360
sg82
g270
sg75
(lp361
g68
(g89
g70
NtRp362
(dp363
g73
(dp364
g93
g94
ssg82
g358
sg75
(lp365
S'max-age'
p366
asbag68
(g89
g70
NtRp367
(dp368
g73
(dp369
g100
g101
ssg82
g358
sg75
(lp370
S':'
asbag68
(g89
g70
NtRp371
(dp372
g73
(dp373
sg82
g358
sg75
(lp374
g68
(g69
g70
NtRp375
(dp376
g73
(dp377
g81
I3
ssg82
g371
sg75
(lp378
S''
asbasbasbag68
(g84
g70
NtRp379
(dp380
g73
(dp381
sg82
g270
sg75
(lp382
g68
(g89
g70
NtRp383
(dp384
g73
(dp385
g93
g94
ssg82
g379
sg75
(lp386
S'path'
p387
asbag68
(g89
g70
NtRp388
(dp389
g73
(dp390
g100
g101
ssg82
g379
sg75
(lp391
S':'
asbag68
(g89
g70
NtRp392
(dp393
g73
(dp394
sg82
g379
sg75
(lp395
g68
(g69
g70
NtRp396
(dp397
g73
(dp398
g81
I3
ssg82
g392
sg75
(lp399
S''
asbasbasbag68
(g84
g70
NtRp400
(dp401
g73
(dp402
sg82
g270
sg75
(lp403
g68
(g89
g70
NtRp404
(dp405
g73
(dp406
g93
g94
ssg82
g400
sg75
(lp407
S'secure'
p408
asbag68
(g89
g70
NtRp409
(dp410
g73
(dp411
g100
g101
ssg82
g400
sg75
(lp412
S':'
asbag68
(g89
g70
NtRp413
(dp414
g73
(dp415
sg82
g400
sg75
(lp416
g68
(g69
g70
NtRp417
(dp418
g73
(dp419
g81
I3
ssg82
g413
sg75
(lp420
S''
asbasbasbag68
(g84
g70
NtRp421
(dp422
g73
(dp423
sg82
g270
sg75
(lp424
g68
(g89
g70
NtRp425
(dp426
g73
(dp427
g93
g94
ssg82
g421
sg75
(lp428
S'version'
p429
asbag68
(g89
g70
NtRp430
(dp431
g73
(dp432
g100
g101
ssg82
g421
sg75
(lp433
S':'
asbag68
(g89
g70
NtRp434
(dp435
g73
(dp436
sg82
g421
sg75
(lp437
g68
(g69
g70
NtRp438
(dp439
g73
(dp440
g81
I3
ssg82
g434
sg75
(lp441
S''
asbasbasbasbasbasbasbag68
(g84
g70
NtRp442
(dp443
g73
(dp444
sg82
g245
sg75
(lp445
g68
(g89
g70
NtRp446
(dp447
g73
(dp448
g93
g94
ssg82
g442
sg75
(lp449
S'session_id_jornadasdemo'
p450
asbag68
(g89
g70
NtRp451
(dp452
g73
(dp453
g100
g101
ssg82
g442
sg75
(lp454
S':'
asbag68
(g89
g70
NtRp455
(dp456
g73
(dp457
sg82
g442
sg75
(lp458
g68
(g69
g70
NtRp459
(dp460
g73
(dp461
g81
I4
ssg82
g455
sg75
(lp462
g68
(g77
g70
NtRp463
(dp464
g73
(dp465
g81
I3
ssg82
Nsg75
(lp466
g68
(g84
g70
NtRp467
(dp468
g73
(dp469
sg82
g463
sg75
(lp470
g68
(g89
g70
NtRp471
(dp472
g73
(dp473
g93
g94
ssg82
g467
sg75
(lp474
g282
asbag68
(g89
g70
NtRp475
(dp476
g73
(dp477
g100
g101
ssg82
g467
sg75
(lp478
S':'
asbag68
(g89
g70
NtRp479
(dp480
g73
(dp481
sg82
g467
sg75
(lp482
g68
(g69
g70
NtRp483
(dp484
g73
(dp485
g81
I3
ssg82
g479
sg75
(lp486
S''
asbasbasbag68
(g84
g70
NtRp487
(dp488
g73
(dp489
sg82
g463
sg75
(lp490
g68
(g89
g70
NtRp491
(dp492
g73
(dp493
g93
g94
ssg82
g487
sg75
(lp494
g303
asbag68
(g89
g70
NtRp495
(dp496
g73
(dp497
g100
g101
ssg82
g487
sg75
(lp498
S':'
asbag68
(g89
g70
NtRp499
(dp500
g73
(dp501
sg82
g487
sg75
(lp502
g68
(g69
g70
NtRp503
(dp504
g73
(dp505
g81
I3
ssg82
g499
sg75
(lp506
S''
asbasbasbag68
(g84
g70
NtRp507
(dp508
g73
(dp509
sg82
g463
sg75
(lp510
g68
(g89
g70
NtRp511
(dp512
g73
(dp513
g93
g94
ssg82
g507
sg75
(lp514
g324
asbag68
(g89
g70
NtRp515
(dp516
g73
(dp517
g100
g101
ssg82
g507
sg75
(lp518
S':'
asbag68
(g89
g70
NtRp519
(dp520
g73
(dp521
sg82
g507
sg75
(lp522
g68
(g69
g70
NtRp523
(dp524
g73
(dp525
g81
I3
ssg82
g519
sg75
(lp526
S''
asbasbasbag68
(g84
g70
NtRp527
(dp528
g73
(dp529
sg82
g463
sg75
(lp530
g68
(g89
g70
NtRp531
(dp532
g73
(dp533
g93
g94
ssg82
g527
sg75
(lp534
g345
asbag68
(g89
g70
NtRp535
(dp536
g73
(dp537
g100
g101
ssg82
g527
sg75
(lp538
S':'
asbag68
(g89
g70
NtRp539
(dp540
g73
(dp541
sg82
g527
sg75
(lp542
g68
(g69
g70
NtRp543
(dp544
g73
(dp545
g81
I3
ssg82
g539
sg75
(lp546
S''
asbasbasbag68
(g84
g70
NtRp547
(dp548
g73
(dp549
sg82
g463
sg75
(lp550
g68
(g89
g70
NtRp551
(dp552
g73
(dp553
g93
g94
ssg82
g547
sg75
(lp554
g366
asbag68
(g89
g70
NtRp555
(dp556
g73
(dp557
g100
g101
ssg82
g547
sg75
(lp558
S':'
asbag68
(g89
g70
NtRp559
(dp560
g73
(dp561
sg82
g547
sg75
(lp562
g68
(g69
g70
NtRp563
(dp564
g73
(dp565
g81
I3
ssg82
g559
sg75
(lp566
S''
asbasbasbag68
(g84
g70
NtRp567
(dp568
g73
(dp569
sg82
g463
sg75
(lp570
g68
(g89
g70
NtRp571
(dp572
g73
(dp573
g93
g94
ssg82
g567
sg75
(lp574
g387
asbag68
(g89
g70
NtRp575
(dp576
g73
(dp577
g100
g101
ssg82
g567
sg75
(lp578
S':'
asbag68
(g89
g70
NtRp579
(dp580
g73
(dp581
sg82
g567
sg75
(lp582
g68
(g69
g70
NtRp583
(dp584
g73
(dp585
g81
I3
ssg82
g579
sg75
(lp586
S''
asbasbasbag68
(g84
g70
NtRp587
(dp588
g73
(dp589
sg82
g463
sg75
(lp590
g68
(g89
g70
NtRp591
(dp592
g73
(dp593
g93
g94
ssg82
g587
sg75
(lp594
g408
asbag68
(g89
g70
NtRp595
(dp596
g73
(dp597
g100
g101
ssg82
g587
sg75
(lp598
S':'
asbag68
(g89
g70
NtRp599
(dp600
g73
(dp601
sg82
g587
sg75
(lp602
g68
(g69
g70
NtRp603
(dp604
g73
(dp605
g81
I3
ssg82
g599
sg75
(lp606
S''
asbasbasbag68
(g84
g70
NtRp607
(dp608
g73
(dp609
sg82
g463
sg75
(lp610
g68
(g89
g70
NtRp611
(dp612
g73
(dp613
g93
g94
ssg82
g607
sg75
(lp614
g429
asbag68
(g89
g70
NtRp615
(dp616
g73
(dp617
g100
g101
ssg82
g607
sg75
(lp618
S':'
asbag68
(g89
g70
NtRp619
(dp620
g73
(dp621
sg82
g607
sg75
(lp622
g68
(g69
g70
NtRp623
(dp624
g73
(dp625
g81
I3
ssg82
g619
sg75
(lp626
S''
asbasbasbasbasbasbasbag68
(g84
g70
NtRp627
(dp628
g73
(dp629
sg82
g245
sg75
(lp630
g68
(g89
g70
NtRp631
(dp632
g73
(dp633
g93
g94
ssg82
g627
sg75
(lp634
S'session_id_moviestore'
p635
asbag68
(g89
g70
NtRp636
(dp637
g73
(dp638
g100
g101
ssg82
g627
sg75
(lp639
S':'
asbag68
(g89
g70
NtRp640
(dp641
g73
(dp642
sg82
g627
sg75
(lp643
g68
(g69
g70
NtRp644
(dp645
g73
(dp646
g81
I4
ssg82
g640
sg75
(lp647
g68
(g77
g70
NtRp648
(dp649
g73
(dp650
g81
I3
ssg82
Nsg75
(lp651
g68
(g84
g70
NtRp652
(dp653
g73
(dp654
sg82
g648
sg75
(lp655
g68
(g89
g70
NtRp656
(dp657
g73
(dp658
g93
g94
ssg82
g652
sg75
(lp659
g282
asbag68
(g89
g70
NtRp660
(dp661
g73
(dp662
g100
g101
ssg82
g652
sg75
(lp663
S':'
asbag68
(g89
g70
NtRp664
(dp665
g73
(dp666
sg82
g652
sg75
(lp667
g68
(g69
g70
NtRp668
(dp669
g73
(dp670
g81
I3
ssg82
g664
sg75
(lp671
S''
asbasbasbag68
(g84
g70
NtRp672
(dp673
g73
(dp674
sg82
g648
sg75
(lp675
g68
(g89
g70
NtRp676
(dp677
g73
(dp678
g93
g94
ssg82
g672
sg75
(lp679
g303
asbag68
(g89
g70
NtRp680
(dp681
g73
(dp682
g100
g101
ssg82
g672
sg75
(lp683
S':'
asbag68
(g89
g70
NtRp684
(dp685
g73
(dp686
sg82
g672
sg75
(lp687
g68
(g69
g70
NtRp688
(dp689
g73
(dp690
g81
I3
ssg82
g684
sg75
(lp691
S''
asbasbasbag68
(g84
g70
NtRp692
(dp693
g73
(dp694
sg82
g648
sg75
(lp695
g68
(g89
g70
NtRp696
(dp697
g73
(dp698
g93
g94
ssg82
g692
sg75
(lp699
g324
asbag68
(g89
g70
NtRp700
(dp701
g73
(dp702
g100
g101
ssg82
g692
sg75
(lp703
S':'
asbag68
(g89
g70
NtRp704
(dp705
g73
(dp706
sg82
g692
sg75
(lp707
g68
(g69
g70
NtRp708
(dp709
g73
(dp710
g81
I3
ssg82
g704
sg75
(lp711
S''
asbasbasbag68
(g84
g70
NtRp712
(dp713
g73
(dp714
sg82
g648
sg75
(lp715
g68
(g89
g70
NtRp716
(dp717
g73
(dp718
g93
g94
ssg82
g712
sg75
(lp719
g345
asbag68
(g89
g70
NtRp720
(dp721
g73
(dp722
g100
g101
ssg82
g712
sg75
(lp723
S':'
asbag68
(g89
g70
NtRp724
(dp725
g73
(dp726
sg82
g712
sg75
(lp727
g68
(g69
g70
NtRp728
(dp729
g73
(dp730
g81
I3
ssg82
g724
sg75
(lp731
S''
asbasbasbag68
(g84
g70
NtRp732
(dp733
g73
(dp734
sg82
g648
sg75
(lp735
g68
(g89
g70
NtRp736
(dp737
g73
(dp738
g93
g94
ssg82
g732
sg75
(lp739
g366
asbag68
(g89
g70
NtRp740
(dp741
g73
(dp742
g100
g101
ssg82
g732
sg75
(lp743
S':'
asbag68
(g89
g70
NtRp744
(dp745
g73
(dp746
sg82
g732
sg75
(lp747
g68
(g69
g70
NtRp748
(dp749
g73
(dp750
g81
I3
ssg82
g744
sg75
(lp751
S''
asbasbasbag68
(g84
g70
NtRp752
(dp753
g73
(dp754
sg82
g648
sg75
(lp755
g68
(g89
g70
NtRp756
(dp757
g73
(dp758
g93
g94
ssg82
g752
sg75
(lp759
g387
asbag68
(g89
g70
NtRp760
(dp761
g73
(dp762
g100
g101
ssg82
g752
sg75
(lp763
S':'
asbag68
(g89
g70
NtRp764
(dp765
g73
(dp766
sg82
g752
sg75
(lp767
g68
(g69
g70
NtRp768
(dp769
g73
(dp770
g81
I3
ssg82
g764
sg75
(lp771
S''
asbasbasbag68
(g84
g70
NtRp772
(dp773
g73
(dp774
sg82
g648
sg75
(lp775
g68
(g89
g70
NtRp776
(dp777
g73
(dp778
g93
g94
ssg82
g772
sg75
(lp779
g408
asbag68
(g89
g70
NtRp780
(dp781
g73
(dp782
g100
g101
ssg82
g772
sg75
(lp783
S':'
asbag68
(g89
g70
NtRp784
(dp785
g73
(dp786
sg82
g772
sg75
(lp787
g68
(g69
g70
NtRp788
(dp789
g73
(dp790
g81
I3
ssg82
g784
sg75
(lp791
S''
asbasbasbag68
(g84
g70
NtRp792
(dp793
g73
(dp794
sg82
g648
sg75
(lp795
g68
(g89
g70
NtRp796
(dp797
g73
(dp798
g93
g94
ssg82
g792
sg75
(lp799
g429
asbag68
(g89
g70
NtRp800
(dp801
g73
(dp802
g100
g101
ssg82
g792
sg75
(lp803
S':'
asbag68
(g89
g70
NtRp804
(dp805
g73
(dp806
sg82
g792
sg75
(lp807
g68
(g69
g70
NtRp808
(dp809
g73
(dp810
g81
I3
ssg82
g804
sg75
(lp811
S''
asbasbasbasbasbasbasbag68
(g84
g70
NtRp812
(dp813
g73
(dp814
sg82
g245
sg75
(lp815
g68
(g89
g70
NtRp816
(dp817
g73
(dp818
g93
g94
ssg82
g812
sg75
(lp819
S'session_id_mvstore'
p820
asbag68
(g89
g70
NtRp821
(dp822
g73
(dp823
g100
g101
ssg82
g812
sg75
(lp824
S':'
asbag68
(g89
g70
NtRp825
(dp826
g73
(dp827
sg82
g812
sg75
(lp828
g68
(g69
g70
NtRp829
(dp830
g73
(dp831
g81
I4
ssg82
g825
sg75
(lp832
g68
(g77
g70
NtRp833
(dp834
g73
(dp835
g81
I3
ssg82
Nsg75
(lp836
g68
(g84
g70
NtRp837
(dp838
g73
(dp839
sg82
g833
sg75
(lp840
g68
(g89
g70
NtRp841
(dp842
g73
(dp843
g93
g94
ssg82
g837
sg75
(lp844
g282
asbag68
(g89
g70
NtRp845
(dp846
g73
(dp847
g100
g101
ssg82
g837
sg75
(lp848
S':'
asbag68
(g89
g70
NtRp849
(dp850
g73
(dp851
sg82
g837
sg75
(lp852
g68
(g69
g70
NtRp853
(dp854
g73
(dp855
g81
I3
ssg82
g849
sg75
(lp856
S''
asbasbasbag68
(g84
g70
NtRp857
(dp858
g73
(dp859
sg82
g833
sg75
(lp860
g68
(g89
g70
NtRp861
(dp862
g73
(dp863
g93
g94
ssg82
g857
sg75
(lp864
g303
asbag68
(g89
g70
NtRp865
(dp866
g73
(dp867
g100
g101
ssg82
g857
sg75
(lp868
S':'
asbag68
(g89
g70
NtRp869
(dp870
g73
(dp871
sg82
g857
sg75
(lp872
g68
(g69
g70
NtRp873
(dp874
g73
(dp875
g81
I3
ssg82
g869
sg75
(lp876
S''
asbasbasbag68
(g84
g70
NtRp877
(dp878
g73
(dp879
sg82
g833
sg75
(lp880
g68
(g89
g70
NtRp881
(dp882
g73
(dp883
g93
g94
ssg82
g877
sg75
(lp884
g324
asbag68
(g89
g70
NtRp885
(dp886
g73
(dp887
g100
g101
ssg82
g877
sg75
(lp888
S':'
asbag68
(g89
g70
NtRp889
(dp890
g73
(dp891
sg82
g877
sg75
(lp892
g68
(g69
g70
NtRp893
(dp894
g73
(dp895
g81
I3
ssg82
g889
sg75
(lp896
S''
asbasbasbag68
(g84
g70
NtRp897
(dp898
g73
(dp899
sg82
g833
sg75
(lp900
g68
(g89
g70
NtRp901
(dp902
g73
(dp903
g93
g94
ssg82
g897
sg75
(lp904
g345
asbag68
(g89
g70
NtRp905
(dp906
g73
(dp907
g100
g101
ssg82
g897
sg75
(lp908
S':'
asbag68
(g89
g70
NtRp909
(dp910
g73
(dp911
sg82
g897
sg75
(lp912
g68
(g69
g70
NtRp913
(dp914
g73
(dp915
g81
I3
ssg82
g909
sg75
(lp916
S''
asbasbasbag68
(g84
g70
NtRp917
(dp918
g73
(dp919
sg82
g833
sg75
(lp920
g68
(g89
g70
NtRp921
(dp922
g73
(dp923
g93
g94
ssg82
g917
sg75
(lp924
g366
asbag68
(g89
g70
NtRp925
(dp926
g73
(dp927
g100
g101
ssg82
g917
sg75
(lp928
S':'
asbag68
(g89
g70
NtRp929
(dp930
g73
(dp931
sg82
g917
sg75
(lp932
g68
(g69
g70
NtRp933
(dp934
g73
(dp935
g81
I3
ssg82
g929
sg75
(lp936
S''
asbasbasbag68
(g84
g70
NtRp937
(dp938
g73
(dp939
sg82
g833
sg75
(lp940
g68
(g89
g70
NtRp941
(dp942
g73
(dp943
g93
g94
ssg82
g937
sg75
(lp944
g387
asbag68
(g89
g70
NtRp945
(dp946
g73
(dp947
g100
g101
ssg82
g937
sg75
(lp948
S':'
asbag68
(g89
g70
NtRp949
(dp950
g73
(dp951
sg82
g937
sg75
(lp952
g68
(g69
g70
NtRp953
(dp954
g73
(dp955
g81
I3
ssg82
g949
sg75
(lp956
S''
asbasbasbag68
(g84
g70
NtRp957
(dp958
g73
(dp959
sg82
g833
sg75
(lp960
g68
(g89
g70
NtRp961
(dp962
g73
(dp963
g93
g94
ssg82
g957
sg75
(lp964
g408
asbag68
(g89
g70
NtRp965
(dp966
g73
(dp967
g100
g101
ssg82
g957
sg75
(lp968
S':'
asbag68
(g89
g70
NtRp969
(dp970
g73
(dp971
sg82
g957
sg75
(lp972
g68
(g69
g70
NtRp973
(dp974
g73
(dp975
g81
I3
ssg82
g969
sg75
(lp976
S''
asbasbasbag68
(g84
g70
NtRp977
(dp978
g73
(dp979
sg82
g833
sg75
(lp980
g68
(g89
g70
NtRp981
(dp982
g73
(dp983
g93
g94
ssg82
g977
sg75
(lp984
g429
asbag68
(g89
g70
NtRp985
(dp986
g73
(dp987
g100
g101
ssg82
g977
sg75
(lp988
S':'
asbag68
(g89
g70
NtRp989
(dp990
g73
(dp991
sg82
g977
sg75
(lp992
g68
(g69
g70
NtRp993
(dp994
g73
(dp995
g81
I3
ssg82
g989
sg75
(lp996
S''
asbasbasbasbasbasbasbag68
(g84
g70
NtRp997
(dp998
g73
(dp999
sg82
g245
sg75
(lp1000
g68
(g89
g70
NtRp1001
(dp1002
g73
(dp1003
g93
g94
ssg82
g997
sg75
(lp1004
S'session_id_napp'
p1005
asbag68
(g89
g70
NtRp1006
(dp1007
g73
(dp1008
g100
g101
ssg82
g997
sg75
(lp1009
S':'
asbag68
(g89
g70
NtRp1010
(dp1011
g73
(dp1012
sg82
g997
sg75
(lp1013
g68
(g69
g70
NtRp1014
(dp1015
g73
(dp1016
g81
I4
ssg82
g1010
sg75
(lp1017
g68
(g77
g70
NtRp1018
(dp1019
g73
(dp1020
g81
I3
ssg82
Nsg75
(lp1021
g68
(g84
g70
NtRp1022
(dp1023
g73
(dp1024
sg82
g1018
sg75
(lp1025
g68
(g89
g70
NtRp1026
(dp1027
g73
(dp1028
g93
g94
ssg82
g1022
sg75
(lp1029
g282
asbag68
(g89
g70
NtRp1030
(dp1031
g73
(dp1032
g100
g101
ssg82
g1022
sg75
(lp1033
S':'
asbag68
(g89
g70
NtRp1034
(dp1035
g73
(dp1036
sg82
g1022
sg75
(lp1037
g68
(g69
g70
NtRp1038
(dp1039
g73
(dp1040
g81
I3
ssg82
g1034
sg75
(lp1041
S''
asbasbasbag68
(g84
g70
NtRp1042
(dp1043
g73
(dp1044
sg82
g1018
sg75
(lp1045
g68
(g89
g70
NtRp1046
(dp1047
g73
(dp1048
g93
g94
ssg82
g1042
sg75
(lp1049
g303
asbag68
(g89
g70
NtRp1050
(dp1051
g73
(dp1052
g100
g101
ssg82
g1042
sg75
(lp1053
S':'
asbag68
(g89
g70
NtRp1054
(dp1055
g73
(dp1056
sg82
g1042
sg75
(lp1057
g68
(g69
g70
NtRp1058
(dp1059
g73
(dp1060
g81
I3
ssg82
g1054
sg75
(lp1061
S''
asbasbasbag68
(g84
g70
NtRp1062
(dp1063
g73
(dp1064
sg82
g1018
sg75
(lp1065
g68
(g89
g70
NtRp1066
(dp1067
g73
(dp1068
g93
g94
ssg82
g1062
sg75
(lp1069
g324
asbag68
(g89
g70
NtRp1070
(dp1071
g73
(dp1072
g100
g101
ssg82
g1062
sg75
(lp1073
S':'
asbag68
(g89
g70
NtRp1074
(dp1075
g73
(dp1076
sg82
g1062
sg75
(lp1077
g68
(g69
g70
NtRp1078
(dp1079
g73
(dp1080
g81
I3
ssg82
g1074
sg75
(lp1081
S''
asbasbasbag68
(g84
g70
NtRp1082
(dp1083
g73
(dp1084
sg82
g1018
sg75
(lp1085
g68
(g89
g70
NtRp1086
(dp1087
g73
(dp1088
g93
g94
ssg82
g1082
sg75
(lp1089
g345
asbag68
(g89
g70
NtRp1090
(dp1091
g73
(dp1092
g100
g101
ssg82
g1082
sg75
(lp1093
S':'
asbag68
(g89
g70
NtRp1094
(dp1095
g73
(dp1096
sg82
g1082
sg75
(lp1097
g68
(g69
g70
NtRp1098
(dp1099
g73
(dp1100
g81
I3
ssg82
g1094
sg75
(lp1101
S''
asbasbasbag68
(g84
g70
NtRp1102
(dp1103
g73
(dp1104
sg82
g1018
sg75
(lp1105
g68
(g89
g70
NtRp1106
(dp1107
g73
(dp1108
g93
g94
ssg82
g1102
sg75
(lp1109
g366
asbag68
(g89
g70
NtRp1110
(dp1111
g73
(dp1112
g100
g101
ssg82
g1102
sg75
(lp1113
S':'
asbag68
(g89
g70
NtRp1114
(dp1115
g73
(dp1116
sg82
g1102
sg75
(lp1117
g68
(g69
g70
NtRp1118
(dp1119
g73
(dp1120
g81
I3
ssg82
g1114
sg75
(lp1121
S''
asbasbasbag68
(g84
g70
NtRp1122
(dp1123
g73
(dp1124
sg82
g1018
sg75
(lp1125
g68
(g89
g70
NtRp1126
(dp1127
g73
(dp1128
g93
g94
ssg82
g1122
sg75
(lp1129
g387
asbag68
(g89
g70
NtRp1130
(dp1131
g73
(dp1132
g100
g101
ssg82
g1122
sg75
(lp1133
S':'
asbag68
(g89
g70
NtRp1134
(dp1135
g73
(dp1136
sg82
g1122
sg75
(lp1137
g68
(g69
g70
NtRp1138
(dp1139
g73
(dp1140
g81
I3
ssg82
g1134
sg75
(lp1141
S''
asbasbasbag68
(g84
g70
NtRp1142
(dp1143
g73
(dp1144
sg82
g1018
sg75
(lp1145
g68
(g89
g70
NtRp1146
(dp1147
g73
(dp1148
g93
g94
ssg82
g1142
sg75
(lp1149
g408
asbag68
(g89
g70
NtRp1150
(dp1151
g73
(dp1152
g100
g101
ssg82
g1142
sg75
(lp1153
S':'
asbag68
(g89
g70
NtRp1154
(dp1155
g73
(dp1156
sg82
g1142
sg75
(lp1157
g68
(g69
g70
NtRp1158
(dp1159
g73
(dp1160
g81
I3
ssg82
g1154
sg75
(lp1161
S''
asbasbasbag68
(g84
g70
NtRp1162
(dp1163
g73
(dp1164
sg82
g1018
sg75
(lp1165
g68
(g89
g70
NtRp1166
(dp1167
g73
(dp1168
g93
g94
ssg82
g1162
sg75
(lp1169
g429
asbag68
(g89
g70
NtRp1170
(dp1171
g73
(dp1172
g100
g101
ssg82
g1162
sg75
(lp1173
S':'
asbag68
(g89
g70
NtRp1174
(dp1175
g73
(dp1176
sg82
g1162
sg75
(lp1177
g68
(g69
g70
NtRp1178
(dp1179
g73
(dp1180
g81
I3
ssg82
g1174
sg75
(lp1181
S''
asbasbasbasbasbasbasbag68
(g84
g70
NtRp1182
(dp1183
g73
(dp1184
sg82
g245
sg75
(lp1185
g68
(g89
g70
NtRp1186
(dp1187
g73
(dp1188
g93
g94
ssg82
g1182
sg75
(lp1189
S'session_id_welcome'
p1190
asbag68
(g89
g70
NtRp1191
(dp1192
g73
(dp1193
g100
g101
ssg82
g1182
sg75
(lp1194
S':'
asbag68
(g89
g70
NtRp1195
(dp1196
g73
(dp1197
sg82
g1182
sg75
(lp1198
g68
(g69
g70
NtRp1199
(dp1200
g73
(dp1201
g81
I4
ssg82
g1195
sg75
(lp1202
g68
(g77
g70
NtRp1203
(dp1204
g73
(dp1205
g81
I3
ssg82
Nsg75
(lp1206
g68
(g84
g70
NtRp1207
(dp1208
g73
(dp1209
sg82
g1203
sg75
(lp1210
g68
(g89
g70
NtRp1211
(dp1212
g73
(dp1213
g93
g94
ssg82
g1207
sg75
(lp1214
g282
asbag68
(g89
g70
NtRp1215
(dp1216
g73
(dp1217
g100
g101
ssg82
g1207
sg75
(lp1218
S':'
asbag68
(g89
g70
NtRp1219
(dp1220
g73
(dp1221
sg82
g1207
sg75
(lp1222
g68
(g69
g70
NtRp1223
(dp1224
g73
(dp1225
g81
I3
ssg82
g1219
sg75
(lp1226
S''
asbasbasbag68
(g84
g70
NtRp1227
(dp1228
g73
(dp1229
sg82
g1203
sg75
(lp1230
g68
(g89
g70
NtRp1231
(dp1232
g73
(dp1233
g93
g94
ssg82
g1227
sg75
(lp1234
g303
asbag68
(g89
g70
NtRp1235
(dp1236
g73
(dp1237
g100
g101
ssg82
g1227
sg75
(lp1238
S':'
asbag68
(g89
g70
NtRp1239
(dp1240
g73
(dp1241
sg82
g1227
sg75
(lp1242
g68
(g69
g70
NtRp1243
(dp1244
g73
(dp1245
g81
I3
ssg82
g1239
sg75
(lp1246
S''
asbasbasbag68
(g84
g70
NtRp1247
(dp1248
g73
(dp1249
sg82
g1203
sg75
(lp1250
g68
(g89
g70
NtRp1251
(dp1252
g73
(dp1253
g93
g94
ssg82
g1247
sg75
(lp1254
g324
asbag68
(g89
g70
NtRp1255
(dp1256
g73
(dp1257
g100
g101
ssg82
g1247
sg75
(lp1258
S':'
asbag68
(g89
g70
NtRp1259
(dp1260
g73
(dp1261
sg82
g1247
sg75
(lp1262
g68
(g69
g70
NtRp1263
(dp1264
g73
(dp1265
g81
I3
ssg82
g1259
sg75
(lp1266
S''
asbasbasbag68
(g84
g70
NtRp1267
(dp1268
g73
(dp1269
sg82
g1203
sg75
(lp1270
g68
(g89
g70
NtRp1271
(dp1272
g73
(dp1273
g93
g94
ssg82
g1267
sg75
(lp1274
g345
asbag68
(g89
g70
NtRp1275
(dp1276
g73
(dp1277
g100
g101
ssg82
g1267
sg75
(lp1278
S':'
asbag68
(g89
g70
NtRp1279
(dp1280
g73
(dp1281
sg82
g1267
sg75
(lp1282
g68
(g69
g70
NtRp1283
(dp1284
g73
(dp1285
g81
I3
ssg82
g1279
sg75
(lp1286
S''
asbasbasbag68
(g84
g70
NtRp1287
(dp1288
g73
(dp1289
sg82
g1203
sg75
(lp1290
g68
(g89
g70
NtRp1291
(dp1292
g73
(dp1293
g93
g94
ssg82
g1287
sg75
(lp1294
g366
asbag68
(g89
g70
NtRp1295
(dp1296
g73
(dp1297
g100
g101
ssg82
g1287
sg75
(lp1298
S':'
asbag68
(g89
g70
NtRp1299
(dp1300
g73
(dp1301
sg82
g1287
sg75
(lp1302
g68
(g69
g70
NtRp1303
(dp1304
g73
(dp1305
g81
I3
ssg82
g1299
sg75
(lp1306
S''
asbasbasbag68
(g84
g70
NtRp1307
(dp1308
g73
(dp1309
sg82
g1203
sg75
(lp1310
g68
(g89
g70
NtRp1311
(dp1312
g73
(dp1313
g93
g94
ssg82
g1307
sg75
(lp1314
g387
asbag68
(g89
g70
NtRp1315
(dp1316
g73
(dp1317
g100
g101
ssg82
g1307
sg75
(lp1318
S':'
asbag68
(g89
g70
NtRp1319
(dp1320
g73
(dp1321
sg82
g1307
sg75
(lp1322
g68
(g69
g70
NtRp1323
(dp1324
g73
(dp1325
g81
I3
ssg82
g1319
sg75
(lp1326
S''
asbasbasbag68
(g84
g70
NtRp1327
(dp1328
g73
(dp1329
sg82
g1203
sg75
(lp1330
g68
(g89
g70
NtRp1331
(dp1332
g73
(dp1333
g93
g94
ssg82
g1327
sg75
(lp1334
g408
asbag68
(g89
g70
NtRp1335
(dp1336
g73
(dp1337
g100
g101
ssg82
g1327
sg75
(lp1338
S':'
asbag68
(g89
g70
NtRp1339
(dp1340
g73
(dp1341
sg82
g1327
sg75
(lp1342
g68
(g69
g70
NtRp1343
(dp1344
g73
(dp1345
g81
I3
ssg82
g1339
sg75
(lp1346
S''
asbasbasbag68
(g84
g70
NtRp1347
(dp1348
g73
(dp1349
sg82
g1203
sg75
(lp1350
g68
(g89
g70
NtRp1351
(dp1352
g73
(dp1353
g93
g94
ssg82
g1347
sg75
(lp1354
g429
asbag68
(g89
g70
NtRp1355
(dp1356
g73
(dp1357
g100
g101
ssg82
g1347
sg75
(lp1358
S':'
asbag68
(g89
g70
NtRp1359
(dp1360
g73
(dp1361
sg82
g1347
sg75
(lp1362
g68
(g69
g70
NtRp1363
(dp1364
g73
(dp1365
g81
I3
ssg82
g1359
sg75
(lp1366
S''
asbasbasbasbasbasbasbasbasbasbasbag68
(g84
g70
NtRp1367
(dp1368
g73
(dp1369
sg82
g78
sg75
(lp1370
g68
(g89
g70
NtRp1371
(dp1372
g73
(dp1373
g93
g94
ssg82
g1367
sg75
(lp1374
S'env'
p1375
asbag68
(g89
g70
NtRp1376
(dp1377
g73
(dp1378
g100
g101
ssg82
g1367
sg75
(lp1379
S':'
asbag68
(g89
g70
NtRp1380
(dp1381
g73
(dp1382
sg82
g1367
sg75
(lp1383
g68
(g69
g70
NtRp1384
(dp1385
g73
(dp1386
g81
I5
ssg82
g1380
sg75
(lp1387
g68
(g77
g70
NtRp1388
(dp1389
g73
(dp1390
g81
I4
ssg82
Nsg75
(lp1391
g68
(g84
g70
NtRp1392
(dp1393
g73
(dp1394
sg82
g1388
sg75
(lp1395
g68
(g89
g70
NtRp1396
(dp1397
g73
(dp1398
g93
g94
ssg82
g1392
sg75
(lp1399
S'app_folders'
p1400
asbag68
(g89
g70
NtRp1401
(dp1402
g73
(dp1403
g100
g101
ssg82
g1392
sg75
(lp1404
S':'
asbag68
(g89
g70
NtRp1405
(dp1406
g73
(dp1407
sg82
g1392
sg75
(lp1408
g68
(g69
g70
NtRp1409
(dp1410
g73
(dp1411
g81
I4
ssg82
g1405
sg75
(lp1412
S"set(['/home/marco/proyectos/web2py-trunk/applications/mvstore/', '/home/marco/proyectos/web2py-trunk/applications/admin/', '/home/marco/proyectos/web2py-trunk/applications/jornadasdemo/', '/home/marco/proyectos/web2py-trunk/applications/welcome/', '/home/marco/proyectos/web2py-trunk/applications/napp/', '/home/marco/proyectos/web2py-trunk/applications/conf2py/', '/home/marco/proyectos/web2py-trunk/applications/moviestore/'])"
p1413
asbasbasbag68
(g84
g70
NtRp1414
(dp1415
g73
(dp1416
sg82
g1388
sg75
(lp1417
g68
(g89
g70
NtRp1418
(dp1419
g73
(dp1420
g93
g94
ssg82
g1414
sg75
(lp1421
S'applications_parent'
p1422
asbag68
(g89
g70
NtRp1423
(dp1424
g73
(dp1425
g100
g101
ssg82
g1414
sg75
(lp1426
S':'
asbag68
(g89
g70
NtRp1427
(dp1428
g73
(dp1429
sg82
g1414
sg75
(lp1430
g68
(g69
g70
NtRp1431
(dp1432
g73
(dp1433
g81
I4
ssg82
g1427
sg75
(lp1434
S'/home/marco/proyectos/web2py-trunk'
p1435
asbasbasbag68
(g84
g70
NtRp1436
(dp1437
g73
(dp1438
sg82
g1388
sg75
(lp1439
g68
(g89
g70
NtRp1440
(dp1441
g73
(dp1442
g93
g94
ssg82
g1436
sg75
(lp1443
S'cmd_args'
p1444
asbag68
(g89
g70
NtRp1445
(dp1446
g73
(dp1447
g100
g101
ssg82
g1436
sg75
(lp1448
S':'
asbag68
(g89
g70
NtRp1449
(dp1450
g73
(dp1451
sg82
g1436
sg75
(lp1452
g68
(g69
g70
NtRp1453
(dp1454
g73
(dp1455
g81
I4
ssg82
g1449
sg75
(lp1456
g68
(g77
g70
NtRp1457
(dp1458
g73
(dp1459
g81
I3
ssg82
Nsg75
(lp1460
sbasbasbasbag68
(g84
g70
NtRp1461
(dp1462
g73
(dp1463
sg82
g1388
sg75
(lp1464
g68
(g89
g70
NtRp1465
(dp1466
g73
(dp1467
g93
g94
ssg82
g1461
sg75
(lp1468
S'cmd_options'
p1469
asbag68
(g89
g70
NtRp1470
(dp1471
g73
(dp1472
g100
g101
ssg82
g1461
sg75
(lp1473
S':'
asbag68
(g89
g70
NtRp1474
(dp1475
g73
(dp1476
sg82
g1461
sg75
(lp1477
g68
(g69
g70
NtRp1478
(dp1479
g73
(dp1480
g81
I4
ssg82
g1474
sg75
(lp1481
S"<Values at 0x1ffcb90: {'verbose': False, 'ip': '127.0.0.1', 'shutdown_timeout': 5, 'taskbar': False, 'port': 8000, 'maxthreads': None, 'softcron': False, 'server_name': 'kiki', 'bpython': False, 'nogui': False, 'nocron': False, 'extcron': False, 'debuglevel': 30, 'test': None, 'folder': '/home/marco/proyectos/web2py-trunk', 'config': '', 'import_models': False, 'winservice': '', 'shell': None, 'run': '', 'log_filename': 'httpserver.log', 'args': [''], 'profiler_filename': None, 'ssl_private_key': '', 'password': '<ask>', 'request_queue_size': 5, 'ssl_certificate': '', 'cronjob': False, 'plain': False, 'quiet': False, 'interfaces': None, 'minthreads': None, 'timeout': 10, 'numthreads': None, 'nobanner': False, 'pid_filename': 'httpserver.pid'}>"
p1482
asbasbasbag68
(g84
g70
NtRp1483
(dp1484
g73
(dp1485
sg82
g1388
sg75
(lp1486
g68
(g89
g70
NtRp1487
(dp1488
g73
(dp1489
g93
g94
ssg82
g1483
sg75
(lp1490
S'db_sessions'
p1491
asbag68
(g89
g70
NtRp1492
(dp1493
g73
(dp1494
g100
g101
ssg82
g1483
sg75
(lp1495
S':'
asbag68
(g89
g70
NtRp1496
(dp1497
g73
(dp1498
sg82
g1483
sg75
(lp1499
g68
(g69
g70
NtRp1500
(dp1501
g73
(dp1502
g81
I4
ssg82
g1496
sg75
(lp1503
S'set([])'
p1504
asbasbasbag68
(g84
g70
NtRp1505
(dp1506
g73
(dp1507
sg82
g1388
sg75
(lp1508
g68
(g89
g70
NtRp1509
(dp1510
g73
(dp1511
g93
g94
ssg82
g1505
sg75
(lp1512
S'debugging'
p1513
asbag68
(g89
g70
NtRp1514
(dp1515
g73
(dp1516
g100
g101
ssg82
g1505
sg75
(lp1517
S':'
asbag68
(g89
g70
NtRp1518
(dp1519
g73
(dp1520
sg82
g1505
sg75
(lp1521
g68
(g69
g70
NtRp1522
(dp1523
g73
(dp1524
g81
I4
ssg82
g1518
sg75
(lp1525
g111
asbasbasbag68
(g84
g70
NtRp1526
(dp1527
g73
(dp1528
sg82
g1388
sg75
(lp1529
g68
(g89
g70
NtRp1530
(dp1531
g73
(dp1532
g93
g94
ssg82
g1526
sg75
(lp1533
S'gluon_parent'
p1534
asbag68
(g89
g70
NtRp1535
(dp1536
g73
(dp1537
g100
g101
ssg82
g1526
sg75
(lp1538
S':'
asbag68
(g89
g70
NtRp1539
(dp1540
g73
(dp1541
sg82
g1526
sg75
(lp1542
g68
(g69
g70
NtRp1543
(dp1544
g73
(dp1545
g81
I4
ssg82
g1539
sg75
(lp1546
S'/home/marco/proyectos/web2py-trunk'
p1547
asbasbasbag68
(g84
g70
NtRp1548
(dp1549
g73
(dp1550
sg82
g1388
sg75
(lp1551
g68
(g89
g70
NtRp1552
(dp1553
g73
(dp1554
g93
g94
ssg82
g1548
sg75
(lp1555
S'http_accept'
p1556
asbag68
(g89
g70
NtRp1557
(dp1558
g73
(dp1559
g100
g101
ssg82
g1548
sg75
(lp1560
S':'
asbag68
(g89
g70
NtRp1561
(dp1562
g73
(dp1563
sg82
g1548
sg75
(lp1564
g68
(g69
g70
NtRp1565
(dp1566
g73
(dp1567
g81
I4
ssg82
g1561
sg75
(lp1568
S'application/xml,application/xhtml+xml,text/html;q=0.9,text/plain;q=0.8,image/png,*/*;q=0.5'
p1569
asbasbasbag68
(g84
g70
NtRp1570
(dp1571
g73
(dp1572
sg82
g1388
sg75
(lp1573
g68
(g89
g70
NtRp1574
(dp1575
g73
(dp1576
g93
g94
ssg82
g1570
sg75
(lp1577
S'http_accept_charset'
p1578
asbag68
(g89
g70
NtRp1579
(dp1580
g73
(dp1581
g100
g101
ssg82
g1570
sg75
(lp1582
S':'
asbag68
(g89
g70
NtRp1583
(dp1584
g73
(dp1585
sg82
g1570
sg75
(lp1586
g68
(g69
g70
NtRp1587
(dp1588
g73
(dp1589
g81
I4
ssg82
g1583
sg75
(lp1590
S'ISO-8859-1,utf-8;q=0.7,*;q=0.3'
p1591
asbasbasbag68
(g84
g70
NtRp1592
(dp1593
g73
(dp1594
sg82
g1388
sg75
(lp1595
g68
(g89
g70
NtRp1596
(dp1597
g73
(dp1598
g93
g94
ssg82
g1592
sg75
(lp1599
S'http_accept_encoding'
p1600
asbag68
(g89
g70
NtRp1601
(dp1602
g73
(dp1603
g100
g101
ssg82
g1592
sg75
(lp1604
S':'
asbag68
(g89
g70
NtRp1605
(dp1606
g73
(dp1607
sg82
g1592
sg75
(lp1608
g68
(g69
g70
NtRp1609
(dp1610
g73
(dp1611
g81
I4
ssg82
g1605
sg75
(lp1612
S'gzip,deflate,sdch'
p1613
asbasbasbag68
(g84
g70
NtRp1614
(dp1615
g73
(dp1616
sg82
g1388
sg75
(lp1617
g68
(g89
g70
NtRp1618
(dp1619
g73
(dp1620
g93
g94
ssg82
g1614
sg75
(lp1621
S'http_accept_language'
p1622
asbag68
(g89
g70
NtRp1623
(dp1624
g73
(dp1625
g100
g101
ssg82
g1614
sg75
(lp1626
S':'
asbag68
(g89
g70
NtRp1627
(dp1628
g73
(dp1629
sg82
g1614
sg75
(lp1630
g68
(g69
g70
NtRp1631
(dp1632
g73
(dp1633
g81
I4
ssg82
g1627
sg75
(lp1634
S'es-419,es;q=0.8'
p1635
asbasbasbag68
(g84
g70
NtRp1636
(dp1637
g73
(dp1638
sg82
g1388
sg75
(lp1639
g68
(g89
g70
NtRp1640
(dp1641
g73
(dp1642
g93
g94
ssg82
g1636
sg75
(lp1643
S'http_cache_control'
p1644
asbag68
(g89
g70
NtRp1645
(dp1646
g73
(dp1647
g100
g101
ssg82
g1636
sg75
(lp1648
S':'
asbag68
(g89
g70
NtRp1649
(dp1650
g73
(dp1651
sg82
g1636
sg75
(lp1652
g68
(g69
g70
NtRp1653
(dp1654
g73
(dp1655
g81
I4
ssg82
g1649
sg75
(lp1656
S'max-age=0'
p1657
asbasbasbag68
(g84
g70
NtRp1658
(dp1659
g73
(dp1660
sg82
g1388
sg75
(lp1661
g68
(g89
g70
NtRp1662
(dp1663
g73
(dp1664
g93
g94
ssg82
g1658
sg75
(lp1665
S'http_connection'
p1666
asbag68
(g89
g70
NtRp1667
(dp1668
g73
(dp1669
g100
g101
ssg82
g1658
sg75
(lp1670
S':'
asbag68
(g89
g70
NtRp1671
(dp1672
g73
(dp1673
sg82
g1658
sg75
(lp1674
g68
(g69
g70
NtRp1675
(dp1676
g73
(dp1677
g81
I4
ssg82
g1671
sg75
(lp1678
S'keep-alive'
p1679
asbasbasbag68
(g84
g70
NtRp1680
(dp1681
g73
(dp1682
sg82
g1388
sg75
(lp1683
g68
(g89
g70
NtRp1684
(dp1685
g73
(dp1686
g93
g94
ssg82
g1680
sg75
(lp1687
S'http_cookie'
p1688
asbag68
(g89
g70
NtRp1689
(dp1690
g73
(dp1691
g100
g101
ssg82
g1680
sg75
(lp1692
S':'
asbag68
(g89
g70
NtRp1693
(dp1694
g73
(dp1695
sg82
g1680
sg75
(lp1696
g68
(g69
g70
NtRp1697
(dp1698
g73
(dp1699
g81
I4
ssg82
g1693
sg75
(lp1700
S'session_id_welcome=127.0.0.1-42aeeffb-91ad-41cf-a19a-c542b618bc3b; session_id_jornadasdemo=127.0.0.1-c2aedcb7-3cda-4472-95a7-e206025ae0aa; session_id_moviestore=127.0.0.1-b659915f-a893-4edf-9389-3d1d816b6d14; session_id_napp=127.0.0.1-5892b436-4013-46df-be21-176a66b88855; session_id_admin=127.0.0.1-6d5f70af-c182-4a4b-bb48-a3442921674a; session_id_mvstore=127.0.0.1-0b059b4c-5741-4722-be03-f31fed87a8d7'
p1701
asbasbasbag68
(g84
g70
NtRp1702
(dp1703
g73
(dp1704
sg82
g1388
sg75
(lp1705
g68
(g89
g70
NtRp1706
(dp1707
g73
(dp1708
g93
g94
ssg82
g1702
sg75
(lp1709
S'http_host'
p1710
asbag68
(g89
g70
NtRp1711
(dp1712
g73
(dp1713
g100
g101
ssg82
g1702
sg75
(lp1714
S':'
asbag68
(g89
g70
NtRp1715
(dp1716
g73
(dp1717
sg82
g1702
sg75
(lp1718
g68
(g69
g70
NtRp1719
(dp1720
g73
(dp1721
g81
I4
ssg82
g1715
sg75
(lp1722
S'127.0.0.1:8000'
p1723
asbasbasbag68
(g84
g70
NtRp1724
(dp1725
g73
(dp1726
sg82
g1388
sg75
(lp1727
g68
(g89
g70
NtRp1728
(dp1729
g73
(dp1730
g93
g94
ssg82
g1724
sg75
(lp1731
S'http_referer'
p1732
asbag68
(g89
g70
NtRp1733
(dp1734
g73
(dp1735
g100
g101
ssg82
g1724
sg75
(lp1736
S':'
asbag68
(g89
g70
NtRp1737
(dp1738
g73
(dp1739
sg82
g1724
sg75
(lp1740
g68
(g69
g70
NtRp1741
(dp1742
g73
(dp1743
g81
I4
ssg82
g1737
sg75
(lp1744
S'http://127.0.0.1:8000/admin/default/design/mvstore'
p1745
asbasbasbag68
(g84
g70
NtRp1746
(dp1747
g73
(dp1748
sg82
g1388
sg75
(lp1749
g68
(g89
g70
NtRp1750
(dp1751
g73
(dp1752
g93
g94
ssg82
g1746
sg75
(lp1753
S'http_user_agent'
p1754
asbag68
(g89
g70
NtRp1755
(dp1756
g73
(dp1757
g100
g101
ssg82
g1746
sg75
(lp1758
S':'
asbag68
(g89
g70
NtRp1759
(dp1760
g73
(dp1761
sg82
g1746
sg75
(lp1762
g68
(g69
g70
NtRp1763
(dp1764
g73
(dp1765
g81
I4
ssg82
g1759
sg75
(lp1766
S'Mozilla/5.0 (X11; Linux x86_64) AppleWebKit/534.24 (KHTML, like Gecko) Chrome/11.0.696.71 Safari/534.24'
p1767
asbasbasbag68
(g84
g70
NtRp1768
(dp1769
g73
(dp1770
sg82
g1388
sg75
(lp1771
g68
(g89
g70
NtRp1772
(dp1773
g73
(dp1774
g93
g94
ssg82
g1768
sg75
(lp1775
S'path_info'
p1776
asbag68
(g89
g70
NtRp1777
(dp1778
g73
(dp1779
g100
g101
ssg82
g1768
sg75
(lp1780
S':'
asbag68
(g89
g70
NtRp1781
(dp1782
g73
(dp1783
sg82
g1768
sg75
(lp1784
g68
(g69
g70
NtRp1785
(dp1786
g73
(dp1787
g81
I4
ssg82
g1781
sg75
(lp1788
S'/mvstore/default/peliculas'
p1789
asbasbasbag68
(g84
g70
NtRp1790
(dp1791
g73
(dp1792
sg82
g1388
sg75
(lp1793
g68
(g89
g70
NtRp1794
(dp1795
g73
(dp1796
g93
g94
ssg82
g1790
sg75
(lp1797
S'query_string'
p1798
asbag68
(g89
g70
NtRp1799
(dp1800
g73
(dp1801
g100
g101
ssg82
g1790
sg75
(lp1802
S':'
asbag68
(g89
g70
NtRp1803
(dp1804
g73
(dp1805
sg82
g1790
sg75
(lp1806
g68
(g69
g70
NtRp1807
(dp1808
g73
(dp1809
g81
I4
ssg82
g1803
sg75
(lp1810
S''
asbasbasbag68
(g84
g70
NtRp1811
(dp1812
g73
(dp1813
sg82
g1388
sg75
(lp1814
g68
(g89
g70
NtRp1815
(dp1816
g73
(dp1817
g93
g94
ssg82
g1811
sg75
(lp1818
S'remote_addr'
p1819
asbag68
(g89
g70
NtRp1820
(dp1821
g73
(dp1822
g100
g101
ssg82
g1811
sg75
(lp1823
S':'
asbag68
(g89
g70
NtRp1824
(dp1825
g73
(dp1826
sg82
g1811
sg75
(lp1827
g68
(g69
g70
NtRp1828
(dp1829
g73
(dp1830
g81
I4
ssg82
g1824
sg75
(lp1831
g201
asbasbasbag68
(g84
g70
NtRp1832
(dp1833
g73
(dp1834
sg82
g1388
sg75
(lp1835
g68
(g89
g70
NtRp1836
(dp1837
g73
(dp1838
g93
g94
ssg82
g1832
sg75
(lp1839
S'remote_port'
p1840
asbag68
(g89
g70
NtRp1841
(dp1842
g73
(dp1843
g100
g101
ssg82
g1832
sg75
(lp1844
S':'
asbag68
(g89
g70
NtRp1845
(dp1846
g73
(dp1847
sg82
g1832
sg75
(lp1848
g68
(g69
g70
NtRp1849
(dp1850
g73
(dp1851
g81
I4
ssg82
g1845
sg75
(lp1852
S'47055'
p1853
asbasbasbag68
(g84
g70
NtRp1854
(dp1855
g73
(dp1856
sg82
g1388
sg75
(lp1857
g68
(g89
g70
NtRp1858
(dp1859
g73
(dp1860
g93
g94
ssg82
g1854
sg75
(lp1861
S'request_method'
p1862
asbag68
(g89
g70
NtRp1863
(dp1864
g73
(dp1865
g100
g101
ssg82
g1854
sg75
(lp1866
S':'
asbag68
(g89
g70
NtRp1867
(dp1868
g73
(dp1869
sg82
g1854
sg75
(lp1870
g68
(g69
g70
NtRp1871
(dp1872
g73
(dp1873
g81
I4
ssg82
g1867
sg75
(lp1874
S'GET'
p1875
asbasbasbag68
(g84
g70
NtRp1876
(dp1877
g73
(dp1878
sg82
g1388
sg75
(lp1879
g68
(g89
g70
NtRp1880
(dp1881
g73
(dp1882
g93
g94
ssg82
g1876
sg75
(lp1883
S'script_name'
p1884
asbag68
(g89
g70
NtRp1885
(dp1886
g73
(dp1887
g100
g101
ssg82
g1876
sg75
(lp1888
S':'
asbag68
(g89
g70
NtRp1889
(dp1890
g73
(dp1891
sg82
g1876
sg75
(lp1892
g68
(g69
g70
NtRp1893
(dp1894
g73
(dp1895
g81
I4
ssg82
g1889
sg75
(lp1896
S''
asbasbasbag68
(g84
g70
NtRp1897
(dp1898
g73
(dp1899
sg82
g1388
sg75
(lp1900
g68
(g89
g70
NtRp1901
(dp1902
g73
(dp1903
g93
g94
ssg82
g1897
sg75
(lp1904
S'server_name'
p1905
asbag68
(g89
g70
NtRp1906
(dp1907
g73
(dp1908
g100
g101
ssg82
g1897
sg75
(lp1909
S':'
asbag68
(g89
g70
NtRp1910
(dp1911
g73
(dp1912
sg82
g1897
sg75
(lp1913
g68
(g69
g70
NtRp1914
(dp1915
g73
(dp1916
g81
I4
ssg82
g1910
sg75
(lp1917
S'kiki'
p1918
asbasbasbag68
(g84
g70
NtRp1919
(dp1920
g73
(dp1921
sg82
g1388
sg75
(lp1922
g68
(g89
g70
NtRp1923
(dp1924
g73
(dp1925
g93
g94
ssg82
g1919
sg75
(lp1926
S'server_port'
p1927
asbag68
(g89
g70
NtRp1928
(dp1929
g73
(dp1930
g100
g101
ssg82
g1919
sg75
(lp1931
S':'
asbag68
(g89
g70
NtRp1932
(dp1933
g73
(dp1934
sg82
g1919
sg75
(lp1935
g68
(g69
g70
NtRp1936
(dp1937
g73
(dp1938
g81
I4
ssg82
g1932
sg75
(lp1939
S'8000'
p1940
asbasbasbag68
(g84
g70
NtRp1941
(dp1942
g73
(dp1943
sg82
g1388
sg75
(lp1944
g68
(g89
g70
NtRp1945
(dp1946
g73
(dp1947
g93
g94
ssg82
g1941
sg75
(lp1948
S'server_protocol'
p1949
asbag68
(g89
g70
NtRp1950
(dp1951
g73
(dp1952
g100
g101
ssg82
g1941
sg75
(lp1953
S':'
asbag68
(g89
g70
NtRp1954
(dp1955
g73
(dp1956
sg82
g1941
sg75
(lp1957
g68
(g69
g70
NtRp1958
(dp1959
g73
(dp1960
g81
I4
ssg82
g1954
sg75
(lp1961
S'HTTP/1.1'
p1962
asbasbasbag68
(g84
g70
NtRp1963
(dp1964
g73
(dp1965
sg82
g1388
sg75
(lp1966
g68
(g89
g70
NtRp1967
(dp1968
g73
(dp1969
g93
g94
ssg82
g1963
sg75
(lp1970
S'server_software'
p1971
asbag68
(g89
g70
NtRp1972
(dp1973
g73
(dp1974
g100
g101
ssg82
g1963
sg75
(lp1975
S':'
asbag68
(g89
g70
NtRp1976
(dp1977
g73
(dp1978
sg82
g1963
sg75
(lp1979
g68
(g69
g70
NtRp1980
(dp1981
g73
(dp1982
g81
I4
ssg82
g1976
sg75
(lp1983
S'Rocket 1.2.2'
p1984
asbasbasbag68
(g84
g70
NtRp1985
(dp1986
g73
(dp1987
sg82
g1388
sg75
(lp1988
g68
(g89
g70
NtRp1989
(dp1990
g73
(dp1991
g93
g94
ssg82
g1985
sg75
(lp1992
S'web2py_crontype'
p1993
asbag68
(g89
g70
NtRp1994
(dp1995
g73
(dp1996
g100
g101
ssg82
g1985
sg75
(lp1997
S':'
asbag68
(g89
g70
NtRp1998
(dp1999
g73
(dp2000
sg82
g1985
sg75
(lp2001
g68
(g69
g70
NtRp2002
(dp2003
g73
(dp2004
g81
I4
ssg82
g1998
sg75
(lp2005
S'hard'
p2006
asbasbasbag68
(g84
g70
NtRp2007
(dp2008
g73
(dp2009
sg82
g1388
sg75
(lp2010
g68
(g89
g70
NtRp2011
(dp2012
g73
(dp2013
g93
g94
ssg82
g2007
sg75
(lp2014
S'web2py_path'
p2015
asbag68
(g89
g70
NtRp2016
(dp2017
g73
(dp2018
g100
g101
ssg82
g2007
sg75
(lp2019
S':'
asbag68
(g89
g70
NtRp2020
(dp2021
g73
(dp2022
sg82
g2007
sg75
(lp2023
g68
(g69
g70
NtRp2024
(dp2025
g73
(dp2026
g81
I4
ssg82
g2020
sg75
(lp2027
g1435
asbasbasbag68
(g84
g70
NtRp2028
(dp2029
g73
(dp2030
sg82
g1388
sg75
(lp2031
g68
(g89
g70
NtRp2032
(dp2033
g73
(dp2034
g93
g94
ssg82
g2028
sg75
(lp2035
S'web2py_version'
p2036
asbag68
(g89
g70
NtRp2037
(dp2038
g73
(dp2039
g100
g101
ssg82
g2028
sg75
(lp2040
S':'
asbag68
(g89
g70
NtRp2041
(dp2042
g73
(dp2043
sg82
g2028
sg75
(lp2044
g68
(g69
g70
NtRp2045
(dp2046
g73
(dp2047
g81
I4
ssg82
g2041
sg75
(lp2048
S'        iersion 1.94.1 (2011-03-17 16:30:58)\n'
p2049
asbasbasbag68
(g84
g70
NtRp2050
(dp2051
g73
(dp2052
sg82
g1388
sg75
(lp2053
g68
(g89
g70
NtRp2054
(dp2055
g73
(dp2056
g93
g94
ssg82
g2050
sg75
(lp2057
S'wsgi_errors'
p2058
asbag68
(g89
g70
NtRp2059
(dp2060
g73
(dp2061
g100
g101
ssg82
g2050
sg75
(lp2062
S':'
asbag68
(g89
g70
NtRp2063
(dp2064
g73
(dp2065
sg82
g2050
sg75
(lp2066
g68
(g69
g70
NtRp2067
(dp2068
g73
(dp2069
g81
I4
ssg82
g2063
sg75
(lp2070
S"<open file '<stderr>', mode 'w' at 0x7f8a1045a1e0>"
p2071
asbasbasbag68
(g84
g70
NtRp2072
(dp2073
g73
(dp2074
sg82
g1388
sg75
(lp2075
g68
(g89
g70
NtRp2076
(dp2077
g73
(dp2078
g93
g94
ssg82
g2072
sg75
(lp2079
S'wsgi_file_wrapper'
p2080
asbag68
(g89
g70
NtRp2081
(dp2082
g73
(dp2083
g100
g101
ssg82
g2072
sg75
(lp2084
S':'
asbag68
(g89
g70
NtRp2085
(dp2086
g73
(dp2087
sg82
g2072
sg75
(lp2088
g68
(g69
g70
NtRp2089
(dp2090
g73
(dp2091
g81
I4
ssg82
g2085
sg75
(lp2092
S'<class gluon.rocket.FileWrapper at 0x1e6f3b0>'
p2093
asbasbasbag68
(g84
g70
NtRp2094
(dp2095
g73
(dp2096
sg82
g1388
sg75
(lp2097
g68
(g89
g70
NtRp2098
(dp2099
g73
(dp2100
g93
g94
ssg82
g2094
sg75
(lp2101
S'wsgi_input'
p2102
asbag68
(g89
g70
NtRp2103
(dp2104
g73
(dp2105
g100
g101
ssg82
g2094
sg75
(lp2106
S':'
asbag68
(g89
g70
NtRp2107
(dp2108
g73
(dp2109
sg82
g2094
sg75
(lp2110
g68
(g69
g70
NtRp2111
(dp2112
g73
(dp2113
g81
I4
ssg82
g2107
sg75
(lp2114
S'<socket._fileobject object at 0x27a96d0>'
p2115
asbasbasbag68
(g84
g70
NtRp2116
(dp2117
g73
(dp2118
sg82
g1388
sg75
(lp2119
g68
(g89
g70
NtRp2120
(dp2121
g73
(dp2122
g93
g94
ssg82
g2116
sg75
(lp2123
S'wsgi_multiprocess'
p2124
asbag68
(g89
g70
NtRp2125
(dp2126
g73
(dp2127
g100
g101
ssg82
g2116
sg75
(lp2128
S':'
asbag68
(g89
g70
NtRp2129
(dp2130
g73
(dp2131
sg82
g2116
sg75
(lp2132
g68
(g69
g70
NtRp2133
(dp2134
g73
(dp2135
g81
I4
ssg82
g2129
sg75
(lp2136
g111
asbasbasbag68
(g84
g70
NtRp2137
(dp2138
g73
(dp2139
sg82
g1388
sg75
(lp2140
g68
(g89
g70
NtRp2141
(dp2142
g73
(dp2143
g93
g94
ssg82
g2137
sg75
(lp2144
S'wsgi_multithread'
p2145
asbag68
(g89
g70
NtRp2146
(dp2147
g73
(dp2148
g100
g101
ssg82
g2137
sg75
(lp2149
S':'
asbag68
(g89
g70
NtRp2150
(dp2151
g73
(dp2152
sg82
g2137
sg75
(lp2153
g68
(g69
g70
NtRp2154
(dp2155
g73
(dp2156
g81
I4
ssg82
g2150
sg75
(lp2157
S'True'
p2158
asbasbasbag68
(g84
g70
NtRp2159
(dp2160
g73
(dp2161
sg82
g1388
sg75
(lp2162
g68
(g89
g70
NtRp2163
(dp2164
g73
(dp2165
g93
g94
ssg82
g2159
sg75
(lp2166
S'wsgi_run_once'
p2167
asbag68
(g89
g70
NtRp2168
(dp2169
g73
(dp2170
g100
g101
ssg82
g2159
sg75
(lp2171
S':'
asbag68
(g89
g70
NtRp2172
(dp2173
g73
(dp2174
sg82
g2159
sg75
(lp2175
g68
(g69
g70
NtRp2176
(dp2177
g73
(dp2178
g81
I4
ssg82
g2172
sg75
(lp2179
g111
asbasbasbag68
(g84
g70
NtRp2180
(dp2181
g73
(dp2182
sg82
g1388
sg75
(lp2183
g68
(g89
g70
NtRp2184
(dp2185
g73
(dp2186
g93
g94
ssg82
g2180
sg75
(lp2187
S'wsgi_url_scheme'
p2188
asbag68
(g89
g70
NtRp2189
(dp2190
g73
(dp2191
g100
g101
ssg82
g2180
sg75
(lp2192
S':'
asbag68
(g89
g70
NtRp2193
(dp2194
g73
(dp2195
sg82
g2180
sg75
(lp2196
g68
(g69
g70
NtRp2197
(dp2198
g73
(dp2199
g81
I4
ssg82
g2193
sg75
(lp2200
S'http'
p2201
asbasbasbag68
(g84
g70
NtRp2202
(dp2203
g73
(dp2204
sg82
g1388
sg75
(lp2205
g68
(g89
g70
NtRp2206
(dp2207
g73
(dp2208
g93
g94
ssg82
g2202
sg75
(lp2209
S'wsgi_version'
p2210
asbag68
(g89
g70
NtRp2211
(dp2212
g73
(dp2213
g100
g101
ssg82
g2202
sg75
(lp2214
S':'
asbag68
(g89
g70
NtRp2215
(dp2216
g73
(dp2217
sg82
g2202
sg75
(lp2218
g68
(g69
g70
NtRp2219
(dp2220
g73
(dp2221
g81
I4
ssg82
g2215
sg75
(lp2222
g68
(g77
g70
NtRp2223
(dp2224
g73
(dp2225
g81
I3
ssg82
Nsg75
(lp2226
g68
(g84
g70
NtRp2227
(dp2228
g73
(dp2229
sg82
g2223
sg75
(lp2230
g68
(g89
g70
NtRp2231
(dp2232
g73
(dp2233
sg82
g2227
sg75
(lp2234
g68
(g69
g70
NtRp2235
(dp2236
g73
(dp2237
g81
I3
ssg82
g2231
sg75
(lp2238
S'1'
asbasbasbag68
(g84
g70
NtRp2239
(dp2240
g73
(dp2241
sg82
g2223
sg75
(lp2242
g68
(g89
g70
NtRp2243
(dp2244
g73
(dp2245
sg82
g2239
sg75
(lp2246
g68
(g69
g70
NtRp2247
(dp2248
g73
(dp2249
g81
I3
ssg82
g2243
sg75
(lp2250
S'0'
asbasbasbasbasbasbasbasbasbasbasbag68
(g84
g70
NtRp2251
(dp2252
g73
(dp2253
sg82
g78
sg75
(lp2254
g68
(g89
g70
NtRp2255
(dp2256
g73
(dp2257
g93
g94
ssg82
g2251
sg75
(lp2258
S'extension'
p2259
asbag68
(g89
g70
NtRp2260
(dp2261
g73
(dp2262
g100
g101
ssg82
g2251
sg75
(lp2263
S':'
asbag68
(g89
g70
NtRp2264
(dp2265
g73
(dp2266
sg82
g2251
sg75
(lp2267
g68
(g69
g70
NtRp2268
(dp2269
g73
(dp2270
g81
I5
ssg82
g2264
sg75
(lp2271
S'html'
p2272
asbasbasbag68
(g84
g70
NtRp2273
(dp2274
g73
(dp2275
sg82
g78
sg75
(lp2276
g68
(g89
g70
NtRp2277
(dp2278
g73
(dp2279
g93
g94
ssg82
g2273
sg75
(lp2280
S'folder'
p2281
asbag68
(g89
g70
NtRp2282
(dp2283
g73
(dp2284
g100
g101
ssg82
g2273
sg75
(lp2285
S':'
asbag68
(g89
g70
NtRp2286
(dp2287
g73
(dp2288
sg82
g2273
sg75
(lp2289
g68
(g69
g70
NtRp2290
(dp2291
g73
(dp2292
g81
I5
ssg82
g2286
sg75
(lp2293
S'/home/marco/proyectos/web2py-trunk/applications/mvstore/'
p2294
asbasbasbag68
(g84
g70
NtRp2295
(dp2296
g73
(dp2297
sg82
g78
sg75
(lp2298
g68
(g89
g70
NtRp2299
(dp2300
g73
(dp2301
g93
g94
ssg82
g2295
sg75
(lp2302
S'function'
p2303
asbag68
(g89
g70
NtRp2304
(dp2305
g73
(dp2306
g100
g101
ssg82
g2295
sg75
(lp2307
S':'
asbag68
(g89
g70
NtRp2308
(dp2309
g73
(dp2310
sg82
g2295
sg75
(lp2311
g68
(g69
g70
NtRp2312
(dp2313
g73
(dp2314
g81
I5
ssg82
g2308
sg75
(lp2315
S'peliculas'
p2316
asbasbasbag68
(g84
g70
NtRp2317
(dp2318
g73
(dp2319
sg82
g78
sg75
(lp2320
g68
(g89
g70
NtRp2321
(dp2322
g73
(dp2323
g93
g94
ssg82
g2317
sg75
(lp2324
S'get_vars'
p2325
asbag68
(g89
g70
NtRp2326
(dp2327
g73
(dp2328
g100
g101
ssg82
g2317
sg75
(lp2329
S':'
asbag68
(g89
g70
NtRp2330
(dp2331
g73
(dp2332
sg82
g2317
sg75
(lp2333
g68
(g69
g70
NtRp2334
(dp2335
g73
(dp2336
g81
I5
ssg82
g2330
sg75
(lp2337
g68
(g77
g70
NtRp2338
(dp2339
g73
(dp2340
g81
I4
ssg82
Nsg75
(lp2341
sbasbasbasbag68
(g84
g70
NtRp2342
(dp2343
g73
(dp2344
sg82
g78
sg75
(lp2345
g68
(g89
g70
NtRp2346
(dp2347
g73
(dp2348
g93
g94
ssg82
g2342
sg75
(lp2349
S'is_https'
p2350
asbag68
(g89
g70
NtRp2351
(dp2352
g73
(dp2353
g100
g101
ssg82
g2342
sg75
(lp2354
S':'
asbag68
(g89
g70
NtRp2355
(dp2356
g73
(dp2357
sg82
g2342
sg75
(lp2358
g68
(g69
g70
NtRp2359
(dp2360
g73
(dp2361
g81
I5
ssg82
g2355
sg75
(lp2362
g111
asbasbasbag68
(g84
g70
NtRp2363
(dp2364
g73
(dp2365
sg82
g78
sg75
(lp2366
g68
(g89
g70
NtRp2367
(dp2368
g73
(dp2369
g93
g94
ssg82
g2363
sg75
(lp2370
S'is_local'
p2371
asbag68
(g89
g70
NtRp2372
(dp2373
g73
(dp2374
g100
g101
ssg82
g2363
sg75
(lp2375
S':'
asbag68
(g89
g70
NtRp2376
(dp2377
g73
(dp2378
sg82
g2363
sg75
(lp2379
g68
(g69
g70
NtRp2380
(dp2381
g73
(dp2382
g81
I5
ssg82
g2376
sg75
(lp2383
g2158
asbasbasbag68
(g84
g70
NtRp2384
(dp2385
g73
(dp2386
sg82
g78
sg75
(lp2387
g68
(g89
g70
NtRp2388
(dp2389
g73
(dp2390
g93
g94
ssg82
g2384
sg75
(lp2391
S'is_restful'
p2392
asbag68
(g89
g70
NtRp2393
(dp2394
g73
(dp2395
g100
g101
ssg82
g2384
sg75
(lp2396
S':'
asbag68
(g89
g70
NtRp2397
(dp2398
g73
(dp2399
sg82
g2384
sg75
(lp2400
g68
(g69
g70
NtRp2401
(dp2402
g73
(dp2403
g81
I5
ssg82
g2397
sg75
(lp2404
g111
asbasbasbag68
(g84
g70
NtRp2405
(dp2406
g73
(dp2407
sg82
g78
sg75
(lp2408
g68
(g89
g70
NtRp2409
(dp2410
g73
(dp2411
g93
g94
ssg82
g2405
sg75
(lp2412
S'now'
p2413
asbag68
(g89
g70
NtRp2414
(dp2415
g73
(dp2416
g100
g101
ssg82
g2405
sg75
(lp2417
S':'
asbag68
(g89
g70
NtRp2418
(dp2419
g73
(dp2420
sg82
g2405
sg75
(lp2421
g68
(g69
g70
NtRp2422
(dp2423
g73
(dp2424
g81
I5
ssg82
g2418
sg75
(lp2425
S'datetime.datetime(2011, 6, 18, 0, 34, 22, 966844)'
p2426
asbasbasbag68
(g84
g70
NtRp2427
(dp2428
g73
(dp2429
sg82
g78
sg75
(lp2430
g68
(g89
g70
NtRp2431
(dp2432
g73
(dp2433
g93
g94
ssg82
g2427
sg75
(lp2434
S'post_vars'
p2435
asbag68
(g89
g70
NtRp2436
(dp2437
g73
(dp2438
g100
g101
ssg82
g2427
sg75
(lp2439
S':'
asbag68
(g89
g70
NtRp2440
(dp2441
g73
(dp2442
sg82
g2427
sg75
(lp2443
g68
(g69
g70
NtRp2444
(dp2445
g73
(dp2446
g81
I5
ssg82
g2440
sg75
(lp2447
g68
(g77
g70
NtRp2448
(dp2449
g73
(dp2450
g81
I4
ssg82
Nsg75
(lp2451
sbasbasbasbag68
(g84
g70
NtRp2452
(dp2453
g73
(dp2454
sg82
g78
sg75
(lp2455
g68
(g89
g70
NtRp2456
(dp2457
g73
(dp2458
g93
g94
ssg82
g2452
sg75
(lp2459
S'url'
p2460
asbag68
(g89
g70
NtRp2461
(dp2462
g73
(dp2463
g100
g101
ssg82
g2452
sg75
(lp2464
S':'
asbag68
(g89
g70
NtRp2465
(dp2466
g73
(dp2467
sg82
g2452
sg75
(lp2468
g68
(g69
g70
NtRp2469
(dp2470
g73
(dp2471
g81
I5
ssg82
g2465
sg75
(lp2472
S'/mvstore/default/peliculas'
p2473
asbasbasbag68
(g84
g70
NtRp2474
(dp2475
g73
(dp2476
sg82
g78
sg75
(lp2477
g68
(g89
g70
NtRp2478
(dp2479
g73
(dp2480
g93
g94
ssg82
g2474
sg75
(lp2481
S'uuid'
p2482
asbag68
(g89
g70
NtRp2483
(dp2484
g73
(dp2485
g100
g101
ssg82
g2474
sg75
(lp2486
S':'
asbag68
(g89
g70
NtRp2487
(dp2488
g73
(dp2489
sg82
g2474
sg75
(lp2490
g68
(g69
g70
NtRp2491
(dp2492
g73
(dp2493
g81
I5
ssg82
g2487
sg75
(lp2494
S'mvstore/127.0.0.1.2011-06-18.00-34-22.eae41d2b-6e9a-4830-a7e9-8189b4830921'
p2495
asbasbasbag68
(g84
g70
NtRp2496
(dp2497
g73
(dp2498
sg82
g78
sg75
(lp2499
g68
(g89
g70
NtRp2500
(dp2501
g73
(dp2502
g93
g94
ssg82
g2496
sg75
(lp2503
S'vars'
p2504
asbag68
(g89
g70
NtRp2505
(dp2506
g73
(dp2507
g100
g101
ssg82
g2496
sg75
(lp2508
S':'
asbag68
(g89
g70
NtRp2509
(dp2510
g73
(dp2511
sg82
g2496
sg75
(lp2512
g68
(g69
g70
NtRp2513
(dp2514
g73
(dp2515
g81
I5
ssg82
g2509
sg75
(lp2516
g68
(g77
g70
NtRp2517
(dp2518
g73
(dp2519
g81
I4
ssg82
Nsg75
(lp2520
sbasbasbasbag68
(g84
g70
NtRp2521
(dp2522
g73
(dp2523
sg82
g78
sg75
(lp2524
g68
(g89
g70
NtRp2525
(dp2526
g73
(dp2527
g93
g94
ssg82
g2521
sg75
(lp2528
S'wsgi'
p2529
asbag68
(g89
g70
NtRp2530
(dp2531
g73
(dp2532
g100
g101
ssg82
g2521
sg75
(lp2533
S':'
asbag68
(g89
g70
NtRp2534
(dp2535
g73
(dp2536
sg82
g2521
sg75
(lp2537
g68
(g69
g70
NtRp2538
(dp2539
g73
(dp2540
g81
I5
ssg82
g2534
sg75
(lp2541
g68
(g77
g70
NtRp2542
(dp2543
g73
(dp2544
g81
I4
ssg82
Nsg75
(lp2545
g68
(g84
g70
NtRp2546
(dp2547
g73
(dp2548
sg82
g2542
sg75
(lp2549
g68
(g89
g70
NtRp2550
(dp2551
g73
(dp2552
g93
g94
ssg82
g2546
sg75
(lp2553
S'environ'
p2554
asbag68
(g89
g70
NtRp2555
(dp2556
g73
(dp2557
g100
g101
ssg82
g2546
sg75
(lp2558
S':'
asbag68
(g89
g70
NtRp2559
(dp2560
g73
(dp2561
sg82
g2546
sg75
(lp2562
g68
(g69
g70
NtRp2563
(dp2564
g73
(dp2565
g81
I4
ssg82
g2559
sg75
(lp2566
g68
(g77
g70
NtRp2567
(dp2568
g73
(dp2569
g81
I3
ssg82
Nsg75
(lp2570
g68
(g84
g70
NtRp2571
(dp2572
g73
(dp2573
sg82
g2567
sg75
(lp2574
g68
(g89
g70
NtRp2575
(dp2576
g73
(dp2577
g93
g94
ssg82
g2571
sg75
(lp2578
S'HTTP_ACCEPT'
p2579
asbag68
(g89
g70
NtRp2580
(dp2581
g73
(dp2582
g100
g101
ssg82
g2571
sg75
(lp2583
S':'
asbag68
(g89
g70
NtRp2584
(dp2585
g73
(dp2586
sg82
g2571
sg75
(lp2587
g68
(g69
g70
NtRp2588
(dp2589
g73
(dp2590
g81
I3
ssg82
g2584
sg75
(lp2591
g1569
asbasbasbag68
(g84
g70
NtRp2592
(dp2593
g73
(dp2594
sg82
g2567
sg75
(lp2595
g68
(g89
g70
NtRp2596
(dp2597
g73
(dp2598
g93
g94
ssg82
g2592
sg75
(lp2599
S'HTTP_ACCEPT_CHARSET'
p2600
asbag68
(g89
g70
NtRp2601
(dp2602
g73
(dp2603
g100
g101
ssg82
g2592
sg75
(lp2604
S':'
asbag68
(g89
g70
NtRp2605
(dp2606
g73
(dp2607
sg82
g2592
sg75
(lp2608
g68
(g69
g70
NtRp2609
(dp2610
g73
(dp2611
g81
I3
ssg82
g2605
sg75
(lp2612
g1591
asbasbasbag68
(g84
g70
NtRp2613
(dp2614
g73
(dp2615
sg82
g2567
sg75
(lp2616
g68
(g89
g70
NtRp2617
(dp2618
g73
(dp2619
g93
g94
ssg82
g2613
sg75
(lp2620
S'HTTP_ACCEPT_ENCODING'
p2621
asbag68
(g89
g70
NtRp2622
(dp2623
g73
(dp2624
g100
g101
ssg82
g2613
sg75
(lp2625
S':'
asbag68
(g89
g70
NtRp2626
(dp2627
g73
(dp2628
sg82
g2613
sg75
(lp2629
g68
(g69
g70
NtRp2630
(dp2631
g73
(dp2632
g81
I3
ssg82
g2626
sg75
(lp2633
g1613
asbasbasbag68
(g84
g70
NtRp2634
(dp2635
g73
(dp2636
sg82
g2567
sg75
(lp2637
g68
(g89
g70
NtRp2638
(dp2639
g73
(dp2640
g93
g94
ssg82
g2634
sg75
(lp2641
S'HTTP_ACCEPT_LANGUAGE'
p2642
asbag68
(g89
g70
NtRp2643
(dp2644
g73
(dp2645
g100
g101
ssg82
g2634
sg75
(lp2646
S':'
asbag68
(g89
g70
NtRp2647
(dp2648
g73
(dp2649
sg82
g2634
sg75
(lp2650
g68
(g69
g70
NtRp2651
(dp2652
g73
(dp2653
g81
I3
ssg82
g2647
sg75
(lp2654
g1635
asbasbasbag68
(g84
g70
NtRp2655
(dp2656
g73
(dp2657
sg82
g2567
sg75
(lp2658
g68
(g89
g70
NtRp2659
(dp2660
g73
(dp2661
g93
g94
ssg82
g2655
sg75
(lp2662
S'HTTP_CACHE_CONTROL'
p2663
asbag68
(g89
g70
NtRp2664
(dp2665
g73
(dp2666
g100
g101
ssg82
g2655
sg75
(lp2667
S':'
asbag68
(g89
g70
NtRp2668
(dp2669
g73
(dp2670
sg82
g2655
sg75
(lp2671
g68
(g69
g70
NtRp2672
(dp2673
g73
(dp2674
g81
I3
ssg82
g2668
sg75
(lp2675
g1657
asbasbasbag68
(g84
g70
NtRp2676
(dp2677
g73
(dp2678
sg82
g2567
sg75
(lp2679
g68
(g89
g70
NtRp2680
(dp2681
g73
(dp2682
g93
g94
ssg82
g2676
sg75
(lp2683
S'HTTP_CONNECTION'
p2684
asbag68
(g89
g70
NtRp2685
(dp2686
g73
(dp2687
g100
g101
ssg82
g2676
sg75
(lp2688
S':'
asbag68
(g89
g70
NtRp2689
(dp2690
g73
(dp2691
sg82
g2676
sg75
(lp2692
g68
(g69
g70
NtRp2693
(dp2694
g73
(dp2695
g81
I3
ssg82
g2689
sg75
(lp2696
g1679
asbasbasbag68
(g84
g70
NtRp2697
(dp2698
g73
(dp2699
sg82
g2567
sg75
(lp2700
g68
(g89
g70
NtRp2701
(dp2702
g73
(dp2703
g93
g94
ssg82
g2697
sg75
(lp2704
S'HTTP_COOKIE'
p2705
asbag68
(g89
g70
NtRp2706
(dp2707
g73
(dp2708
g100
g101
ssg82
g2697
sg75
(lp2709
S':'
asbag68
(g89
g70
NtRp2710
(dp2711
g73
(dp2712
sg82
g2697
sg75
(lp2713
g68
(g69
g70
NtRp2714
(dp2715
g73
(dp2716
g81
I3
ssg82
g2710
sg75
(lp2717
g1701
asbasbasbag68
(g84
g70
NtRp2718
(dp2719
g73
(dp2720
sg82
g2567
sg75
(lp2721
g68
(g89
g70
NtRp2722
(dp2723
g73
(dp2724
g93
g94
ssg82
g2718
sg75
(lp2725
S'HTTP_HOST'
p2726
asbag68
(g89
g70
NtRp2727
(dp2728
g73
(dp2729
g100
g101
ssg82
g2718
sg75
(lp2730
S':'
asbag68
(g89
g70
NtRp2731
(dp2732
g73
(dp2733
sg82
g2718
sg75
(lp2734
g68
(g69
g70
NtRp2735
(dp2736
g73
(dp2737
g81
I3
ssg82
g2731
sg75
(lp2738
g1723
asbasbasbag68
(g84
g70
NtRp2739
(dp2740
g73
(dp2741
sg82
g2567
sg75
(lp2742
g68
(g89
g70
NtRp2743
(dp2744
g73
(dp2745
g93
g94
ssg82
g2739
sg75
(lp2746
S'HTTP_REFERER'
p2747
asbag68
(g89
g70
NtRp2748
(dp2749
g73
(dp2750
g100
g101
ssg82
g2739
sg75
(lp2751
S':'
asbag68
(g89
g70
NtRp2752
(dp2753
g73
(dp2754
sg82
g2739
sg75
(lp2755
g68
(g69
g70
NtRp2756
(dp2757
g73
(dp2758
g81
I3
ssg82
g2752
sg75
(lp2759
g1745
asbasbasbag68
(g84
g70
NtRp2760
(dp2761
g73
(dp2762
sg82
g2567
sg75
(lp2763
g68
(g89
g70
NtRp2764
(dp2765
g73
(dp2766
g93
g94
ssg82
g2760
sg75
(lp2767
S'HTTP_USER_AGENT'
p2768
asbag68
(g89
g70
NtRp2769
(dp2770
g73
(dp2771
g100
g101
ssg82
g2760
sg75
(lp2772
S':'
asbag68
(g89
g70
NtRp2773
(dp2774
g73
(dp2775
sg82
g2760
sg75
(lp2776
g68
(g69
g70
NtRp2777
(dp2778
g73
(dp2779
g81
I3
ssg82
g2773
sg75
(lp2780
g1767
asbasbasbag68
(g84
g70
NtRp2781
(dp2782
g73
(dp2783
sg82
g2567
sg75
(lp2784
g68
(g89
g70
NtRp2785
(dp2786
g73
(dp2787
g93
g94
ssg82
g2781
sg75
(lp2788
S'PATH_INFO'
p2789
asbag68
(g89
g70
NtRp2790
(dp2791
g73
(dp2792
g100
g101
ssg82
g2781
sg75
(lp2793
S':'
asbag68
(g89
g70
NtRp2794
(dp2795
g73
(dp2796
sg82
g2781
sg75
(lp2797
g68
(g69
g70
NtRp2798
(dp2799
g73
(dp2800
g81
I3
ssg82
g2794
sg75
(lp2801
g1789
asbasbasbag68
(g84
g70
NtRp2802
(dp2803
g73
(dp2804
sg82
g2567
sg75
(lp2805
g68
(g89
g70
NtRp2806
(dp2807
g73
(dp2808
g93
g94
ssg82
g2802
sg75
(lp2809
S'QUERY_STRING'
p2810
asbag68
(g89
g70
NtRp2811
(dp2812
g73
(dp2813
g100
g101
ssg82
g2802
sg75
(lp2814
S':'
asbag68
(g89
g70
NtRp2815
(dp2816
g73
(dp2817
sg82
g2802
sg75
(lp2818
g68
(g69
g70
NtRp2819
(dp2820
g73
(dp2821
g81
I3
ssg82
g2815
sg75
(lp2822
S''
asbasbasbag68
(g84
g70
NtRp2823
(dp2824
g73
(dp2825
sg82
g2567
sg75
(lp2826
g68
(g89
g70
NtRp2827
(dp2828
g73
(dp2829
g93
g94
ssg82
g2823
sg75
(lp2830
S'REMOTE_ADDR'
p2831
asbag68
(g89
g70
NtRp2832
(dp2833
g73
(dp2834
g100
g101
ssg82
g2823
sg75
(lp2835
S':'
asbag68
(g89
g70
NtRp2836
(dp2837
g73
(dp2838
sg82
g2823
sg75
(lp2839
g68
(g69
g70
NtRp2840
(dp2841
g73
(dp2842
g81
I3
ssg82
g2836
sg75
(lp2843
g201
asbasbasbag68
(g84
g70
NtRp2844
(dp2845
g73
(dp2846
sg82
g2567
sg75
(lp2847
g68
(g89
g70
NtRp2848
(dp2849
g73
(dp2850
g93
g94
ssg82
g2844
sg75
(lp2851
S'REMOTE_PORT'
p2852
asbag68
(g89
g70
NtRp2853
(dp2854
g73
(dp2855
g100
g101
ssg82
g2844
sg75
(lp2856
S':'
asbag68
(g89
g70
NtRp2857
(dp2858
g73
(dp2859
sg82
g2844
sg75
(lp2860
g68
(g69
g70
NtRp2861
(dp2862
g73
(dp2863
g81
I3
ssg82
g2857
sg75
(lp2864
g1853
asbasbasbag68
(g84
g70
NtRp2865
(dp2866
g73
(dp2867
sg82
g2567
sg75
(lp2868
g68
(g89
g70
NtRp2869
(dp2870
g73
(dp2871
g93
g94
ssg82
g2865
sg75
(lp2872
S'REQUEST_METHOD'
p2873
asbag68
(g89
g70
NtRp2874
(dp2875
g73
(dp2876
g100
g101
ssg82
g2865
sg75
(lp2877
S':'
asbag68
(g89
g70
NtRp2878
(dp2879
g73
(dp2880
sg82
g2865
sg75
(lp2881
g68
(g69
g70
NtRp2882
(dp2883
g73
(dp2884
g81
I3
ssg82
g2878
sg75
(lp2885
g1875
asbasbasbag68
(g84
g70
NtRp2886
(dp2887
g73
(dp2888
sg82
g2567
sg75
(lp2889
g68
(g89
g70
NtRp2890
(dp2891
g73
(dp2892
g93
g94
ssg82
g2886
sg75
(lp2893
S'SCRIPT_NAME'
p2894
asbag68
(g89
g70
NtRp2895
(dp2896
g73
(dp2897
g100
g101
ssg82
g2886
sg75
(lp2898
S':'
asbag68
(g89
g70
NtRp2899
(dp2900
g73
(dp2901
sg82
g2886
sg75
(lp2902
g68
(g69
g70
NtRp2903
(dp2904
g73
(dp2905
g81
I3
ssg82
g2899
sg75
(lp2906
S''
asbasbasbag68
(g84
g70
NtRp2907
(dp2908
g73
(dp2909
sg82
g2567
sg75
(lp2910
g68
(g89
g70
NtRp2911
(dp2912
g73
(dp2913
g93
g94
ssg82
g2907
sg75
(lp2914
S'SERVER_NAME'
p2915
asbag68
(g89
g70
NtRp2916
(dp2917
g73
(dp2918
g100
g101
ssg82
g2907
sg75
(lp2919
S':'
asbag68
(g89
g70
NtRp2920
(dp2921
g73
(dp2922
sg82
g2907
sg75
(lp2923
g68
(g69
g70
NtRp2924
(dp2925
g73
(dp2926
g81
I3
ssg82
g2920
sg75
(lp2927
g1918
asbasbasbag68
(g84
g70
NtRp2928
(dp2929
g73
(dp2930
sg82
g2567
sg75
(lp2931
g68
(g89
g70
NtRp2932
(dp2933
g73
(dp2934
g93
g94
ssg82
g2928
sg75
(lp2935
S'SERVER_PORT'
p2936
asbag68
(g89
g70
NtRp2937
(dp2938
g73
(dp2939
g100
g101
ssg82
g2928
sg75
(lp2940
S':'
asbag68
(g89
g70
NtRp2941
(dp2942
g73
(dp2943
sg82
g2928
sg75
(lp2944
g68
(g69
g70
NtRp2945
(dp2946
g73
(dp2947
g81
I3
ssg82
g2941
sg75
(lp2948
g1940
asbasbasbag68
(g84
g70
NtRp2949
(dp2950
g73
(dp2951
sg82
g2567
sg75
(lp2952
g68
(g89
g70
NtRp2953
(dp2954
g73
(dp2955
g93
g94
ssg82
g2949
sg75
(lp2956
S'SERVER_PROTOCOL'
p2957
asbag68
(g89
g70
NtRp2958
(dp2959
g73
(dp2960
g100
g101
ssg82
g2949
sg75
(lp2961
S':'
asbag68
(g89
g70
NtRp2962
(dp2963
g73
(dp2964
sg82
g2949
sg75
(lp2965
g68
(g69
g70
NtRp2966
(dp2967
g73
(dp2968
g81
I3
ssg82
g2962
sg75
(lp2969
g1962
asbasbasbag68
(g84
g70
NtRp2970
(dp2971
g73
(dp2972
sg82
g2567
sg75
(lp2973
g68
(g89
g70
NtRp2974
(dp2975
g73
(dp2976
g93
g94
ssg82
g2970
sg75
(lp2977
S'SERVER_SOFTWARE'
p2978
asbag68
(g89
g70
NtRp2979
(dp2980
g73
(dp2981
g100
g101
ssg82
g2970
sg75
(lp2982
S':'
asbag68
(g89
g70
NtRp2983
(dp2984
g73
(dp2985
sg82
g2970
sg75
(lp2986
g68
(g69
g70
NtRp2987
(dp2988
g73
(dp2989
g81
I3
ssg82
g2983
sg75
(lp2990
g1984
asbasbasbag68
(g84
g70
NtRp2991
(dp2992
g73
(dp2993
sg82
g2567
sg75
(lp2994
g68
(g89
g70
NtRp2995
(dp2996
g73
(dp2997
g93
g94
ssg82
g2991
sg75
(lp2998
S'wsgi.errors'
p2999
asbag68
(g89
g70
NtRp3000
(dp3001
g73
(dp3002
g100
g101
ssg82
g2991
sg75
(lp3003
S':'
asbag68
(g89
g70
NtRp3004
(dp3005
g73
(dp3006
sg82
g2991
sg75
(lp3007
g68
(g69
g70
NtRp3008
(dp3009
g73
(dp3010
g81
I3
ssg82
g3004
sg75
(lp3011
S"<open file '<stderr>', mode 'w' at 0x7f8a1045a1e0>"
p3012
asbasbasbag68
(g84
g70
NtRp3013
(dp3014
g73
(dp3015
sg82
g2567
sg75
(lp3016
g68
(g89
g70
NtRp3017
(dp3018
g73
(dp3019
g93
g94
ssg82
g3013
sg75
(lp3020
S'wsgi.file_wrapper'
p3021
asbag68
(g89
g70
NtRp3022
(dp3023
g73
(dp3024
g100
g101
ssg82
g3013
sg75
(lp3025
S':'
asbag68
(g89
g70
NtRp3026
(dp3027
g73
(dp3028
sg82
g3013
sg75
(lp3029
g68
(g69
g70
NtRp3030
(dp3031
g73
(dp3032
g81
I3
ssg82
g3026
sg75
(lp3033
S'<class gluon.rocket.FileWrapper at 0x1e6f3b0>'
p3034
asbasbasbag68
(g84
g70
NtRp3035
(dp3036
g73
(dp3037
sg82
g2567
sg75
(lp3038
g68
(g89
g70
NtRp3039
(dp3040
g73
(dp3041
g93
g94
ssg82
g3035
sg75
(lp3042
S'wsgi.input'
p3043
asbag68
(g89
g70
NtRp3044
(dp3045
g73
(dp3046
g100
g101
ssg82
g3035
sg75
(lp3047
S':'
asbag68
(g89
g70
NtRp3048
(dp3049
g73
(dp3050
sg82
g3035
sg75
(lp3051
g68
(g69
g70
NtRp3052
(dp3053
g73
(dp3054
g81
I3
ssg82
g3048
sg75
(lp3055
S'<cStringIO.StringO object at 0x35236f8>'
p3056
asbasbasbag68
(g84
g70
NtRp3057
(dp3058
g73
(dp3059
sg82
g2567
sg75
(lp3060
g68
(g89
g70
NtRp3061
(dp3062
g73
(dp3063
g93
g94
ssg82
g3057
sg75
(lp3064
S'wsgi.multiprocess'
p3065
asbag68
(g89
g70
NtRp3066
(dp3067
g73
(dp3068
g100
g101
ssg82
g3057
sg75
(lp3069
S':'
asbag68
(g89
g70
NtRp3070
(dp3071
g73
(dp3072
sg82
g3057
sg75
(lp3073
g68
(g69
g70
NtRp3074
(dp3075
g73
(dp3076
g81
I3
ssg82
g3070
sg75
(lp3077
g111
asbasbasbag68
(g84
g70
NtRp3078
(dp3079
g73
(dp3080
sg82
g2567
sg75
(lp3081
g68
(g89
g70
NtRp3082
(dp3083
g73
(dp3084
g93
g94
ssg82
g3078
sg75
(lp3085
S'wsgi.multithread'
p3086
asbag68
(g89
g70
NtRp3087
(dp3088
g73
(dp3089
g100
g101
ssg82
g3078
sg75
(lp3090
S':'
asbag68
(g89
g70
NtRp3091
(dp3092
g73
(dp3093
sg82
g3078
sg75
(lp3094
g68
(g69
g70
NtRp3095
(dp3096
g73
(dp3097
g81
I3
ssg82
g3091
sg75
(lp3098
g2158
asbasbasbag68
(g84
g70
NtRp3099
(dp3100
g73
(dp3101
sg82
g2567
sg75
(lp3102
g68
(g89
g70
NtRp3103
(dp3104
g73
(dp3105
g93
g94
ssg82
g3099
sg75
(lp3106
S'wsgi.run_once'
p3107
asbag68
(g89
g70
NtRp3108
(dp3109
g73
(dp3110
g100
g101
ssg82
g3099
sg75
(lp3111
S':'
asbag68
(g89
g70
NtRp3112
(dp3113
g73
(dp3114
sg82
g3099
sg75
(lp3115
g68
(g69
g70
NtRp3116
(dp3117
g73
(dp3118
g81
I3
ssg82
g3112
sg75
(lp3119
g111
asbasbasbag68
(g84
g70
NtRp3120
(dp3121
g73
(dp3122
sg82
g2567
sg75
(lp3123
g68
(g89
g70
NtRp3124
(dp3125
g73
(dp3126
g93
g94
ssg82
g3120
sg75
(lp3127
S'wsgi.url_scheme'
p3128
asbag68
(g89
g70
NtRp3129
(dp3130
g73
(dp3131
g100
g101
ssg82
g3120
sg75
(lp3132
S':'
asbag68
(g89
g70
NtRp3133
(dp3134
g73
(dp3135
sg82
g3120
sg75
(lp3136
g68
(g69
g70
NtRp3137
(dp3138
g73
(dp3139
g81
I3
ssg82
g3133
sg75
(lp3140
g2201
asbasbasbag68
(g84
g70
NtRp3141
(dp3142
g73
(dp3143
sg82
g2567
sg75
(lp3144
g68
(g89
g70
NtRp3145
(dp3146
g73
(dp3147
g93
g94
ssg82
g3141
sg75
(lp3148
S'wsgi.version'
p3149
asbag68
(g89
g70
NtRp3150
(dp3151
g73
(dp3152
g100
g101
ssg82
g3141
sg75
(lp3153
S':'
asbag68
(g89
g70
NtRp3154
(dp3155
g73
(dp3156
sg82
g3141
sg75
(lp3157
g68
(g69
g70
NtRp3158
(dp3159
g73
(dp3160
g81
I3
ssg82
g3154
sg75
(lp3161
S'1'
asbasbasbasbasbasbasbasbasbasbasbasbasbsS'frames'
p3162
(lp3163
(dp3164
S'file'
p3165
S'/home/marco/proyectos/web2py-trunk/gluon/restricted.py'
p3166
sS'dump'
p3167
(dp3168
S'code'
p3169
S'"# -*- coding: utf-8 -*-\\n# this file is released ...),\\n        Field(\'devol\',\'datetime\'),\\n        )\\n\\n"'
p3170
sS'layer'
p3171
S"'/home/marco/proyectos/web2py-trunk/applications/mvstore/models/db.py'"
p3172
sS'global compile2'
p3173
S'<function compile2>'
p3174
sS'ccode'
p3175
S'undefined'
p3176
ssS'lnum'
p3177
I191
sS'lines'
p3178
(dp3179
I192
S'        exec ccode in environment'
p3180
sI193
S'    except HTTP:'
p3181
sI194
S'        raise'
p3182
sI195
S'    except Exception:'
p3183
sI186
S"    environment['__file__'] = layer"
p3184
sI187
S'    try:'
p3185
sI188
S'        if type(code) == types.CodeType:'
p3186
sI189
S'            ccode = code'
p3187
sI190
S'        else:'
p3188
sI191
S'            ccode = compile2(code,layer)'
p3189
ssS'call'
p3190
S'(code="# -*- coding: utf-8 -*-\\n# this file is released ...),\\n        Field(\'devol\',\'datetime\'),\\n        )\\n\\n", environment={\'A\': <class \'gluon.html.A\'>, \'B\': <class \'gluon.html.B\'>, \'BEAUTIFY\': <class \'gluon.html.BEAUTIFY\'>, \'BODY\': <class \'gluon.html.BODY\'>, \'BR\': <class \'gluon.html.BR\'>, \'BUTTON\': <class \'gluon.html.BUTTON\'>, \'CENTER\': <class \'gluon.html.CENTER\'>, \'CLEANUP\': <class \'gluon.validators.CLEANUP\'>, \'CODE\': <class \'gluon.html.CODE\'>, \'CRYPT\': <class \'gluon.validators.CRYPT\'>, ...}, layer=\'/home/marco/proyectos/web2py-trunk/applications/mvstore/models/db.py\')'
p3191
sS'func'
p3192
S'restricted'
p3193
sa(dp3194
g3165
S'/home/marco/proyectos/web2py-trunk/gluon/restricted.py'
p3195
sg3167
(dp3196
S'builtincompile'
p3197
S'<built-in function compile>'
p3198
sS'code'
p3199
S'"# -*- coding: utf-8 -*-\\n# this file is released ...),\\n        Field(\'devol\',\'datetime\'),\\n        )\\n\\n"'
p3200
sS'code.rstrip'
p3201
S'<built-in method rstrip of str object>'
p3202
sS').replace'
p3203
g3176
sS'layer'
p3204
S"'/home/marco/proyectos/web2py-trunk/applications/mvstore/models/db.py'"
p3205
ssg3177
I178
sg3178
(dp3206
I173
S''
sI174
S'def compile2(code,layer):'
p3207
sI175
S'    """'
p3208
sI176
S"    The +'\\n' is necessary else compile fails when code ends in a comment."
p3209
sI177
S'    """'
p3210
sI178
S"    return compile(code.rstrip().replace('\\r\\n','\\n')+'\\n', layer, 'exec')"
p3211
sI179
S''
sI180
S"def restricted(code, environment={}, layer='Unknown'):"
p3212
sI181
S'    """'
p3213
sI182
S'    runs code in environment and returns the output. if an exception occurs'
p3214
ssg3190
S'(code="# -*- coding: utf-8 -*-\\n# this file is released ...),\\n        Field(\'devol\',\'datetime\'),\\n        )\\n\\n", layer=\'/home/marco/proyectos/web2py-trunk/applications/mvstore/models/db.py\')'
p3215
sg3192
S'compile2'
p3216
sasS'pyver'
p3217
S'Python 2.6.6: /usr/bin/python'
p3218
sS'session'
p3219
g68
(g69
g70
NtRp3220
(dp3221
g73
(dp3222
sg75
(lp3223
g68
(g77
g70
NtRp3224
(dp3225
g73
(dp3226
g81
I5
ssg82
Nsg75
(lp3227
sbasbsS'etype'
p3228
S"<type 'exceptions.SyntaxError'>"
p3229
sS'date'
p3230
S'Sat Jun 18 00:34:22 2011'
p3231
sS'response'
p3232
g68
(g69
g70
NtRp3233
(dp3234
g73
(dp3235
sg75
(lp3236
g68
(g77
g70
NtRp3237
(dp3238
g73
(dp3239
g81
I5
ssg82
Nsg75
(lp3240
g68
(g84
g70
NtRp3241
(dp3242
g73
(dp3243
sg82
g3237
sg75
(lp3244
g68
(g89
g70
NtRp3245
(dp3246
g73
(dp3247
g93
g94
ssg82
g3241
sg75
(lp3248
g166
asbag68
(g89
g70
NtRp3249
(dp3250
g73
(dp3251
g100
g101
ssg82
g3241
sg75
(lp3252
S':'
asbag68
(g89
g70
NtRp3253
(dp3254
g73
(dp3255
sg82
g3241
sg75
(lp3256
g68
(g69
g70
NtRp3257
(dp3258
g73
(dp3259
g81
I5
ssg82
g3253
sg75
(lp3260
S'<cStringIO.StringO object at 0x2cccd88>'
p3261
asbasbasbag68
(g84
g70
NtRp3262
(dp3263
g73
(dp3264
sg82
g3237
sg75
(lp3265
g68
(g89
g70
NtRp3266
(dp3267
g73
(dp3268
g93
g94
ssg82
g3262
sg75
(lp3269
g232
asbag68
(g89
g70
NtRp3270
(dp3271
g73
(dp3272
g100
g101
ssg82
g3262
sg75
(lp3273
S':'
asbag68
(g89
g70
NtRp3274
(dp3275
g73
(dp3276
sg82
g3262
sg75
(lp3277
g68
(g69
g70
NtRp3278
(dp3279
g73
(dp3280
g81
I5
ssg82
g3274
sg75
(lp3281
g68
(g77
g70
NtRp3282
(dp3283
g73
(dp3284
g81
I4
ssg82
Nsg75
(lp3285
g68
(g84
g70
NtRp3286
(dp3287
g73
(dp3288
sg82
g3282
sg75
(lp3289
g68
(g89
g70
NtRp3290
(dp3291
g73
(dp3292
g93
g94
ssg82
g3286
sg75
(lp3293
S'session_id_mvstore'
p3294
asbag68
(g89
g70
NtRp3295
(dp3296
g73
(dp3297
g100
g101
ssg82
g3286
sg75
(lp3298
S':'
asbag68
(g89
g70
NtRp3299
(dp3300
g73
(dp3301
sg82
g3286
sg75
(lp3302
g68
(g69
g70
NtRp3303
(dp3304
g73
(dp3305
g81
I4
ssg82
g3299
sg75
(lp3306
g68
(g77
g70
NtRp3307
(dp3308
g73
(dp3309
g81
I3
ssg82
Nsg75
(lp3310
g68
(g84
g70
NtRp3311
(dp3312
g73
(dp3313
sg82
g3307
sg75
(lp3314
g68
(g89
g70
NtRp3315
(dp3316
g73
(dp3317
g93
g94
ssg82
g3311
sg75
(lp3318
g282
asbag68
(g89
g70
NtRp3319
(dp3320
g73
(dp3321
g100
g101
ssg82
g3311
sg75
(lp3322
S':'
asbag68
(g89
g70
NtRp3323
(dp3324
g73
(dp3325
sg82
g3311
sg75
(lp3326
g68
(g69
g70
NtRp3327
(dp3328
g73
(dp3329
g81
I3
ssg82
g3323
sg75
(lp3330
S''
asbasbasbag68
(g84
g70
NtRp3331
(dp3332
g73
(dp3333
sg82
g3307
sg75
(lp3334
g68
(g89
g70
NtRp3335
(dp3336
g73
(dp3337
g93
g94
ssg82
g3331
sg75
(lp3338
g303
asbag68
(g89
g70
NtRp3339
(dp3340
g73
(dp3341
g100
g101
ssg82
g3331
sg75
(lp3342
S':'
asbag68
(g89
g70
NtRp3343
(dp3344
g73
(dp3345
sg82
g3331
sg75
(lp3346
g68
(g69
g70
NtRp3347
(dp3348
g73
(dp3349
g81
I3
ssg82
g3343
sg75
(lp3350
S''
asbasbasbag68
(g84
g70
NtRp3351
(dp3352
g73
(dp3353
sg82
g3307
sg75
(lp3354
g68
(g89
g70
NtRp3355
(dp3356
g73
(dp3357
g93
g94
ssg82
g3351
sg75
(lp3358
g324
asbag68
(g89
g70
NtRp3359
(dp3360
g73
(dp3361
g100
g101
ssg82
g3351
sg75
(lp3362
S':'
asbag68
(g89
g70
NtRp3363
(dp3364
g73
(dp3365
sg82
g3351
sg75
(lp3366
g68
(g69
g70
NtRp3367
(dp3368
g73
(dp3369
g81
I3
ssg82
g3363
sg75
(lp3370
S''
asbasbasbag68
(g84
g70
NtRp3371
(dp3372
g73
(dp3373
sg82
g3307
sg75
(lp3374
g68
(g89
g70
NtRp3375
(dp3376
g73
(dp3377
g93
g94
ssg82
g3371
sg75
(lp3378
g345
asbag68
(g89
g70
NtRp3379
(dp3380
g73
(dp3381
g100
g101
ssg82
g3371
sg75
(lp3382
S':'
asbag68
(g89
g70
NtRp3383
(dp3384
g73
(dp3385
sg82
g3371
sg75
(lp3386
g68
(g69
g70
NtRp3387
(dp3388
g73
(dp3389
g81
I3
ssg82
g3383
sg75
(lp3390
S''
asbasbasbag68
(g84
g70
NtRp3391
(dp3392
g73
(dp3393
sg82
g3307
sg75
(lp3394
g68
(g89
g70
NtRp3395
(dp3396
g73
(dp3397
g93
g94
ssg82
g3391
sg75
(lp3398
g366
asbag68
(g89
g70
NtRp3399
(dp3400
g73
(dp3401
g100
g101
ssg82
g3391
sg75
(lp3402
S':'
asbag68
(g89
g70
NtRp3403
(dp3404
g73
(dp3405
sg82
g3391
sg75
(lp3406
g68
(g69
g70
NtRp3407
(dp3408
g73
(dp3409
g81
I3
ssg82
g3403
sg75
(lp3410
S''
asbasbasbag68
(g84
g70
NtRp3411
(dp3412
g73
(dp3413
sg82
g3307
sg75
(lp3414
g68
(g89
g70
NtRp3415
(dp3416
g73
(dp3417
g93
g94
ssg82
g3411
sg75
(lp3418
g387
asbag68
(g89
g70
NtRp3419
(dp3420
g73
(dp3421
g100
g101
ssg82
g3411
sg75
(lp3422
S':'
asbag68
(g89
g70
NtRp3423
(dp3424
g73
(dp3425
sg82
g3411
sg75
(lp3426
g68
(g69
g70
NtRp3427
(dp3428
g73
(dp3429
g81
I3
ssg82
g3423
sg75
(lp3430
S'/'
asbasbasbag68
(g84
g70
NtRp3431
(dp3432
g73
(dp3433
sg82
g3307
sg75
(lp3434
g68
(g89
g70
NtRp3435
(dp3436
g73
(dp3437
g93
g94
ssg82
g3431
sg75
(lp3438
g408
asbag68
(g89
g70
NtRp3439
(dp3440
g73
(dp3441
g100
g101
ssg82
g3431
sg75
(lp3442
S':'
asbag68
(g89
g70
NtRp3443
(dp3444
g73
(dp3445
sg82
g3431
sg75
(lp3446
g68
(g69
g70
NtRp3447
(dp3448
g73
(dp3449
g81
I3
ssg82
g3443
sg75
(lp3450
S''
asbasbasbag68
(g84
g70
NtRp3451
(dp3452
g73
(dp3453
sg82
g3307
sg75
(lp3454
g68
(g89
g70
NtRp3455
(dp3456
g73
(dp3457
g93
g94
ssg82
g3451
sg75
(lp3458
g429
asbag68
(g89
g70
NtRp3459
(dp3460
g73
(dp3461
g100
g101
ssg82
g3451
sg75
(lp3462
S':'
asbag68
(g89
g70
NtRp3463
(dp3464
g73
(dp3465
sg82
g3451
sg75
(lp3466
g68
(g69
g70
NtRp3467
(dp3468
g73
(dp3469
g81
I3
ssg82
g3463
sg75
(lp3470
S''
asbasbasbasbasbasbasbasbasbasbasbag68
(g84
g70
NtRp3471
(dp3472
g73
(dp3473
sg82
g3237
sg75
(lp3474
g68
(g89
g70
NtRp3475
(dp3476
g73
(dp3477
g93
g94
ssg82
g3471
sg75
(lp3478
S'files'
p3479
asbag68
(g89
g70
NtRp3480
(dp3481
g73
(dp3482
g100
g101
ssg82
g3471
sg75
(lp3483
S':'
asbag68
(g89
g70
NtRp3484
(dp3485
g73
(dp3486
sg82
g3471
sg75
(lp3487
g68
(g69
g70
NtRp3488
(dp3489
g73
(dp3490
g81
I5
ssg82
g3484
sg75
(lp3491
g68
(g77
g70
NtRp3492
(dp3493
g73
(dp3494
g81
I4
ssg82
Nsg75
(lp3495
sbasbasbasbag68
(g84
g70
NtRp3496
(dp3497
g73
(dp3498
sg82
g3237
sg75
(lp3499
g68
(g89
g70
NtRp3500
(dp3501
g73
(dp3502
g93
g94
ssg82
g3496
sg75
(lp3503
S'flash'
p3504
asbag68
(g89
g70
NtRp3505
(dp3506
g73
(dp3507
g100
g101
ssg82
g3496
sg75
(lp3508
S':'
asbag68
(g89
g70
NtRp3509
(dp3510
g73
(dp3511
sg82
g3496
sg75
(lp3512
g68
(g69
g70
NtRp3513
(dp3514
g73
(dp3515
g81
I5
ssg82
g3509
sg75
(lp3516
S''
asbasbasbag68
(g84
g70
NtRp3517
(dp3518
g73
(dp3519
sg82
g3237
sg75
(lp3520
g68
(g89
g70
NtRp3521
(dp3522
g73
(dp3523
g93
g94
ssg82
g3517
sg75
(lp3524
S'headers'
p3525
asbag68
(g89
g70
NtRp3526
(dp3527
g73
(dp3528
g100
g101
ssg82
g3517
sg75
(lp3529
S':'
asbag68
(g89
g70
NtRp3530
(dp3531
g73
(dp3532
sg82
g3517
sg75
(lp3533
g68
(g69
g70
NtRp3534
(dp3535
g73
(dp3536
g81
I5
ssg82
g3530
sg75
(lp3537
g68
(g77
g70
NtRp3538
(dp3539
g73
(dp3540
g81
I4
ssg82
Nsg75
(lp3541
g68
(g84
g70
NtRp3542
(dp3543
g73
(dp3544
sg82
g3538
sg75
(lp3545
g68
(g89
g70
NtRp3546
(dp3547
g73
(dp3548
g93
g94
ssg82
g3542
sg75
(lp3549
S'Cache-Control'
p3550
asbag68
(g89
g70
NtRp3551
(dp3552
g73
(dp3553
g100
g101
ssg82
g3542
sg75
(lp3554
S':'
asbag68
(g89
g70
NtRp3555
(dp3556
g73
(dp3557
sg82
g3542
sg75
(lp3558
g68
(g69
g70
NtRp3559
(dp3560
g73
(dp3561
g81
I4
ssg82
g3555
sg75
(lp3562
S'no-store, no-cache, must-revalidate, post-check=0, pre-check=0'
p3563
asbasbasbag68
(g84
g70
NtRp3564
(dp3565
g73
(dp3566
sg82
g3538
sg75
(lp3567
g68
(g89
g70
NtRp3568
(dp3569
g73
(dp3570
g93
g94
ssg82
g3564
sg75
(lp3571
S'Content-Type'
p3572
asbag68
(g89
g70
NtRp3573
(dp3574
g73
(dp3575
g100
g101
ssg82
g3564
sg75
(lp3576
S':'
asbag68
(g89
g70
NtRp3577
(dp3578
g73
(dp3579
sg82
g3564
sg75
(lp3580
g68
(g69
g70
NtRp3581
(dp3582
g73
(dp3583
g81
I4
ssg82
g3577
sg75
(lp3584
S'text/html; charset=utf-8'
p3585
asbasbasbag68
(g84
g70
NtRp3586
(dp3587
g73
(dp3588
sg82
g3538
sg75
(lp3589
g68
(g89
g70
NtRp3590
(dp3591
g73
(dp3592
g93
g94
ssg82
g3586
sg75
(lp3593
S'Expires'
p3594
asbag68
(g89
g70
NtRp3595
(dp3596
g73
(dp3597
g100
g101
ssg82
g3586
sg75
(lp3598
S':'
asbag68
(g89
g70
NtRp3599
(dp3600
g73
(dp3601
sg82
g3586
sg75
(lp3602
g68
(g69
g70
NtRp3603
(dp3604
g73
(dp3605
g81
I4
ssg82
g3599
sg75
(lp3606
S'Sat, 18 Jun 2011 03:34:22 GMT'
p3607
asbasbasbag68
(g84
g70
NtRp3608
(dp3609
g73
(dp3610
sg82
g3538
sg75
(lp3611
g68
(g89
g70
NtRp3612
(dp3613
g73
(dp3614
g93
g94
ssg82
g3608
sg75
(lp3615
S'Pragma'
p3616
asbag68
(g89
g70
NtRp3617
(dp3618
g73
(dp3619
g100
g101
ssg82
g3608
sg75
(lp3620
S':'
asbag68
(g89
g70
NtRp3621
(dp3622
g73
(dp3623
sg82
g3608
sg75
(lp3624
g68
(g69
g70
NtRp3625
(dp3626
g73
(dp3627
g81
I4
ssg82
g3621
sg75
(lp3628
S'no-cache'
p3629
asbasbasbag68
(g84
g70
NtRp3630
(dp3631
g73
(dp3632
sg82
g3538
sg75
(lp3633
g68
(g89
g70
NtRp3634
(dp3635
g73
(dp3636
g93
g94
ssg82
g3630
sg75
(lp3637
S'X-Powered-By'
p3638
asbag68
(g89
g70
NtRp3639
(dp3640
g73
(dp3641
g100
g101
ssg82
g3630
sg75
(lp3642
S':'
asbag68
(g89
g70
NtRp3643
(dp3644
g73
(dp3645
sg82
g3630
sg75
(lp3646
g68
(g69
g70
NtRp3647
(dp3648
g73
(dp3649
g81
I4
ssg82
g3643
sg75
(lp3650
S'web2py'
p3651
asbasbasbasbasbasbasbag68
(g84
g70
NtRp3652
(dp3653
g73
(dp3654
sg82
g3237
sg75
(lp3655
g68
(g89
g70
NtRp3656
(dp3657
g73
(dp3658
g93
g94
ssg82
g3652
sg75
(lp3659
S'menu'
p3660
asbag68
(g89
g70
NtRp3661
(dp3662
g73
(dp3663
g100
g101
ssg82
g3652
sg75
(lp3664
S':'
asbag68
(g89
g70
NtRp3665
(dp3666
g73
(dp3667
sg82
g3652
sg75
(lp3668
g68
(g69
g70
NtRp3669
(dp3670
g73
(dp3671
g81
I5
ssg82
g3665
sg75
(lp3672
g68
(g77
g70
NtRp3673
(dp3674
g73
(dp3675
g81
I4
ssg82
Nsg75
(lp3676
sbasbasbasbag68
(g84
g70
NtRp3677
(dp3678
g73
(dp3679
sg82
g3237
sg75
(lp3680
g68
(g89
g70
NtRp3681
(dp3682
g73
(dp3683
g93
g94
ssg82
g3677
sg75
(lp3684
S'meta'
p3685
asbag68
(g89
g70
NtRp3686
(dp3687
g73
(dp3688
g100
g101
ssg82
g3677
sg75
(lp3689
S':'
asbag68
(g89
g70
NtRp3690
(dp3691
g73
(dp3692
sg82
g3677
sg75
(lp3693
g68
(g69
g70
NtRp3694
(dp3695
g73
(dp3696
g81
I5
ssg82
g3690
sg75
(lp3697
g68
(g77
g70
NtRp3698
(dp3699
g73
(dp3700
g81
I4
ssg82
Nsg75
(lp3701
sbasbasbasbag68
(g84
g70
NtRp3702
(dp3703
g73
(dp3704
sg82
g3237
sg75
(lp3705
g68
(g89
g70
NtRp3706
(dp3707
g73
(dp3708
g93
g94
ssg82
g3702
sg75
(lp3709
S'postprocessing'
p3710
asbag68
(g89
g70
NtRp3711
(dp3712
g73
(dp3713
g100
g101
ssg82
g3702
sg75
(lp3714
S':'
asbag68
(g89
g70
NtRp3715
(dp3716
g73
(dp3717
sg82
g3702
sg75
(lp3718
g68
(g69
g70
NtRp3719
(dp3720
g73
(dp3721
g81
I5
ssg82
g3715
sg75
(lp3722
g68
(g77
g70
NtRp3723
(dp3724
g73
(dp3725
g81
I4
ssg82
Nsg75
(lp3726
sbasbasbasbag68
(g84
g70
NtRp3727
(dp3728
g73
(dp3729
sg82
g3237
sg75
(lp3730
g68
(g89
g70
NtRp3731
(dp3732
g73
(dp3733
g93
g94
ssg82
g3727
sg75
(lp3734
S'session_file'
p3735
asbag68
(g89
g70
NtRp3736
(dp3737
g73
(dp3738
g100
g101
ssg82
g3727
sg75
(lp3739
S':'
asbag68
(g89
g70
NtRp3740
(dp3741
g73
(dp3742
sg82
g3727
sg75
(lp3743
g68
(g69
g70
NtRp3744
(dp3745
g73
(dp3746
g81
I5
ssg82
g3740
sg75
(lp3747
S"<open file '/home/marco/proyectos/web2py-trunk/applications/mvstore/sessions/127.0.0.1-0b059b4c-5741-4722-be03-f31fed87a8d7', mode 'rb+' at 0x7f8a00250780>"
p3748
asbasbasbag68
(g84
g70
NtRp3749
(dp3750
g73
(dp3751
sg82
g3237
sg75
(lp3752
g68
(g89
g70
NtRp3753
(dp3754
g73
(dp3755
g93
g94
ssg82
g3749
sg75
(lp3756
S'session_filename'
p3757
asbag68
(g89
g70
NtRp3758
(dp3759
g73
(dp3760
g100
g101
ssg82
g3749
sg75
(lp3761
S':'
asbag68
(g89
g70
NtRp3762
(dp3763
g73
(dp3764
sg82
g3749
sg75
(lp3765
g68
(g69
g70
NtRp3766
(dp3767
g73
(dp3768
g81
I5
ssg82
g3762
sg75
(lp3769
S'/home/marco/proyectos/web2py-trunk/applications/mvstore/sessions/127.0.0.1-0b059b4c-5741-4722-be03-f31fed87a8d7'
p3770
asbasbasbag68
(g84
g70
NtRp3771
(dp3772
g73
(dp3773
sg82
g3237
sg75
(lp3774
g68
(g89
g70
NtRp3775
(dp3776
g73
(dp3777
g93
g94
ssg82
g3771
sg75
(lp3778
S'session_id'
p3779
asbag68
(g89
g70
NtRp3780
(dp3781
g73
(dp3782
g100
g101
ssg82
g3771
sg75
(lp3783
S':'
asbag68
(g89
g70
NtRp3784
(dp3785
g73
(dp3786
sg82
g3771
sg75
(lp3787
g68
(g69
g70
NtRp3788
(dp3789
g73
(dp3790
g81
I5
ssg82
g3784
sg75
(lp3791
S'127.0.0.1-0b059b4c-5741-4722-be03-f31fed87a8d7'
p3792
asbasbasbag68
(g84
g70
NtRp3793
(dp3794
g73
(dp3795
sg82
g3237
sg75
(lp3796
g68
(g89
g70
NtRp3797
(dp3798
g73
(dp3799
g93
g94
ssg82
g3793
sg75
(lp3800
S'session_id_name'
p3801
asbag68
(g89
g70
NtRp3802
(dp3803
g73
(dp3804
g100
g101
ssg82
g3793
sg75
(lp3805
S':'
asbag68
(g89
g70
NtRp3806
(dp3807
g73
(dp3808
sg82
g3793
sg75
(lp3809
g68
(g69
g70
NtRp3810
(dp3811
g73
(dp3812
g81
I5
ssg82
g3806
sg75
(lp3813
g3294
asbasbasbag68
(g84
g70
NtRp3814
(dp3815
g73
(dp3816
sg82
g3237
sg75
(lp3817
g68
(g89
g70
NtRp3818
(dp3819
g73
(dp3820
g93
g94
ssg82
g3814
sg75
(lp3821
S'session_locked'
p3822
asbag68
(g89
g70
NtRp3823
(dp3824
g73
(dp3825
g100
g101
ssg82
g3814
sg75
(lp3826
S':'
asbag68
(g89
g70
NtRp3827
(dp3828
g73
(dp3829
sg82
g3814
sg75
(lp3830
g68
(g69
g70
NtRp3831
(dp3832
g73
(dp3833
g81
I5
ssg82
g3827
sg75
(lp3834
g2158
asbasbasbag68
(g84
g70
NtRp3835
(dp3836
g73
(dp3837
sg82
g3237
sg75
(lp3838
g68
(g89
g70
NtRp3839
(dp3840
g73
(dp3841
g93
g94
ssg82
g3835
sg75
(lp3842
S'session_new'
p3843
asbag68
(g89
g70
NtRp3844
(dp3845
g73
(dp3846
g100
g101
ssg82
g3835
sg75
(lp3847
S':'
asbag68
(g89
g70
NtRp3848
(dp3849
g73
(dp3850
sg82
g3835
sg75
(lp3851
g68
(g69
g70
NtRp3852
(dp3853
g73
(dp3854
g81
I5
ssg82
g3848
sg75
(lp3855
g111
asbasbasbag68
(g84
g70
NtRp3856
(dp3857
g73
(dp3858
sg82
g3237
sg75
(lp3859
g68
(g89
g70
NtRp3860
(dp3861
g73
(dp3862
g93
g94
ssg82
g3856
sg75
(lp3863
S'status'
p3864
asbag68
(g89
g70
NtRp3865
(dp3866
g73
(dp3867
g100
g101
ssg82
g3856
sg75
(lp3868
S':'
asbag68
(g89
g70
NtRp3869
(dp3870
g73
(dp3871
sg82
g3856
sg75
(lp3872
g68
(g69
g70
NtRp3873
(dp3874
g73
(dp3875
g81
I5
ssg82
g3869
sg75
(lp3876
S'200'
p3877
asbasbasbag68
(g84
g70
NtRp3878
(dp3879
g73
(dp3880
sg82
g3237
sg75
(lp3881
g68
(g89
g70
NtRp3882
(dp3883
g73
(dp3884
g93
g94
ssg82
g3878
sg75
(lp3885
g2482
asbag68
(g89
g70
NtRp3886
(dp3887
g73
(dp3888
g100
g101
ssg82
g3878
sg75
(lp3889
S':'
asbag68
(g89
g70
NtRp3890
(dp3891
g73
(dp3892
sg82
g3878
sg75
(lp3893
g68
(g69
g70
NtRp3894
(dp3895
g73
(dp3896
g81
I5
ssg82
g3890
sg75
(lp3897
g2495
asbasbasbag68
(g84
g70
NtRp3898
(dp3899
g73
(dp3900
sg82
g3237
sg75
(lp3901
g68
(g89
g70
NtRp3902
(dp3903
g73
(dp3904
g93
g94
ssg82
g3898
sg75
(lp3905
S'view'
p3906
asbag68
(g89
g70
NtRp3907
(dp3908
g73
(dp3909
g100
g101
ssg82
g3898
sg75
(lp3910
S':'
asbag68
(g89
g70
NtRp3911
(dp3912
g73
(dp3913
sg82
g3898
sg75
(lp3914
g68
(g69
g70
NtRp3915
(dp3916
g73
(dp3917
g81
I5
ssg82
g3911
sg75
(lp3918
S'default/peliculas.html'
p3919
asbasbasbasbasbsS'locals'
p3920
(dp3921
g3
S"'/home/marco/proyectos/web2py-trunk/applications/mvstore/models/db.py'"
p3922
sg5
S'"# -*- coding: utf-8 -*-\\n# this file is released ...),\\n        Field(\'devol\',\'datetime\'),\\n        )\\n\\n"'
p3923
sssS'traceback'
p3924
S'Traceback (most recent call last):\n  File "/home/marco/proyectos/web2py-trunk/gluon/restricted.py", line 191, in restricted\n    ccode = compile2(code,layer)\n  File "/home/marco/proyectos/web2py-trunk/gluon/restricted.py", line 178, in compile2\n    return compile(code.rstrip().replace(\'\\r\\n\',\'\\n\')+\'\\n\', layer, \'exec\')\n  File "/home/marco/proyectos/web2py-trunk/applications/mvstore/models/db.py", line 107\n    Field(\'fecha_ing\',\'date\'),\n        ^\nSyntaxError: invalid syntax\n'
p3925
s.