(dp1
S'output'
p2
S''
sS'layer'
p3
S'/home/marco/proyectos/web2py-trunk/applications/mvstore/controllers/default.py'
p4
sS'code'
p5
S'#-*- coding: utf-8 -*-\n# this file is released under public domain and you can use without limitations\n\n#########################################################################\n## This is a samples controller\n## - index is the default action of any application\n## - user is required for authentication and authorization\n## - download is for downloading files uploaded in the db (does streaming)\n## - call exposes all registered services (none by default)\n#########################################################################\n\ndef index():\n    """\n    example action using the internationalization operator T and flash\n    rendered by views/default/index.html or views/generic.html\n    """\n    return dict(message=T(\'Hello World\'))\n\ndef user():\n    """\n    exposes:\n    http://..../[app]/default/user/login\n    http://..../[app]/default/user/logout\n    http://..../[app]/default/user/register\n    http://..../[app]/default/user/profile\n    http://..../[app]/default/user/retrieve_password\n    http://..../[app]/default/user/change_password\n    use @auth.requires_login()\n        @auth.requires_membership(\'group name\')\n        @auth.requires_permission(\'read\',\'table name\',record_id)\n    to decorate functions that need access control\n    """\n    return dict(form=auth())\n\n\ndef download():\n    """\n    allows downloading of uploaded files\n    http://..../[app]/default/download/[filename]\n    """\n    return response.download(request,db)\n\n\ndef call():\n    """\n    exposes services. for example:\n    http://..../[app]/default/call/jsonrpc\n    decorate with @services.jsonrpc the functions to expose\n    supports xml, json, xmlrpc, jsonrpc, amfrpc, rss, csv\n    """\n    session.forget()\n    return service()\n\ndef empleados():\n    form=crud.create(db.empleados)\n    if form.accepts(request.vars, session):\n        response.flash = \'Agregado exitosamente\'\n    elif form.errors:\n        response.flash = \'El formulario tiene errores\'\n    else:\n        response.flash = \'Por favor, complete el formulario\'\n        \n    return dict(form=form)\n\ndef clientes():\n    form=crud.create(db.clientes)\n    if form.accepts(request.vars, session):\n        response.flash = \'Agregado exitosamente\'\n    elif form.errors:\n        response.flash = \'El formulario tiene errores\'\n    else:\n        response.flash = \'Por favor, complete el formulario\'\n    return dict(form=form)\n\ndef peliculas():\n    form=crud.create(db.peliculas)\n    if form.accepts(request.vars, session):\n        response.flash = \'Agregado exitosamente\'\n    elif form.errors:\n        response.flash = \'El formulario tiene errores\'\n    else:\n        response.flash = \'Por favor, complete el formulario\'    \n    return dict(form=form)\n    \n\ndef prestamos():\n    form=crud.create(db.prestamos)\n    if form.accepts(request.vars, session):\n        response.flash = \'Agregado exitosamente\'\n    elif form.errors:\n        response.flash = \'El formulario tiene errores\'\n    else:\n        response.flash = \'Por favor, complete el formulario\'\n    return dict(form=form)\n    \ndef personal():\n    return dict(records=db().select(db.empleados.ALL))\n\ndef clientesall():\n    return dict(records=db().select(db.clientes.ALL))\n    \ndef peliculasall():\n    return dict(records=db().select(db.peliculas.ALL))\n    \ndef prestados():\n    return dict(records=db().select(db.prestamos.ALL))\n\ndef updateempleados():\n    form = SQLFORM(db().empleados, record, deletable=True, delete_label=T(\'Check to delete\'),\n                   ignore_rw=ignore_rw and not keyed,\n                   linkto=URL(\'select\', args=request.args[:1]),\n                   upload=URL(r=request, f=\'download\', args=request.args[:1]))\n\n    if form.accepts(request.vars, session):\n        session.flash = T(\'done!\')\n        qry = query_by_table_type(table, db)\n        redirect(URL(\'select\', args=request.args[:1], vars=dict(query=qry))\n    \n    return dict(form=form,table=db().empleados)\n\nresponse._vars=response._caller(prestamos)\n'
p6
sS'snapshot'
p7
(dp8
S'exception'
p9
(dp10
S'__getslice__'
p11
S"<method-wrapper '__getslice__' of exceptions.SyntaxError object>"
p12
sS'text'
p13
S"'    return dict(form=form,table=db().empleados)\\n'"
p14
sS'__str__'
p15
S"<method-wrapper '__str__' of exceptions.SyntaxError object>"
p16
sS'__reduce__'
p17
S'<built-in method __reduce__ of exceptions.SyntaxError object>'
p18
sS'__dict__'
p19
S'{}'
p20
sS'__sizeof__'
p21
S'<built-in method __sizeof__ of exceptions.SyntaxError object>'
p22
sS'__init__'
p23
S"<method-wrapper '__init__' of exceptions.SyntaxError object>"
p24
sS'__setattr__'
p25
S"<method-wrapper '__setattr__' of exceptions.SyntaxError object>"
p26
sS'__reduce_ex__'
p27
S'<built-in method __reduce_ex__ of exceptions.SyntaxError object>'
p28
sS'__new__'
p29
S'<built-in method __new__ of type object>'
p30
sS'__format__'
p31
S'<built-in method __format__ of exceptions.SyntaxError object>'
p32
sS'__class__'
p33
S"<type 'exceptions.SyntaxError'>"
p34
sS'filename'
p35
S"'/home/marco/proyectos/web2py-trunk/applications/mvstore/controllers/default.py'"
p36
sS'lineno'
p37
S'119'
p38
sS'msg'
p39
S"'invalid syntax'"
p40
sS'__doc__'
p41
S"'Invalid syntax.'"
p42
sS'__getitem__'
p43
S"<method-wrapper '__getitem__' of exceptions.SyntaxError object>"
p44
sS'__setstate__'
p45
S'<built-in method __setstate__ of exceptions.SyntaxError object>'
p46
sS'__getattribute__'
p47
S"<method-wrapper '__getattribute__' of exceptions.SyntaxError object>"
p48
sS'print_file_and_line'
p49
S'None'
p50
sS'args'
p51
S"('invalid syntax', ('/home/marco/proyectos/web2py-trunk/applications/mvstore/controllers/default.py', 119, 10, '    return dict(form=form,table=db().empleados)\\n'))"
p52
sS'__subclasshook__'
p53
S'<built-in method __subclasshook__ of type object>'
p54
sS'offset'
p55
S'10'
p56
sS'__unicode__'
p57
S'<built-in method __unicode__ of exceptions.SyntaxError object>'
p58
sS'__delattr__'
p59
S"<method-wrapper '__delattr__' of exceptions.SyntaxError object>"
p60
sS'__repr__'
p61
S"<method-wrapper '__repr__' of exceptions.SyntaxError object>"
p62
sS'__hash__'
p63
S"<method-wrapper '__hash__' of exceptions.SyntaxError object>"
p64
ssS'evalue'
p65
S'invalid syntax (default.py, line 119)'
p66
sS'request'
p67
ccopy_reg
_reconstructor
p68
(cgluon.html
BEAUTIFY
p69
c__builtin__
object
p70
NtRp71
(dp72
S'attributes'
p73
(dp74
sS'components'
p75
(lp76
g68
(cgluon.html
TABLE
p77
g70
NtRp78
(dp79
g73
(dp80
S'level'
p81
I5
ssS'parent'
p82
Nsg75
(lp83
g68
(cgluon.html
TR
p84
g70
NtRp85
(dp86
g73
(dp87
sg82
g78
sg75
(lp88
g68
(cgluon.html
TD
p89
g70
NtRp90
(dp91
g73
(dp92
S'_style'
p93
S'font-weight:bold;'
p94
ssg82
g85
sg75
(lp95
S'ajax'
p96
asbag68
(g89
g70
NtRp97
(dp98
g73
(dp99
S'_valign'
p100
S'top'
p101
ssg82
g85
sg75
(lp102
S':'
asbag68
(g89
g70
NtRp103
(dp104
g73
(dp105
sg82
g85
sg75
(lp106
g68
(g69
g70
NtRp107
(dp108
g73
(dp109
g81
I5
ssg82
g103
sg75
(lp110
S'False'
p111
asbasbasbag68
(g84
g70
NtRp112
(dp113
g73
(dp114
sg82
g78
sg75
(lp115
g68
(g89
g70
NtRp116
(dp117
g73
(dp118
g93
g94
ssg82
g112
sg75
(lp119
S'application'
p120
asbag68
(g89
g70
NtRp121
(dp122
g73
(dp123
g100
g101
ssg82
g112
sg75
(lp124
S':'
asbag68
(g89
g70
NtRp125
(dp126
g73
(dp127
sg82
g112
sg75
(lp128
g68
(g69
g70
NtRp129
(dp130
g73
(dp131
g81
I5
ssg82
g125
sg75
(lp132
S'mvstore'
p133
asbasbasbag68
(g84
g70
NtRp134
(dp135
g73
(dp136
sg82
g78
sg75
(lp137
g68
(g89
g70
NtRp138
(dp139
g73
(dp140
g93
g94
ssg82
g134
sg75
(lp141
g51
asbag68
(g89
g70
NtRp142
(dp143
g73
(dp144
g100
g101
ssg82
g134
sg75
(lp145
S':'
asbag68
(g89
g70
NtRp146
(dp147
g73
(dp148
sg82
g134
sg75
(lp149
g68
(g69
g70
NtRp150
(dp151
g73
(dp152
g81
I5
ssg82
g146
sg75
(lp153
g68
(g77
g70
NtRp154
(dp155
g73
(dp156
g81
I4
ssg82
Nsg75
(lp157
sbasbasbasbag68
(g84
g70
NtRp158
(dp159
g73
(dp160
sg82
g78
sg75
(lp161
g68
(g89
g70
NtRp162
(dp163
g73
(dp164
g93
g94
ssg82
g158
sg75
(lp165
S'body'
p166
asbag68
(g89
g70
NtRp167
(dp168
g73
(dp169
g100
g101
ssg82
g158
sg75
(lp170
S':'
asbag68
(g89
g70
NtRp171
(dp172
g73
(dp173
sg82
g158
sg75
(lp174
g68
(g69
g70
NtRp175
(dp176
g73
(dp177
g81
I5
ssg82
g171
sg75
(lp178
S'<cStringIO.StringO object at 0x1e90c00>'
p179
asbasbasbag68
(g84
g70
NtRp180
(dp181
g73
(dp182
sg82
g78
sg75
(lp183
g68
(g89
g70
NtRp184
(dp185
g73
(dp186
g93
g94
ssg82
g180
sg75
(lp187
S'client'
p188
asbag68
(g89
g70
NtRp189
(dp190
g73
(dp191
g100
g101
ssg82
g180
sg75
(lp192
S':'
asbag68
(g89
g70
NtRp193
(dp194
g73
(dp195
sg82
g180
sg75
(lp196
g68
(g69
g70
NtRp197
(dp198
g73
(dp199
g81
I5
ssg82
g193
sg75
(lp200
S'127.0.0.1'
p201
asbasbasbag68
(g84
g70
NtRp202
(dp203
g73
(dp204
sg82
g78
sg75
(lp205
g68
(g89
g70
NtRp206
(dp207
g73
(dp208
g93
g94
ssg82
g202
sg75
(lp209
S'controller'
p210
asbag68
(g89
g70
NtRp211
(dp212
g73
(dp213
g100
g101
ssg82
g202
sg75
(lp214
S':'
asbag68
(g89
g70
NtRp215
(dp216
g73
(dp217
sg82
g202
sg75
(lp218
g68
(g69
g70
NtRp219
(dp220
g73
(dp221
g81
I5
ssg82
g215
sg75
(lp222
S'default'
p223
asbasbasbag68
(g84
g70
NtRp224
(dp225
g73
(dp226
sg82
g78
sg75
(lp227
g68
(g89
g70
NtRp228
(dp229
g73
(dp230
g93
g94
ssg82
g224
sg75
(lp231
S'cookies'
p232
asbag68
(g89
g70
NtRp233
(dp234
g73
(dp235
g100
g101
ssg82
g224
sg75
(lp236
S':'
asbag68
(g89
g70
NtRp237
(dp238
g73
(dp239
sg82
g224
sg75
(lp240
g68
(g69
g70
NtRp241
(dp242
g73
(dp243
g81
I5
ssg82
g237
sg75
(lp244
g68
(g77
g70
NtRp245
(dp246
g73
(dp247
g81
I4
ssg82
Nsg75
(lp248
sbasbasbasbag68
(g84
g70
NtRp249
(dp250
g73
(dp251
sg82
g78
sg75
(lp252
g68
(g89
g70
NtRp253
(dp254
g73
(dp255
g93
g94
ssg82
g249
sg75
(lp256
S'env'
p257
asbag68
(g89
g70
NtRp258
(dp259
g73
(dp260
g100
g101
ssg82
g249
sg75
(lp261
S':'
asbag68
(g89
g70
NtRp262
(dp263
g73
(dp264
sg82
g249
sg75
(lp265
g68
(g69
g70
NtRp266
(dp267
g73
(dp268
g81
I5
ssg82
g262
sg75
(lp269
g68
(g77
g70
NtRp270
(dp271
g73
(dp272
g81
I4
ssg82
Nsg75
(lp273
g68
(g84
g70
NtRp274
(dp275
g73
(dp276
sg82
g270
sg75
(lp277
g68
(g89
g70
NtRp278
(dp279
g73
(dp280
g93
g94
ssg82
g274
sg75
(lp281
S'app_folders'
p282
asbag68
(g89
g70
NtRp283
(dp284
g73
(dp285
g100
g101
ssg82
g274
sg75
(lp286
S':'
asbag68
(g89
g70
NtRp287
(dp288
g73
(dp289
sg82
g274
sg75
(lp290
g68
(g69
g70
NtRp291
(dp292
g73
(dp293
g81
I4
ssg82
g287
sg75
(lp294
S"set(['/home/marco/proyectos/web2py-trunk/applications/mvstore/', '/home/marco/proyectos/web2py-trunk/applications/admin/'])"
p295
asbasbasbag68
(g84
g70
NtRp296
(dp297
g73
(dp298
sg82
g270
sg75
(lp299
g68
(g89
g70
NtRp300
(dp301
g73
(dp302
g93
g94
ssg82
g296
sg75
(lp303
S'applications_parent'
p304
asbag68
(g89
g70
NtRp305
(dp306
g73
(dp307
g100
g101
ssg82
g296
sg75
(lp308
S':'
asbag68
(g89
g70
NtRp309
(dp310
g73
(dp311
sg82
g296
sg75
(lp312
g68
(g69
g70
NtRp313
(dp314
g73
(dp315
g81
I4
ssg82
g309
sg75
(lp316
S'/home/marco/proyectos/web2py-trunk'
p317
asbasbasbag68
(g84
g70
NtRp318
(dp319
g73
(dp320
sg82
g270
sg75
(lp321
g68
(g89
g70
NtRp322
(dp323
g73
(dp324
g93
g94
ssg82
g318
sg75
(lp325
S'cmd_args'
p326
asbag68
(g89
g70
NtRp327
(dp328
g73
(dp329
g100
g101
ssg82
g318
sg75
(lp330
S':'
asbag68
(g89
g70
NtRp331
(dp332
g73
(dp333
sg82
g318
sg75
(lp334
g68
(g69
g70
NtRp335
(dp336
g73
(dp337
g81
I4
ssg82
g331
sg75
(lp338
g68
(g77
g70
NtRp339
(dp340
g73
(dp341
g81
I3
ssg82
Nsg75
(lp342
sbasbasbasbag68
(g84
g70
NtRp343
(dp344
g73
(dp345
sg82
g270
sg75
(lp346
g68
(g89
g70
NtRp347
(dp348
g73
(dp349
g93
g94
ssg82
g343
sg75
(lp350
S'cmd_options'
p351
asbag68
(g89
g70
NtRp352
(dp353
g73
(dp354
g100
g101
ssg82
g343
sg75
(lp355
S':'
asbag68
(g89
g70
NtRp356
(dp357
g73
(dp358
sg82
g343
sg75
(lp359
g68
(g69
g70
NtRp360
(dp361
g73
(dp362
g81
I4
ssg82
g356
sg75
(lp363
S"<Values at 0x1e61b90: {'verbose': False, 'ip': '127.0.0.1', 'shutdown_timeout': 5, 'taskbar': False, 'port': 8000, 'maxthreads': None, 'softcron': False, 'server_name': 'kiki', 'bpython': False, 'nogui': False, 'nocron': False, 'extcron': False, 'debuglevel': 30, 'test': None, 'folder': '/home/marco/proyectos/web2py-trunk', 'config': '', 'import_models': False, 'winservice': '', 'shell': None, 'run': '', 'log_filename': 'httpserver.log', 'args': [''], 'profiler_filename': None, 'ssl_private_key': '', 'password': 'asd', 'request_queue_size': 5, 'ssl_certificate': '', 'cronjob': False, 'plain': False, 'quiet': False, 'interfaces': None, 'minthreads': None, 'timeout': 10, 'numthreads': None, 'nobanner': False, 'pid_filename': 'httpserver.pid'}>"
p364
asbasbasbag68
(g84
g70
NtRp365
(dp366
g73
(dp367
sg82
g270
sg75
(lp368
g68
(g89
g70
NtRp369
(dp370
g73
(dp371
g93
g94
ssg82
g365
sg75
(lp372
S'db_sessions'
p373
asbag68
(g89
g70
NtRp374
(dp375
g73
(dp376
g100
g101
ssg82
g365
sg75
(lp377
S':'
asbag68
(g89
g70
NtRp378
(dp379
g73
(dp380
sg82
g365
sg75
(lp381
g68
(g69
g70
NtRp382
(dp383
g73
(dp384
g81
I4
ssg82
g378
sg75
(lp385
S'set([])'
p386
asbasbasbag68
(g84
g70
NtRp387
(dp388
g73
(dp389
sg82
g270
sg75
(lp390
g68
(g89
g70
NtRp391
(dp392
g73
(dp393
g93
g94
ssg82
g387
sg75
(lp394
S'debugging'
p395
asbag68
(g89
g70
NtRp396
(dp397
g73
(dp398
g100
g101
ssg82
g387
sg75
(lp399
S':'
asbag68
(g89
g70
NtRp400
(dp401
g73
(dp402
sg82
g387
sg75
(lp403
g68
(g69
g70
NtRp404
(dp405
g73
(dp406
g81
I4
ssg82
g400
sg75
(lp407
g111
asbasbasbag68
(g84
g70
NtRp408
(dp409
g73
(dp410
sg82
g270
sg75
(lp411
g68
(g89
g70
NtRp412
(dp413
g73
(dp414
g93
g94
ssg82
g408
sg75
(lp415
S'gluon_parent'
p416
asbag68
(g89
g70
NtRp417
(dp418
g73
(dp419
g100
g101
ssg82
g408
sg75
(lp420
S':'
asbag68
(g89
g70
NtRp421
(dp422
g73
(dp423
sg82
g408
sg75
(lp424
g68
(g69
g70
NtRp425
(dp426
g73
(dp427
g81
I4
ssg82
g421
sg75
(lp428
S'/home/marco/proyectos/web2py-trunk'
p429
asbasbasbag68
(g84
g70
NtRp430
(dp431
g73
(dp432
sg82
g270
sg75
(lp433
g68
(g89
g70
NtRp434
(dp435
g73
(dp436
g93
g94
ssg82
g430
sg75
(lp437
S'http_accept'
p438
asbag68
(g89
g70
NtRp439
(dp440
g73
(dp441
g100
g101
ssg82
g430
sg75
(lp442
S':'
asbag68
(g89
g70
NtRp443
(dp444
g73
(dp445
sg82
g430
sg75
(lp446
g68
(g69
g70
NtRp447
(dp448
g73
(dp449
g81
I4
ssg82
g443
sg75
(lp450
S'application/xml,application/xhtml+xml,text/html;q=0.9,text/plain;q=0.8,image/png,*/*;q=0.5'
p451
asbasbasbag68
(g84
g70
NtRp452
(dp453
g73
(dp454
sg82
g270
sg75
(lp455
g68
(g89
g70
NtRp456
(dp457
g73
(dp458
g93
g94
ssg82
g452
sg75
(lp459
S'http_accept_charset'
p460
asbag68
(g89
g70
NtRp461
(dp462
g73
(dp463
g100
g101
ssg82
g452
sg75
(lp464
S':'
asbag68
(g89
g70
NtRp465
(dp466
g73
(dp467
sg82
g452
sg75
(lp468
g68
(g69
g70
NtRp469
(dp470
g73
(dp471
g81
I4
ssg82
g465
sg75
(lp472
S'ISO-8859-1,utf-8;q=0.7,*;q=0.3'
p473
asbasbasbag68
(g84
g70
NtRp474
(dp475
g73
(dp476
sg82
g270
sg75
(lp477
g68
(g89
g70
NtRp478
(dp479
g73
(dp480
g93
g94
ssg82
g474
sg75
(lp481
S'http_accept_encoding'
p482
asbag68
(g89
g70
NtRp483
(dp484
g73
(dp485
g100
g101
ssg82
g474
sg75
(lp486
S':'
asbag68
(g89
g70
NtRp487
(dp488
g73
(dp489
sg82
g474
sg75
(lp490
g68
(g69
g70
NtRp491
(dp492
g73
(dp493
g81
I4
ssg82
g487
sg75
(lp494
S'gzip,deflate,sdch'
p495
asbasbasbag68
(g84
g70
NtRp496
(dp497
g73
(dp498
sg82
g270
sg75
(lp499
g68
(g89
g70
NtRp500
(dp501
g73
(dp502
g93
g94
ssg82
g496
sg75
(lp503
S'http_accept_language'
p504
asbag68
(g89
g70
NtRp505
(dp506
g73
(dp507
g100
g101
ssg82
g496
sg75
(lp508
S':'
asbag68
(g89
g70
NtRp509
(dp510
g73
(dp511
sg82
g496
sg75
(lp512
g68
(g69
g70
NtRp513
(dp514
g73
(dp515
g81
I4
ssg82
g509
sg75
(lp516
S'es,en-US;q=0.8,en;q=0.6'
p517
asbasbasbag68
(g84
g70
NtRp518
(dp519
g73
(dp520
sg82
g270
sg75
(lp521
g68
(g89
g70
NtRp522
(dp523
g73
(dp524
g93
g94
ssg82
g518
sg75
(lp525
S'http_connection'
p526
asbag68
(g89
g70
NtRp527
(dp528
g73
(dp529
g100
g101
ssg82
g518
sg75
(lp530
S':'
asbag68
(g89
g70
NtRp531
(dp532
g73
(dp533
sg82
g518
sg75
(lp534
g68
(g69
g70
NtRp535
(dp536
g73
(dp537
g81
I4
ssg82
g531
sg75
(lp538
S'keep-alive'
p539
asbasbasbag68
(g84
g70
NtRp540
(dp541
g73
(dp542
sg82
g270
sg75
(lp543
g68
(g89
g70
NtRp544
(dp545
g73
(dp546
g93
g94
ssg82
g540
sg75
(lp547
S'http_host'
p548
asbag68
(g89
g70
NtRp549
(dp550
g73
(dp551
g100
g101
ssg82
g540
sg75
(lp552
S':'
asbag68
(g89
g70
NtRp553
(dp554
g73
(dp555
sg82
g540
sg75
(lp556
g68
(g69
g70
NtRp557
(dp558
g73
(dp559
g81
I4
ssg82
g553
sg75
(lp560
S'127.0.0.1:8000'
p561
asbasbasbag68
(g84
g70
NtRp562
(dp563
g73
(dp564
sg82
g270
sg75
(lp565
g68
(g89
g70
NtRp566
(dp567
g73
(dp568
g93
g94
ssg82
g562
sg75
(lp569
S'http_referer'
p570
asbag68
(g89
g70
NtRp571
(dp572
g73
(dp573
g100
g101
ssg82
g562
sg75
(lp574
S':'
asbag68
(g89
g70
NtRp575
(dp576
g73
(dp577
sg82
g562
sg75
(lp578
g68
(g69
g70
NtRp579
(dp580
g73
(dp581
g81
I4
ssg82
g575
sg75
(lp582
S'http://127.0.0.1:8000/mvstore/default/prestamos'
p583
asbasbasbag68
(g84
g70
NtRp584
(dp585
g73
(dp586
sg82
g270
sg75
(lp587
g68
(g89
g70
NtRp588
(dp589
g73
(dp590
g93
g94
ssg82
g584
sg75
(lp591
S'http_user_agent'
p592
asbag68
(g89
g70
NtRp593
(dp594
g73
(dp595
g100
g101
ssg82
g584
sg75
(lp596
S':'
asbag68
(g89
g70
NtRp597
(dp598
g73
(dp599
sg82
g584
sg75
(lp600
g68
(g69
g70
NtRp601
(dp602
g73
(dp603
g81
I4
ssg82
g597
sg75
(lp604
S'Mozilla/5.0 (X11; U; Linux x86_64; en-US) AppleWebKit/534.16 (KHTML, like Gecko) Chrome/10.0.648.205 Safari/534.16'
p605
asbasbasbag68
(g84
g70
NtRp606
(dp607
g73
(dp608
sg82
g270
sg75
(lp609
g68
(g89
g70
NtRp610
(dp611
g73
(dp612
g93
g94
ssg82
g606
sg75
(lp613
S'path_info'
p614
asbag68
(g89
g70
NtRp615
(dp616
g73
(dp617
g100
g101
ssg82
g606
sg75
(lp618
S':'
asbag68
(g89
g70
NtRp619
(dp620
g73
(dp621
sg82
g606
sg75
(lp622
g68
(g69
g70
NtRp623
(dp624
g73
(dp625
g81
I4
ssg82
g619
sg75
(lp626
S'/mvstore/default/prestamos'
p627
asbasbasbag68
(g84
g70
NtRp628
(dp629
g73
(dp630
sg82
g270
sg75
(lp631
g68
(g89
g70
NtRp632
(dp633
g73
(dp634
g93
g94
ssg82
g628
sg75
(lp635
S'query_string'
p636
asbag68
(g89
g70
NtRp637
(dp638
g73
(dp639
g100
g101
ssg82
g628
sg75
(lp640
S':'
asbag68
(g89
g70
NtRp641
(dp642
g73
(dp643
sg82
g628
sg75
(lp644
g68
(g69
g70
NtRp645
(dp646
g73
(dp647
g81
I4
ssg82
g641
sg75
(lp648
S''
asbasbasbag68
(g84
g70
NtRp649
(dp650
g73
(dp651
sg82
g270
sg75
(lp652
g68
(g89
g70
NtRp653
(dp654
g73
(dp655
g93
g94
ssg82
g649
sg75
(lp656
S'remote_addr'
p657
asbag68
(g89
g70
NtRp658
(dp659
g73
(dp660
g100
g101
ssg82
g649
sg75
(lp661
S':'
asbag68
(g89
g70
NtRp662
(dp663
g73
(dp664
sg82
g649
sg75
(lp665
g68
(g69
g70
NtRp666
(dp667
g73
(dp668
g81
I4
ssg82
g662
sg75
(lp669
g201
asbasbasbag68
(g84
g70
NtRp670
(dp671
g73
(dp672
sg82
g270
sg75
(lp673
g68
(g89
g70
NtRp674
(dp675
g73
(dp676
g93
g94
ssg82
g670
sg75
(lp677
S'remote_port'
p678
asbag68
(g89
g70
NtRp679
(dp680
g73
(dp681
g100
g101
ssg82
g670
sg75
(lp682
S':'
asbag68
(g89
g70
NtRp683
(dp684
g73
(dp685
sg82
g670
sg75
(lp686
g68
(g69
g70
NtRp687
(dp688
g73
(dp689
g81
I4
ssg82
g683
sg75
(lp690
S'46469'
p691
asbasbasbag68
(g84
g70
NtRp692
(dp693
g73
(dp694
sg82
g270
sg75
(lp695
g68
(g89
g70
NtRp696
(dp697
g73
(dp698
g93
g94
ssg82
g692
sg75
(lp699
S'request_method'
p700
asbag68
(g89
g70
NtRp701
(dp702
g73
(dp703
g100
g101
ssg82
g692
sg75
(lp704
S':'
asbag68
(g89
g70
NtRp705
(dp706
g73
(dp707
sg82
g692
sg75
(lp708
g68
(g69
g70
NtRp709
(dp710
g73
(dp711
g81
I4
ssg82
g705
sg75
(lp712
S'GET'
p713
asbasbasbag68
(g84
g70
NtRp714
(dp715
g73
(dp716
sg82
g270
sg75
(lp717
g68
(g89
g70
NtRp718
(dp719
g73
(dp720
g93
g94
ssg82
g714
sg75
(lp721
S'script_name'
p722
asbag68
(g89
g70
NtRp723
(dp724
g73
(dp725
g100
g101
ssg82
g714
sg75
(lp726
S':'
asbag68
(g89
g70
NtRp727
(dp728
g73
(dp729
sg82
g714
sg75
(lp730
g68
(g69
g70
NtRp731
(dp732
g73
(dp733
g81
I4
ssg82
g727
sg75
(lp734
S''
asbasbasbag68
(g84
g70
NtRp735
(dp736
g73
(dp737
sg82
g270
sg75
(lp738
g68
(g89
g70
NtRp739
(dp740
g73
(dp741
g93
g94
ssg82
g735
sg75
(lp742
S'server_name'
p743
asbag68
(g89
g70
NtRp744
(dp745
g73
(dp746
g100
g101
ssg82
g735
sg75
(lp747
S':'
asbag68
(g89
g70
NtRp748
(dp749
g73
(dp750
sg82
g735
sg75
(lp751
g68
(g69
g70
NtRp752
(dp753
g73
(dp754
g81
I4
ssg82
g748
sg75
(lp755
S'kiki'
p756
asbasbasbag68
(g84
g70
NtRp757
(dp758
g73
(dp759
sg82
g270
sg75
(lp760
g68
(g89
g70
NtRp761
(dp762
g73
(dp763
g93
g94
ssg82
g757
sg75
(lp764
S'server_port'
p765
asbag68
(g89
g70
NtRp766
(dp767
g73
(dp768
g100
g101
ssg82
g757
sg75
(lp769
S':'
asbag68
(g89
g70
NtRp770
(dp771
g73
(dp772
sg82
g757
sg75
(lp773
g68
(g69
g70
NtRp774
(dp775
g73
(dp776
g81
I4
ssg82
g770
sg75
(lp777
S'8000'
p778
asbasbasbag68
(g84
g70
NtRp779
(dp780
g73
(dp781
sg82
g270
sg75
(lp782
g68
(g89
g70
NtRp783
(dp784
g73
(dp785
g93
g94
ssg82
g779
sg75
(lp786
S'server_protocol'
p787
asbag68
(g89
g70
NtRp788
(dp789
g73
(dp790
g100
g101
ssg82
g779
sg75
(lp791
S':'
asbag68
(g89
g70
NtRp792
(dp793
g73
(dp794
sg82
g779
sg75
(lp795
g68
(g69
g70
NtRp796
(dp797
g73
(dp798
g81
I4
ssg82
g792
sg75
(lp799
S'HTTP/1.1'
p800
asbasbasbag68
(g84
g70
NtRp801
(dp802
g73
(dp803
sg82
g270
sg75
(lp804
g68
(g89
g70
NtRp805
(dp806
g73
(dp807
g93
g94
ssg82
g801
sg75
(lp808
S'server_software'
p809
asbag68
(g89
g70
NtRp810
(dp811
g73
(dp812
g100
g101
ssg82
g801
sg75
(lp813
S':'
asbag68
(g89
g70
NtRp814
(dp815
g73
(dp816
sg82
g801
sg75
(lp817
g68
(g69
g70
NtRp818
(dp819
g73
(dp820
g81
I4
ssg82
g814
sg75
(lp821
S'Rocket 1.2.2'
p822
asbasbasbag68
(g84
g70
NtRp823
(dp824
g73
(dp825
sg82
g270
sg75
(lp826
g68
(g89
g70
NtRp827
(dp828
g73
(dp829
g93
g94
ssg82
g823
sg75
(lp830
S'web2py_crontype'
p831
asbag68
(g89
g70
NtRp832
(dp833
g73
(dp834
g100
g101
ssg82
g823
sg75
(lp835
S':'
asbag68
(g89
g70
NtRp836
(dp837
g73
(dp838
sg82
g823
sg75
(lp839
g68
(g69
g70
NtRp840
(dp841
g73
(dp842
g81
I4
ssg82
g836
sg75
(lp843
S'hard'
p844
asbasbasbag68
(g84
g70
NtRp845
(dp846
g73
(dp847
sg82
g270
sg75
(lp848
g68
(g89
g70
NtRp849
(dp850
g73
(dp851
g93
g94
ssg82
g845
sg75
(lp852
S'web2py_path'
p853
asbag68
(g89
g70
NtRp854
(dp855
g73
(dp856
g100
g101
ssg82
g845
sg75
(lp857
S':'
asbag68
(g89
g70
NtRp858
(dp859
g73
(dp860
sg82
g845
sg75
(lp861
g68
(g69
g70
NtRp862
(dp863
g73
(dp864
g81
I4
ssg82
g858
sg75
(lp865
g317
asbasbasbag68
(g84
g70
NtRp866
(dp867
g73
(dp868
sg82
g270
sg75
(lp869
g68
(g89
g70
NtRp870
(dp871
g73
(dp872
g93
g94
ssg82
g866
sg75
(lp873
S'web2py_version'
p874
asbag68
(g89
g70
NtRp875
(dp876
g73
(dp877
g100
g101
ssg82
g866
sg75
(lp878
S':'
asbag68
(g89
g70
NtRp879
(dp880
g73
(dp881
sg82
g866
sg75
(lp882
g68
(g69
g70
NtRp883
(dp884
g73
(dp885
g81
I4
ssg82
g879
sg75
(lp886
S'        iersion 1.94.1 (2011-03-17 16:30:58)\n'
p887
asbasbasbag68
(g84
g70
NtRp888
(dp889
g73
(dp890
sg82
g270
sg75
(lp891
g68
(g89
g70
NtRp892
(dp893
g73
(dp894
g93
g94
ssg82
g888
sg75
(lp895
S'wsgi_errors'
p896
asbag68
(g89
g70
NtRp897
(dp898
g73
(dp899
g100
g101
ssg82
g888
sg75
(lp900
S':'
asbag68
(g89
g70
NtRp901
(dp902
g73
(dp903
sg82
g888
sg75
(lp904
g68
(g69
g70
NtRp905
(dp906
g73
(dp907
g81
I4
ssg82
g901
sg75
(lp908
S"<open file '<stderr>', mode 'w' at 0x7f65db6f81e0>"
p909
asbasbasbag68
(g84
g70
NtRp910
(dp911
g73
(dp912
sg82
g270
sg75
(lp913
g68
(g89
g70
NtRp914
(dp915
g73
(dp916
g93
g94
ssg82
g910
sg75
(lp917
S'wsgi_file_wrapper'
p918
asbag68
(g89
g70
NtRp919
(dp920
g73
(dp921
g100
g101
ssg82
g910
sg75
(lp922
S':'
asbag68
(g89
g70
NtRp923
(dp924
g73
(dp925
sg82
g910
sg75
(lp926
g68
(g69
g70
NtRp927
(dp928
g73
(dp929
g81
I4
ssg82
g923
sg75
(lp930
S'<class gluon.rocket.FileWrapper at 0x1cd43b0>'
p931
asbasbasbag68
(g84
g70
NtRp932
(dp933
g73
(dp934
sg82
g270
sg75
(lp935
g68
(g89
g70
NtRp936
(dp937
g73
(dp938
g93
g94
ssg82
g932
sg75
(lp939
S'wsgi_input'
p940
asbag68
(g89
g70
NtRp941
(dp942
g73
(dp943
g100
g101
ssg82
g932
sg75
(lp944
S':'
asbag68
(g89
g70
NtRp945
(dp946
g73
(dp947
sg82
g932
sg75
(lp948
g68
(g69
g70
NtRp949
(dp950
g73
(dp951
g81
I4
ssg82
g945
sg75
(lp952
S'<socket._fileobject object at 0x1e83450>'
p953
asbasbasbag68
(g84
g70
NtRp954
(dp955
g73
(dp956
sg82
g270
sg75
(lp957
g68
(g89
g70
NtRp958
(dp959
g73
(dp960
g93
g94
ssg82
g954
sg75
(lp961
S'wsgi_multiprocess'
p962
asbag68
(g89
g70
NtRp963
(dp964
g73
(dp965
g100
g101
ssg82
g954
sg75
(lp966
S':'
asbag68
(g89
g70
NtRp967
(dp968
g73
(dp969
sg82
g954
sg75
(lp970
g68
(g69
g70
NtRp971
(dp972
g73
(dp973
g81
I4
ssg82
g967
sg75
(lp974
g111
asbasbasbag68
(g84
g70
NtRp975
(dp976
g73
(dp977
sg82
g270
sg75
(lp978
g68
(g89
g70
NtRp979
(dp980
g73
(dp981
g93
g94
ssg82
g975
sg75
(lp982
S'wsgi_multithread'
p983
asbag68
(g89
g70
NtRp984
(dp985
g73
(dp986
g100
g101
ssg82
g975
sg75
(lp987
S':'
asbag68
(g89
g70
NtRp988
(dp989
g73
(dp990
sg82
g975
sg75
(lp991
g68
(g69
g70
NtRp992
(dp993
g73
(dp994
g81
I4
ssg82
g988
sg75
(lp995
S'True'
p996
asbasbasbag68
(g84
g70
NtRp997
(dp998
g73
(dp999
sg82
g270
sg75
(lp1000
g68
(g89
g70
NtRp1001
(dp1002
g73
(dp1003
g93
g94
ssg82
g997
sg75
(lp1004
S'wsgi_run_once'
p1005
asbag68
(g89
g70
NtRp1006
(dp1007
g73
(dp1008
g100
g101
ssg82
g997
sg75
(lp1009
S':'
asbag68
(g89
g70
NtRp1010
(dp1011
g73
(dp1012
sg82
g997
sg75
(lp1013
g68
(g69
g70
NtRp1014
(dp1015
g73
(dp1016
g81
I4
ssg82
g1010
sg75
(lp1017
g111
asbasbasbag68
(g84
g70
NtRp1018
(dp1019
g73
(dp1020
sg82
g270
sg75
(lp1021
g68
(g89
g70
NtRp1022
(dp1023
g73
(dp1024
g93
g94
ssg82
g1018
sg75
(lp1025
S'wsgi_url_scheme'
p1026
asbag68
(g89
g70
NtRp1027
(dp1028
g73
(dp1029
g100
g101
ssg82
g1018
sg75
(lp1030
S':'
asbag68
(g89
g70
NtRp1031
(dp1032
g73
(dp1033
sg82
g1018
sg75
(lp1034
g68
(g69
g70
NtRp1035
(dp1036
g73
(dp1037
g81
I4
ssg82
g1031
sg75
(lp1038
S'http'
p1039
asbasbasbag68
(g84
g70
NtRp1040
(dp1041
g73
(dp1042
sg82
g270
sg75
(lp1043
g68
(g89
g70
NtRp1044
(dp1045
g73
(dp1046
g93
g94
ssg82
g1040
sg75
(lp1047
S'wsgi_version'
p1048
asbag68
(g89
g70
NtRp1049
(dp1050
g73
(dp1051
g100
g101
ssg82
g1040
sg75
(lp1052
S':'
asbag68
(g89
g70
NtRp1053
(dp1054
g73
(dp1055
sg82
g1040
sg75
(lp1056
g68
(g69
g70
NtRp1057
(dp1058
g73
(dp1059
g81
I4
ssg82
g1053
sg75
(lp1060
g68
(g77
g70
NtRp1061
(dp1062
g73
(dp1063
g81
I3
ssg82
Nsg75
(lp1064
g68
(g84
g70
NtRp1065
(dp1066
g73
(dp1067
sg82
g1061
sg75
(lp1068
g68
(g89
g70
NtRp1069
(dp1070
g73
(dp1071
sg82
g1065
sg75
(lp1072
g68
(g69
g70
NtRp1073
(dp1074
g73
(dp1075
g81
I3
ssg82
g1069
sg75
(lp1076
S'1'
asbasbasbag68
(g84
g70
NtRp1077
(dp1078
g73
(dp1079
sg82
g1061
sg75
(lp1080
g68
(g89
g70
NtRp1081
(dp1082
g73
(dp1083
sg82
g1077
sg75
(lp1084
g68
(g69
g70
NtRp1085
(dp1086
g73
(dp1087
g81
I3
ssg82
g1081
sg75
(lp1088
S'0'
asbasbasbasbasbasbasbasbasbasbasbag68
(g84
g70
NtRp1089
(dp1090
g73
(dp1091
sg82
g78
sg75
(lp1092
g68
(g89
g70
NtRp1093
(dp1094
g73
(dp1095
g93
g94
ssg82
g1089
sg75
(lp1096
S'extension'
p1097
asbag68
(g89
g70
NtRp1098
(dp1099
g73
(dp1100
g100
g101
ssg82
g1089
sg75
(lp1101
S':'
asbag68
(g89
g70
NtRp1102
(dp1103
g73
(dp1104
sg82
g1089
sg75
(lp1105
g68
(g69
g70
NtRp1106
(dp1107
g73
(dp1108
g81
I5
ssg82
g1102
sg75
(lp1109
S'html'
p1110
asbasbasbag68
(g84
g70
NtRp1111
(dp1112
g73
(dp1113
sg82
g78
sg75
(lp1114
g68
(g89
g70
NtRp1115
(dp1116
g73
(dp1117
g93
g94
ssg82
g1111
sg75
(lp1118
S'folder'
p1119
asbag68
(g89
g70
NtRp1120
(dp1121
g73
(dp1122
g100
g101
ssg82
g1111
sg75
(lp1123
S':'
asbag68
(g89
g70
NtRp1124
(dp1125
g73
(dp1126
sg82
g1111
sg75
(lp1127
g68
(g69
g70
NtRp1128
(dp1129
g73
(dp1130
g81
I5
ssg82
g1124
sg75
(lp1131
S'/home/marco/proyectos/web2py-trunk/applications/mvstore/'
p1132
asbasbasbag68
(g84
g70
NtRp1133
(dp1134
g73
(dp1135
sg82
g78
sg75
(lp1136
g68
(g89
g70
NtRp1137
(dp1138
g73
(dp1139
g93
g94
ssg82
g1133
sg75
(lp1140
S'function'
p1141
asbag68
(g89
g70
NtRp1142
(dp1143
g73
(dp1144
g100
g101
ssg82
g1133
sg75
(lp1145
S':'
asbag68
(g89
g70
NtRp1146
(dp1147
g73
(dp1148
sg82
g1133
sg75
(lp1149
g68
(g69
g70
NtRp1150
(dp1151
g73
(dp1152
g81
I5
ssg82
g1146
sg75
(lp1153
S'prestamos'
p1154
asbasbasbag68
(g84
g70
NtRp1155
(dp1156
g73
(dp1157
sg82
g78
sg75
(lp1158
g68
(g89
g70
NtRp1159
(dp1160
g73
(dp1161
g93
g94
ssg82
g1155
sg75
(lp1162
S'get_vars'
p1163
asbag68
(g89
g70
NtRp1164
(dp1165
g73
(dp1166
g100
g101
ssg82
g1155
sg75
(lp1167
S':'
asbag68
(g89
g70
NtRp1168
(dp1169
g73
(dp1170
sg82
g1155
sg75
(lp1171
g68
(g69
g70
NtRp1172
(dp1173
g73
(dp1174
g81
I5
ssg82
g1168
sg75
(lp1175
g68
(g77
g70
NtRp1176
(dp1177
g73
(dp1178
g81
I4
ssg82
Nsg75
(lp1179
sbasbasbasbag68
(g84
g70
NtRp1180
(dp1181
g73
(dp1182
sg82
g78
sg75
(lp1183
g68
(g89
g70
NtRp1184
(dp1185
g73
(dp1186
g93
g94
ssg82
g1180
sg75
(lp1187
S'is_https'
p1188
asbag68
(g89
g70
NtRp1189
(dp1190
g73
(dp1191
g100
g101
ssg82
g1180
sg75
(lp1192
S':'
asbag68
(g89
g70
NtRp1193
(dp1194
g73
(dp1195
sg82
g1180
sg75
(lp1196
g68
(g69
g70
NtRp1197
(dp1198
g73
(dp1199
g81
I5
ssg82
g1193
sg75
(lp1200
g111
asbasbasbag68
(g84
g70
NtRp1201
(dp1202
g73
(dp1203
sg82
g78
sg75
(lp1204
g68
(g89
g70
NtRp1205
(dp1206
g73
(dp1207
g93
g94
ssg82
g1201
sg75
(lp1208
S'is_local'
p1209
asbag68
(g89
g70
NtRp1210
(dp1211
g73
(dp1212
g100
g101
ssg82
g1201
sg75
(lp1213
S':'
asbag68
(g89
g70
NtRp1214
(dp1215
g73
(dp1216
sg82
g1201
sg75
(lp1217
g68
(g69
g70
NtRp1218
(dp1219
g73
(dp1220
g81
I5
ssg82
g1214
sg75
(lp1221
g996
asbasbasbag68
(g84
g70
NtRp1222
(dp1223
g73
(dp1224
sg82
g78
sg75
(lp1225
g68
(g89
g70
NtRp1226
(dp1227
g73
(dp1228
g93
g94
ssg82
g1222
sg75
(lp1229
S'is_restful'
p1230
asbag68
(g89
g70
NtRp1231
(dp1232
g73
(dp1233
g100
g101
ssg82
g1222
sg75
(lp1234
S':'
asbag68
(g89
g70
NtRp1235
(dp1236
g73
(dp1237
sg82
g1222
sg75
(lp1238
g68
(g69
g70
NtRp1239
(dp1240
g73
(dp1241
g81
I5
ssg82
g1235
sg75
(lp1242
g111
asbasbasbag68
(g84
g70
NtRp1243
(dp1244
g73
(dp1245
sg82
g78
sg75
(lp1246
g68
(g89
g70
NtRp1247
(dp1248
g73
(dp1249
g93
g94
ssg82
g1243
sg75
(lp1250
S'now'
p1251
asbag68
(g89
g70
NtRp1252
(dp1253
g73
(dp1254
g100
g101
ssg82
g1243
sg75
(lp1255
S':'
asbag68
(g89
g70
NtRp1256
(dp1257
g73
(dp1258
sg82
g1243
sg75
(lp1259
g68
(g69
g70
NtRp1260
(dp1261
g73
(dp1262
g81
I5
ssg82
g1256
sg75
(lp1263
S'datetime.datetime(2011, 6, 19, 20, 55, 8, 993461)'
p1264
asbasbasbag68
(g84
g70
NtRp1265
(dp1266
g73
(dp1267
sg82
g78
sg75
(lp1268
g68
(g89
g70
NtRp1269
(dp1270
g73
(dp1271
g93
g94
ssg82
g1265
sg75
(lp1272
S'post_vars'
p1273
asbag68
(g89
g70
NtRp1274
(dp1275
g73
(dp1276
g100
g101
ssg82
g1265
sg75
(lp1277
S':'
asbag68
(g89
g70
NtRp1278
(dp1279
g73
(dp1280
sg82
g1265
sg75
(lp1281
g68
(g69
g70
NtRp1282
(dp1283
g73
(dp1284
g81
I5
ssg82
g1278
sg75
(lp1285
g68
(g77
g70
NtRp1286
(dp1287
g73
(dp1288
g81
I4
ssg82
Nsg75
(lp1289
sbasbasbasbag68
(g84
g70
NtRp1290
(dp1291
g73
(dp1292
sg82
g78
sg75
(lp1293
g68
(g89
g70
NtRp1294
(dp1295
g73
(dp1296
g93
g94
ssg82
g1290
sg75
(lp1297
S'url'
p1298
asbag68
(g89
g70
NtRp1299
(dp1300
g73
(dp1301
g100
g101
ssg82
g1290
sg75
(lp1302
S':'
asbag68
(g89
g70
NtRp1303
(dp1304
g73
(dp1305
sg82
g1290
sg75
(lp1306
g68
(g69
g70
NtRp1307
(dp1308
g73
(dp1309
g81
I5
ssg82
g1303
sg75
(lp1310
S'/mvstore/default/prestamos'
p1311
asbasbasbag68
(g84
g70
NtRp1312
(dp1313
g73
(dp1314
sg82
g78
sg75
(lp1315
g68
(g89
g70
NtRp1316
(dp1317
g73
(dp1318
g93
g94
ssg82
g1312
sg75
(lp1319
S'uuid'
p1320
asbag68
(g89
g70
NtRp1321
(dp1322
g73
(dp1323
g100
g101
ssg82
g1312
sg75
(lp1324
S':'
asbag68
(g89
g70
NtRp1325
(dp1326
g73
(dp1327
sg82
g1312
sg75
(lp1328
g68
(g69
g70
NtRp1329
(dp1330
g73
(dp1331
g81
I5
ssg82
g1325
sg75
(lp1332
S'mvstore/127.0.0.1.2011-06-19.20-55-08.07434a75-43f5-43c2-8812-108902d35cd7'
p1333
asbasbasbag68
(g84
g70
NtRp1334
(dp1335
g73
(dp1336
sg82
g78
sg75
(lp1337
g68
(g89
g70
NtRp1338
(dp1339
g73
(dp1340
g93
g94
ssg82
g1334
sg75
(lp1341
S'vars'
p1342
asbag68
(g89
g70
NtRp1343
(dp1344
g73
(dp1345
g100
g101
ssg82
g1334
sg75
(lp1346
S':'
asbag68
(g89
g70
NtRp1347
(dp1348
g73
(dp1349
sg82
g1334
sg75
(lp1350
g68
(g69
g70
NtRp1351
(dp1352
g73
(dp1353
g81
I5
ssg82
g1347
sg75
(lp1354
g68
(g77
g70
NtRp1355
(dp1356
g73
(dp1357
g81
I4
ssg82
Nsg75
(lp1358
sbasbasbasbag68
(g84
g70
NtRp1359
(dp1360
g73
(dp1361
sg82
g78
sg75
(lp1362
g68
(g89
g70
NtRp1363
(dp1364
g73
(dp1365
g93
g94
ssg82
g1359
sg75
(lp1366
S'wsgi'
p1367
asbag68
(g89
g70
NtRp1368
(dp1369
g73
(dp1370
g100
g101
ssg82
g1359
sg75
(lp1371
S':'
asbag68
(g89
g70
NtRp1372
(dp1373
g73
(dp1374
sg82
g1359
sg75
(lp1375
g68
(g69
g70
NtRp1376
(dp1377
g73
(dp1378
g81
I5
ssg82
g1372
sg75
(lp1379
g68
(g77
g70
NtRp1380
(dp1381
g73
(dp1382
g81
I4
ssg82
Nsg75
(lp1383
g68
(g84
g70
NtRp1384
(dp1385
g73
(dp1386
sg82
g1380
sg75
(lp1387
g68
(g89
g70
NtRp1388
(dp1389
g73
(dp1390
g93
g94
ssg82
g1384
sg75
(lp1391
S'environ'
p1392
asbag68
(g89
g70
NtRp1393
(dp1394
g73
(dp1395
g100
g101
ssg82
g1384
sg75
(lp1396
S':'
asbag68
(g89
g70
NtRp1397
(dp1398
g73
(dp1399
sg82
g1384
sg75
(lp1400
g68
(g69
g70
NtRp1401
(dp1402
g73
(dp1403
g81
I4
ssg82
g1397
sg75
(lp1404
g68
(g77
g70
NtRp1405
(dp1406
g73
(dp1407
g81
I3
ssg82
Nsg75
(lp1408
g68
(g84
g70
NtRp1409
(dp1410
g73
(dp1411
sg82
g1405
sg75
(lp1412
g68
(g89
g70
NtRp1413
(dp1414
g73
(dp1415
g93
g94
ssg82
g1409
sg75
(lp1416
S'HTTP_ACCEPT'
p1417
asbag68
(g89
g70
NtRp1418
(dp1419
g73
(dp1420
g100
g101
ssg82
g1409
sg75
(lp1421
S':'
asbag68
(g89
g70
NtRp1422
(dp1423
g73
(dp1424
sg82
g1409
sg75
(lp1425
g68
(g69
g70
NtRp1426
(dp1427
g73
(dp1428
g81
I3
ssg82
g1422
sg75
(lp1429
g451
asbasbasbag68
(g84
g70
NtRp1430
(dp1431
g73
(dp1432
sg82
g1405
sg75
(lp1433
g68
(g89
g70
NtRp1434
(dp1435
g73
(dp1436
g93
g94
ssg82
g1430
sg75
(lp1437
S'HTTP_ACCEPT_CHARSET'
p1438
asbag68
(g89
g70
NtRp1439
(dp1440
g73
(dp1441
g100
g101
ssg82
g1430
sg75
(lp1442
S':'
asbag68
(g89
g70
NtRp1443
(dp1444
g73
(dp1445
sg82
g1430
sg75
(lp1446
g68
(g69
g70
NtRp1447
(dp1448
g73
(dp1449
g81
I3
ssg82
g1443
sg75
(lp1450
g473
asbasbasbag68
(g84
g70
NtRp1451
(dp1452
g73
(dp1453
sg82
g1405
sg75
(lp1454
g68
(g89
g70
NtRp1455
(dp1456
g73
(dp1457
g93
g94
ssg82
g1451
sg75
(lp1458
S'HTTP_ACCEPT_ENCODING'
p1459
asbag68
(g89
g70
NtRp1460
(dp1461
g73
(dp1462
g100
g101
ssg82
g1451
sg75
(lp1463
S':'
asbag68
(g89
g70
NtRp1464
(dp1465
g73
(dp1466
sg82
g1451
sg75
(lp1467
g68
(g69
g70
NtRp1468
(dp1469
g73
(dp1470
g81
I3
ssg82
g1464
sg75
(lp1471
g495
asbasbasbag68
(g84
g70
NtRp1472
(dp1473
g73
(dp1474
sg82
g1405
sg75
(lp1475
g68
(g89
g70
NtRp1476
(dp1477
g73
(dp1478
g93
g94
ssg82
g1472
sg75
(lp1479
S'HTTP_ACCEPT_LANGUAGE'
p1480
asbag68
(g89
g70
NtRp1481
(dp1482
g73
(dp1483
g100
g101
ssg82
g1472
sg75
(lp1484
S':'
asbag68
(g89
g70
NtRp1485
(dp1486
g73
(dp1487
sg82
g1472
sg75
(lp1488
g68
(g69
g70
NtRp1489
(dp1490
g73
(dp1491
g81
I3
ssg82
g1485
sg75
(lp1492
g517
asbasbasbag68
(g84
g70
NtRp1493
(dp1494
g73
(dp1495
sg82
g1405
sg75
(lp1496
g68
(g89
g70
NtRp1497
(dp1498
g73
(dp1499
g93
g94
ssg82
g1493
sg75
(lp1500
S'HTTP_CONNECTION'
p1501
asbag68
(g89
g70
NtRp1502
(dp1503
g73
(dp1504
g100
g101
ssg82
g1493
sg75
(lp1505
S':'
asbag68
(g89
g70
NtRp1506
(dp1507
g73
(dp1508
sg82
g1493
sg75
(lp1509
g68
(g69
g70
NtRp1510
(dp1511
g73
(dp1512
g81
I3
ssg82
g1506
sg75
(lp1513
g539
asbasbasbag68
(g84
g70
NtRp1514
(dp1515
g73
(dp1516
sg82
g1405
sg75
(lp1517
g68
(g89
g70
NtRp1518
(dp1519
g73
(dp1520
g93
g94
ssg82
g1514
sg75
(lp1521
S'HTTP_HOST'
p1522
asbag68
(g89
g70
NtRp1523
(dp1524
g73
(dp1525
g100
g101
ssg82
g1514
sg75
(lp1526
S':'
asbag68
(g89
g70
NtRp1527
(dp1528
g73
(dp1529
sg82
g1514
sg75
(lp1530
g68
(g69
g70
NtRp1531
(dp1532
g73
(dp1533
g81
I3
ssg82
g1527
sg75
(lp1534
g561
asbasbasbag68
(g84
g70
NtRp1535
(dp1536
g73
(dp1537
sg82
g1405
sg75
(lp1538
g68
(g89
g70
NtRp1539
(dp1540
g73
(dp1541
g93
g94
ssg82
g1535
sg75
(lp1542
S'HTTP_REFERER'
p1543
asbag68
(g89
g70
NtRp1544
(dp1545
g73
(dp1546
g100
g101
ssg82
g1535
sg75
(lp1547
S':'
asbag68
(g89
g70
NtRp1548
(dp1549
g73
(dp1550
sg82
g1535
sg75
(lp1551
g68
(g69
g70
NtRp1552
(dp1553
g73
(dp1554
g81
I3
ssg82
g1548
sg75
(lp1555
g583
asbasbasbag68
(g84
g70
NtRp1556
(dp1557
g73
(dp1558
sg82
g1405
sg75
(lp1559
g68
(g89
g70
NtRp1560
(dp1561
g73
(dp1562
g93
g94
ssg82
g1556
sg75
(lp1563
S'HTTP_USER_AGENT'
p1564
asbag68
(g89
g70
NtRp1565
(dp1566
g73
(dp1567
g100
g101
ssg82
g1556
sg75
(lp1568
S':'
asbag68
(g89
g70
NtRp1569
(dp1570
g73
(dp1571
sg82
g1556
sg75
(lp1572
g68
(g69
g70
NtRp1573
(dp1574
g73
(dp1575
g81
I3
ssg82
g1569
sg75
(lp1576
g605
asbasbasbag68
(g84
g70
NtRp1577
(dp1578
g73
(dp1579
sg82
g1405
sg75
(lp1580
g68
(g89
g70
NtRp1581
(dp1582
g73
(dp1583
g93
g94
ssg82
g1577
sg75
(lp1584
S'PATH_INFO'
p1585
asbag68
(g89
g70
NtRp1586
(dp1587
g73
(dp1588
g100
g101
ssg82
g1577
sg75
(lp1589
S':'
asbag68
(g89
g70
NtRp1590
(dp1591
g73
(dp1592
sg82
g1577
sg75
(lp1593
g68
(g69
g70
NtRp1594
(dp1595
g73
(dp1596
g81
I3
ssg82
g1590
sg75
(lp1597
g627
asbasbasbag68
(g84
g70
NtRp1598
(dp1599
g73
(dp1600
sg82
g1405
sg75
(lp1601
g68
(g89
g70
NtRp1602
(dp1603
g73
(dp1604
g93
g94
ssg82
g1598
sg75
(lp1605
S'QUERY_STRING'
p1606
asbag68
(g89
g70
NtRp1607
(dp1608
g73
(dp1609
g100
g101
ssg82
g1598
sg75
(lp1610
S':'
asbag68
(g89
g70
NtRp1611
(dp1612
g73
(dp1613
sg82
g1598
sg75
(lp1614
g68
(g69
g70
NtRp1615
(dp1616
g73
(dp1617
g81
I3
ssg82
g1611
sg75
(lp1618
S''
asbasbasbag68
(g84
g70
NtRp1619
(dp1620
g73
(dp1621
sg82
g1405
sg75
(lp1622
g68
(g89
g70
NtRp1623
(dp1624
g73
(dp1625
g93
g94
ssg82
g1619
sg75
(lp1626
S'REMOTE_ADDR'
p1627
asbag68
(g89
g70
NtRp1628
(dp1629
g73
(dp1630
g100
g101
ssg82
g1619
sg75
(lp1631
S':'
asbag68
(g89
g70
NtRp1632
(dp1633
g73
(dp1634
sg82
g1619
sg75
(lp1635
g68
(g69
g70
NtRp1636
(dp1637
g73
(dp1638
g81
I3
ssg82
g1632
sg75
(lp1639
g201
asbasbasbag68
(g84
g70
NtRp1640
(dp1641
g73
(dp1642
sg82
g1405
sg75
(lp1643
g68
(g89
g70
NtRp1644
(dp1645
g73
(dp1646
g93
g94
ssg82
g1640
sg75
(lp1647
S'REMOTE_PORT'
p1648
asbag68
(g89
g70
NtRp1649
(dp1650
g73
(dp1651
g100
g101
ssg82
g1640
sg75
(lp1652
S':'
asbag68
(g89
g70
NtRp1653
(dp1654
g73
(dp1655
sg82
g1640
sg75
(lp1656
g68
(g69
g70
NtRp1657
(dp1658
g73
(dp1659
g81
I3
ssg82
g1653
sg75
(lp1660
g691
asbasbasbag68
(g84
g70
NtRp1661
(dp1662
g73
(dp1663
sg82
g1405
sg75
(lp1664
g68
(g89
g70
NtRp1665
(dp1666
g73
(dp1667
g93
g94
ssg82
g1661
sg75
(lp1668
S'REQUEST_METHOD'
p1669
asbag68
(g89
g70
NtRp1670
(dp1671
g73
(dp1672
g100
g101
ssg82
g1661
sg75
(lp1673
S':'
asbag68
(g89
g70
NtRp1674
(dp1675
g73
(dp1676
sg82
g1661
sg75
(lp1677
g68
(g69
g70
NtRp1678
(dp1679
g73
(dp1680
g81
I3
ssg82
g1674
sg75
(lp1681
g713
asbasbasbag68
(g84
g70
NtRp1682
(dp1683
g73
(dp1684
sg82
g1405
sg75
(lp1685
g68
(g89
g70
NtRp1686
(dp1687
g73
(dp1688
g93
g94
ssg82
g1682
sg75
(lp1689
S'SCRIPT_NAME'
p1690
asbag68
(g89
g70
NtRp1691
(dp1692
g73
(dp1693
g100
g101
ssg82
g1682
sg75
(lp1694
S':'
asbag68
(g89
g70
NtRp1695
(dp1696
g73
(dp1697
sg82
g1682
sg75
(lp1698
g68
(g69
g70
NtRp1699
(dp1700
g73
(dp1701
g81
I3
ssg82
g1695
sg75
(lp1702
S''
asbasbasbag68
(g84
g70
NtRp1703
(dp1704
g73
(dp1705
sg82
g1405
sg75
(lp1706
g68
(g89
g70
NtRp1707
(dp1708
g73
(dp1709
g93
g94
ssg82
g1703
sg75
(lp1710
S'SERVER_NAME'
p1711
asbag68
(g89
g70
NtRp1712
(dp1713
g73
(dp1714
g100
g101
ssg82
g1703
sg75
(lp1715
S':'
asbag68
(g89
g70
NtRp1716
(dp1717
g73
(dp1718
sg82
g1703
sg75
(lp1719
g68
(g69
g70
NtRp1720
(dp1721
g73
(dp1722
g81
I3
ssg82
g1716
sg75
(lp1723
g756
asbasbasbag68
(g84
g70
NtRp1724
(dp1725
g73
(dp1726
sg82
g1405
sg75
(lp1727
g68
(g89
g70
NtRp1728
(dp1729
g73
(dp1730
g93
g94
ssg82
g1724
sg75
(lp1731
S'SERVER_PORT'
p1732
asbag68
(g89
g70
NtRp1733
(dp1734
g73
(dp1735
g100
g101
ssg82
g1724
sg75
(lp1736
S':'
asbag68
(g89
g70
NtRp1737
(dp1738
g73
(dp1739
sg82
g1724
sg75
(lp1740
g68
(g69
g70
NtRp1741
(dp1742
g73
(dp1743
g81
I3
ssg82
g1737
sg75
(lp1744
g778
asbasbasbag68
(g84
g70
NtRp1745
(dp1746
g73
(dp1747
sg82
g1405
sg75
(lp1748
g68
(g89
g70
NtRp1749
(dp1750
g73
(dp1751
g93
g94
ssg82
g1745
sg75
(lp1752
S'SERVER_PROTOCOL'
p1753
asbag68
(g89
g70
NtRp1754
(dp1755
g73
(dp1756
g100
g101
ssg82
g1745
sg75
(lp1757
S':'
asbag68
(g89
g70
NtRp1758
(dp1759
g73
(dp1760
sg82
g1745
sg75
(lp1761
g68
(g69
g70
NtRp1762
(dp1763
g73
(dp1764
g81
I3
ssg82
g1758
sg75
(lp1765
g800
asbasbasbag68
(g84
g70
NtRp1766
(dp1767
g73
(dp1768
sg82
g1405
sg75
(lp1769
g68
(g89
g70
NtRp1770
(dp1771
g73
(dp1772
g93
g94
ssg82
g1766
sg75
(lp1773
S'SERVER_SOFTWARE'
p1774
asbag68
(g89
g70
NtRp1775
(dp1776
g73
(dp1777
g100
g101
ssg82
g1766
sg75
(lp1778
S':'
asbag68
(g89
g70
NtRp1779
(dp1780
g73
(dp1781
sg82
g1766
sg75
(lp1782
g68
(g69
g70
NtRp1783
(dp1784
g73
(dp1785
g81
I3
ssg82
g1779
sg75
(lp1786
g822
asbasbasbag68
(g84
g70
NtRp1787
(dp1788
g73
(dp1789
sg82
g1405
sg75
(lp1790
g68
(g89
g70
NtRp1791
(dp1792
g73
(dp1793
g93
g94
ssg82
g1787
sg75
(lp1794
S'wsgi.errors'
p1795
asbag68
(g89
g70
NtRp1796
(dp1797
g73
(dp1798
g100
g101
ssg82
g1787
sg75
(lp1799
S':'
asbag68
(g89
g70
NtRp1800
(dp1801
g73
(dp1802
sg82
g1787
sg75
(lp1803
g68
(g69
g70
NtRp1804
(dp1805
g73
(dp1806
g81
I3
ssg82
g1800
sg75
(lp1807
S"<open file '<stderr>', mode 'w' at 0x7f65db6f81e0>"
p1808
asbasbasbag68
(g84
g70
NtRp1809
(dp1810
g73
(dp1811
sg82
g1405
sg75
(lp1812
g68
(g89
g70
NtRp1813
(dp1814
g73
(dp1815
g93
g94
ssg82
g1809
sg75
(lp1816
S'wsgi.file_wrapper'
p1817
asbag68
(g89
g70
NtRp1818
(dp1819
g73
(dp1820
g100
g101
ssg82
g1809
sg75
(lp1821
S':'
asbag68
(g89
g70
NtRp1822
(dp1823
g73
(dp1824
sg82
g1809
sg75
(lp1825
g68
(g69
g70
NtRp1826
(dp1827
g73
(dp1828
g81
I3
ssg82
g1822
sg75
(lp1829
S'<class gluon.rocket.FileWrapper at 0x1cd43b0>'
p1830
asbasbasbag68
(g84
g70
NtRp1831
(dp1832
g73
(dp1833
sg82
g1405
sg75
(lp1834
g68
(g89
g70
NtRp1835
(dp1836
g73
(dp1837
g93
g94
ssg82
g1831
sg75
(lp1838
S'wsgi.input'
p1839
asbag68
(g89
g70
NtRp1840
(dp1841
g73
(dp1842
g100
g101
ssg82
g1831
sg75
(lp1843
S':'
asbag68
(g89
g70
NtRp1844
(dp1845
g73
(dp1846
sg82
g1831
sg75
(lp1847
g68
(g69
g70
NtRp1848
(dp1849
g73
(dp1850
g81
I3
ssg82
g1844
sg75
(lp1851
S'<cStringIO.StringO object at 0x1e90c00>'
p1852
asbasbasbag68
(g84
g70
NtRp1853
(dp1854
g73
(dp1855
sg82
g1405
sg75
(lp1856
g68
(g89
g70
NtRp1857
(dp1858
g73
(dp1859
g93
g94
ssg82
g1853
sg75
(lp1860
S'wsgi.multiprocess'
p1861
asbag68
(g89
g70
NtRp1862
(dp1863
g73
(dp1864
g100
g101
ssg82
g1853
sg75
(lp1865
S':'
asbag68
(g89
g70
NtRp1866
(dp1867
g73
(dp1868
sg82
g1853
sg75
(lp1869
g68
(g69
g70
NtRp1870
(dp1871
g73
(dp1872
g81
I3
ssg82
g1866
sg75
(lp1873
g111
asbasbasbag68
(g84
g70
NtRp1874
(dp1875
g73
(dp1876
sg82
g1405
sg75
(lp1877
g68
(g89
g70
NtRp1878
(dp1879
g73
(dp1880
g93
g94
ssg82
g1874
sg75
(lp1881
S'wsgi.multithread'
p1882
asbag68
(g89
g70
NtRp1883
(dp1884
g73
(dp1885
g100
g101
ssg82
g1874
sg75
(lp1886
S':'
asbag68
(g89
g70
NtRp1887
(dp1888
g73
(dp1889
sg82
g1874
sg75
(lp1890
g68
(g69
g70
NtRp1891
(dp1892
g73
(dp1893
g81
I3
ssg82
g1887
sg75
(lp1894
g996
asbasbasbag68
(g84
g70
NtRp1895
(dp1896
g73
(dp1897
sg82
g1405
sg75
(lp1898
g68
(g89
g70
NtRp1899
(dp1900
g73
(dp1901
g93
g94
ssg82
g1895
sg75
(lp1902
S'wsgi.run_once'
p1903
asbag68
(g89
g70
NtRp1904
(dp1905
g73
(dp1906
g100
g101
ssg82
g1895
sg75
(lp1907
S':'
asbag68
(g89
g70
NtRp1908
(dp1909
g73
(dp1910
sg82
g1895
sg75
(lp1911
g68
(g69
g70
NtRp1912
(dp1913
g73
(dp1914
g81
I3
ssg82
g1908
sg75
(lp1915
g111
asbasbasbag68
(g84
g70
NtRp1916
(dp1917
g73
(dp1918
sg82
g1405
sg75
(lp1919
g68
(g89
g70
NtRp1920
(dp1921
g73
(dp1922
g93
g94
ssg82
g1916
sg75
(lp1923
S'wsgi.url_scheme'
p1924
asbag68
(g89
g70
NtRp1925
(dp1926
g73
(dp1927
g100
g101
ssg82
g1916
sg75
(lp1928
S':'
asbag68
(g89
g70
NtRp1929
(dp1930
g73
(dp1931
sg82
g1916
sg75
(lp1932
g68
(g69
g70
NtRp1933
(dp1934
g73
(dp1935
g81
I3
ssg82
g1929
sg75
(lp1936
g1039
asbasbasbag68
(g84
g70
NtRp1937
(dp1938
g73
(dp1939
sg82
g1405
sg75
(lp1940
g68
(g89
g70
NtRp1941
(dp1942
g73
(dp1943
g93
g94
ssg82
g1937
sg75
(lp1944
S'wsgi.version'
p1945
asbag68
(g89
g70
NtRp1946
(dp1947
g73
(dp1948
g100
g101
ssg82
g1937
sg75
(lp1949
S':'
asbag68
(g89
g70
NtRp1950
(dp1951
g73
(dp1952
sg82
g1937
sg75
(lp1953
g68
(g69
g70
NtRp1954
(dp1955
g73
(dp1956
g81
I3
ssg82
g1950
sg75
(lp1957
S'1'
asbasbasbasbasbasbasbasbasbasbasbasbasbsS'frames'
p1958
(lp1959
(dp1960
S'file'
p1961
S'/home/marco/proyectos/web2py-trunk/gluon/restricted.py'
p1962
sS'dump'
p1963
(dp1964
S'code'
p1965
S"'#-*- coding: utf-8 -*-\\n# this file is released u...dos)\\n\\nresponse._vars=response._caller(prestamos)\\n'"
p1966
sS'layer'
p1967
S"'/home/marco/proyectos/web2py-trunk/applications/mvstore/controllers/default.py'"
p1968
sS'global compile2'
p1969
S'<function compile2>'
p1970
sS'ccode'
p1971
S'undefined'
p1972
ssS'lnum'
p1973
I191
sS'lines'
p1974
(dp1975
I192
S'        exec ccode in environment'
p1976
sI193
S'    except HTTP:'
p1977
sI194
S'        raise'
p1978
sI195
S'    except Exception:'
p1979
sI186
S"    environment['__file__'] = layer"
p1980
sI187
S'    try:'
p1981
sI188
S'        if type(code) == types.CodeType:'
p1982
sI189
S'            ccode = code'
p1983
sI190
S'        else:'
p1984
sI191
S'            ccode = compile2(code,layer)'
p1985
ssS'call'
p1986
S"(code='#-*- coding: utf-8 -*-\\n# this file is released u...dos)\\n\\nresponse._vars=response._caller(prestamos)\\n', environment={'A': <class 'gluon.html.A'>, 'Auth': <class 'gluon.tools.Auth'>, 'B': <class 'gluon.html.B'>, 'BEAUTIFY': <class 'gluon.html.BEAUTIFY'>, 'BODY': <class 'gluon.html.BODY'>, 'BR': <class 'gluon.html.BR'>, 'BUTTON': <class 'gluon.html.BUTTON'>, 'CENTER': <class 'gluon.html.CENTER'>, 'CLEANUP': <class 'gluon.validators.CLEANUP'>, 'CODE': <class 'gluon.html.CODE'>, ...}, layer='/home/marco/proyectos/web2py-trunk/applications/mvstore/controllers/default.py')"
p1987
sS'func'
p1988
S'restricted'
p1989
sa(dp1990
g1961
S'/home/marco/proyectos/web2py-trunk/gluon/restricted.py'
p1991
sg1963
(dp1992
S'builtincompile'
p1993
S'<built-in function compile>'
p1994
sS'code'
p1995
S"'#-*- coding: utf-8 -*-\\n# this file is released u...dos)\\n\\nresponse._vars=response._caller(prestamos)\\n'"
p1996
sS'code.rstrip'
p1997
S'<built-in method rstrip of str object>'
p1998
sS').replace'
p1999
g1972
sS'layer'
p2000
S"'/home/marco/proyectos/web2py-trunk/applications/mvstore/controllers/default.py'"
p2001
ssg1973
I178
sg1974
(dp2002
I173
S''
sI174
S'def compile2(code,layer):'
p2003
sI175
S'    """'
p2004
sI176
S"    The +'\\n' is necessary else compile fails when code ends in a comment."
p2005
sI177
S'    """'
p2006
sI178
S"    return compile(code.rstrip().replace('\\r\\n','\\n')+'\\n', layer, 'exec')"
p2007
sI179
S''
sI180
S"def restricted(code, environment={}, layer='Unknown'):"
p2008
sI181
S'    """'
p2009
sI182
S'    runs code in environment and returns the output. if an exception occurs'
p2010
ssg1986
S"(code='#-*- coding: utf-8 -*-\\n# this file is released u...dos)\\n\\nresponse._vars=response._caller(prestamos)\\n', layer='/home/marco/proyectos/web2py-trunk/applications/mvstore/controllers/default.py')"
p2011
sg1988
S'compile2'
p2012
sasS'pyver'
p2013
S'Python 2.6.6: /usr/bin/python'
p2014
sS'session'
p2015
g68
(g69
g70
NtRp2016
(dp2017
g73
(dp2018
sg75
(lp2019
g68
(g77
g70
NtRp2020
(dp2021
g73
(dp2022
g81
I5
ssg82
Nsg75
(lp2023
sbasbsS'etype'
p2024
S"<type 'exceptions.SyntaxError'>"
p2025
sS'date'
p2026
S'Sun Jun 19 20:55:10 2011'
p2027
sS'response'
p2028
g68
(g69
g70
NtRp2029
(dp2030
g73
(dp2031
sg75
(lp2032
g68
(g77
g70
NtRp2033
(dp2034
g73
(dp2035
g81
I5
ssg82
Nsg75
(lp2036
g68
(g84
g70
NtRp2037
(dp2038
g73
(dp2039
sg82
g2033
sg75
(lp2040
g68
(g89
g70
NtRp2041
(dp2042
g73
(dp2043
g93
g94
ssg82
g2037
sg75
(lp2044
g166
asbag68
(g89
g70
NtRp2045
(dp2046
g73
(dp2047
g100
g101
ssg82
g2037
sg75
(lp2048
S':'
asbag68
(g89
g70
NtRp2049
(dp2050
g73
(dp2051
sg82
g2037
sg75
(lp2052
g68
(g69
g70
NtRp2053
(dp2054
g73
(dp2055
g81
I5
ssg82
g2049
sg75
(lp2056
S'<cStringIO.StringO object at 0x1e90570>'
p2057
asbasbasbag68
(g84
g70
NtRp2058
(dp2059
g73
(dp2060
sg82
g2033
sg75
(lp2061
g68
(g89
g70
NtRp2062
(dp2063
g73
(dp2064
g93
g94
ssg82
g2058
sg75
(lp2065
g232
asbag68
(g89
g70
NtRp2066
(dp2067
g73
(dp2068
g100
g101
ssg82
g2058
sg75
(lp2069
S':'
asbag68
(g89
g70
NtRp2070
(dp2071
g73
(dp2072
sg82
g2058
sg75
(lp2073
g68
(g69
g70
NtRp2074
(dp2075
g73
(dp2076
g81
I5
ssg82
g2070
sg75
(lp2077
g68
(g77
g70
NtRp2078
(dp2079
g73
(dp2080
g81
I4
ssg82
Nsg75
(lp2081
g68
(g84
g70
NtRp2082
(dp2083
g73
(dp2084
sg82
g2078
sg75
(lp2085
g68
(g89
g70
NtRp2086
(dp2087
g73
(dp2088
g93
g94
ssg82
g2082
sg75
(lp2089
S'session_id_mvstore'
p2090
asbag68
(g89
g70
NtRp2091
(dp2092
g73
(dp2093
g100
g101
ssg82
g2082
sg75
(lp2094
S':'
asbag68
(g89
g70
NtRp2095
(dp2096
g73
(dp2097
sg82
g2082
sg75
(lp2098
g68
(g69
g70
NtRp2099
(dp2100
g73
(dp2101
g81
I4
ssg82
g2095
sg75
(lp2102
g68
(g77
g70
NtRp2103
(dp2104
g73
(dp2105
g81
I3
ssg82
Nsg75
(lp2106
g68
(g84
g70
NtRp2107
(dp2108
g73
(dp2109
sg82
g2103
sg75
(lp2110
g68
(g89
g70
NtRp2111
(dp2112
g73
(dp2113
g93
g94
ssg82
g2107
sg75
(lp2114
S'comment'
p2115
asbag68
(g89
g70
NtRp2116
(dp2117
g73
(dp2118
g100
g101
ssg82
g2107
sg75
(lp2119
S':'
asbag68
(g89
g70
NtRp2120
(dp2121
g73
(dp2122
sg82
g2107
sg75
(lp2123
g68
(g69
g70
NtRp2124
(dp2125
g73
(dp2126
g81
I3
ssg82
g2120
sg75
(lp2127
S''
asbasbasbag68
(g84
g70
NtRp2128
(dp2129
g73
(dp2130
sg82
g2103
sg75
(lp2131
g68
(g89
g70
NtRp2132
(dp2133
g73
(dp2134
g93
g94
ssg82
g2128
sg75
(lp2135
S'domain'
p2136
asbag68
(g89
g70
NtRp2137
(dp2138
g73
(dp2139
g100
g101
ssg82
g2128
sg75
(lp2140
S':'
asbag68
(g89
g70
NtRp2141
(dp2142
g73
(dp2143
sg82
g2128
sg75
(lp2144
g68
(g69
g70
NtRp2145
(dp2146
g73
(dp2147
g81
I3
ssg82
g2141
sg75
(lp2148
S''
asbasbasbag68
(g84
g70
NtRp2149
(dp2150
g73
(dp2151
sg82
g2103
sg75
(lp2152
g68
(g89
g70
NtRp2153
(dp2154
g73
(dp2155
g93
g94
ssg82
g2149
sg75
(lp2156
S'expires'
p2157
asbag68
(g89
g70
NtRp2158
(dp2159
g73
(dp2160
g100
g101
ssg82
g2149
sg75
(lp2161
S':'
asbag68
(g89
g70
NtRp2162
(dp2163
g73
(dp2164
sg82
g2149
sg75
(lp2165
g68
(g69
g70
NtRp2166
(dp2167
g73
(dp2168
g81
I3
ssg82
g2162
sg75
(lp2169
S''
asbasbasbag68
(g84
g70
NtRp2170
(dp2171
g73
(dp2172
sg82
g2103
sg75
(lp2173
g68
(g89
g70
NtRp2174
(dp2175
g73
(dp2176
g93
g94
ssg82
g2170
sg75
(lp2177
S'httponly'
p2178
asbag68
(g89
g70
NtRp2179
(dp2180
g73
(dp2181
g100
g101
ssg82
g2170
sg75
(lp2182
S':'
asbag68
(g89
g70
NtRp2183
(dp2184
g73
(dp2185
sg82
g2170
sg75
(lp2186
g68
(g69
g70
NtRp2187
(dp2188
g73
(dp2189
g81
I3
ssg82
g2183
sg75
(lp2190
S''
asbasbasbag68
(g84
g70
NtRp2191
(dp2192
g73
(dp2193
sg82
g2103
sg75
(lp2194
g68
(g89
g70
NtRp2195
(dp2196
g73
(dp2197
g93
g94
ssg82
g2191
sg75
(lp2198
S'max-age'
p2199
asbag68
(g89
g70
NtRp2200
(dp2201
g73
(dp2202
g100
g101
ssg82
g2191
sg75
(lp2203
S':'
asbag68
(g89
g70
NtRp2204
(dp2205
g73
(dp2206
sg82
g2191
sg75
(lp2207
g68
(g69
g70
NtRp2208
(dp2209
g73
(dp2210
g81
I3
ssg82
g2204
sg75
(lp2211
S''
asbasbasbag68
(g84
g70
NtRp2212
(dp2213
g73
(dp2214
sg82
g2103
sg75
(lp2215
g68
(g89
g70
NtRp2216
(dp2217
g73
(dp2218
g93
g94
ssg82
g2212
sg75
(lp2219
S'path'
p2220
asbag68
(g89
g70
NtRp2221
(dp2222
g73
(dp2223
g100
g101
ssg82
g2212
sg75
(lp2224
S':'
asbag68
(g89
g70
NtRp2225
(dp2226
g73
(dp2227
sg82
g2212
sg75
(lp2228
g68
(g69
g70
NtRp2229
(dp2230
g73
(dp2231
g81
I3
ssg82
g2225
sg75
(lp2232
S'/'
asbasbasbag68
(g84
g70
NtRp2233
(dp2234
g73
(dp2235
sg82
g2103
sg75
(lp2236
g68
(g89
g70
NtRp2237
(dp2238
g73
(dp2239
g93
g94
ssg82
g2233
sg75
(lp2240
S'secure'
p2241
asbag68
(g89
g70
NtRp2242
(dp2243
g73
(dp2244
g100
g101
ssg82
g2233
sg75
(lp2245
S':'
asbag68
(g89
g70
NtRp2246
(dp2247
g73
(dp2248
sg82
g2233
sg75
(lp2249
g68
(g69
g70
NtRp2250
(dp2251
g73
(dp2252
g81
I3
ssg82
g2246
sg75
(lp2253
S''
asbasbasbag68
(g84
g70
NtRp2254
(dp2255
g73
(dp2256
sg82
g2103
sg75
(lp2257
g68
(g89
g70
NtRp2258
(dp2259
g73
(dp2260
g93
g94
ssg82
g2254
sg75
(lp2261
S'version'
p2262
asbag68
(g89
g70
NtRp2263
(dp2264
g73
(dp2265
g100
g101
ssg82
g2254
sg75
(lp2266
S':'
asbag68
(g89
g70
NtRp2267
(dp2268
g73
(dp2269
sg82
g2254
sg75
(lp2270
g68
(g69
g70
NtRp2271
(dp2272
g73
(dp2273
g81
I3
ssg82
g2267
sg75
(lp2274
S''
asbasbasbasbasbasbasbasbasbasbasbag68
(g84
g70
NtRp2275
(dp2276
g73
(dp2277
sg82
g2033
sg75
(lp2278
g68
(g89
g70
NtRp2279
(dp2280
g73
(dp2281
g93
g94
ssg82
g2275
sg75
(lp2282
S'files'
p2283
asbag68
(g89
g70
NtRp2284
(dp2285
g73
(dp2286
g100
g101
ssg82
g2275
sg75
(lp2287
S':'
asbag68
(g89
g70
NtRp2288
(dp2289
g73
(dp2290
sg82
g2275
sg75
(lp2291
g68
(g69
g70
NtRp2292
(dp2293
g73
(dp2294
g81
I5
ssg82
g2288
sg75
(lp2295
g68
(g77
g70
NtRp2296
(dp2297
g73
(dp2298
g81
I4
ssg82
Nsg75
(lp2299
sbasbasbasbag68
(g84
g70
NtRp2300
(dp2301
g73
(dp2302
sg82
g2033
sg75
(lp2303
g68
(g89
g70
NtRp2304
(dp2305
g73
(dp2306
g93
g94
ssg82
g2300
sg75
(lp2307
S'flash'
p2308
asbag68
(g89
g70
NtRp2309
(dp2310
g73
(dp2311
g100
g101
ssg82
g2300
sg75
(lp2312
S':'
asbag68
(g89
g70
NtRp2313
(dp2314
g73
(dp2315
sg82
g2300
sg75
(lp2316
g68
(g69
g70
NtRp2317
(dp2318
g73
(dp2319
g81
I5
ssg82
g2313
sg75
(lp2320
S''
asbasbasbag68
(g84
g70
NtRp2321
(dp2322
g73
(dp2323
sg82
g2033
sg75
(lp2324
g68
(g89
g70
NtRp2325
(dp2326
g73
(dp2327
g93
g94
ssg82
g2321
sg75
(lp2328
S'headers'
p2329
asbag68
(g89
g70
NtRp2330
(dp2331
g73
(dp2332
g100
g101
ssg82
g2321
sg75
(lp2333
S':'
asbag68
(g89
g70
NtRp2334
(dp2335
g73
(dp2336
sg82
g2321
sg75
(lp2337
g68
(g69
g70
NtRp2338
(dp2339
g73
(dp2340
g81
I5
ssg82
g2334
sg75
(lp2341
g68
(g77
g70
NtRp2342
(dp2343
g73
(dp2344
g81
I4
ssg82
Nsg75
(lp2345
g68
(g84
g70
NtRp2346
(dp2347
g73
(dp2348
sg82
g2342
sg75
(lp2349
g68
(g89
g70
NtRp2350
(dp2351
g73
(dp2352
g93
g94
ssg82
g2346
sg75
(lp2353
S'Cache-Control'
p2354
asbag68
(g89
g70
NtRp2355
(dp2356
g73
(dp2357
g100
g101
ssg82
g2346
sg75
(lp2358
S':'
asbag68
(g89
g70
NtRp2359
(dp2360
g73
(dp2361
sg82
g2346
sg75
(lp2362
g68
(g69
g70
NtRp2363
(dp2364
g73
(dp2365
g81
I4
ssg82
g2359
sg75
(lp2366
S'no-store, no-cache, must-revalidate, post-check=0, pre-check=0'
p2367
asbasbasbag68
(g84
g70
NtRp2368
(dp2369
g73
(dp2370
sg82
g2342
sg75
(lp2371
g68
(g89
g70
NtRp2372
(dp2373
g73
(dp2374
g93
g94
ssg82
g2368
sg75
(lp2375
S'Content-Type'
p2376
asbag68
(g89
g70
NtRp2377
(dp2378
g73
(dp2379
g100
g101
ssg82
g2368
sg75
(lp2380
S':'
asbag68
(g89
g70
NtRp2381
(dp2382
g73
(dp2383
sg82
g2368
sg75
(lp2384
g68
(g69
g70
NtRp2385
(dp2386
g73
(dp2387
g81
I4
ssg82
g2381
sg75
(lp2388
S'text/html; charset=utf-8'
p2389
asbasbasbag68
(g84
g70
NtRp2390
(dp2391
g73
(dp2392
sg82
g2342
sg75
(lp2393
g68
(g89
g70
NtRp2394
(dp2395
g73
(dp2396
g93
g94
ssg82
g2390
sg75
(lp2397
S'Expires'
p2398
asbag68
(g89
g70
NtRp2399
(dp2400
g73
(dp2401
g100
g101
ssg82
g2390
sg75
(lp2402
S':'
asbag68
(g89
g70
NtRp2403
(dp2404
g73
(dp2405
sg82
g2390
sg75
(lp2406
g68
(g69
g70
NtRp2407
(dp2408
g73
(dp2409
g81
I4
ssg82
g2403
sg75
(lp2410
S'Sun, 19 Jun 2011 23:55:09 GMT'
p2411
asbasbasbag68
(g84
g70
NtRp2412
(dp2413
g73
(dp2414
sg82
g2342
sg75
(lp2415
g68
(g89
g70
NtRp2416
(dp2417
g73
(dp2418
g93
g94
ssg82
g2412
sg75
(lp2419
S'Pragma'
p2420
asbag68
(g89
g70
NtRp2421
(dp2422
g73
(dp2423
g100
g101
ssg82
g2412
sg75
(lp2424
S':'
asbag68
(g89
g70
NtRp2425
(dp2426
g73
(dp2427
sg82
g2412
sg75
(lp2428
g68
(g69
g70
NtRp2429
(dp2430
g73
(dp2431
g81
I4
ssg82
g2425
sg75
(lp2432
S'no-cache'
p2433
asbasbasbag68
(g84
g70
NtRp2434
(dp2435
g73
(dp2436
sg82
g2342
sg75
(lp2437
g68
(g89
g70
NtRp2438
(dp2439
g73
(dp2440
g93
g94
ssg82
g2434
sg75
(lp2441
S'X-Powered-By'
p2442
asbag68
(g89
g70
NtRp2443
(dp2444
g73
(dp2445
g100
g101
ssg82
g2434
sg75
(lp2446
S':'
asbag68
(g89
g70
NtRp2447
(dp2448
g73
(dp2449
sg82
g2434
sg75
(lp2450
g68
(g69
g70
NtRp2451
(dp2452
g73
(dp2453
g81
I4
ssg82
g2447
sg75
(lp2454
S'web2py'
p2455
asbasbasbasbasbasbasbag68
(g84
g70
NtRp2456
(dp2457
g73
(dp2458
sg82
g2033
sg75
(lp2459
g68
(g89
g70
NtRp2460
(dp2461
g73
(dp2462
g93
g94
ssg82
g2456
sg75
(lp2463
S'menu'
p2464
asbag68
(g89
g70
NtRp2465
(dp2466
g73
(dp2467
g100
g101
ssg82
g2456
sg75
(lp2468
S':'
asbag68
(g89
g70
NtRp2469
(dp2470
g73
(dp2471
sg82
g2456
sg75
(lp2472
g68
(g69
g70
NtRp2473
(dp2474
g73
(dp2475
g81
I5
ssg82
g2469
sg75
(lp2476
g68
(g77
g70
NtRp2477
(dp2478
g73
(dp2479
g81
I4
ssg82
Nsg75
(lp2480
g68
(g84
g70
NtRp2481
(dp2482
g73
(dp2483
sg82
g2477
sg75
(lp2484
g68
(g89
g70
NtRp2485
(dp2486
g73
(dp2487
sg82
g2481
sg75
(lp2488
g68
(g69
g70
NtRp2489
(dp2490
g73
(dp2491
g81
I4
ssg82
g2485
sg75
(lp2492
g68
(g77
g70
NtRp2493
(dp2494
g73
(dp2495
g81
I3
ssg82
Nsg75
(lp2496
g68
(g84
g70
NtRp2497
(dp2498
g73
(dp2499
sg82
g2493
sg75
(lp2500
g68
(g89
g70
NtRp2501
(dp2502
g73
(dp2503
sg82
g2497
sg75
(lp2504
g68
(g69
g70
NtRp2505
(dp2506
g73
(dp2507
g81
I3
ssg82
g2501
sg75
(lp2508
cgluon.languages
lazyT_unpickle
p2509
(S's\x04\x00\x00\x00Home'
tRp2510
asbasbasbag68
(g84
g70
NtRp2511
(dp2512
g73
(dp2513
sg82
g2493
sg75
(lp2514
g68
(g89
g70
NtRp2515
(dp2516
g73
(dp2517
sg82
g2511
sg75
(lp2518
g68
(g69
g70
NtRp2519
(dp2520
g73
(dp2521
g81
I3
ssg82
g2515
sg75
(lp2522
g111
asbasbasbag68
(g84
g70
NtRp2523
(dp2524
g73
(dp2525
sg82
g2493
sg75
(lp2526
g68
(g89
g70
NtRp2527
(dp2528
g73
(dp2529
sg82
g2523
sg75
(lp2530
g68
(g69
g70
NtRp2531
(dp2532
g73
(dp2533
g81
I3
ssg82
g2527
sg75
(lp2534
S'/mvstore/default/index'
p2535
asbasbasbag68
(g84
g70
NtRp2536
(dp2537
g73
(dp2538
sg82
g2493
sg75
(lp2539
g68
(g89
g70
NtRp2540
(dp2541
g73
(dp2542
sg82
g2536
sg75
(lp2543
g68
(g69
g70
NtRp2544
(dp2545
g73
(dp2546
g81
I3
ssg82
g2540
sg75
(lp2547
g68
(g77
g70
NtRp2548
(dp2549
g73
(dp2550
g81
I2
ssg82
Nsg75
(lp2551
sbasbasbasbasbasbasbasbag68
(g84
g70
NtRp2552
(dp2553
g73
(dp2554
sg82
g2477
sg75
(lp2555
g68
(g89
g70
NtRp2556
(dp2557
g73
(dp2558
sg82
g2552
sg75
(lp2559
g68
(g69
g70
NtRp2560
(dp2561
g73
(dp2562
g81
I4
ssg82
g2556
sg75
(lp2563
g68
(g77
g70
NtRp2564
(dp2565
g73
(dp2566
g81
I3
ssg82
Nsg75
(lp2567
g68
(g84
g70
NtRp2568
(dp2569
g73
(dp2570
sg82
g2564
sg75
(lp2571
g68
(g89
g70
NtRp2572
(dp2573
g73
(dp2574
sg82
g2568
sg75
(lp2575
g68
(g69
g70
NtRp2576
(dp2577
g73
(dp2578
g81
I3
ssg82
g2572
sg75
(lp2579
g2509
(S's\x08\x00\x00\x00This App'
tRp2580
asbasbasbag68
(g84
g70
NtRp2581
(dp2582
g73
(dp2583
sg82
g2564
sg75
(lp2584
g68
(g89
g70
NtRp2585
(dp2586
g73
(dp2587
sg82
g2581
sg75
(lp2588
g68
(g69
g70
NtRp2589
(dp2590
g73
(dp2591
g81
I3
ssg82
g2585
sg75
(lp2592
g111
asbasbasbag68
(g84
g70
NtRp2593
(dp2594
g73
(dp2595
sg82
g2564
sg75
(lp2596
g68
(g89
g70
NtRp2597
(dp2598
g73
(dp2599
sg82
g2593
sg75
(lp2600
g68
(g69
g70
NtRp2601
(dp2602
g73
(dp2603
g81
I3
ssg82
g2597
sg75
(lp2604
S'/mvstore/default/index'
p2605
asbasbasbag68
(g84
g70
NtRp2606
(dp2607
g73
(dp2608
sg82
g2564
sg75
(lp2609
g68
(g89
g70
NtRp2610
(dp2611
g73
(dp2612
sg82
g2606
sg75
(lp2613
g68
(g69
g70
NtRp2614
(dp2615
g73
(dp2616
g81
I3
ssg82
g2610
sg75
(lp2617
g68
(g77
g70
NtRp2618
(dp2619
g73
(dp2620
g81
I2
ssg82
Nsg75
(lp2621
g68
(g84
g70
NtRp2622
(dp2623
g73
(dp2624
sg82
g2618
sg75
(lp2625
g68
(g89
g70
NtRp2626
(dp2627
g73
(dp2628
sg82
g2622
sg75
(lp2629
g68
(g69
g70
NtRp2630
(dp2631
g73
(dp2632
g81
I2
ssg82
g2626
sg75
(lp2633
g68
(g77
g70
NtRp2634
(dp2635
g73
(dp2636
g81
I1
ssg82
Nsg75
(lp2637
g68
(g84
g70
NtRp2638
(dp2639
g73
(dp2640
sg82
g2634
sg75
(lp2641
g68
(g89
g70
NtRp2642
(dp2643
g73
(dp2644
sg82
g2638
sg75
(lp2645
g68
(g69
g70
NtRp2646
(dp2647
g73
(dp2648
g81
I1
ssg82
g2642
sg75
(lp2649
g2509
(S's\n\x00\x00\x00Controller'
tRp2650
asbasbasbag68
(g84
g70
NtRp2651
(dp2652
g73
(dp2653
sg82
g2634
sg75
(lp2654
g68
(g89
g70
NtRp2655
(dp2656
g73
(dp2657
sg82
g2651
sg75
(lp2658
g68
(g69
g70
NtRp2659
(dp2660
g73
(dp2661
g81
I1
ssg82
g2655
sg75
(lp2662
I00
asbasbasbag68
(g84
g70
NtRp2663
(dp2664
g73
(dp2665
sg82
g2634
sg75
(lp2666
g68
(g89
g70
NtRp2667
(dp2668
g73
(dp2669
sg82
g2663
sg75
(lp2670
g68
(g69
g70
NtRp2671
(dp2672
g73
(dp2673
g81
I1
ssg82
g2667
sg75
(lp2674
S'/admin/default/edit/mvstore/controllers/default.py'
p2675
asbasbasbasbasbasbasbag68
(g84
g70
NtRp2676
(dp2677
g73
(dp2678
sg82
g2618
sg75
(lp2679
g68
(g89
g70
NtRp2680
(dp2681
g73
(dp2682
sg82
g2676
sg75
(lp2683
g68
(g69
g70
NtRp2684
(dp2685
g73
(dp2686
g81
I2
ssg82
g2680
sg75
(lp2687
g68
(g77
g70
NtRp2688
(dp2689
g73
(dp2690
g81
I1
ssg82
Nsg75
(lp2691
g68
(g84
g70
NtRp2692
(dp2693
g73
(dp2694
sg82
g2688
sg75
(lp2695
g68
(g89
g70
NtRp2696
(dp2697
g73
(dp2698
sg82
g2692
sg75
(lp2699
g68
(g69
g70
NtRp2700
(dp2701
g73
(dp2702
g81
I1
ssg82
g2696
sg75
(lp2703
g2509
(S's\x04\x00\x00\x00View'
tRp2704
asbasbasbag68
(g84
g70
NtRp2705
(dp2706
g73
(dp2707
sg82
g2688
sg75
(lp2708
g68
(g89
g70
NtRp2709
(dp2710
g73
(dp2711
sg82
g2705
sg75
(lp2712
g68
(g69
g70
NtRp2713
(dp2714
g73
(dp2715
g81
I1
ssg82
g2709
sg75
(lp2716
I00
asbasbasbag68
(g84
g70
NtRp2717
(dp2718
g73
(dp2719
sg82
g2688
sg75
(lp2720
g68
(g89
g70
NtRp2721
(dp2722
g73
(dp2723
sg82
g2717
sg75
(lp2724
g68
(g69
g70
NtRp2725
(dp2726
g73
(dp2727
g81
I1
ssg82
g2721
sg75
(lp2728
S'/admin/default/edit/mvstore/views/default/prestamos.html'
p2729
asbasbasbasbasbasbasbag68
(g84
g70
NtRp2730
(dp2731
g73
(dp2732
sg82
g2618
sg75
(lp2733
g68
(g89
g70
NtRp2734
(dp2735
g73
(dp2736
sg82
g2730
sg75
(lp2737
g68
(g69
g70
NtRp2738
(dp2739
g73
(dp2740
g81
I2
ssg82
g2734
sg75
(lp2741
g68
(g77
g70
NtRp2742
(dp2743
g73
(dp2744
g81
I1
ssg82
Nsg75
(lp2745
g68
(g84
g70
NtRp2746
(dp2747
g73
(dp2748
sg82
g2742
sg75
(lp2749
g68
(g89
g70
NtRp2750
(dp2751
g73
(dp2752
sg82
g2746
sg75
(lp2753
g68
(g69
g70
NtRp2754
(dp2755
g73
(dp2756
g81
I1
ssg82
g2750
sg75
(lp2757
g2509
(S's\x06\x00\x00\x00Layout'
tRp2758
asbasbasbag68
(g84
g70
NtRp2759
(dp2760
g73
(dp2761
sg82
g2742
sg75
(lp2762
g68
(g89
g70
NtRp2763
(dp2764
g73
(dp2765
sg82
g2759
sg75
(lp2766
g68
(g69
g70
NtRp2767
(dp2768
g73
(dp2769
g81
I1
ssg82
g2763
sg75
(lp2770
I00
asbasbasbag68
(g84
g70
NtRp2771
(dp2772
g73
(dp2773
sg82
g2742
sg75
(lp2774
g68
(g89
g70
NtRp2775
(dp2776
g73
(dp2777
sg82
g2771
sg75
(lp2778
g68
(g69
g70
NtRp2779
(dp2780
g73
(dp2781
g81
I1
ssg82
g2775
sg75
(lp2782
S'/admin/default/edit/mvstore/views/layout.html'
p2783
asbasbasbasbasbasbasbag68
(g84
g70
NtRp2784
(dp2785
g73
(dp2786
sg82
g2618
sg75
(lp2787
g68
(g89
g70
NtRp2788
(dp2789
g73
(dp2790
sg82
g2784
sg75
(lp2791
g68
(g69
g70
NtRp2792
(dp2793
g73
(dp2794
g81
I2
ssg82
g2788
sg75
(lp2795
g68
(g77
g70
NtRp2796
(dp2797
g73
(dp2798
g81
I1
ssg82
Nsg75
(lp2799
g68
(g84
g70
NtRp2800
(dp2801
g73
(dp2802
sg82
g2796
sg75
(lp2803
g68
(g89
g70
NtRp2804
(dp2805
g73
(dp2806
sg82
g2800
sg75
(lp2807
g68
(g69
g70
NtRp2808
(dp2809
g73
(dp2810
g81
I1
ssg82
g2804
sg75
(lp2811
g2509
(S's\n\x00\x00\x00Stylesheet'
tRp2812
asbasbasbag68
(g84
g70
NtRp2813
(dp2814
g73
(dp2815
sg82
g2796
sg75
(lp2816
g68
(g89
g70
NtRp2817
(dp2818
g73
(dp2819
sg82
g2813
sg75
(lp2820
g68
(g69
g70
NtRp2821
(dp2822
g73
(dp2823
g81
I1
ssg82
g2817
sg75
(lp2824
I00
asbasbasbag68
(g84
g70
NtRp2825
(dp2826
g73
(dp2827
sg82
g2796
sg75
(lp2828
g68
(g89
g70
NtRp2829
(dp2830
g73
(dp2831
sg82
g2825
sg75
(lp2832
g68
(g69
g70
NtRp2833
(dp2834
g73
(dp2835
g81
I1
ssg82
g2829
sg75
(lp2836
S'/admin/default/edit/mvstore/static/base.css'
p2837
asbasbasbasbasbasbasbag68
(g84
g70
NtRp2838
(dp2839
g73
(dp2840
sg82
g2618
sg75
(lp2841
g68
(g89
g70
NtRp2842
(dp2843
g73
(dp2844
sg82
g2838
sg75
(lp2845
g68
(g69
g70
NtRp2846
(dp2847
g73
(dp2848
g81
I2
ssg82
g2842
sg75
(lp2849
g68
(g77
g70
NtRp2850
(dp2851
g73
(dp2852
g81
I1
ssg82
Nsg75
(lp2853
g68
(g84
g70
NtRp2854
(dp2855
g73
(dp2856
sg82
g2850
sg75
(lp2857
g68
(g89
g70
NtRp2858
(dp2859
g73
(dp2860
sg82
g2854
sg75
(lp2861
g68
(g69
g70
NtRp2862
(dp2863
g73
(dp2864
g81
I1
ssg82
g2858
sg75
(lp2865
g2509
(S's\x08\x00\x00\x00DB Model'
tRp2866
asbasbasbag68
(g84
g70
NtRp2867
(dp2868
g73
(dp2869
sg82
g2850
sg75
(lp2870
g68
(g89
g70
NtRp2871
(dp2872
g73
(dp2873
sg82
g2867
sg75
(lp2874
g68
(g69
g70
NtRp2875
(dp2876
g73
(dp2877
g81
I1
ssg82
g2871
sg75
(lp2878
I00
asbasbasbag68
(g84
g70
NtRp2879
(dp2880
g73
(dp2881
sg82
g2850
sg75
(lp2882
g68
(g89
g70
NtRp2883
(dp2884
g73
(dp2885
sg82
g2879
sg75
(lp2886
g68
(g69
g70
NtRp2887
(dp2888
g73
(dp2889
g81
I1
ssg82
g2883
sg75
(lp2890
S'/admin/default/edit/mvstore/models/db.py'
p2891
asbasbasbasbasbasbasbag68
(g84
g70
NtRp2892
(dp2893
g73
(dp2894
sg82
g2618
sg75
(lp2895
g68
(g89
g70
NtRp2896
(dp2897
g73
(dp2898
sg82
g2892
sg75
(lp2899
g68
(g69
g70
NtRp2900
(dp2901
g73
(dp2902
g81
I2
ssg82
g2896
sg75
(lp2903
g68
(g77
g70
NtRp2904
(dp2905
g73
(dp2906
g81
I1
ssg82
Nsg75
(lp2907
g68
(g84
g70
NtRp2908
(dp2909
g73
(dp2910
sg82
g2904
sg75
(lp2911
g68
(g89
g70
NtRp2912
(dp2913
g73
(dp2914
sg82
g2908
sg75
(lp2915
g68
(g69
g70
NtRp2916
(dp2917
g73
(dp2918
g81
I1
ssg82
g2912
sg75
(lp2919
g2509
(S's\n\x00\x00\x00Menu Model'
tRp2920
asbasbasbag68
(g84
g70
NtRp2921
(dp2922
g73
(dp2923
sg82
g2904
sg75
(lp2924
g68
(g89
g70
NtRp2925
(dp2926
g73
(dp2927
sg82
g2921
sg75
(lp2928
g68
(g69
g70
NtRp2929
(dp2930
g73
(dp2931
g81
I1
ssg82
g2925
sg75
(lp2932
I00
asbasbasbag68
(g84
g70
NtRp2933
(dp2934
g73
(dp2935
sg82
g2904
sg75
(lp2936
g68
(g89
g70
NtRp2937
(dp2938
g73
(dp2939
sg82
g2933
sg75
(lp2940
g68
(g69
g70
NtRp2941
(dp2942
g73
(dp2943
g81
I1
ssg82
g2937
sg75
(lp2944
S'/admin/default/edit/mvstore/models/menu.py'
p2945
asbasbasbasbasbasbasbag68
(g84
g70
NtRp2946
(dp2947
g73
(dp2948
sg82
g2618
sg75
(lp2949
g68
(g89
g70
NtRp2950
(dp2951
g73
(dp2952
sg82
g2946
sg75
(lp2953
g68
(g69
g70
NtRp2954
(dp2955
g73
(dp2956
g81
I2
ssg82
g2950
sg75
(lp2957
g68
(g77
g70
NtRp2958
(dp2959
g73
(dp2960
g81
I1
ssg82
Nsg75
(lp2961
g68
(g84
g70
NtRp2962
(dp2963
g73
(dp2964
sg82
g2958
sg75
(lp2965
g68
(g89
g70
NtRp2966
(dp2967
g73
(dp2968
sg82
g2962
sg75
(lp2969
g68
(g69
g70
NtRp2970
(dp2971
g73
(dp2972
g81
I1
ssg82
g2966
sg75
(lp2973
g2509
(S's\x08\x00\x00\x00Database'
tRp2974
asbasbasbag68
(g84
g70
NtRp2975
(dp2976
g73
(dp2977
sg82
g2958
sg75
(lp2978
g68
(g89
g70
NtRp2979
(dp2980
g73
(dp2981
sg82
g2975
sg75
(lp2982
g68
(g69
g70
NtRp2983
(dp2984
g73
(dp2985
g81
I1
ssg82
g2979
sg75
(lp2986
I00
asbasbasbag68
(g84
g70
NtRp2987
(dp2988
g73
(dp2989
sg82
g2958
sg75
(lp2990
g68
(g89
g70
NtRp2991
(dp2992
g73
(dp2993
sg82
g2987
sg75
(lp2994
g68
(g69
g70
NtRp2995
(dp2996
g73
(dp2997
g81
I1
ssg82
g2991
sg75
(lp2998
S'/mvstore/appadmin/index'
p2999
asbasbasbasbasbasbasbag68
(g84
g70
NtRp3000
(dp3001
g73
(dp3002
sg82
g2618
sg75
(lp3003
g68
(g89
g70
NtRp3004
(dp3005
g73
(dp3006
sg82
g3000
sg75
(lp3007
g68
(g69
g70
NtRp3008
(dp3009
g73
(dp3010
g81
I2
ssg82
g3004
sg75
(lp3011
g68
(g77
g70
NtRp3012
(dp3013
g73
(dp3014
g81
I1
ssg82
Nsg75
(lp3015
g68
(g84
g70
NtRp3016
(dp3017
g73
(dp3018
sg82
g3012
sg75
(lp3019
g68
(g89
g70
NtRp3020
(dp3021
g73
(dp3022
sg82
g3016
sg75
(lp3023
g68
(g69
g70
NtRp3024
(dp3025
g73
(dp3026
g81
I1
ssg82
g3020
sg75
(lp3027
g2509
(S's\x06\x00\x00\x00Errors'
tRp3028
asbasbasbag68
(g84
g70
NtRp3029
(dp3030
g73
(dp3031
sg82
g3012
sg75
(lp3032
g68
(g89
g70
NtRp3033
(dp3034
g73
(dp3035
sg82
g3029
sg75
(lp3036
g68
(g69
g70
NtRp3037
(dp3038
g73
(dp3039
g81
I1
ssg82
g3033
sg75
(lp3040
I00
asbasbasbag68
(g84
g70
NtRp3041
(dp3042
g73
(dp3043
sg82
g3012
sg75
(lp3044
g68
(g89
g70
NtRp3045
(dp3046
g73
(dp3047
sg82
g3041
sg75
(lp3048
g68
(g69
g70
NtRp3049
(dp3050
g73
(dp3051
g81
I1
ssg82
g3045
sg75
(lp3052
S'/admin/default/errors/mvstore'
p3053
asbasbasbasbasbasbasbag68
(g84
g70
NtRp3054
(dp3055
g73
(dp3056
sg82
g2618
sg75
(lp3057
g68
(g89
g70
NtRp3058
(dp3059
g73
(dp3060
sg82
g3054
sg75
(lp3061
g68
(g69
g70
NtRp3062
(dp3063
g73
(dp3064
g81
I2
ssg82
g3058
sg75
(lp3065
g68
(g77
g70
NtRp3066
(dp3067
g73
(dp3068
g81
I1
ssg82
Nsg75
(lp3069
g68
(g84
g70
NtRp3070
(dp3071
g73
(dp3072
sg82
g3066
sg75
(lp3073
g68
(g89
g70
NtRp3074
(dp3075
g73
(dp3076
sg82
g3070
sg75
(lp3077
g68
(g69
g70
NtRp3078
(dp3079
g73
(dp3080
g81
I1
ssg82
g3074
sg75
(lp3081
g2509
(S's\x05\x00\x00\x00About'
tRp3082
asbasbasbag68
(g84
g70
NtRp3083
(dp3084
g73
(dp3085
sg82
g3066
sg75
(lp3086
g68
(g89
g70
NtRp3087
(dp3088
g73
(dp3089
sg82
g3083
sg75
(lp3090
g68
(g69
g70
NtRp3091
(dp3092
g73
(dp3093
g81
I1
ssg82
g3087
sg75
(lp3094
I00
asbasbasbag68
(g84
g70
NtRp3095
(dp3096
g73
(dp3097
sg82
g3066
sg75
(lp3098
g68
(g89
g70
NtRp3099
(dp3100
g73
(dp3101
sg82
g3095
sg75
(lp3102
g68
(g69
g70
NtRp3103
(dp3104
g73
(dp3105
g81
I1
ssg82
g3099
sg75
(lp3106
S'/admin/default/about/mvstore'
p3107
asbasbasbasbasbasbasbasbasbasbasbasbasbasbasbag68
(g84
g70
NtRp3108
(dp3109
g73
(dp3110
sg82
g2477
sg75
(lp3111
g68
(g89
g70
NtRp3112
(dp3113
g73
(dp3114
sg82
g3108
sg75
(lp3115
g68
(g69
g70
NtRp3116
(dp3117
g73
(dp3118
g81
I4
ssg82
g3112
sg75
(lp3119
g68
(g77
g70
NtRp3120
(dp3121
g73
(dp3122
g81
I3
ssg82
Nsg75
(lp3123
g68
(g84
g70
NtRp3124
(dp3125
g73
(dp3126
sg82
g3120
sg75
(lp3127
g68
(g89
g70
NtRp3128
(dp3129
g73
(dp3130
sg82
g3124
sg75
(lp3131
g68
(g69
g70
NtRp3132
(dp3133
g73
(dp3134
g81
I3
ssg82
g3128
sg75
(lp3135
g2509
(S's\x12\x00\x00\x00Adding information'
tRp3136
asbasbasbag68
(g84
g70
NtRp3137
(dp3138
g73
(dp3139
sg82
g3120
sg75
(lp3140
g68
(g89
g70
NtRp3141
(dp3142
g73
(dp3143
sg82
g3137
sg75
(lp3144
g68
(g69
g70
NtRp3145
(dp3146
g73
(dp3147
g81
I3
ssg82
g3141
sg75
(lp3148
g111
asbasbasbag68
(g84
g70
NtRp3149
(dp3150
g73
(dp3151
sg82
g3120
sg75
(lp3152
g68
(g89
g70
NtRp3153
(dp3154
g73
(dp3155
sg82
g3149
sg75
(lp3156
g68
(g69
g70
NtRp3157
(dp3158
g73
(dp3159
g81
I3
ssg82
g3153
sg75
(lp3160
S'/mvstore/default/index'
p3161
asbasbasbag68
(g84
g70
NtRp3162
(dp3163
g73
(dp3164
sg82
g3120
sg75
(lp3165
g68
(g89
g70
NtRp3166
(dp3167
g73
(dp3168
sg82
g3162
sg75
(lp3169
g68
(g69
g70
NtRp3170
(dp3171
g73
(dp3172
g81
I3
ssg82
g3166
sg75
(lp3173
g68
(g77
g70
NtRp3174
(dp3175
g73
(dp3176
g81
I2
ssg82
Nsg75
(lp3177
g68
(g84
g70
NtRp3178
(dp3179
g73
(dp3180
sg82
g3174
sg75
(lp3181
g68
(g89
g70
NtRp3182
(dp3183
g73
(dp3184
sg82
g3178
sg75
(lp3185
g68
(g69
g70
NtRp3186
(dp3187
g73
(dp3188
g81
I2
ssg82
g3182
sg75
(lp3189
g68
(g77
g70
NtRp3190
(dp3191
g73
(dp3192
g81
I1
ssg82
Nsg75
(lp3193
g68
(g84
g70
NtRp3194
(dp3195
g73
(dp3196
sg82
g3190
sg75
(lp3197
g68
(g89
g70
NtRp3198
(dp3199
g73
(dp3200
sg82
g3194
sg75
(lp3201
g68
(g69
g70
NtRp3202
(dp3203
g73
(dp3204
g81
I1
ssg82
g3198
sg75
(lp3205
g2509
(S's\t\x00\x00\x00Add Users'
tRp3206
asbasbasbag68
(g84
g70
NtRp3207
(dp3208
g73
(dp3209
sg82
g3190
sg75
(lp3210
g68
(g89
g70
NtRp3211
(dp3212
g73
(dp3213
sg82
g3207
sg75
(lp3214
g68
(g69
g70
NtRp3215
(dp3216
g73
(dp3217
g81
I1
ssg82
g3211
sg75
(lp3218
I00
asbasbasbag68
(g84
g70
NtRp3219
(dp3220
g73
(dp3221
sg82
g3190
sg75
(lp3222
g68
(g89
g70
NtRp3223
(dp3224
g73
(dp3225
sg82
g3219
sg75
(lp3226
g68
(g69
g70
NtRp3227
(dp3228
g73
(dp3229
g81
I1
ssg82
g3223
sg75
(lp3230
S'/mvstore/default/empleados'
p3231
asbasbasbag68
(g84
g70
NtRp3232
(dp3233
g73
(dp3234
sg82
g3190
sg75
(lp3235
g68
(g89
g70
NtRp3236
(dp3237
g73
(dp3238
sg82
g3232
sg75
(lp3239
g68
(g69
g70
NtRp3240
(dp3241
g73
(dp3242
g81
I1
ssg82
g3236
sg75
(lp3243
(lp3244
asbasbasbasbasbasbasbag68
(g84
g70
NtRp3245
(dp3246
g73
(dp3247
sg82
g3174
sg75
(lp3248
g68
(g89
g70
NtRp3249
(dp3250
g73
(dp3251
sg82
g3245
sg75
(lp3252
g68
(g69
g70
NtRp3253
(dp3254
g73
(dp3255
g81
I2
ssg82
g3249
sg75
(lp3256
g68
(g77
g70
NtRp3257
(dp3258
g73
(dp3259
g81
I1
ssg82
Nsg75
(lp3260
g68
(g84
g70
NtRp3261
(dp3262
g73
(dp3263
sg82
g3257
sg75
(lp3264
g68
(g89
g70
NtRp3265
(dp3266
g73
(dp3267
sg82
g3261
sg75
(lp3268
g68
(g69
g70
NtRp3269
(dp3270
g73
(dp3271
g81
I1
ssg82
g3265
sg75
(lp3272
g2509
(S's\x0b\x00\x00\x00Add Clients'
tRp3273
asbasbasbag68
(g84
g70
NtRp3274
(dp3275
g73
(dp3276
sg82
g3257
sg75
(lp3277
g68
(g89
g70
NtRp3278
(dp3279
g73
(dp3280
sg82
g3274
sg75
(lp3281
g68
(g69
g70
NtRp3282
(dp3283
g73
(dp3284
g81
I1
ssg82
g3278
sg75
(lp3285
I00
asbasbasbag68
(g84
g70
NtRp3286
(dp3287
g73
(dp3288
sg82
g3257
sg75
(lp3289
g68
(g89
g70
NtRp3290
(dp3291
g73
(dp3292
sg82
g3286
sg75
(lp3293
g68
(g69
g70
NtRp3294
(dp3295
g73
(dp3296
g81
I1
ssg82
g3290
sg75
(lp3297
S'/mvstore/default/clientes'
p3298
asbasbasbag68
(g84
g70
NtRp3299
(dp3300
g73
(dp3301
sg82
g3257
sg75
(lp3302
g68
(g89
g70
NtRp3303
(dp3304
g73
(dp3305
sg82
g3299
sg75
(lp3306
g68
(g69
g70
NtRp3307
(dp3308
g73
(dp3309
g81
I1
ssg82
g3303
sg75
(lp3310
(lp3311
asbasbasbasbasbasbasbag68
(g84
g70
NtRp3312
(dp3313
g73
(dp3314
sg82
g3174
sg75
(lp3315
g68
(g89
g70
NtRp3316
(dp3317
g73
(dp3318
sg82
g3312
sg75
(lp3319
g68
(g69
g70
NtRp3320
(dp3321
g73
(dp3322
g81
I2
ssg82
g3316
sg75
(lp3323
g68
(g77
g70
NtRp3324
(dp3325
g73
(dp3326
g81
I1
ssg82
Nsg75
(lp3327
g68
(g84
g70
NtRp3328
(dp3329
g73
(dp3330
sg82
g3324
sg75
(lp3331
g68
(g89
g70
NtRp3332
(dp3333
g73
(dp3334
sg82
g3328
sg75
(lp3335
g68
(g69
g70
NtRp3336
(dp3337
g73
(dp3338
g81
I1
ssg82
g3332
sg75
(lp3339
g2509
(S's\t\x00\x00\x00Add Movie'
tRp3340
asbasbasbag68
(g84
g70
NtRp3341
(dp3342
g73
(dp3343
sg82
g3324
sg75
(lp3344
g68
(g89
g70
NtRp3345
(dp3346
g73
(dp3347
sg82
g3341
sg75
(lp3348
g68
(g69
g70
NtRp3349
(dp3350
g73
(dp3351
g81
I1
ssg82
g3345
sg75
(lp3352
I00
asbasbasbag68
(g84
g70
NtRp3353
(dp3354
g73
(dp3355
sg82
g3324
sg75
(lp3356
g68
(g89
g70
NtRp3357
(dp3358
g73
(dp3359
sg82
g3353
sg75
(lp3360
g68
(g69
g70
NtRp3361
(dp3362
g73
(dp3363
g81
I1
ssg82
g3357
sg75
(lp3364
S'/mvstore/default/peliculas'
p3365
asbasbasbag68
(g84
g70
NtRp3366
(dp3367
g73
(dp3368
sg82
g3324
sg75
(lp3369
g68
(g89
g70
NtRp3370
(dp3371
g73
(dp3372
sg82
g3366
sg75
(lp3373
g68
(g69
g70
NtRp3374
(dp3375
g73
(dp3376
g81
I1
ssg82
g3370
sg75
(lp3377
(lp3378
asbasbasbasbasbasbasbag68
(g84
g70
NtRp3379
(dp3380
g73
(dp3381
sg82
g3174
sg75
(lp3382
g68
(g89
g70
NtRp3383
(dp3384
g73
(dp3385
sg82
g3379
sg75
(lp3386
g68
(g69
g70
NtRp3387
(dp3388
g73
(dp3389
g81
I2
ssg82
g3383
sg75
(lp3390
g68
(g77
g70
NtRp3391
(dp3392
g73
(dp3393
g81
I1
ssg82
Nsg75
(lp3394
g68
(g84
g70
NtRp3395
(dp3396
g73
(dp3397
sg82
g3391
sg75
(lp3398
g68
(g89
g70
NtRp3399
(dp3400
g73
(dp3401
sg82
g3395
sg75
(lp3402
g68
(g69
g70
NtRp3403
(dp3404
g73
(dp3405
g81
I1
ssg82
g3399
sg75
(lp3406
g2509
(S's\n\x00\x00\x00Add Rental'
tRp3407
asbasbasbag68
(g84
g70
NtRp3408
(dp3409
g73
(dp3410
sg82
g3391
sg75
(lp3411
g68
(g89
g70
NtRp3412
(dp3413
g73
(dp3414
sg82
g3408
sg75
(lp3415
g68
(g69
g70
NtRp3416
(dp3417
g73
(dp3418
g81
I1
ssg82
g3412
sg75
(lp3419
I00
asbasbasbag68
(g84
g70
NtRp3420
(dp3421
g73
(dp3422
sg82
g3391
sg75
(lp3423
g68
(g89
g70
NtRp3424
(dp3425
g73
(dp3426
sg82
g3420
sg75
(lp3427
g68
(g69
g70
NtRp3428
(dp3429
g73
(dp3430
g81
I1
ssg82
g3424
sg75
(lp3431
S'/mvstore/default/prestamos'
p3432
asbasbasbag68
(g84
g70
NtRp3433
(dp3434
g73
(dp3435
sg82
g3391
sg75
(lp3436
g68
(g89
g70
NtRp3437
(dp3438
g73
(dp3439
sg82
g3433
sg75
(lp3440
g68
(g69
g70
NtRp3441
(dp3442
g73
(dp3443
g81
I1
ssg82
g3437
sg75
(lp3444
(lp3445
asbasbasbasbasbasbasbasbasbasbasbasbasbasbasbag68
(g84
g70
NtRp3446
(dp3447
g73
(dp3448
sg82
g2477
sg75
(lp3449
g68
(g89
g70
NtRp3450
(dp3451
g73
(dp3452
sg82
g3446
sg75
(lp3453
g68
(g69
g70
NtRp3454
(dp3455
g73
(dp3456
g81
I4
ssg82
g3450
sg75
(lp3457
g68
(g77
g70
NtRp3458
(dp3459
g73
(dp3460
g81
I3
ssg82
Nsg75
(lp3461
g68
(g84
g70
NtRp3462
(dp3463
g73
(dp3464
sg82
g3458
sg75
(lp3465
g68
(g89
g70
NtRp3466
(dp3467
g73
(dp3468
sg82
g3462
sg75
(lp3469
g68
(g69
g70
NtRp3470
(dp3471
g73
(dp3472
g81
I3
ssg82
g3466
sg75
(lp3473
g2509
(S's\x16\x00\x00\x00Retreiving information'
tRp3474
asbasbasbag68
(g84
g70
NtRp3475
(dp3476
g73
(dp3477
sg82
g3458
sg75
(lp3478
g68
(g89
g70
NtRp3479
(dp3480
g73
(dp3481
sg82
g3475
sg75
(lp3482
g68
(g69
g70
NtRp3483
(dp3484
g73
(dp3485
g81
I3
ssg82
g3479
sg75
(lp3486
g111
asbasbasbag68
(g84
g70
NtRp3487
(dp3488
g73
(dp3489
sg82
g3458
sg75
(lp3490
g68
(g89
g70
NtRp3491
(dp3492
g73
(dp3493
sg82
g3487
sg75
(lp3494
g68
(g69
g70
NtRp3495
(dp3496
g73
(dp3497
g81
I3
ssg82
g3491
sg75
(lp3498
S'/mvstore/default/index'
p3499
asbasbasbag68
(g84
g70
NtRp3500
(dp3501
g73
(dp3502
sg82
g3458
sg75
(lp3503
g68
(g89
g70
NtRp3504
(dp3505
g73
(dp3506
sg82
g3500
sg75
(lp3507
g68
(g69
g70
NtRp3508
(dp3509
g73
(dp3510
g81
I3
ssg82
g3504
sg75
(lp3511
g68
(g77
g70
NtRp3512
(dp3513
g73
(dp3514
g81
I2
ssg82
Nsg75
(lp3515
g68
(g84
g70
NtRp3516
(dp3517
g73
(dp3518
sg82
g3512
sg75
(lp3519
g68
(g89
g70
NtRp3520
(dp3521
g73
(dp3522
sg82
g3516
sg75
(lp3523
g68
(g69
g70
NtRp3524
(dp3525
g73
(dp3526
g81
I2
ssg82
g3520
sg75
(lp3527
g68
(g77
g70
NtRp3528
(dp3529
g73
(dp3530
g81
I1
ssg82
Nsg75
(lp3531
g68
(g84
g70
NtRp3532
(dp3533
g73
(dp3534
sg82
g3528
sg75
(lp3535
g68
(g89
g70
NtRp3536
(dp3537
g73
(dp3538
sg82
g3532
sg75
(lp3539
g68
(g69
g70
NtRp3540
(dp3541
g73
(dp3542
g81
I1
ssg82
g3536
sg75
(lp3543
g2509
(S's\n\x00\x00\x00List Users'
tRp3544
asbasbasbag68
(g84
g70
NtRp3545
(dp3546
g73
(dp3547
sg82
g3528
sg75
(lp3548
g68
(g89
g70
NtRp3549
(dp3550
g73
(dp3551
sg82
g3545
sg75
(lp3552
g68
(g69
g70
NtRp3553
(dp3554
g73
(dp3555
g81
I1
ssg82
g3549
sg75
(lp3556
I00
asbasbasbag68
(g84
g70
NtRp3557
(dp3558
g73
(dp3559
sg82
g3528
sg75
(lp3560
g68
(g89
g70
NtRp3561
(dp3562
g73
(dp3563
sg82
g3557
sg75
(lp3564
g68
(g69
g70
NtRp3565
(dp3566
g73
(dp3567
g81
I1
ssg82
g3561
sg75
(lp3568
S'/mvstore/default/personal'
p3569
asbasbasbag68
(g84
g70
NtRp3570
(dp3571
g73
(dp3572
sg82
g3528
sg75
(lp3573
g68
(g89
g70
NtRp3574
(dp3575
g73
(dp3576
sg82
g3570
sg75
(lp3577
g68
(g69
g70
NtRp3578
(dp3579
g73
(dp3580
g81
I1
ssg82
g3574
sg75
(lp3581
(lp3582
asbasbasbasbasbasbasbag68
(g84
g70
NtRp3583
(dp3584
g73
(dp3585
sg82
g3512
sg75
(lp3586
g68
(g89
g70
NtRp3587
(dp3588
g73
(dp3589
sg82
g3583
sg75
(lp3590
g68
(g69
g70
NtRp3591
(dp3592
g73
(dp3593
g81
I2
ssg82
g3587
sg75
(lp3594
g68
(g77
g70
NtRp3595
(dp3596
g73
(dp3597
g81
I1
ssg82
Nsg75
(lp3598
g68
(g84
g70
NtRp3599
(dp3600
g73
(dp3601
sg82
g3595
sg75
(lp3602
g68
(g89
g70
NtRp3603
(dp3604
g73
(dp3605
sg82
g3599
sg75
(lp3606
g68
(g69
g70
NtRp3607
(dp3608
g73
(dp3609
g81
I1
ssg82
g3603
sg75
(lp3610
g2509
(S's\x0c\x00\x00\x00List Clients'
tRp3611
asbasbasbag68
(g84
g70
NtRp3612
(dp3613
g73
(dp3614
sg82
g3595
sg75
(lp3615
g68
(g89
g70
NtRp3616
(dp3617
g73
(dp3618
sg82
g3612
sg75
(lp3619
g68
(g69
g70
NtRp3620
(dp3621
g73
(dp3622
g81
I1
ssg82
g3616
sg75
(lp3623
I00
asbasbasbag68
(g84
g70
NtRp3624
(dp3625
g73
(dp3626
sg82
g3595
sg75
(lp3627
g68
(g89
g70
NtRp3628
(dp3629
g73
(dp3630
sg82
g3624
sg75
(lp3631
g68
(g69
g70
NtRp3632
(dp3633
g73
(dp3634
g81
I1
ssg82
g3628
sg75
(lp3635
S'/mvstore/default/clientesall'
p3636
asbasbasbag68
(g84
g70
NtRp3637
(dp3638
g73
(dp3639
sg82
g3595
sg75
(lp3640
g68
(g89
g70
NtRp3641
(dp3642
g73
(dp3643
sg82
g3637
sg75
(lp3644
g68
(g69
g70
NtRp3645
(dp3646
g73
(dp3647
g81
I1
ssg82
g3641
sg75
(lp3648
(lp3649
asbasbasbasbasbasbasbag68
(g84
g70
NtRp3650
(dp3651
g73
(dp3652
sg82
g3512
sg75
(lp3653
g68
(g89
g70
NtRp3654
(dp3655
g73
(dp3656
sg82
g3650
sg75
(lp3657
g68
(g69
g70
NtRp3658
(dp3659
g73
(dp3660
g81
I2
ssg82
g3654
sg75
(lp3661
g68
(g77
g70
NtRp3662
(dp3663
g73
(dp3664
g81
I1
ssg82
Nsg75
(lp3665
g68
(g84
g70
NtRp3666
(dp3667
g73
(dp3668
sg82
g3662
sg75
(lp3669
g68
(g89
g70
NtRp3670
(dp3671
g73
(dp3672
sg82
g3666
sg75
(lp3673
g68
(g69
g70
NtRp3674
(dp3675
g73
(dp3676
g81
I1
ssg82
g3670
sg75
(lp3677
g2509
(S's\x0b\x00\x00\x00List Movies'
tRp3678
asbasbasbag68
(g84
g70
NtRp3679
(dp3680
g73
(dp3681
sg82
g3662
sg75
(lp3682
g68
(g89
g70
NtRp3683
(dp3684
g73
(dp3685
sg82
g3679
sg75
(lp3686
g68
(g69
g70
NtRp3687
(dp3688
g73
(dp3689
g81
I1
ssg82
g3683
sg75
(lp3690
I00
asbasbasbag68
(g84
g70
NtRp3691
(dp3692
g73
(dp3693
sg82
g3662
sg75
(lp3694
g68
(g89
g70
NtRp3695
(dp3696
g73
(dp3697
sg82
g3691
sg75
(lp3698
g68
(g69
g70
NtRp3699
(dp3700
g73
(dp3701
g81
I1
ssg82
g3695
sg75
(lp3702
S'/mvstore/default/peliculasall'
p3703
asbasbasbag68
(g84
g70
NtRp3704
(dp3705
g73
(dp3706
sg82
g3662
sg75
(lp3707
g68
(g89
g70
NtRp3708
(dp3709
g73
(dp3710
sg82
g3704
sg75
(lp3711
g68
(g69
g70
NtRp3712
(dp3713
g73
(dp3714
g81
I1
ssg82
g3708
sg75
(lp3715
(lp3716
asbasbasbasbasbasbasbag68
(g84
g70
NtRp3717
(dp3718
g73
(dp3719
sg82
g3512
sg75
(lp3720
g68
(g89
g70
NtRp3721
(dp3722
g73
(dp3723
sg82
g3717
sg75
(lp3724
g68
(g69
g70
NtRp3725
(dp3726
g73
(dp3727
g81
I2
ssg82
g3721
sg75
(lp3728
g68
(g77
g70
NtRp3729
(dp3730
g73
(dp3731
g81
I1
ssg82
Nsg75
(lp3732
g68
(g84
g70
NtRp3733
(dp3734
g73
(dp3735
sg82
g3729
sg75
(lp3736
g68
(g89
g70
NtRp3737
(dp3738
g73
(dp3739
sg82
g3733
sg75
(lp3740
g68
(g69
g70
NtRp3741
(dp3742
g73
(dp3743
g81
I1
ssg82
g3737
sg75
(lp3744
g2509
(S's\x0c\x00\x00\x00List Rentals'
tRp3745
asbasbasbag68
(g84
g70
NtRp3746
(dp3747
g73
(dp3748
sg82
g3729
sg75
(lp3749
g68
(g89
g70
NtRp3750
(dp3751
g73
(dp3752
sg82
g3746
sg75
(lp3753
g68
(g69
g70
NtRp3754
(dp3755
g73
(dp3756
g81
I1
ssg82
g3750
sg75
(lp3757
I00
asbasbasbag68
(g84
g70
NtRp3758
(dp3759
g73
(dp3760
sg82
g3729
sg75
(lp3761
g68
(g89
g70
NtRp3762
(dp3763
g73
(dp3764
sg82
g3758
sg75
(lp3765
g68
(g69
g70
NtRp3766
(dp3767
g73
(dp3768
g81
I1
ssg82
g3762
sg75
(lp3769
S'/mvstore/default/prestados'
p3770
asbasbasbag68
(g84
g70
NtRp3771
(dp3772
g73
(dp3773
sg82
g3729
sg75
(lp3774
g68
(g89
g70
NtRp3775
(dp3776
g73
(dp3777
sg82
g3771
sg75
(lp3778
g68
(g69
g70
NtRp3779
(dp3780
g73
(dp3781
g81
I1
ssg82
g3775
sg75
(lp3782
(lp3783
asbasbasbasbasbasbasbag68
(g84
g70
NtRp3784
(dp3785
g73
(dp3786
sg82
g3512
sg75
(lp3787
g68
(g89
g70
NtRp3788
(dp3789
g73
(dp3790
sg82
g3784
sg75
(lp3791
g68
(g69
g70
NtRp3792
(dp3793
g73
(dp3794
g81
I2
ssg82
g3788
sg75
(lp3795
g68
(g77
g70
NtRp3796
(dp3797
g73
(dp3798
g81
I1
ssg82
Nsg75
(lp3799
g68
(g84
g70
NtRp3800
(dp3801
g73
(dp3802
sg82
g3796
sg75
(lp3803
g68
(g89
g70
NtRp3804
(dp3805
g73
(dp3806
sg82
g3800
sg75
(lp3807
g68
(g69
g70
NtRp3808
(dp3809
g73
(dp3810
g81
I1
ssg82
g3804
sg75
(lp3811
g2509
(S's\x06\x00\x00\x00Search'
tRp3812
asbasbasbag68
(g84
g70
NtRp3813
(dp3814
g73
(dp3815
sg82
g3796
sg75
(lp3816
g68
(g89
g70
NtRp3817
(dp3818
g73
(dp3819
sg82
g3813
sg75
(lp3820
g68
(g69
g70
NtRp3821
(dp3822
g73
(dp3823
g81
I1
ssg82
g3817
sg75
(lp3824
I00
asbasbasbag68
(g84
g70
NtRp3825
(dp3826
g73
(dp3827
sg82
g3796
sg75
(lp3828
g68
(g89
g70
NtRp3829
(dp3830
g73
(dp3831
sg82
g3825
sg75
(lp3832
g68
(g69
g70
NtRp3833
(dp3834
g73
(dp3835
g81
I1
ssg82
g3829
sg75
(lp3836
S'/mvstore/default/prestamos'
p3837
asbasbasbag68
(g84
g70
NtRp3838
(dp3839
g73
(dp3840
sg82
g3796
sg75
(lp3841
g68
(g89
g70
NtRp3842
(dp3843
g73
(dp3844
sg82
g3838
sg75
(lp3845
g68
(g69
g70
NtRp3846
(dp3847
g73
(dp3848
g81
I1
ssg82
g3842
sg75
(lp3849
(lp3850
asbasbasbasbasbasbasbasbasbasbasbasbasbasbasbag68
(g84
g70
NtRp3851
(dp3852
g73
(dp3853
sg82
g2477
sg75
(lp3854
g68
(g89
g70
NtRp3855
(dp3856
g73
(dp3857
sg82
g3851
sg75
(lp3858
g68
(g69
g70
NtRp3859
(dp3860
g73
(dp3861
g81
I4
ssg82
g3855
sg75
(lp3862
g68
(g77
g70
NtRp3863
(dp3864
g73
(dp3865
g81
I3
ssg82
Nsg75
(lp3866
g68
(g84
g70
NtRp3867
(dp3868
g73
(dp3869
sg82
g3863
sg75
(lp3870
g68
(g89
g70
NtRp3871
(dp3872
g73
(dp3873
sg82
g3867
sg75
(lp3874
g68
(g69
g70
NtRp3875
(dp3876
g73
(dp3877
g81
I3
ssg82
g3871
sg75
(lp3878
g2509
(S's\x15\x00\x00\x00Modifying information'
tRp3879
asbasbasbag68
(g84
g70
NtRp3880
(dp3881
g73
(dp3882
sg82
g3863
sg75
(lp3883
g68
(g89
g70
NtRp3884
(dp3885
g73
(dp3886
sg82
g3880
sg75
(lp3887
g68
(g69
g70
NtRp3888
(dp3889
g73
(dp3890
g81
I3
ssg82
g3884
sg75
(lp3891
g111
asbasbasbag68
(g84
g70
NtRp3892
(dp3893
g73
(dp3894
sg82
g3863
sg75
(lp3895
g68
(g89
g70
NtRp3896
(dp3897
g73
(dp3898
sg82
g3892
sg75
(lp3899
g68
(g69
g70
NtRp3900
(dp3901
g73
(dp3902
g81
I3
ssg82
g3896
sg75
(lp3903
S'/mvstore/default/index'
p3904
asbasbasbag68
(g84
g70
NtRp3905
(dp3906
g73
(dp3907
sg82
g3863
sg75
(lp3908
g68
(g89
g70
NtRp3909
(dp3910
g73
(dp3911
sg82
g3905
sg75
(lp3912
g68
(g69
g70
NtRp3913
(dp3914
g73
(dp3915
g81
I3
ssg82
g3909
sg75
(lp3916
g68
(g77
g70
NtRp3917
(dp3918
g73
(dp3919
g81
I2
ssg82
Nsg75
(lp3920
g68
(g84
g70
NtRp3921
(dp3922
g73
(dp3923
sg82
g3917
sg75
(lp3924
g68
(g89
g70
NtRp3925
(dp3926
g73
(dp3927
sg82
g3921
sg75
(lp3928
g68
(g69
g70
NtRp3929
(dp3930
g73
(dp3931
g81
I2
ssg82
g3925
sg75
(lp3932
g68
(g77
g70
NtRp3933
(dp3934
g73
(dp3935
g81
I1
ssg82
Nsg75
(lp3936
g68
(g84
g70
NtRp3937
(dp3938
g73
(dp3939
sg82
g3933
sg75
(lp3940
g68
(g89
g70
NtRp3941
(dp3942
g73
(dp3943
sg82
g3937
sg75
(lp3944
g68
(g69
g70
NtRp3945
(dp3946
g73
(dp3947
g81
I1
ssg82
g3941
sg75
(lp3948
g2509
(S's\x05\x00\x00\x00Users'
tRp3949
asbasbasbag68
(g84
g70
NtRp3950
(dp3951
g73
(dp3952
sg82
g3933
sg75
(lp3953
g68
(g89
g70
NtRp3954
(dp3955
g73
(dp3956
sg82
g3950
sg75
(lp3957
g68
(g69
g70
NtRp3958
(dp3959
g73
(dp3960
g81
I1
ssg82
g3954
sg75
(lp3961
I00
asbasbasbag68
(g84
g70
NtRp3962
(dp3963
g73
(dp3964
sg82
g3933
sg75
(lp3965
g68
(g89
g70
NtRp3966
(dp3967
g73
(dp3968
sg82
g3962
sg75
(lp3969
g68
(g69
g70
NtRp3970
(dp3971
g73
(dp3972
g81
I1
ssg82
g3966
sg75
(lp3973
S'/mvstore/default/empleados'
p3974
asbasbasbag68
(g84
g70
NtRp3975
(dp3976
g73
(dp3977
sg82
g3933
sg75
(lp3978
g68
(g89
g70
NtRp3979
(dp3980
g73
(dp3981
sg82
g3975
sg75
(lp3982
g68
(g69
g70
NtRp3983
(dp3984
g73
(dp3985
g81
I1
ssg82
g3979
sg75
(lp3986
(lp3987
asbasbasbasbasbasbasbag68
(g84
g70
NtRp3988
(dp3989
g73
(dp3990
sg82
g3917
sg75
(lp3991
g68
(g89
g70
NtRp3992
(dp3993
g73
(dp3994
sg82
g3988
sg75
(lp3995
g68
(g69
g70
NtRp3996
(dp3997
g73
(dp3998
g81
I2
ssg82
g3992
sg75
(lp3999
g68
(g77
g70
NtRp4000
(dp4001
g73
(dp4002
g81
I1
ssg82
Nsg75
(lp4003
g68
(g84
g70
NtRp4004
(dp4005
g73
(dp4006
sg82
g4000
sg75
(lp4007
g68
(g89
g70
NtRp4008
(dp4009
g73
(dp4010
sg82
g4004
sg75
(lp4011
g68
(g69
g70
NtRp4012
(dp4013
g73
(dp4014
g81
I1
ssg82
g4008
sg75
(lp4015
g2509
(S's\x07\x00\x00\x00Clients'
tRp4016
asbasbasbag68
(g84
g70
NtRp4017
(dp4018
g73
(dp4019
sg82
g4000
sg75
(lp4020
g68
(g89
g70
NtRp4021
(dp4022
g73
(dp4023
sg82
g4017
sg75
(lp4024
g68
(g69
g70
NtRp4025
(dp4026
g73
(dp4027
g81
I1
ssg82
g4021
sg75
(lp4028
I00
asbasbasbag68
(g84
g70
NtRp4029
(dp4030
g73
(dp4031
sg82
g4000
sg75
(lp4032
g68
(g89
g70
NtRp4033
(dp4034
g73
(dp4035
sg82
g4029
sg75
(lp4036
g68
(g69
g70
NtRp4037
(dp4038
g73
(dp4039
g81
I1
ssg82
g4033
sg75
(lp4040
S'/mvstore/default/clientes'
p4041
asbasbasbag68
(g84
g70
NtRp4042
(dp4043
g73
(dp4044
sg82
g4000
sg75
(lp4045
g68
(g89
g70
NtRp4046
(dp4047
g73
(dp4048
sg82
g4042
sg75
(lp4049
g68
(g69
g70
NtRp4050
(dp4051
g73
(dp4052
g81
I1
ssg82
g4046
sg75
(lp4053
(lp4054
asbasbasbasbasbasbasbag68
(g84
g70
NtRp4055
(dp4056
g73
(dp4057
sg82
g3917
sg75
(lp4058
g68
(g89
g70
NtRp4059
(dp4060
g73
(dp4061
sg82
g4055
sg75
(lp4062
g68
(g69
g70
NtRp4063
(dp4064
g73
(dp4065
g81
I2
ssg82
g4059
sg75
(lp4066
g68
(g77
g70
NtRp4067
(dp4068
g73
(dp4069
g81
I1
ssg82
Nsg75
(lp4070
g68
(g84
g70
NtRp4071
(dp4072
g73
(dp4073
sg82
g4067
sg75
(lp4074
g68
(g89
g70
NtRp4075
(dp4076
g73
(dp4077
sg82
g4071
sg75
(lp4078
g68
(g69
g70
NtRp4079
(dp4080
g73
(dp4081
g81
I1
ssg82
g4075
sg75
(lp4082
g2509
(S's\x06\x00\x00\x00Movies'
tRp4083
asbasbasbag68
(g84
g70
NtRp4084
(dp4085
g73
(dp4086
sg82
g4067
sg75
(lp4087
g68
(g89
g70
NtRp4088
(dp4089
g73
(dp4090
sg82
g4084
sg75
(lp4091
g68
(g69
g70
NtRp4092
(dp4093
g73
(dp4094
g81
I1
ssg82
g4088
sg75
(lp4095
I00
asbasbasbag68
(g84
g70
NtRp4096
(dp4097
g73
(dp4098
sg82
g4067
sg75
(lp4099
g68
(g89
g70
NtRp4100
(dp4101
g73
(dp4102
sg82
g4096
sg75
(lp4103
g68
(g69
g70
NtRp4104
(dp4105
g73
(dp4106
g81
I1
ssg82
g4100
sg75
(lp4107
S'/mvstore/default/peliculas'
p4108
asbasbasbag68
(g84
g70
NtRp4109
(dp4110
g73
(dp4111
sg82
g4067
sg75
(lp4112
g68
(g89
g70
NtRp4113
(dp4114
g73
(dp4115
sg82
g4109
sg75
(lp4116
g68
(g69
g70
NtRp4117
(dp4118
g73
(dp4119
g81
I1
ssg82
g4113
sg75
(lp4120
(lp4121
asbasbasbasbasbasbasbag68
(g84
g70
NtRp4122
(dp4123
g73
(dp4124
sg82
g3917
sg75
(lp4125
g68
(g89
g70
NtRp4126
(dp4127
g73
(dp4128
sg82
g4122
sg75
(lp4129
g68
(g69
g70
NtRp4130
(dp4131
g73
(dp4132
g81
I2
ssg82
g4126
sg75
(lp4133
g68
(g77
g70
NtRp4134
(dp4135
g73
(dp4136
g81
I1
ssg82
Nsg75
(lp4137
g68
(g84
g70
NtRp4138
(dp4139
g73
(dp4140
sg82
g4134
sg75
(lp4141
g68
(g89
g70
NtRp4142
(dp4143
g73
(dp4144
sg82
g4138
sg75
(lp4145
g68
(g69
g70
NtRp4146
(dp4147
g73
(dp4148
g81
I1
ssg82
g4142
sg75
(lp4149
g2509
(S's\x07\x00\x00\x00Rentals'
tRp4150
asbasbasbag68
(g84
g70
NtRp4151
(dp4152
g73
(dp4153
sg82
g4134
sg75
(lp4154
g68
(g89
g70
NtRp4155
(dp4156
g73
(dp4157
sg82
g4151
sg75
(lp4158
g68
(g69
g70
NtRp4159
(dp4160
g73
(dp4161
g81
I1
ssg82
g4155
sg75
(lp4162
I00
asbasbasbag68
(g84
g70
NtRp4163
(dp4164
g73
(dp4165
sg82
g4134
sg75
(lp4166
g68
(g89
g70
NtRp4167
(dp4168
g73
(dp4169
sg82
g4163
sg75
(lp4170
g68
(g69
g70
NtRp4171
(dp4172
g73
(dp4173
g81
I1
ssg82
g4167
sg75
(lp4174
S'/mvstore/default/prestamos'
p4175
asbasbasbag68
(g84
g70
NtRp4176
(dp4177
g73
(dp4178
sg82
g4134
sg75
(lp4179
g68
(g89
g70
NtRp4180
(dp4181
g73
(dp4182
sg82
g4176
sg75
(lp4183
g68
(g69
g70
NtRp4184
(dp4185
g73
(dp4186
g81
I1
ssg82
g4180
sg75
(lp4187
(lp4188
asbasbasbasbasbasbasbag68
(g84
g70
NtRp4189
(dp4190
g73
(dp4191
sg82
g3917
sg75
(lp4192
g68
(g89
g70
NtRp4193
(dp4194
g73
(dp4195
sg82
g4189
sg75
(lp4196
g68
(g69
g70
NtRp4197
(dp4198
g73
(dp4199
g81
I2
ssg82
g4193
sg75
(lp4200
g68
(g77
g70
NtRp4201
(dp4202
g73
(dp4203
g81
I1
ssg82
Nsg75
(lp4204
g68
(g84
g70
NtRp4205
(dp4206
g73
(dp4207
sg82
g4201
sg75
(lp4208
g68
(g89
g70
NtRp4209
(dp4210
g73
(dp4211
sg82
g4205
sg75
(lp4212
g68
(g69
g70
NtRp4213
(dp4214
g73
(dp4215
g81
I1
ssg82
g4209
sg75
(lp4216
g2509
(S's\x06\x00\x00\x00Search'
tRp4217
asbasbasbag68
(g84
g70
NtRp4218
(dp4219
g73
(dp4220
sg82
g4201
sg75
(lp4221
g68
(g89
g70
NtRp4222
(dp4223
g73
(dp4224
sg82
g4218
sg75
(lp4225
g68
(g69
g70
NtRp4226
(dp4227
g73
(dp4228
g81
I1
ssg82
g4222
sg75
(lp4229
I00
asbasbasbag68
(g84
g70
NtRp4230
(dp4231
g73
(dp4232
sg82
g4201
sg75
(lp4233
g68
(g89
g70
NtRp4234
(dp4235
g73
(dp4236
sg82
g4230
sg75
(lp4237
g68
(g69
g70
NtRp4238
(dp4239
g73
(dp4240
g81
I1
ssg82
g4234
sg75
(lp4241
S'/mvstore/default/prestamos'
p4242
asbasbasbag68
(g84
g70
NtRp4243
(dp4244
g73
(dp4245
sg82
g4201
sg75
(lp4246
g68
(g89
g70
NtRp4247
(dp4248
g73
(dp4249
sg82
g4243
sg75
(lp4250
g68
(g69
g70
NtRp4251
(dp4252
g73
(dp4253
g81
I1
ssg82
g4247
sg75
(lp4254
(lp4255
asbasbasbasbasbasbasbasbasbasbasbasbasbasbasbasbasbasbasbag68
(g84
g70
NtRp4256
(dp4257
g73
(dp4258
sg82
g2033
sg75
(lp4259
g68
(g89
g70
NtRp4260
(dp4261
g73
(dp4262
g93
g94
ssg82
g4256
sg75
(lp4263
S'meta'
p4264
asbag68
(g89
g70
NtRp4265
(dp4266
g73
(dp4267
g100
g101
ssg82
g4256
sg75
(lp4268
S':'
asbag68
(g89
g70
NtRp4269
(dp4270
g73
(dp4271
sg82
g4256
sg75
(lp4272
g68
(g69
g70
NtRp4273
(dp4274
g73
(dp4275
g81
I5
ssg82
g4269
sg75
(lp4276
g68
(g77
g70
NtRp4277
(dp4278
g73
(dp4279
g81
I4
ssg82
Nsg75
(lp4280
g68
(g84
g70
NtRp4281
(dp4282
g73
(dp4283
sg82
g4277
sg75
(lp4284
g68
(g89
g70
NtRp4285
(dp4286
g73
(dp4287
g93
g94
ssg82
g4281
sg75
(lp4288
S'author'
p4289
asbag68
(g89
g70
NtRp4290
(dp4291
g73
(dp4292
g100
g101
ssg82
g4281
sg75
(lp4293
S':'
asbag68
(g89
g70
NtRp4294
(dp4295
g73
(dp4296
sg82
g4281
sg75
(lp4297
g68
(g69
g70
NtRp4298
(dp4299
g73
(dp4300
g81
I4
ssg82
g4294
sg75
(lp4301
S'Marco Mansilla'
p4302
asbasbasbag68
(g84
g70
NtRp4303
(dp4304
g73
(dp4305
sg82
g4277
sg75
(lp4306
g68
(g89
g70
NtRp4307
(dp4308
g73
(dp4309
g93
g94
ssg82
g4303
sg75
(lp4310
S'copyright'
p4311
asbag68
(g89
g70
NtRp4312
(dp4313
g73
(dp4314
g100
g101
ssg82
g4303
sg75
(lp4315
S':'
asbag68
(g89
g70
NtRp4316
(dp4317
g73
(dp4318
sg82
g4303
sg75
(lp4319
g68
(g69
g70
NtRp4320
(dp4321
g73
(dp4322
g81
I4
ssg82
g4316
sg75
(lp4323
S'Copyright 2007-2010'
p4324
asbasbasbag68
(g84
g70
NtRp4325
(dp4326
g73
(dp4327
sg82
g4277
sg75
(lp4328
g68
(g89
g70
NtRp4329
(dp4330
g73
(dp4331
g93
g94
ssg82
g4325
sg75
(lp4332
S'description'
p4333
asbag68
(g89
g70
NtRp4334
(dp4335
g73
(dp4336
g100
g101
ssg82
g4325
sg75
(lp4337
S':'
asbag68
(g89
g70
NtRp4338
(dp4339
g73
(dp4340
sg82
g4325
sg75
(lp4341
g68
(g69
g70
NtRp4342
(dp4343
g73
(dp4344
g81
I4
ssg82
g4338
sg75
(lp4345
S'Free and open source full-stack enterprise framework for agile development of fast, scalable, secure and portable database-driven web-based applications. Written and programmable in Python'
p4346
asbasbasbag68
(g84
g70
NtRp4347
(dp4348
g73
(dp4349
sg82
g4277
sg75
(lp4350
g68
(g89
g70
NtRp4351
(dp4352
g73
(dp4353
g93
g94
ssg82
g4347
sg75
(lp4354
S'generator'
p4355
asbag68
(g89
g70
NtRp4356
(dp4357
g73
(dp4358
g100
g101
ssg82
g4347
sg75
(lp4359
S':'
asbag68
(g89
g70
NtRp4360
(dp4361
g73
(dp4362
sg82
g4347
sg75
(lp4363
g68
(g69
g70
NtRp4364
(dp4365
g73
(dp4366
g81
I4
ssg82
g4360
sg75
(lp4367
S'Web2py Enterprise Framework'
p4368
asbasbasbag68
(g84
g70
NtRp4369
(dp4370
g73
(dp4371
sg82
g4277
sg75
(lp4372
g68
(g89
g70
NtRp4373
(dp4374
g73
(dp4375
g93
g94
ssg82
g4369
sg75
(lp4376
S'keywords'
p4377
asbag68
(g89
g70
NtRp4378
(dp4379
g73
(dp4380
g100
g101
ssg82
g4369
sg75
(lp4381
S':'
asbag68
(g89
g70
NtRp4382
(dp4383
g73
(dp4384
sg82
g4369
sg75
(lp4385
g68
(g69
g70
NtRp4386
(dp4387
g73
(dp4388
g81
I4
ssg82
g4382
sg75
(lp4389
S'web2py, python, framework'
p4390
asbasbasbasbasbasbasbag68
(g84
g70
NtRp4391
(dp4392
g73
(dp4393
sg82
g2033
sg75
(lp4394
g68
(g89
g70
NtRp4395
(dp4396
g73
(dp4397
g93
g94
ssg82
g4391
sg75
(lp4398
S'postprocessing'
p4399
asbag68
(g89
g70
NtRp4400
(dp4401
g73
(dp4402
g100
g101
ssg82
g4391
sg75
(lp4403
S':'
asbag68
(g89
g70
NtRp4404
(dp4405
g73
(dp4406
sg82
g4391
sg75
(lp4407
g68
(g69
g70
NtRp4408
(dp4409
g73
(dp4410
g81
I5
ssg82
g4404
sg75
(lp4411
g68
(g77
g70
NtRp4412
(dp4413
g73
(dp4414
g81
I4
ssg82
Nsg75
(lp4415
sbasbasbasbag68
(g84
g70
NtRp4416
(dp4417
g73
(dp4418
sg82
g2033
sg75
(lp4419
g68
(g89
g70
NtRp4420
(dp4421
g73
(dp4422
g93
g94
ssg82
g4416
sg75
(lp4423
S'session_filename'
p4424
asbag68
(g89
g70
NtRp4425
(dp4426
g73
(dp4427
g100
g101
ssg82
g4416
sg75
(lp4428
S':'
asbag68
(g89
g70
NtRp4429
(dp4430
g73
(dp4431
sg82
g4416
sg75
(lp4432
g68
(g69
g70
NtRp4433
(dp4434
g73
(dp4435
g81
I5
ssg82
g4429
sg75
(lp4436
S'/home/marco/proyectos/web2py-trunk/applications/mvstore/sessions/127.0.0.1-4738b3ad-f639-4bcc-bfb0-2d8be0f0c574'
p4437
asbasbasbag68
(g84
g70
NtRp4438
(dp4439
g73
(dp4440
sg82
g2033
sg75
(lp4441
g68
(g89
g70
NtRp4442
(dp4443
g73
(dp4444
g93
g94
ssg82
g4438
sg75
(lp4445
S'session_id'
p4446
asbag68
(g89
g70
NtRp4447
(dp4448
g73
(dp4449
g100
g101
ssg82
g4438
sg75
(lp4450
S':'
asbag68
(g89
g70
NtRp4451
(dp4452
g73
(dp4453
sg82
g4438
sg75
(lp4454
g68
(g69
g70
NtRp4455
(dp4456
g73
(dp4457
g81
I5
ssg82
g4451
sg75
(lp4458
S'127.0.0.1-4738b3ad-f639-4bcc-bfb0-2d8be0f0c574'
p4459
asbasbasbag68
(g84
g70
NtRp4460
(dp4461
g73
(dp4462
sg82
g2033
sg75
(lp4463
g68
(g89
g70
NtRp4464
(dp4465
g73
(dp4466
g93
g94
ssg82
g4460
sg75
(lp4467
S'session_id_name'
p4468
asbag68
(g89
g70
NtRp4469
(dp4470
g73
(dp4471
g100
g101
ssg82
g4460
sg75
(lp4472
S':'
asbag68
(g89
g70
NtRp4473
(dp4474
g73
(dp4475
sg82
g4460
sg75
(lp4476
g68
(g69
g70
NtRp4477
(dp4478
g73
(dp4479
g81
I5
ssg82
g4473
sg75
(lp4480
g2090
asbasbasbag68
(g84
g70
NtRp4481
(dp4482
g73
(dp4483
sg82
g2033
sg75
(lp4484
g68
(g89
g70
NtRp4485
(dp4486
g73
(dp4487
g93
g94
ssg82
g4481
sg75
(lp4488
S'session_new'
p4489
asbag68
(g89
g70
NtRp4490
(dp4491
g73
(dp4492
g100
g101
ssg82
g4481
sg75
(lp4493
S':'
asbag68
(g89
g70
NtRp4494
(dp4495
g73
(dp4496
sg82
g4481
sg75
(lp4497
g68
(g69
g70
NtRp4498
(dp4499
g73
(dp4500
g81
I5
ssg82
g4494
sg75
(lp4501
g996
asbasbasbag68
(g84
g70
NtRp4502
(dp4503
g73
(dp4504
sg82
g2033
sg75
(lp4505
g68
(g89
g70
NtRp4506
(dp4507
g73
(dp4508
g93
g94
ssg82
g4502
sg75
(lp4509
S'status'
p4510
asbag68
(g89
g70
NtRp4511
(dp4512
g73
(dp4513
g100
g101
ssg82
g4502
sg75
(lp4514
S':'
asbag68
(g89
g70
NtRp4515
(dp4516
g73
(dp4517
sg82
g4502
sg75
(lp4518
g68
(g69
g70
NtRp4519
(dp4520
g73
(dp4521
g81
I5
ssg82
g4515
sg75
(lp4522
S'200'
p4523
asbasbasbag68
(g84
g70
NtRp4524
(dp4525
g73
(dp4526
sg82
g2033
sg75
(lp4527
g68
(g89
g70
NtRp4528
(dp4529
g73
(dp4530
g93
g94
ssg82
g4524
sg75
(lp4531
S'subtitle'
p4532
asbag68
(g89
g70
NtRp4533
(dp4534
g73
(dp4535
g100
g101
ssg82
g4524
sg75
(lp4536
S':'
asbag68
(g89
g70
NtRp4537
(dp4538
g73
(dp4539
sg82
g4524
sg75
(lp4540
g68
(g69
g70
NtRp4541
(dp4542
g73
(dp4543
g81
I5
ssg82
g4537
sg75
(lp4544
g2509
(S's\r\x00\x00\x00customize me!'
tRp4545
asbasbasbag68
(g84
g70
NtRp4546
(dp4547
g73
(dp4548
sg82
g2033
sg75
(lp4549
g68
(g89
g70
NtRp4550
(dp4551
g73
(dp4552
g93
g94
ssg82
g4546
sg75
(lp4553
S'title'
p4554
asbag68
(g89
g70
NtRp4555
(dp4556
g73
(dp4557
g100
g101
ssg82
g4546
sg75
(lp4558
S':'
asbag68
(g89
g70
NtRp4559
(dp4560
g73
(dp4561
sg82
g4546
sg75
(lp4562
g68
(g69
g70
NtRp4563
(dp4564
g73
(dp4565
g81
I5
ssg82
g4559
sg75
(lp4566
g133
asbasbasbag68
(g84
g70
NtRp4567
(dp4568
g73
(dp4569
sg82
g2033
sg75
(lp4570
g68
(g89
g70
NtRp4571
(dp4572
g73
(dp4573
g93
g94
ssg82
g4567
sg75
(lp4574
g1320
asbag68
(g89
g70
NtRp4575
(dp4576
g73
(dp4577
g100
g101
ssg82
g4567
sg75
(lp4578
S':'
asbag68
(g89
g70
NtRp4579
(dp4580
g73
(dp4581
sg82
g4567
sg75
(lp4582
g68
(g69
g70
NtRp4583
(dp4584
g73
(dp4585
g81
I5
ssg82
g4579
sg75
(lp4586
g1333
asbasbasbag68
(g84
g70
NtRp4587
(dp4588
g73
(dp4589
sg82
g2033
sg75
(lp4590
g68
(g89
g70
NtRp4591
(dp4592
g73
(dp4593
g93
g94
ssg82
g4587
sg75
(lp4594
S'view'
p4595
asbag68
(g89
g70
NtRp4596
(dp4597
g73
(dp4598
g100
g101
ssg82
g4587
sg75
(lp4599
S':'
asbag68
(g89
g70
NtRp4600
(dp4601
g73
(dp4602
sg82
g4587
sg75
(lp4603
g68
(g69
g70
NtRp4604
(dp4605
g73
(dp4606
g81
I5
ssg82
g4600
sg75
(lp4607
S'default/prestamos.html'
p4608
asbasbasbasbasbsS'locals'
p4609
(dp4610
g3
S"'/home/marco/proyectos/web2py-trunk/applications/mvstore/controllers/default.py'"
p4611
sg5
S"'#-*- coding: utf-8 -*-\\n# this file is released u...dos)\\n\\nresponse._vars=response._caller(prestamos)\\n'"
p4612
sssS'traceback'
p4613
S'Traceback (most recent call last):\n  File "/home/marco/proyectos/web2py-trunk/gluon/restricted.py", line 191, in restricted\n    ccode = compile2(code,layer)\n  File "/home/marco/proyectos/web2py-trunk/gluon/restricted.py", line 178, in compile2\n    return compile(code.rstrip().replace(\'\\r\\n\',\'\\n\')+\'\\n\', layer, \'exec\')\n  File "/home/marco/proyectos/web2py-trunk/applications/mvstore/controllers/default.py", line 119\n    return dict(form=form,table=db().empleados)\n         ^\nSyntaxError: invalid syntax\n'
p4614
s.