(dp1
S'output'
p2
S''
sS'layer'
p3
S'/home/marco/proyectos/web2py-trunk/applications/mvstore/views/default/index.html'
p4
sS'code'
p5
S'response.write(\'<!DOCTYPE html>\\n<html lang="\', escape=False)\nresponse.write(T.accepted_language or \'en\')\nresponse.write(\'" class="no-js"><!-- no-js need it for modernzr -->\\n  <head>\\n    \\n    <meta charset="utf-8" />\\t  \\t\\n    <!-- www.phpied.com/conditional-comments-block-downloads/ -->\\n    <!--[if IE]><![endif]-->    \\n    <!-- Always force latest IE rendering engine \\n\\t (even in intranet) & Chrome Frame \\n\\t Remove this if you use the .htaccess -->\\n    <meta http-equiv="X-UA-Compatible" content="IE=edge,chrome=1">\\n    \\n    <title>\', escape=False)\nresponse.write(response.title or request.application)\nresponse.write(\'</title>\\n    \\n    <!-- http://dev.w3.org/html5/markup/meta.name.html -->\\n    <meta name="application-name" content="\', escape=False)\nresponse.write(request.application)\nresponse.write(\'" />\\t\\n    \\n    <!-- Speaking of Google, don\\\'t forget to set your site up: \\n\\t http://google.com/webmasters -->\\n    <meta name="google-site-verification" content="" />\\n    \\n    <!--  Mobile Viewport Fix\\n\\t  j.mp/mobileviewport & davidbcalhoun.com/2010/viewport-metatag \\n\\t  device-width: Occupy full width of the screen in its current orientation\\n\\t  initial-scale = 1.0 retains dimensions instead of zooming out if page height > device height\\n\\t  maximum-scale = 1.0 retains dimensions instead of zooming in if page width < device width\\n      -->\\n    <meta name="viewport" content="width=device-width; initial-scale=1.0; maximum-scale=1.0;">\\n    \\n    <!-- Place favicon.ico and apple-touch-icon.png in the root of your domain and delete these references -->\\n    <link rel="shortcut icon" href="\', escape=False)\nresponse.write(URL(\'static\',\'favicon.ico\'))\nresponse.write(\'" type="image/x-icon">\\n    <link rel="apple-touch-icon" href="\', escape=False)\nresponse.write(URL(\'static\',\'favicon.png\'))\nresponse.write(\'">\\n\\n    <!-- For the less-enabled mobile browsers like Opera Mini -->\\n    <link rel="stylesheet" media="handheld" href="\', escape=False)\nresponse.write(URL(\'static\',\'css/handheld.css\'))\nresponse.write(\'">\\n    \\n    <!-- All JavaScript at the bottom, except for Modernizr which enables HTML5 elements & feature detects -->\\n    <script src="\', escape=False)\nresponse.write(URL(\'static\',\'js/modernizr-1.7.min.js\'))\nresponse.write(\'"></script>\\n    \\n    \', escape=False)\n#------  require CSS and JS files for this page (read info in base.css) ------\nresponse.write(\'\\n    \', escape=False)\nresponse.files.append(URL(\'static\',\'css/base.css\'))\nresponse.write(\'\\n    \', escape=False)\nresponse.files.append(URL(\'static\',\'css/superfish.css\'))\nresponse.write(\'\\n    \', escape=False)\nresponse.files.append(URL(\'static\',\'js/superfish.js\'))\nresponse.write(\'\\n    \', escape=False)\n#------ include web2py specific js code (jquery, calendar, form stuff) ------\nresponse.write(\'\\n    \', escape=False)\nresponse.files.insert(0,URL(\'static\',\'js/jquery.js\'))\nresponse.files.insert(1,URL(\'static\',\'css/calendar.css\'))\nresponse.files.insert(2,URL(\'static\',\'js/calendar.js\'))\nfor _item in response.meta or []:\n    response.write(\'\\n     <meta name="\', escape=False)\n    response.write(_item)\n    response.write(\'" content="\', escape=False)\n    response.write(response.meta[_item])\n    response.write(\'" />\', escape=False)\n    pass\nfor _k,_file in enumerate(response.files or []):\n    if _file in response.files[:_k]:\n        continue\n    _file0=_file.lower().split(\'?\')[0]\n    if _file0.endswith(\'.css\'):\n        response.write(\'\\n     <link href="\', escape=False)\n        response.write(_file)\n        response.write(\'" rel="stylesheet" type="text/css" />\', escape=False)\n    elif _file0.endswith(\'.js\'):\n        response.write(\'\\n     <script src="\', escape=False)\n        response.write(_file)\n        response.write(\'" type="text/javascript"></script>\', escape=False)\n        pass\n    pass\nresponse.write(\'\\n  \\n<script type="text/javascript"><!--\\nfunction popup(url) {\\n  newwindow=window.open(url,\\\'name\\\',\\\'height=400,width=600\\\');\\n  if (window.focus) newwindow.focus();\\n  return false;\\n}\\nfunction collapse(id) { jQuery(\\\'#\\\'+id).slideToggle(); }\\nfunction fade(id,value) { if(value>0) jQuery(\\\'#\\\'+id).hide().fadeIn(\\\'slow\\\'); else jQuery(\\\'#\\\'+id).show().fadeOut(\\\'slow\\\'); }\\nfunction ajax(u,s,t) {\\n    query = \\\'\\\';\\n    if (typeof s == "string") {\\n        d = jQuery(s).serialize();\\n        if(d){ query = d; }\\n    } else {\\n        pcs = [];\\n        for(i=0; i<s.length; i++) {\\n            q = jQuery("[name="+s[i]+"]").serialize();\\n            if(q){pcs.push(q);}\\n        }\\n        if (pcs.length>0){query = pcs.join("&");}\\n    }\\n    jQuery.ajax({type: "POST", url: u, data: query, success: function(msg) { if(t) { if(t==\\\':eval\\\') eval(msg); else jQuery("#" + t).html(msg); } } }); \\n}\\n\\nString.prototype.reverse = function () { return this.split(\\\'\\\').reverse().join(\\\'\\\');};\\nfunction web2py_ajax_init() {\\n  jQuery(\\\'.hidden\\\').hide();\\n  jQuery(\\\'.error\\\').hide().slideDown(\\\'slow\\\');\\n  jQuery(\\\'.flash\\\').click(function() { jQuery(this).fadeOut(\\\'slow\\\'); return false; });\\n  // jQuery(\\\'input[type=submit]\\\').click(function(){var t=jQuery(this);t.hide();t.after(\\\'<input class="submit_disabled" disabled="disabled" type="submit" name="\\\'+t.attr("name")+\\\'_dummy" value="\\\'+t.val()+\\\'">\\\')});\\n  jQuery(\\\'input.integer\\\').live(\\\'keyup\\\', function(){this.value=this.value.reverse().replace(/[^0-9\\\\-]|\\\\-(?=.)/g,\\\'\\\').reverse();});\\n  jQuery(\\\'input.double,input.decimal\\\').live(\\\'keyup\\\', function(){this.value=this.value.reverse().replace(/[^0-9\\\\-\\\\.]|[\\\\-](?=.)|[\\\\.](?=[0-9]*[\\\\.])/g,\\\'\\\').reverse();});\\n  jQuery("input[type=\\\'checkbox\\\'].delete").live(\\\'click\\\', function(){ if(this.checked) if(!confirm("\', escape=False)\nresponse.write(T(\'Sure you want to delete this object?\'))\nresponse.write(\'")) this.checked=false; });\\n  try {jQuery("input.date").live(\\\'focus\\\',function() {Calendar.setup({\\n     inputField:this, ifFormat:"\', escape=False)\nresponse.write(T(\'%Y-%m-%d\'))\nresponse.write(\'", showsTime:false\\n  }); }); } catch(e) {};\\n  try { jQuery("input.datetime").live(\\\'focus\\\', function() {Calendar.setup({\\n     inputField:this, ifFormat:"\', escape=False)\nresponse.write(T(\'%Y-%m-%d %H:%M:%S\'))\nresponse.write(\'", showsTime: true,timeFormat: "24"\\n  }); }); } catch(e) {};\\n\\n  jQuery("input.time").live(\\\'focus\\\', function() { var el = jQuery(this); \\n          if (!el.hasClass(\\\'hasTimeEntry\\\')) try { el.timeEntry(); } catch(e) {}; \\n  });\\n};\\n\\njQuery(document).ready(function() {   \\n   var flash = jQuery(\\\'.flash\\\');\\n   flash.hide();\\n   if(flash.html()) flash.slideDown();\\n   web2py_ajax_init();\\n});\\nfunction web2py_trap_form(action,target) {\\n   jQuery(\\\'#\\\'+target+\\\' form\\\').each(function(i){\\n      var form=jQuery(this);\\n      if(!form.hasClass(\\\'no_trap\\\'))\\n        form.submit(function(obj){\\n         jQuery(\\\'.flash\\\').hide().html(\\\'\\\');\\n         web2py_ajax_page(\\\'post\\\',action,form.serialize(),target);\\n         return false;\\n      });\\n   });\\n}\\nfunction web2py_ajax_page(method,action,data,target) {\\n  jQuery.ajax({\\\'type\\\':method,\\\'url\\\':action,\\\'data\\\':data,\\n    \\\'beforeSend\\\':function(xhr) {\\n      xhr.setRequestHeader(\\\'web2py-component-location\\\',document.location);\\n      xhr.setRequestHeader(\\\'web2py-component-element\\\',target);},\\n    \\\'complete\\\':function(xhr,text){\\n      var html=xhr.responseText;\\n      var content=xhr.getResponseHeader(\\\'web2py-component-content\\\'); \\n      var command=xhr.getResponseHeader(\\\'web2py-component-command\\\');\\n      var flash=xhr.getResponseHeader(\\\'web2py-component-flash\\\');\\n      var t = jQuery(\\\'#\\\'+target);\\n      if(content==\\\'prepend\\\') t.prepend(html); \\n      else if(content==\\\'append\\\') t.append(html);\\n      else if(content!=\\\'hide\\\') t.html(html);  \\n      web2py_trap_form(action,target);\\n      web2py_ajax_init();      \\n      if(command) eval(command);\\n      if(flash) jQuery(\\\'.flash\\\').html(flash).slideDown();\\n      }\\n    });\\n}\\nfunction web2py_component(action,target) {\\n  jQuery(document).ready(function(){ web2py_ajax_page(\\\'get\\\',action,null,target); });\\n}\\nfunction web2py_comet(url,onmessage,onopen,onclose) {\\n  if ("WebSocket" in window) {\\n    var ws = new WebSocket(url);\\n    ws.onopen = onopen?onopen:(function(){});\\n    ws.onmessage = onmessage;\\n    ws.onclose = onclose?onclose:(function(){});\\n    return true; // supported\\n  } else return false; // not supported\\n}\\n//--></script>\\n\', escape=False)\nresponse.write(\'\\n\\n    \', escape=False)\n#using sidebars need to know what sidebar you want to use\n#prior of using it, because of static width size of content, you can use\n#left_sidebar, right_sidebar, both or none (False left and right)\nleft_sidebar_enabled = globals().get(\'left_sidebar_enabled\',False)\nright_sidebar_enabled = globals().get(\'right_sidebar_enabled\',False)\nif left_sidebar_enabled and right_sidebar_enabled: width_content=\'63%\'\nelif left_sidebar_enabled != right_sidebar_enabled: width_content=\'740px\'\nelse: width_content=\'100%\'\nif left_sidebar_enabled: left_sidebar_style = \'style="display: block;"\'\nelse: left_sidebar_style = \'style="display: none;"\'\nif right_sidebar_enabled: right_sidebar_style = \'style="display: block;"\'\nelse: right_sidebar_style = \'style="display: none;"\'\nstyle_content = \'style="width: %s"\' % width_content\nresponse.write(\'\\n  </head>\\n  \\n  <!-- paulirish.com/2008/conditional-stylesheets-vs-css-hacks-answer-neither/ -->\\t\\n  <!--[if lt IE 7 ]> <body class="ie6"> <![endif]-->\\n  <!--[if IE 7 ]>    <body class="ie7"> <![endif]-->\\n  <!--[if IE 8 ]>    <body class="ie8"> <![endif]-->\\n  <!--[if IE 9 ]>    <body class="ie9"> <![endif]-->\\n  <!--[if (gt IE 9)|!(IE)]><!--> <body> <!--<![endif]-->\\n    \\n    <div class="flash">\', escape=False)\nresponse.write(response.flash or \'\')\nresponse.write(\'</div> <!-- notification div -->\\n    \\n    <div id="container">\\t      \\t\\t      \\t\\n      \\n      <div id="wrapper">\\t\\t\\n\\t\\n\\t<div id="header"> <!-- header and login nav -->\\n\\t  \', escape=False)\nresponse.write(\' <!-- this is default header -->\\n\\t  \', escape=False)\ntry:\n    response.write(auth.navbar(action=URL(\'default\',\'user\')))\nexcept:pass\nresponse.write(\'\\t\\t          \\n\\t  <h1><span id="appname">\', escape=False)\nresponse.write(request.application.capitalize())\nresponse.write(\'</span>App</h1>\\n\\t  <div style="clear: both;"></div><!-- Clear the divs -->\\n\\t  \', escape=False)\nresponse.write(\'\\t\\t\\t\\t  \\t\\t\\t\\t\\t  \\n\\t</div><!-- header  -->\\n\\t\\n\\t<div id="statusbar"><!-- statusbar is menu zone -->\\n\\t  \', escape=False)\nresponse.write(\' <!-- this is default statusbar -->\\n\\t  \', escape=False)\n#------ superfish menu ------\nresponse.write(\'\\n\\t  \', escape=False)\nresponse.write(MENU(response.menu,_class=\'sf-menu\'))\nresponse.write(\'\\n\\t  <script type="text/javascript">\\n\\t    jQuery(document).ready(function(){\\n\\t    jQuery(\\\'ul.sf-menu\\\').superfish();});\\n\\t  </script>\\n\\t  <div style="clear: both;"></div><!-- Clear the divs -->\\t\\n\\t  \', escape=False)\nresponse.write(\'\\t\\t\\t\\t\\n\\t</div><!-- statusbar -->\\n\\t\\n\\t<div id="page"> <!-- Here my central body -->\\t  \\n\\n\\t  \', escape=False)\nif left_sidebar_enabled:\n    response.write(\'\\n          <div id="left_sidebar" \', escape=False)\n    response.write(XML(left_sidebar_style))\n    response.write(\' >\\n            <div style="padding: 4px;">\\n\\t      \', escape=False)\n    response.write(\'Content Left Sidebar\', escape=False)\n    response.write(\'\\t\\t  \\n            </div>\\n          </div><!-- left_sidebar -->\\n\\t  \', escape=False)\n    pass\nresponse.write(\'\\n\\n\\t  <!-- content -->\\n\\t  <div id="content" \', escape=False)\nresponse.write(XML(style_content))\nresponse.write(\' >\\n\\t    \', escape=False)\nresponse.write(\'\\n\\n<H1>Aplicacion para administracion web de video clubs</H1>\\n\\n(Si es que aun existen esos negocios... xD)\\n\\n<h5>En esta app usted podra</h5>\\n<ul>\\n<li>Dar de alta usuarios para administracion\\n<li>Dar de alta peliculas\\n<li>Dar de alta clientes\\n<li>Efectuar prestamos\\n<li>Tomar devoluciones\\n<li>Realizar cobros\\n</ul>\\n\', escape=False)\nresponse.write(\'\\t\\n\\t  </div>\\n\\t  <!-- content -->\\n\\n\\t  \', escape=False)\nif right_sidebar_enabled:\n    response.write(\'\\n          <div id="right_sidebar" \', escape=False)\n    response.write(XML(right_sidebar_style))\n    response.write(\' >\\n            <div style="padding: 4px;">\\n              \', escape=False)\n    response.write(\'Content Right Sidebar\', escape=False)\n    response.write(\'\\n            </div>\\n\\t  </div><!-- right_sidebar -->\\n          \', escape=False)\n    pass\nresponse.write(\'\\n\\n\\n\\t  <div style="clear: both;"></div><!-- Clear the divs -->\\n\\t  \\n\\t</div><!-- page -->\\t\\t\\t\\t\\t\\t\\t\\n\\t\\n\\t<div id="footer">\\n\\t  \', escape=False)\nresponse.write(\' <!-- this is default footer -->\\n\\t  <a href="http://www.web2py.com/" style="float: left; padding-right: 6px;">\\n\\t    <img src="\', escape=False)\nresponse.write(URL(\'static\',\'images/poweredby.png\'))\nresponse.write(\'"/>\\n\\t  </a>\\n\\t  \', escape=False)\nresponse.write(T(\'Copyright\'))\nresponse.write(\' &#169; 2010\\t\\t\\t\\t\\n\\t  <div style="clear: both;"></div><!-- Clear the divs -->\\n\\t  \', escape=False)\nresponse.write(\'\\n\\n\\t</div><!-- footer -->\\t\\t\\t\\n      </div><!-- wrapper -->\\n    </div><!-- container -->\\t\\t\\n    \\n    <!--[if lt IE 7 ]>\\n\\t<script src="\', escape=False)\nresponse.write(URL(\'static\',\'js/dd_belatedpng.js\'))\nresponse.write(\'"></script>\\n\\t<script> DD_belatedPNG.fix(\\\'img, .png_bg\\\'); //fix any <img> or .png_bg background-images </script>\\n\\t<![endif]-->\\n    \\n    <!-- asynchronous google analytics: mathiasbynens.be/notes/async-analytics-snippet \\n\\t change the UA-XXXXX-X to be your site\\\'s ID -->\\n    <!--   \\n\\t   <script>\\n\\t     var _gaq = [[\\\'_setAccount\\\', \\\'UA-XXXXX-X\\\'], [\\\'_trackPageview\\\']];\\n\\t     (function(d, t) {\\n\\t     var g = d.createElement(t),\\n\\t     s = d.getElementsByTagName(t)[0];\\n\\t     g.async = true;\\n\\t     g.src = \\\'//www.google-analytics.com/ga.js\\\';\\n\\t     s.parentNode.insertBefore(g, s);\\n\\t     })(document, \\\'script\\\');\\n\\t   </script>\\n\\t   -->    \\n  </body>\\n</html>\\n\', escape=False)'
p6
sS'snapshot'
p7
(dp8
S'exception'
p9
(dp10
S'__hash__'
p11
S"<method-wrapper '__hash__' of exceptions.TypeError object>"
p12
sS'__setattr__'
p13
S"<method-wrapper '__setattr__' of exceptions.TypeError object>"
p14
sS'__reduce_ex__'
p15
S'<built-in method __reduce_ex__ of exceptions.TypeError object>'
p16
sS'__getslice__'
p17
S"<method-wrapper '__getslice__' of exceptions.TypeError object>"
p18
sS'__getitem__'
p19
S"<method-wrapper '__getitem__' of exceptions.TypeError object>"
p20
sS'__setstate__'
p21
S'<built-in method __setstate__ of exceptions.TypeError object>'
p22
sS'args'
p23
S'("\'bool\' object is unsubscriptable",)'
p24
sS'__reduce__'
p25
S'<built-in method __reduce__ of exceptions.TypeError object>'
p26
sS'__str__'
p27
S"<method-wrapper '__str__' of exceptions.TypeError object>"
p28
sS'__format__'
p29
S'<built-in method __format__ of exceptions.TypeError object>'
p30
sS'__getattribute__'
p31
S"<method-wrapper '__getattribute__' of exceptions.TypeError object>"
p32
sS'__class__'
p33
S"<type 'exceptions.TypeError'>"
p34
sS'__unicode__'
p35
S'<built-in method __unicode__ of exceptions.TypeError object>'
p36
sS'__delattr__'
p37
S"<method-wrapper '__delattr__' of exceptions.TypeError object>"
p38
sS'__subclasshook__'
p39
S'<built-in method __subclasshook__ of type object>'
p40
sS'__repr__'
p41
S"<method-wrapper '__repr__' of exceptions.TypeError object>"
p42
sS'__dict__'
p43
S'{}'
p44
sS'__sizeof__'
p45
S'<built-in method __sizeof__ of exceptions.TypeError object>'
p46
sS'__doc__'
p47
S"'Inappropriate argument type.'"
p48
sS'__init__'
p49
S"<method-wrapper '__init__' of exceptions.TypeError object>"
p50
sS'__new__'
p51
S'<built-in method __new__ of type object>'
p52
ssS'evalue'
p53
S"'bool' object is unsubscriptable"
p54
sS'request'
p55
ccopy_reg
_reconstructor
p56
(cgluon.html
BEAUTIFY
p57
c__builtin__
object
p58
NtRp59
(dp60
S'attributes'
p61
(dp62
sS'components'
p63
(lp64
g56
(cgluon.html
TABLE
p65
g58
NtRp66
(dp67
g61
(dp68
S'level'
p69
I5
ssS'parent'
p70
Nsg63
(lp71
g56
(cgluon.html
TR
p72
g58
NtRp73
(dp74
g61
(dp75
sg70
g66
sg63
(lp76
g56
(cgluon.html
TD
p77
g58
NtRp78
(dp79
g61
(dp80
S'_style'
p81
S'font-weight:bold;'
p82
ssg70
g73
sg63
(lp83
S'ajax'
p84
asbag56
(g77
g58
NtRp85
(dp86
g61
(dp87
S'_valign'
p88
S'top'
p89
ssg70
g73
sg63
(lp90
S':'
asbag56
(g77
g58
NtRp91
(dp92
g61
(dp93
sg70
g73
sg63
(lp94
g56
(g57
g58
NtRp95
(dp96
g61
(dp97
g69
I5
ssg70
g91
sg63
(lp98
S'False'
p99
asbasbasbag56
(g72
g58
NtRp100
(dp101
g61
(dp102
sg70
g66
sg63
(lp103
g56
(g77
g58
NtRp104
(dp105
g61
(dp106
g81
g82
ssg70
g100
sg63
(lp107
S'application'
p108
asbag56
(g77
g58
NtRp109
(dp110
g61
(dp111
g88
g89
ssg70
g100
sg63
(lp112
S':'
asbag56
(g77
g58
NtRp113
(dp114
g61
(dp115
sg70
g100
sg63
(lp116
g56
(g57
g58
NtRp117
(dp118
g61
(dp119
g69
I5
ssg70
g113
sg63
(lp120
S'mvstore'
p121
asbasbasbag56
(g72
g58
NtRp122
(dp123
g61
(dp124
sg70
g66
sg63
(lp125
g56
(g77
g58
NtRp126
(dp127
g61
(dp128
g81
g82
ssg70
g122
sg63
(lp129
g23
asbag56
(g77
g58
NtRp130
(dp131
g61
(dp132
g88
g89
ssg70
g122
sg63
(lp133
S':'
asbag56
(g77
g58
NtRp134
(dp135
g61
(dp136
sg70
g122
sg63
(lp137
g56
(g57
g58
NtRp138
(dp139
g61
(dp140
g69
I5
ssg70
g134
sg63
(lp141
g56
(g65
g58
NtRp142
(dp143
g61
(dp144
g69
I4
ssg70
Nsg63
(lp145
sbasbasbasbag56
(g72
g58
NtRp146
(dp147
g61
(dp148
sg70
g66
sg63
(lp149
g56
(g77
g58
NtRp150
(dp151
g61
(dp152
g81
g82
ssg70
g146
sg63
(lp153
S'body'
p154
asbag56
(g77
g58
NtRp155
(dp156
g61
(dp157
g88
g89
ssg70
g146
sg63
(lp158
S':'
asbag56
(g77
g58
NtRp159
(dp160
g61
(dp161
sg70
g146
sg63
(lp162
g56
(g57
g58
NtRp163
(dp164
g61
(dp165
g69
I5
ssg70
g159
sg63
(lp166
S'<cStringIO.StringO object at 0x1cda298>'
p167
asbasbasbag56
(g72
g58
NtRp168
(dp169
g61
(dp170
sg70
g66
sg63
(lp171
g56
(g77
g58
NtRp172
(dp173
g61
(dp174
g81
g82
ssg70
g168
sg63
(lp175
S'client'
p176
asbag56
(g77
g58
NtRp177
(dp178
g61
(dp179
g88
g89
ssg70
g168
sg63
(lp180
S':'
asbag56
(g77
g58
NtRp181
(dp182
g61
(dp183
sg70
g168
sg63
(lp184
g56
(g57
g58
NtRp185
(dp186
g61
(dp187
g69
I5
ssg70
g181
sg63
(lp188
S'127.0.0.1'
p189
asbasbasbag56
(g72
g58
NtRp190
(dp191
g61
(dp192
sg70
g66
sg63
(lp193
g56
(g77
g58
NtRp194
(dp195
g61
(dp196
g81
g82
ssg70
g190
sg63
(lp197
S'controller'
p198
asbag56
(g77
g58
NtRp199
(dp200
g61
(dp201
g88
g89
ssg70
g190
sg63
(lp202
S':'
asbag56
(g77
g58
NtRp203
(dp204
g61
(dp205
sg70
g190
sg63
(lp206
g56
(g57
g58
NtRp207
(dp208
g61
(dp209
g69
I5
ssg70
g203
sg63
(lp210
S'default'
p211
asbasbasbag56
(g72
g58
NtRp212
(dp213
g61
(dp214
sg70
g66
sg63
(lp215
g56
(g77
g58
NtRp216
(dp217
g61
(dp218
g81
g82
ssg70
g212
sg63
(lp219
S'cookies'
p220
asbag56
(g77
g58
NtRp221
(dp222
g61
(dp223
g88
g89
ssg70
g212
sg63
(lp224
S':'
asbag56
(g77
g58
NtRp225
(dp226
g61
(dp227
sg70
g212
sg63
(lp228
g56
(g57
g58
NtRp229
(dp230
g61
(dp231
g69
I5
ssg70
g225
sg63
(lp232
g56
(g65
g58
NtRp233
(dp234
g61
(dp235
g69
I4
ssg70
Nsg63
(lp236
g56
(g72
g58
NtRp237
(dp238
g61
(dp239
sg70
g233
sg63
(lp240
g56
(g77
g58
NtRp241
(dp242
g61
(dp243
g81
g82
ssg70
g237
sg63
(lp244
S'session_id_admin'
p245
asbag56
(g77
g58
NtRp246
(dp247
g61
(dp248
g88
g89
ssg70
g237
sg63
(lp249
S':'
asbag56
(g77
g58
NtRp250
(dp251
g61
(dp252
sg70
g237
sg63
(lp253
g56
(g57
g58
NtRp254
(dp255
g61
(dp256
g69
I4
ssg70
g250
sg63
(lp257
g56
(g65
g58
NtRp258
(dp259
g61
(dp260
g69
I3
ssg70
Nsg63
(lp261
g56
(g72
g58
NtRp262
(dp263
g61
(dp264
sg70
g258
sg63
(lp265
g56
(g77
g58
NtRp266
(dp267
g61
(dp268
g81
g82
ssg70
g262
sg63
(lp269
S'comment'
p270
asbag56
(g77
g58
NtRp271
(dp272
g61
(dp273
g88
g89
ssg70
g262
sg63
(lp274
S':'
asbag56
(g77
g58
NtRp275
(dp276
g61
(dp277
sg70
g262
sg63
(lp278
g56
(g57
g58
NtRp279
(dp280
g61
(dp281
g69
I3
ssg70
g275
sg63
(lp282
S''
asbasbasbag56
(g72
g58
NtRp283
(dp284
g61
(dp285
sg70
g258
sg63
(lp286
g56
(g77
g58
NtRp287
(dp288
g61
(dp289
g81
g82
ssg70
g283
sg63
(lp290
S'domain'
p291
asbag56
(g77
g58
NtRp292
(dp293
g61
(dp294
g88
g89
ssg70
g283
sg63
(lp295
S':'
asbag56
(g77
g58
NtRp296
(dp297
g61
(dp298
sg70
g283
sg63
(lp299
g56
(g57
g58
NtRp300
(dp301
g61
(dp302
g69
I3
ssg70
g296
sg63
(lp303
S''
asbasbasbag56
(g72
g58
NtRp304
(dp305
g61
(dp306
sg70
g258
sg63
(lp307
g56
(g77
g58
NtRp308
(dp309
g61
(dp310
g81
g82
ssg70
g304
sg63
(lp311
S'expires'
p312
asbag56
(g77
g58
NtRp313
(dp314
g61
(dp315
g88
g89
ssg70
g304
sg63
(lp316
S':'
asbag56
(g77
g58
NtRp317
(dp318
g61
(dp319
sg70
g304
sg63
(lp320
g56
(g57
g58
NtRp321
(dp322
g61
(dp323
g69
I3
ssg70
g317
sg63
(lp324
S''
asbasbasbag56
(g72
g58
NtRp325
(dp326
g61
(dp327
sg70
g258
sg63
(lp328
g56
(g77
g58
NtRp329
(dp330
g61
(dp331
g81
g82
ssg70
g325
sg63
(lp332
S'httponly'
p333
asbag56
(g77
g58
NtRp334
(dp335
g61
(dp336
g88
g89
ssg70
g325
sg63
(lp337
S':'
asbag56
(g77
g58
NtRp338
(dp339
g61
(dp340
sg70
g325
sg63
(lp341
g56
(g57
g58
NtRp342
(dp343
g61
(dp344
g69
I3
ssg70
g338
sg63
(lp345
S''
asbasbasbag56
(g72
g58
NtRp346
(dp347
g61
(dp348
sg70
g258
sg63
(lp349
g56
(g77
g58
NtRp350
(dp351
g61
(dp352
g81
g82
ssg70
g346
sg63
(lp353
S'max-age'
p354
asbag56
(g77
g58
NtRp355
(dp356
g61
(dp357
g88
g89
ssg70
g346
sg63
(lp358
S':'
asbag56
(g77
g58
NtRp359
(dp360
g61
(dp361
sg70
g346
sg63
(lp362
g56
(g57
g58
NtRp363
(dp364
g61
(dp365
g69
I3
ssg70
g359
sg63
(lp366
S''
asbasbasbag56
(g72
g58
NtRp367
(dp368
g61
(dp369
sg70
g258
sg63
(lp370
g56
(g77
g58
NtRp371
(dp372
g61
(dp373
g81
g82
ssg70
g367
sg63
(lp374
S'path'
p375
asbag56
(g77
g58
NtRp376
(dp377
g61
(dp378
g88
g89
ssg70
g367
sg63
(lp379
S':'
asbag56
(g77
g58
NtRp380
(dp381
g61
(dp382
sg70
g367
sg63
(lp383
g56
(g57
g58
NtRp384
(dp385
g61
(dp386
g69
I3
ssg70
g380
sg63
(lp387
S''
asbasbasbag56
(g72
g58
NtRp388
(dp389
g61
(dp390
sg70
g258
sg63
(lp391
g56
(g77
g58
NtRp392
(dp393
g61
(dp394
g81
g82
ssg70
g388
sg63
(lp395
S'secure'
p396
asbag56
(g77
g58
NtRp397
(dp398
g61
(dp399
g88
g89
ssg70
g388
sg63
(lp400
S':'
asbag56
(g77
g58
NtRp401
(dp402
g61
(dp403
sg70
g388
sg63
(lp404
g56
(g57
g58
NtRp405
(dp406
g61
(dp407
g69
I3
ssg70
g401
sg63
(lp408
S''
asbasbasbag56
(g72
g58
NtRp409
(dp410
g61
(dp411
sg70
g258
sg63
(lp412
g56
(g77
g58
NtRp413
(dp414
g61
(dp415
g81
g82
ssg70
g409
sg63
(lp416
S'version'
p417
asbag56
(g77
g58
NtRp418
(dp419
g61
(dp420
g88
g89
ssg70
g409
sg63
(lp421
S':'
asbag56
(g77
g58
NtRp422
(dp423
g61
(dp424
sg70
g409
sg63
(lp425
g56
(g57
g58
NtRp426
(dp427
g61
(dp428
g69
I3
ssg70
g422
sg63
(lp429
S''
asbasbasbasbasbasbasbag56
(g72
g58
NtRp430
(dp431
g61
(dp432
sg70
g233
sg63
(lp433
g56
(g77
g58
NtRp434
(dp435
g61
(dp436
g81
g82
ssg70
g430
sg63
(lp437
S'session_id_mvstore'
p438
asbag56
(g77
g58
NtRp439
(dp440
g61
(dp441
g88
g89
ssg70
g430
sg63
(lp442
S':'
asbag56
(g77
g58
NtRp443
(dp444
g61
(dp445
sg70
g430
sg63
(lp446
g56
(g57
g58
NtRp447
(dp448
g61
(dp449
g69
I4
ssg70
g443
sg63
(lp450
g56
(g65
g58
NtRp451
(dp452
g61
(dp453
g69
I3
ssg70
Nsg63
(lp454
g56
(g72
g58
NtRp455
(dp456
g61
(dp457
sg70
g451
sg63
(lp458
g56
(g77
g58
NtRp459
(dp460
g61
(dp461
g81
g82
ssg70
g455
sg63
(lp462
g270
asbag56
(g77
g58
NtRp463
(dp464
g61
(dp465
g88
g89
ssg70
g455
sg63
(lp466
S':'
asbag56
(g77
g58
NtRp467
(dp468
g61
(dp469
sg70
g455
sg63
(lp470
g56
(g57
g58
NtRp471
(dp472
g61
(dp473
g69
I3
ssg70
g467
sg63
(lp474
S''
asbasbasbag56
(g72
g58
NtRp475
(dp476
g61
(dp477
sg70
g451
sg63
(lp478
g56
(g77
g58
NtRp479
(dp480
g61
(dp481
g81
g82
ssg70
g475
sg63
(lp482
g291
asbag56
(g77
g58
NtRp483
(dp484
g61
(dp485
g88
g89
ssg70
g475
sg63
(lp486
S':'
asbag56
(g77
g58
NtRp487
(dp488
g61
(dp489
sg70
g475
sg63
(lp490
g56
(g57
g58
NtRp491
(dp492
g61
(dp493
g69
I3
ssg70
g487
sg63
(lp494
S''
asbasbasbag56
(g72
g58
NtRp495
(dp496
g61
(dp497
sg70
g451
sg63
(lp498
g56
(g77
g58
NtRp499
(dp500
g61
(dp501
g81
g82
ssg70
g495
sg63
(lp502
g312
asbag56
(g77
g58
NtRp503
(dp504
g61
(dp505
g88
g89
ssg70
g495
sg63
(lp506
S':'
asbag56
(g77
g58
NtRp507
(dp508
g61
(dp509
sg70
g495
sg63
(lp510
g56
(g57
g58
NtRp511
(dp512
g61
(dp513
g69
I3
ssg70
g507
sg63
(lp514
S''
asbasbasbag56
(g72
g58
NtRp515
(dp516
g61
(dp517
sg70
g451
sg63
(lp518
g56
(g77
g58
NtRp519
(dp520
g61
(dp521
g81
g82
ssg70
g515
sg63
(lp522
g333
asbag56
(g77
g58
NtRp523
(dp524
g61
(dp525
g88
g89
ssg70
g515
sg63
(lp526
S':'
asbag56
(g77
g58
NtRp527
(dp528
g61
(dp529
sg70
g515
sg63
(lp530
g56
(g57
g58
NtRp531
(dp532
g61
(dp533
g69
I3
ssg70
g527
sg63
(lp534
S''
asbasbasbag56
(g72
g58
NtRp535
(dp536
g61
(dp537
sg70
g451
sg63
(lp538
g56
(g77
g58
NtRp539
(dp540
g61
(dp541
g81
g82
ssg70
g535
sg63
(lp542
g354
asbag56
(g77
g58
NtRp543
(dp544
g61
(dp545
g88
g89
ssg70
g535
sg63
(lp546
S':'
asbag56
(g77
g58
NtRp547
(dp548
g61
(dp549
sg70
g535
sg63
(lp550
g56
(g57
g58
NtRp551
(dp552
g61
(dp553
g69
I3
ssg70
g547
sg63
(lp554
S''
asbasbasbag56
(g72
g58
NtRp555
(dp556
g61
(dp557
sg70
g451
sg63
(lp558
g56
(g77
g58
NtRp559
(dp560
g61
(dp561
g81
g82
ssg70
g555
sg63
(lp562
g375
asbag56
(g77
g58
NtRp563
(dp564
g61
(dp565
g88
g89
ssg70
g555
sg63
(lp566
S':'
asbag56
(g77
g58
NtRp567
(dp568
g61
(dp569
sg70
g555
sg63
(lp570
g56
(g57
g58
NtRp571
(dp572
g61
(dp573
g69
I3
ssg70
g567
sg63
(lp574
S''
asbasbasbag56
(g72
g58
NtRp575
(dp576
g61
(dp577
sg70
g451
sg63
(lp578
g56
(g77
g58
NtRp579
(dp580
g61
(dp581
g81
g82
ssg70
g575
sg63
(lp582
g396
asbag56
(g77
g58
NtRp583
(dp584
g61
(dp585
g88
g89
ssg70
g575
sg63
(lp586
S':'
asbag56
(g77
g58
NtRp587
(dp588
g61
(dp589
sg70
g575
sg63
(lp590
g56
(g57
g58
NtRp591
(dp592
g61
(dp593
g69
I3
ssg70
g587
sg63
(lp594
S''
asbasbasbag56
(g72
g58
NtRp595
(dp596
g61
(dp597
sg70
g451
sg63
(lp598
g56
(g77
g58
NtRp599
(dp600
g61
(dp601
g81
g82
ssg70
g595
sg63
(lp602
g417
asbag56
(g77
g58
NtRp603
(dp604
g61
(dp605
g88
g89
ssg70
g595
sg63
(lp606
S':'
asbag56
(g77
g58
NtRp607
(dp608
g61
(dp609
sg70
g595
sg63
(lp610
g56
(g57
g58
NtRp611
(dp612
g61
(dp613
g69
I3
ssg70
g607
sg63
(lp614
S''
asbasbasbasbasbasbasbag56
(g72
g58
NtRp615
(dp616
g61
(dp617
sg70
g233
sg63
(lp618
g56
(g77
g58
NtRp619
(dp620
g61
(dp621
g81
g82
ssg70
g615
sg63
(lp622
S'session_id_welcome'
p623
asbag56
(g77
g58
NtRp624
(dp625
g61
(dp626
g88
g89
ssg70
g615
sg63
(lp627
S':'
asbag56
(g77
g58
NtRp628
(dp629
g61
(dp630
sg70
g615
sg63
(lp631
g56
(g57
g58
NtRp632
(dp633
g61
(dp634
g69
I4
ssg70
g628
sg63
(lp635
g56
(g65
g58
NtRp636
(dp637
g61
(dp638
g69
I3
ssg70
Nsg63
(lp639
g56
(g72
g58
NtRp640
(dp641
g61
(dp642
sg70
g636
sg63
(lp643
g56
(g77
g58
NtRp644
(dp645
g61
(dp646
g81
g82
ssg70
g640
sg63
(lp647
g270
asbag56
(g77
g58
NtRp648
(dp649
g61
(dp650
g88
g89
ssg70
g640
sg63
(lp651
S':'
asbag56
(g77
g58
NtRp652
(dp653
g61
(dp654
sg70
g640
sg63
(lp655
g56
(g57
g58
NtRp656
(dp657
g61
(dp658
g69
I3
ssg70
g652
sg63
(lp659
S''
asbasbasbag56
(g72
g58
NtRp660
(dp661
g61
(dp662
sg70
g636
sg63
(lp663
g56
(g77
g58
NtRp664
(dp665
g61
(dp666
g81
g82
ssg70
g660
sg63
(lp667
g291
asbag56
(g77
g58
NtRp668
(dp669
g61
(dp670
g88
g89
ssg70
g660
sg63
(lp671
S':'
asbag56
(g77
g58
NtRp672
(dp673
g61
(dp674
sg70
g660
sg63
(lp675
g56
(g57
g58
NtRp676
(dp677
g61
(dp678
g69
I3
ssg70
g672
sg63
(lp679
S''
asbasbasbag56
(g72
g58
NtRp680
(dp681
g61
(dp682
sg70
g636
sg63
(lp683
g56
(g77
g58
NtRp684
(dp685
g61
(dp686
g81
g82
ssg70
g680
sg63
(lp687
g312
asbag56
(g77
g58
NtRp688
(dp689
g61
(dp690
g88
g89
ssg70
g680
sg63
(lp691
S':'
asbag56
(g77
g58
NtRp692
(dp693
g61
(dp694
sg70
g680
sg63
(lp695
g56
(g57
g58
NtRp696
(dp697
g61
(dp698
g69
I3
ssg70
g692
sg63
(lp699
S''
asbasbasbag56
(g72
g58
NtRp700
(dp701
g61
(dp702
sg70
g636
sg63
(lp703
g56
(g77
g58
NtRp704
(dp705
g61
(dp706
g81
g82
ssg70
g700
sg63
(lp707
g333
asbag56
(g77
g58
NtRp708
(dp709
g61
(dp710
g88
g89
ssg70
g700
sg63
(lp711
S':'
asbag56
(g77
g58
NtRp712
(dp713
g61
(dp714
sg70
g700
sg63
(lp715
g56
(g57
g58
NtRp716
(dp717
g61
(dp718
g69
I3
ssg70
g712
sg63
(lp719
S''
asbasbasbag56
(g72
g58
NtRp720
(dp721
g61
(dp722
sg70
g636
sg63
(lp723
g56
(g77
g58
NtRp724
(dp725
g61
(dp726
g81
g82
ssg70
g720
sg63
(lp727
g354
asbag56
(g77
g58
NtRp728
(dp729
g61
(dp730
g88
g89
ssg70
g720
sg63
(lp731
S':'
asbag56
(g77
g58
NtRp732
(dp733
g61
(dp734
sg70
g720
sg63
(lp735
g56
(g57
g58
NtRp736
(dp737
g61
(dp738
g69
I3
ssg70
g732
sg63
(lp739
S''
asbasbasbag56
(g72
g58
NtRp740
(dp741
g61
(dp742
sg70
g636
sg63
(lp743
g56
(g77
g58
NtRp744
(dp745
g61
(dp746
g81
g82
ssg70
g740
sg63
(lp747
g375
asbag56
(g77
g58
NtRp748
(dp749
g61
(dp750
g88
g89
ssg70
g740
sg63
(lp751
S':'
asbag56
(g77
g58
NtRp752
(dp753
g61
(dp754
sg70
g740
sg63
(lp755
g56
(g57
g58
NtRp756
(dp757
g61
(dp758
g69
I3
ssg70
g752
sg63
(lp759
S''
asbasbasbag56
(g72
g58
NtRp760
(dp761
g61
(dp762
sg70
g636
sg63
(lp763
g56
(g77
g58
NtRp764
(dp765
g61
(dp766
g81
g82
ssg70
g760
sg63
(lp767
g396
asbag56
(g77
g58
NtRp768
(dp769
g61
(dp770
g88
g89
ssg70
g760
sg63
(lp771
S':'
asbag56
(g77
g58
NtRp772
(dp773
g61
(dp774
sg70
g760
sg63
(lp775
g56
(g57
g58
NtRp776
(dp777
g61
(dp778
g69
I3
ssg70
g772
sg63
(lp779
S''
asbasbasbag56
(g72
g58
NtRp780
(dp781
g61
(dp782
sg70
g636
sg63
(lp783
g56
(g77
g58
NtRp784
(dp785
g61
(dp786
g81
g82
ssg70
g780
sg63
(lp787
g417
asbag56
(g77
g58
NtRp788
(dp789
g61
(dp790
g88
g89
ssg70
g780
sg63
(lp791
S':'
asbag56
(g77
g58
NtRp792
(dp793
g61
(dp794
sg70
g780
sg63
(lp795
g56
(g57
g58
NtRp796
(dp797
g61
(dp798
g69
I3
ssg70
g792
sg63
(lp799
S''
asbasbasbasbasbasbasbasbasbasbasbag56
(g72
g58
NtRp800
(dp801
g61
(dp802
sg70
g66
sg63
(lp803
g56
(g77
g58
NtRp804
(dp805
g61
(dp806
g81
g82
ssg70
g800
sg63
(lp807
S'env'
p808
asbag56
(g77
g58
NtRp809
(dp810
g61
(dp811
g88
g89
ssg70
g800
sg63
(lp812
S':'
asbag56
(g77
g58
NtRp813
(dp814
g61
(dp815
sg70
g800
sg63
(lp816
g56
(g57
g58
NtRp817
(dp818
g61
(dp819
g69
I5
ssg70
g813
sg63
(lp820
g56
(g65
g58
NtRp821
(dp822
g61
(dp823
g69
I4
ssg70
Nsg63
(lp824
g56
(g72
g58
NtRp825
(dp826
g61
(dp827
sg70
g821
sg63
(lp828
g56
(g77
g58
NtRp829
(dp830
g61
(dp831
g81
g82
ssg70
g825
sg63
(lp832
S'app_folders'
p833
asbag56
(g77
g58
NtRp834
(dp835
g61
(dp836
g88
g89
ssg70
g825
sg63
(lp837
S':'
asbag56
(g77
g58
NtRp838
(dp839
g61
(dp840
sg70
g825
sg63
(lp841
g56
(g57
g58
NtRp842
(dp843
g61
(dp844
g69
I4
ssg70
g838
sg63
(lp845
S"set(['/home/marco/proyectos/web2py-trunk/applications/mvstore/', '/home/marco/proyectos/web2py-trunk/applications/admin/', '/home/marco/proyectos/web2py-trunk/applications/welcome/'])"
p846
asbasbasbag56
(g72
g58
NtRp847
(dp848
g61
(dp849
sg70
g821
sg63
(lp850
g56
(g77
g58
NtRp851
(dp852
g61
(dp853
g81
g82
ssg70
g847
sg63
(lp854
S'applications_parent'
p855
asbag56
(g77
g58
NtRp856
(dp857
g61
(dp858
g88
g89
ssg70
g847
sg63
(lp859
S':'
asbag56
(g77
g58
NtRp860
(dp861
g61
(dp862
sg70
g847
sg63
(lp863
g56
(g57
g58
NtRp864
(dp865
g61
(dp866
g69
I4
ssg70
g860
sg63
(lp867
S'/home/marco/proyectos/web2py-trunk'
p868
asbasbasbag56
(g72
g58
NtRp869
(dp870
g61
(dp871
sg70
g821
sg63
(lp872
g56
(g77
g58
NtRp873
(dp874
g61
(dp875
g81
g82
ssg70
g869
sg63
(lp876
S'cmd_args'
p877
asbag56
(g77
g58
NtRp878
(dp879
g61
(dp880
g88
g89
ssg70
g869
sg63
(lp881
S':'
asbag56
(g77
g58
NtRp882
(dp883
g61
(dp884
sg70
g869
sg63
(lp885
g56
(g57
g58
NtRp886
(dp887
g61
(dp888
g69
I4
ssg70
g882
sg63
(lp889
g56
(g65
g58
NtRp890
(dp891
g61
(dp892
g69
I3
ssg70
Nsg63
(lp893
sbasbasbasbag56
(g72
g58
NtRp894
(dp895
g61
(dp896
sg70
g821
sg63
(lp897
g56
(g77
g58
NtRp898
(dp899
g61
(dp900
g81
g82
ssg70
g894
sg63
(lp901
S'cmd_options'
p902
asbag56
(g77
g58
NtRp903
(dp904
g61
(dp905
g88
g89
ssg70
g894
sg63
(lp906
S':'
asbag56
(g77
g58
NtRp907
(dp908
g61
(dp909
sg70
g894
sg63
(lp910
g56
(g57
g58
NtRp911
(dp912
g61
(dp913
g69
I4
ssg70
g907
sg63
(lp914
S"<Values at 0x1af5b90: {'verbose': False, 'ip': '127.0.0.1', 'shutdown_timeout': 5, 'taskbar': False, 'port': 8000, 'maxthreads': None, 'softcron': False, 'server_name': 'kiki', 'bpython': False, 'nogui': False, 'nocron': False, 'extcron': False, 'debuglevel': 30, 'test': None, 'folder': '/home/marco/proyectos/web2py-trunk', 'config': '', 'import_models': False, 'winservice': '', 'shell': None, 'run': '', 'log_filename': 'httpserver.log', 'args': [''], 'profiler_filename': None, 'ssl_private_key': '', 'password': 'asd', 'request_queue_size': 5, 'ssl_certificate': '', 'cronjob': False, 'plain': False, 'quiet': False, 'interfaces': None, 'minthreads': None, 'timeout': 10, 'numthreads': None, 'nobanner': False, 'pid_filename': 'httpserver.pid'}>"
p915
asbasbasbag56
(g72
g58
NtRp916
(dp917
g61
(dp918
sg70
g821
sg63
(lp919
g56
(g77
g58
NtRp920
(dp921
g61
(dp922
g81
g82
ssg70
g916
sg63
(lp923
S'db_sessions'
p924
asbag56
(g77
g58
NtRp925
(dp926
g61
(dp927
g88
g89
ssg70
g916
sg63
(lp928
S':'
asbag56
(g77
g58
NtRp929
(dp930
g61
(dp931
sg70
g916
sg63
(lp932
g56
(g57
g58
NtRp933
(dp934
g61
(dp935
g69
I4
ssg70
g929
sg63
(lp936
S'set([])'
p937
asbasbasbag56
(g72
g58
NtRp938
(dp939
g61
(dp940
sg70
g821
sg63
(lp941
g56
(g77
g58
NtRp942
(dp943
g61
(dp944
g81
g82
ssg70
g938
sg63
(lp945
S'debugging'
p946
asbag56
(g77
g58
NtRp947
(dp948
g61
(dp949
g88
g89
ssg70
g938
sg63
(lp950
S':'
asbag56
(g77
g58
NtRp951
(dp952
g61
(dp953
sg70
g938
sg63
(lp954
g56
(g57
g58
NtRp955
(dp956
g61
(dp957
g69
I4
ssg70
g951
sg63
(lp958
g99
asbasbasbag56
(g72
g58
NtRp959
(dp960
g61
(dp961
sg70
g821
sg63
(lp962
g56
(g77
g58
NtRp963
(dp964
g61
(dp965
g81
g82
ssg70
g959
sg63
(lp966
S'gluon_parent'
p967
asbag56
(g77
g58
NtRp968
(dp969
g61
(dp970
g88
g89
ssg70
g959
sg63
(lp971
S':'
asbag56
(g77
g58
NtRp972
(dp973
g61
(dp974
sg70
g959
sg63
(lp975
g56
(g57
g58
NtRp976
(dp977
g61
(dp978
g69
I4
ssg70
g972
sg63
(lp979
S'/home/marco/proyectos/web2py-trunk'
p980
asbasbasbag56
(g72
g58
NtRp981
(dp982
g61
(dp983
sg70
g821
sg63
(lp984
g56
(g77
g58
NtRp985
(dp986
g61
(dp987
g81
g82
ssg70
g981
sg63
(lp988
S'http_accept'
p989
asbag56
(g77
g58
NtRp990
(dp991
g61
(dp992
g88
g89
ssg70
g981
sg63
(lp993
S':'
asbag56
(g77
g58
NtRp994
(dp995
g61
(dp996
sg70
g981
sg63
(lp997
g56
(g57
g58
NtRp998
(dp999
g61
(dp1000
g69
I4
ssg70
g994
sg63
(lp1001
S'application/xml,application/xhtml+xml,text/html;q=0.9,text/plain;q=0.8,image/png,*/*;q=0.5'
p1002
asbasbasbag56
(g72
g58
NtRp1003
(dp1004
g61
(dp1005
sg70
g821
sg63
(lp1006
g56
(g77
g58
NtRp1007
(dp1008
g61
(dp1009
g81
g82
ssg70
g1003
sg63
(lp1010
S'http_accept_charset'
p1011
asbag56
(g77
g58
NtRp1012
(dp1013
g61
(dp1014
g88
g89
ssg70
g1003
sg63
(lp1015
S':'
asbag56
(g77
g58
NtRp1016
(dp1017
g61
(dp1018
sg70
g1003
sg63
(lp1019
g56
(g57
g58
NtRp1020
(dp1021
g61
(dp1022
g69
I4
ssg70
g1016
sg63
(lp1023
S'ISO-8859-1,utf-8;q=0.7,*;q=0.3'
p1024
asbasbasbag56
(g72
g58
NtRp1025
(dp1026
g61
(dp1027
sg70
g821
sg63
(lp1028
g56
(g77
g58
NtRp1029
(dp1030
g61
(dp1031
g81
g82
ssg70
g1025
sg63
(lp1032
S'http_accept_encoding'
p1033
asbag56
(g77
g58
NtRp1034
(dp1035
g61
(dp1036
g88
g89
ssg70
g1025
sg63
(lp1037
S':'
asbag56
(g77
g58
NtRp1038
(dp1039
g61
(dp1040
sg70
g1025
sg63
(lp1041
g56
(g57
g58
NtRp1042
(dp1043
g61
(dp1044
g69
I4
ssg70
g1038
sg63
(lp1045
S'gzip,deflate,sdch'
p1046
asbasbasbag56
(g72
g58
NtRp1047
(dp1048
g61
(dp1049
sg70
g821
sg63
(lp1050
g56
(g77
g58
NtRp1051
(dp1052
g61
(dp1053
g81
g82
ssg70
g1047
sg63
(lp1054
S'http_accept_language'
p1055
asbag56
(g77
g58
NtRp1056
(dp1057
g61
(dp1058
g88
g89
ssg70
g1047
sg63
(lp1059
S':'
asbag56
(g77
g58
NtRp1060
(dp1061
g61
(dp1062
sg70
g1047
sg63
(lp1063
g56
(g57
g58
NtRp1064
(dp1065
g61
(dp1066
g69
I4
ssg70
g1060
sg63
(lp1067
S'es,en-US;q=0.8,en;q=0.6'
p1068
asbasbasbag56
(g72
g58
NtRp1069
(dp1070
g61
(dp1071
sg70
g821
sg63
(lp1072
g56
(g77
g58
NtRp1073
(dp1074
g61
(dp1075
g81
g82
ssg70
g1069
sg63
(lp1076
S'http_cache_control'
p1077
asbag56
(g77
g58
NtRp1078
(dp1079
g61
(dp1080
g88
g89
ssg70
g1069
sg63
(lp1081
S':'
asbag56
(g77
g58
NtRp1082
(dp1083
g61
(dp1084
sg70
g1069
sg63
(lp1085
g56
(g57
g58
NtRp1086
(dp1087
g61
(dp1088
g69
I4
ssg70
g1082
sg63
(lp1089
S'max-age=0'
p1090
asbasbasbag56
(g72
g58
NtRp1091
(dp1092
g61
(dp1093
sg70
g821
sg63
(lp1094
g56
(g77
g58
NtRp1095
(dp1096
g61
(dp1097
g81
g82
ssg70
g1091
sg63
(lp1098
S'http_connection'
p1099
asbag56
(g77
g58
NtRp1100
(dp1101
g61
(dp1102
g88
g89
ssg70
g1091
sg63
(lp1103
S':'
asbag56
(g77
g58
NtRp1104
(dp1105
g61
(dp1106
sg70
g1091
sg63
(lp1107
g56
(g57
g58
NtRp1108
(dp1109
g61
(dp1110
g69
I4
ssg70
g1104
sg63
(lp1111
S'keep-alive'
p1112
asbasbasbag56
(g72
g58
NtRp1113
(dp1114
g61
(dp1115
sg70
g821
sg63
(lp1116
g56
(g77
g58
NtRp1117
(dp1118
g61
(dp1119
g81
g82
ssg70
g1113
sg63
(lp1120
S'http_cookie'
p1121
asbag56
(g77
g58
NtRp1122
(dp1123
g61
(dp1124
g88
g89
ssg70
g1113
sg63
(lp1125
S':'
asbag56
(g77
g58
NtRp1126
(dp1127
g61
(dp1128
sg70
g1113
sg63
(lp1129
g56
(g57
g58
NtRp1130
(dp1131
g61
(dp1132
g69
I4
ssg70
g1126
sg63
(lp1133
S'session_id_welcome=127.0.0.1-0653ef3e-3e2a-4c9a-a2ad-dc6c0f6d5d3b; session_id_mvstore=127.0.0.1-50654ecb-cdf9-4d07-aebd-7df319d2e714; session_id_admin=127.0.0.1-f645f06f-266f-4e4d-b2e0-7d73420d32e3'
p1134
asbasbasbag56
(g72
g58
NtRp1135
(dp1136
g61
(dp1137
sg70
g821
sg63
(lp1138
g56
(g77
g58
NtRp1139
(dp1140
g61
(dp1141
g81
g82
ssg70
g1135
sg63
(lp1142
S'http_host'
p1143
asbag56
(g77
g58
NtRp1144
(dp1145
g61
(dp1146
g88
g89
ssg70
g1135
sg63
(lp1147
S':'
asbag56
(g77
g58
NtRp1148
(dp1149
g61
(dp1150
sg70
g1135
sg63
(lp1151
g56
(g57
g58
NtRp1152
(dp1153
g61
(dp1154
g69
I4
ssg70
g1148
sg63
(lp1155
S'127.0.0.1:8000'
p1156
asbasbasbag56
(g72
g58
NtRp1157
(dp1158
g61
(dp1159
sg70
g821
sg63
(lp1160
g56
(g77
g58
NtRp1161
(dp1162
g61
(dp1163
g81
g82
ssg70
g1157
sg63
(lp1164
S'http_referer'
p1165
asbag56
(g77
g58
NtRp1166
(dp1167
g61
(dp1168
g88
g89
ssg70
g1157
sg63
(lp1169
S':'
asbag56
(g77
g58
NtRp1170
(dp1171
g61
(dp1172
sg70
g1157
sg63
(lp1173
g56
(g57
g58
NtRp1174
(dp1175
g61
(dp1176
g69
I4
ssg70
g1170
sg63
(lp1177
S'http://127.0.0.1:8000/mvstore/default/prestamos'
p1178
asbasbasbag56
(g72
g58
NtRp1179
(dp1180
g61
(dp1181
sg70
g821
sg63
(lp1182
g56
(g77
g58
NtRp1183
(dp1184
g61
(dp1185
g81
g82
ssg70
g1179
sg63
(lp1186
S'http_user_agent'
p1187
asbag56
(g77
g58
NtRp1188
(dp1189
g61
(dp1190
g88
g89
ssg70
g1179
sg63
(lp1191
S':'
asbag56
(g77
g58
NtRp1192
(dp1193
g61
(dp1194
sg70
g1179
sg63
(lp1195
g56
(g57
g58
NtRp1196
(dp1197
g61
(dp1198
g69
I4
ssg70
g1192
sg63
(lp1199
S'Mozilla/5.0 (X11; U; Linux x86_64; en-US) AppleWebKit/534.16 (KHTML, like Gecko) Chrome/10.0.648.205 Safari/534.16'
p1200
asbasbasbag56
(g72
g58
NtRp1201
(dp1202
g61
(dp1203
sg70
g821
sg63
(lp1204
g56
(g77
g58
NtRp1205
(dp1206
g61
(dp1207
g81
g82
ssg70
g1201
sg63
(lp1208
S'path_info'
p1209
asbag56
(g77
g58
NtRp1210
(dp1211
g61
(dp1212
g88
g89
ssg70
g1201
sg63
(lp1213
S':'
asbag56
(g77
g58
NtRp1214
(dp1215
g61
(dp1216
sg70
g1201
sg63
(lp1217
g56
(g57
g58
NtRp1218
(dp1219
g61
(dp1220
g69
I4
ssg70
g1214
sg63
(lp1221
S'/mvstore/default/index'
p1222
asbasbasbag56
(g72
g58
NtRp1223
(dp1224
g61
(dp1225
sg70
g821
sg63
(lp1226
g56
(g77
g58
NtRp1227
(dp1228
g61
(dp1229
g81
g82
ssg70
g1223
sg63
(lp1230
S'query_string'
p1231
asbag56
(g77
g58
NtRp1232
(dp1233
g61
(dp1234
g88
g89
ssg70
g1223
sg63
(lp1235
S':'
asbag56
(g77
g58
NtRp1236
(dp1237
g61
(dp1238
sg70
g1223
sg63
(lp1239
g56
(g57
g58
NtRp1240
(dp1241
g61
(dp1242
g69
I4
ssg70
g1236
sg63
(lp1243
S''
asbasbasbag56
(g72
g58
NtRp1244
(dp1245
g61
(dp1246
sg70
g821
sg63
(lp1247
g56
(g77
g58
NtRp1248
(dp1249
g61
(dp1250
g81
g82
ssg70
g1244
sg63
(lp1251
S'remote_addr'
p1252
asbag56
(g77
g58
NtRp1253
(dp1254
g61
(dp1255
g88
g89
ssg70
g1244
sg63
(lp1256
S':'
asbag56
(g77
g58
NtRp1257
(dp1258
g61
(dp1259
sg70
g1244
sg63
(lp1260
g56
(g57
g58
NtRp1261
(dp1262
g61
(dp1263
g69
I4
ssg70
g1257
sg63
(lp1264
g189
asbasbasbag56
(g72
g58
NtRp1265
(dp1266
g61
(dp1267
sg70
g821
sg63
(lp1268
g56
(g77
g58
NtRp1269
(dp1270
g61
(dp1271
g81
g82
ssg70
g1265
sg63
(lp1272
S'remote_port'
p1273
asbag56
(g77
g58
NtRp1274
(dp1275
g61
(dp1276
g88
g89
ssg70
g1265
sg63
(lp1277
S':'
asbag56
(g77
g58
NtRp1278
(dp1279
g61
(dp1280
sg70
g1265
sg63
(lp1281
g56
(g57
g58
NtRp1282
(dp1283
g61
(dp1284
g69
I4
ssg70
g1278
sg63
(lp1285
S'36809'
p1286
asbasbasbag56
(g72
g58
NtRp1287
(dp1288
g61
(dp1289
sg70
g821
sg63
(lp1290
g56
(g77
g58
NtRp1291
(dp1292
g61
(dp1293
g81
g82
ssg70
g1287
sg63
(lp1294
S'request_method'
p1295
asbag56
(g77
g58
NtRp1296
(dp1297
g61
(dp1298
g88
g89
ssg70
g1287
sg63
(lp1299
S':'
asbag56
(g77
g58
NtRp1300
(dp1301
g61
(dp1302
sg70
g1287
sg63
(lp1303
g56
(g57
g58
NtRp1304
(dp1305
g61
(dp1306
g69
I4
ssg70
g1300
sg63
(lp1307
S'GET'
p1308
asbasbasbag56
(g72
g58
NtRp1309
(dp1310
g61
(dp1311
sg70
g821
sg63
(lp1312
g56
(g77
g58
NtRp1313
(dp1314
g61
(dp1315
g81
g82
ssg70
g1309
sg63
(lp1316
S'script_name'
p1317
asbag56
(g77
g58
NtRp1318
(dp1319
g61
(dp1320
g88
g89
ssg70
g1309
sg63
(lp1321
S':'
asbag56
(g77
g58
NtRp1322
(dp1323
g61
(dp1324
sg70
g1309
sg63
(lp1325
g56
(g57
g58
NtRp1326
(dp1327
g61
(dp1328
g69
I4
ssg70
g1322
sg63
(lp1329
S''
asbasbasbag56
(g72
g58
NtRp1330
(dp1331
g61
(dp1332
sg70
g821
sg63
(lp1333
g56
(g77
g58
NtRp1334
(dp1335
g61
(dp1336
g81
g82
ssg70
g1330
sg63
(lp1337
S'server_name'
p1338
asbag56
(g77
g58
NtRp1339
(dp1340
g61
(dp1341
g88
g89
ssg70
g1330
sg63
(lp1342
S':'
asbag56
(g77
g58
NtRp1343
(dp1344
g61
(dp1345
sg70
g1330
sg63
(lp1346
g56
(g57
g58
NtRp1347
(dp1348
g61
(dp1349
g69
I4
ssg70
g1343
sg63
(lp1350
S'kiki'
p1351
asbasbasbag56
(g72
g58
NtRp1352
(dp1353
g61
(dp1354
sg70
g821
sg63
(lp1355
g56
(g77
g58
NtRp1356
(dp1357
g61
(dp1358
g81
g82
ssg70
g1352
sg63
(lp1359
S'server_port'
p1360
asbag56
(g77
g58
NtRp1361
(dp1362
g61
(dp1363
g88
g89
ssg70
g1352
sg63
(lp1364
S':'
asbag56
(g77
g58
NtRp1365
(dp1366
g61
(dp1367
sg70
g1352
sg63
(lp1368
g56
(g57
g58
NtRp1369
(dp1370
g61
(dp1371
g69
I4
ssg70
g1365
sg63
(lp1372
S'8000'
p1373
asbasbasbag56
(g72
g58
NtRp1374
(dp1375
g61
(dp1376
sg70
g821
sg63
(lp1377
g56
(g77
g58
NtRp1378
(dp1379
g61
(dp1380
g81
g82
ssg70
g1374
sg63
(lp1381
S'server_protocol'
p1382
asbag56
(g77
g58
NtRp1383
(dp1384
g61
(dp1385
g88
g89
ssg70
g1374
sg63
(lp1386
S':'
asbag56
(g77
g58
NtRp1387
(dp1388
g61
(dp1389
sg70
g1374
sg63
(lp1390
g56
(g57
g58
NtRp1391
(dp1392
g61
(dp1393
g69
I4
ssg70
g1387
sg63
(lp1394
S'HTTP/1.1'
p1395
asbasbasbag56
(g72
g58
NtRp1396
(dp1397
g61
(dp1398
sg70
g821
sg63
(lp1399
g56
(g77
g58
NtRp1400
(dp1401
g61
(dp1402
g81
g82
ssg70
g1396
sg63
(lp1403
S'server_software'
p1404
asbag56
(g77
g58
NtRp1405
(dp1406
g61
(dp1407
g88
g89
ssg70
g1396
sg63
(lp1408
S':'
asbag56
(g77
g58
NtRp1409
(dp1410
g61
(dp1411
sg70
g1396
sg63
(lp1412
g56
(g57
g58
NtRp1413
(dp1414
g61
(dp1415
g69
I4
ssg70
g1409
sg63
(lp1416
S'Rocket 1.2.2'
p1417
asbasbasbag56
(g72
g58
NtRp1418
(dp1419
g61
(dp1420
sg70
g821
sg63
(lp1421
g56
(g77
g58
NtRp1422
(dp1423
g61
(dp1424
g81
g82
ssg70
g1418
sg63
(lp1425
S'web2py_crontype'
p1426
asbag56
(g77
g58
NtRp1427
(dp1428
g61
(dp1429
g88
g89
ssg70
g1418
sg63
(lp1430
S':'
asbag56
(g77
g58
NtRp1431
(dp1432
g61
(dp1433
sg70
g1418
sg63
(lp1434
g56
(g57
g58
NtRp1435
(dp1436
g61
(dp1437
g69
I4
ssg70
g1431
sg63
(lp1438
S'hard'
p1439
asbasbasbag56
(g72
g58
NtRp1440
(dp1441
g61
(dp1442
sg70
g821
sg63
(lp1443
g56
(g77
g58
NtRp1444
(dp1445
g61
(dp1446
g81
g82
ssg70
g1440
sg63
(lp1447
S'web2py_path'
p1448
asbag56
(g77
g58
NtRp1449
(dp1450
g61
(dp1451
g88
g89
ssg70
g1440
sg63
(lp1452
S':'
asbag56
(g77
g58
NtRp1453
(dp1454
g61
(dp1455
sg70
g1440
sg63
(lp1456
g56
(g57
g58
NtRp1457
(dp1458
g61
(dp1459
g69
I4
ssg70
g1453
sg63
(lp1460
g868
asbasbasbag56
(g72
g58
NtRp1461
(dp1462
g61
(dp1463
sg70
g821
sg63
(lp1464
g56
(g77
g58
NtRp1465
(dp1466
g61
(dp1467
g81
g82
ssg70
g1461
sg63
(lp1468
S'web2py_version'
p1469
asbag56
(g77
g58
NtRp1470
(dp1471
g61
(dp1472
g88
g89
ssg70
g1461
sg63
(lp1473
S':'
asbag56
(g77
g58
NtRp1474
(dp1475
g61
(dp1476
sg70
g1461
sg63
(lp1477
g56
(g57
g58
NtRp1478
(dp1479
g61
(dp1480
g69
I4
ssg70
g1474
sg63
(lp1481
S'        iersion 1.94.1 (2011-03-17 16:30:58)\n'
p1482
asbasbasbag56
(g72
g58
NtRp1483
(dp1484
g61
(dp1485
sg70
g821
sg63
(lp1486
g56
(g77
g58
NtRp1487
(dp1488
g61
(dp1489
g81
g82
ssg70
g1483
sg63
(lp1490
S'wsgi_errors'
p1491
asbag56
(g77
g58
NtRp1492
(dp1493
g61
(dp1494
g88
g89
ssg70
g1483
sg63
(lp1495
S':'
asbag56
(g77
g58
NtRp1496
(dp1497
g61
(dp1498
sg70
g1483
sg63
(lp1499
g56
(g57
g58
NtRp1500
(dp1501
g61
(dp1502
g69
I4
ssg70
g1496
sg63
(lp1503
S"<open file '<stderr>', mode 'w' at 0x7fd2753531e0>"
p1504
asbasbasbag56
(g72
g58
NtRp1505
(dp1506
g61
(dp1507
sg70
g821
sg63
(lp1508
g56
(g77
g58
NtRp1509
(dp1510
g61
(dp1511
g81
g82
ssg70
g1505
sg63
(lp1512
S'wsgi_file_wrapper'
p1513
asbag56
(g77
g58
NtRp1514
(dp1515
g61
(dp1516
g88
g89
ssg70
g1505
sg63
(lp1517
S':'
asbag56
(g77
g58
NtRp1518
(dp1519
g61
(dp1520
sg70
g1505
sg63
(lp1521
g56
(g57
g58
NtRp1522
(dp1523
g61
(dp1524
g69
I4
ssg70
g1518
sg63
(lp1525
S'<class gluon.rocket.FileWrapper at 0x19683b0>'
p1526
asbasbasbag56
(g72
g58
NtRp1527
(dp1528
g61
(dp1529
sg70
g821
sg63
(lp1530
g56
(g77
g58
NtRp1531
(dp1532
g61
(dp1533
g81
g82
ssg70
g1527
sg63
(lp1534
S'wsgi_input'
p1535
asbag56
(g77
g58
NtRp1536
(dp1537
g61
(dp1538
g88
g89
ssg70
g1527
sg63
(lp1539
S':'
asbag56
(g77
g58
NtRp1540
(dp1541
g61
(dp1542
sg70
g1527
sg63
(lp1543
g56
(g57
g58
NtRp1544
(dp1545
g61
(dp1546
g69
I4
ssg70
g1540
sg63
(lp1547
S'<socket._fileobject object at 0x2989850>'
p1548
asbasbasbag56
(g72
g58
NtRp1549
(dp1550
g61
(dp1551
sg70
g821
sg63
(lp1552
g56
(g77
g58
NtRp1553
(dp1554
g61
(dp1555
g81
g82
ssg70
g1549
sg63
(lp1556
S'wsgi_multiprocess'
p1557
asbag56
(g77
g58
NtRp1558
(dp1559
g61
(dp1560
g88
g89
ssg70
g1549
sg63
(lp1561
S':'
asbag56
(g77
g58
NtRp1562
(dp1563
g61
(dp1564
sg70
g1549
sg63
(lp1565
g56
(g57
g58
NtRp1566
(dp1567
g61
(dp1568
g69
I4
ssg70
g1562
sg63
(lp1569
g99
asbasbasbag56
(g72
g58
NtRp1570
(dp1571
g61
(dp1572
sg70
g821
sg63
(lp1573
g56
(g77
g58
NtRp1574
(dp1575
g61
(dp1576
g81
g82
ssg70
g1570
sg63
(lp1577
S'wsgi_multithread'
p1578
asbag56
(g77
g58
NtRp1579
(dp1580
g61
(dp1581
g88
g89
ssg70
g1570
sg63
(lp1582
S':'
asbag56
(g77
g58
NtRp1583
(dp1584
g61
(dp1585
sg70
g1570
sg63
(lp1586
g56
(g57
g58
NtRp1587
(dp1588
g61
(dp1589
g69
I4
ssg70
g1583
sg63
(lp1590
S'True'
p1591
asbasbasbag56
(g72
g58
NtRp1592
(dp1593
g61
(dp1594
sg70
g821
sg63
(lp1595
g56
(g77
g58
NtRp1596
(dp1597
g61
(dp1598
g81
g82
ssg70
g1592
sg63
(lp1599
S'wsgi_run_once'
p1600
asbag56
(g77
g58
NtRp1601
(dp1602
g61
(dp1603
g88
g89
ssg70
g1592
sg63
(lp1604
S':'
asbag56
(g77
g58
NtRp1605
(dp1606
g61
(dp1607
sg70
g1592
sg63
(lp1608
g56
(g57
g58
NtRp1609
(dp1610
g61
(dp1611
g69
I4
ssg70
g1605
sg63
(lp1612
g99
asbasbasbag56
(g72
g58
NtRp1613
(dp1614
g61
(dp1615
sg70
g821
sg63
(lp1616
g56
(g77
g58
NtRp1617
(dp1618
g61
(dp1619
g81
g82
ssg70
g1613
sg63
(lp1620
S'wsgi_url_scheme'
p1621
asbag56
(g77
g58
NtRp1622
(dp1623
g61
(dp1624
g88
g89
ssg70
g1613
sg63
(lp1625
S':'
asbag56
(g77
g58
NtRp1626
(dp1627
g61
(dp1628
sg70
g1613
sg63
(lp1629
g56
(g57
g58
NtRp1630
(dp1631
g61
(dp1632
g69
I4
ssg70
g1626
sg63
(lp1633
S'http'
p1634
asbasbasbag56
(g72
g58
NtRp1635
(dp1636
g61
(dp1637
sg70
g821
sg63
(lp1638
g56
(g77
g58
NtRp1639
(dp1640
g61
(dp1641
g81
g82
ssg70
g1635
sg63
(lp1642
S'wsgi_version'
p1643
asbag56
(g77
g58
NtRp1644
(dp1645
g61
(dp1646
g88
g89
ssg70
g1635
sg63
(lp1647
S':'
asbag56
(g77
g58
NtRp1648
(dp1649
g61
(dp1650
sg70
g1635
sg63
(lp1651
g56
(g57
g58
NtRp1652
(dp1653
g61
(dp1654
g69
I4
ssg70
g1648
sg63
(lp1655
g56
(g65
g58
NtRp1656
(dp1657
g61
(dp1658
g69
I3
ssg70
Nsg63
(lp1659
g56
(g72
g58
NtRp1660
(dp1661
g61
(dp1662
sg70
g1656
sg63
(lp1663
g56
(g77
g58
NtRp1664
(dp1665
g61
(dp1666
sg70
g1660
sg63
(lp1667
g56
(g57
g58
NtRp1668
(dp1669
g61
(dp1670
g69
I3
ssg70
g1664
sg63
(lp1671
S'1'
asbasbasbag56
(g72
g58
NtRp1672
(dp1673
g61
(dp1674
sg70
g1656
sg63
(lp1675
g56
(g77
g58
NtRp1676
(dp1677
g61
(dp1678
sg70
g1672
sg63
(lp1679
g56
(g57
g58
NtRp1680
(dp1681
g61
(dp1682
g69
I3
ssg70
g1676
sg63
(lp1683
S'0'
asbasbasbasbasbasbasbasbasbasbasbag56
(g72
g58
NtRp1684
(dp1685
g61
(dp1686
sg70
g66
sg63
(lp1687
g56
(g77
g58
NtRp1688
(dp1689
g61
(dp1690
g81
g82
ssg70
g1684
sg63
(lp1691
S'extension'
p1692
asbag56
(g77
g58
NtRp1693
(dp1694
g61
(dp1695
g88
g89
ssg70
g1684
sg63
(lp1696
S':'
asbag56
(g77
g58
NtRp1697
(dp1698
g61
(dp1699
sg70
g1684
sg63
(lp1700
g56
(g57
g58
NtRp1701
(dp1702
g61
(dp1703
g69
I5
ssg70
g1697
sg63
(lp1704
S'html'
p1705
asbasbasbag56
(g72
g58
NtRp1706
(dp1707
g61
(dp1708
sg70
g66
sg63
(lp1709
g56
(g77
g58
NtRp1710
(dp1711
g61
(dp1712
g81
g82
ssg70
g1706
sg63
(lp1713
S'folder'
p1714
asbag56
(g77
g58
NtRp1715
(dp1716
g61
(dp1717
g88
g89
ssg70
g1706
sg63
(lp1718
S':'
asbag56
(g77
g58
NtRp1719
(dp1720
g61
(dp1721
sg70
g1706
sg63
(lp1722
g56
(g57
g58
NtRp1723
(dp1724
g61
(dp1725
g69
I5
ssg70
g1719
sg63
(lp1726
S'/home/marco/proyectos/web2py-trunk/applications/mvstore/'
p1727
asbasbasbag56
(g72
g58
NtRp1728
(dp1729
g61
(dp1730
sg70
g66
sg63
(lp1731
g56
(g77
g58
NtRp1732
(dp1733
g61
(dp1734
g81
g82
ssg70
g1728
sg63
(lp1735
S'function'
p1736
asbag56
(g77
g58
NtRp1737
(dp1738
g61
(dp1739
g88
g89
ssg70
g1728
sg63
(lp1740
S':'
asbag56
(g77
g58
NtRp1741
(dp1742
g61
(dp1743
sg70
g1728
sg63
(lp1744
g56
(g57
g58
NtRp1745
(dp1746
g61
(dp1747
g69
I5
ssg70
g1741
sg63
(lp1748
S'index'
p1749
asbasbasbag56
(g72
g58
NtRp1750
(dp1751
g61
(dp1752
sg70
g66
sg63
(lp1753
g56
(g77
g58
NtRp1754
(dp1755
g61
(dp1756
g81
g82
ssg70
g1750
sg63
(lp1757
S'get_vars'
p1758
asbag56
(g77
g58
NtRp1759
(dp1760
g61
(dp1761
g88
g89
ssg70
g1750
sg63
(lp1762
S':'
asbag56
(g77
g58
NtRp1763
(dp1764
g61
(dp1765
sg70
g1750
sg63
(lp1766
g56
(g57
g58
NtRp1767
(dp1768
g61
(dp1769
g69
I5
ssg70
g1763
sg63
(lp1770
g56
(g65
g58
NtRp1771
(dp1772
g61
(dp1773
g69
I4
ssg70
Nsg63
(lp1774
sbasbasbasbag56
(g72
g58
NtRp1775
(dp1776
g61
(dp1777
sg70
g66
sg63
(lp1778
g56
(g77
g58
NtRp1779
(dp1780
g61
(dp1781
g81
g82
ssg70
g1775
sg63
(lp1782
S'is_https'
p1783
asbag56
(g77
g58
NtRp1784
(dp1785
g61
(dp1786
g88
g89
ssg70
g1775
sg63
(lp1787
S':'
asbag56
(g77
g58
NtRp1788
(dp1789
g61
(dp1790
sg70
g1775
sg63
(lp1791
g56
(g57
g58
NtRp1792
(dp1793
g61
(dp1794
g69
I5
ssg70
g1788
sg63
(lp1795
g99
asbasbasbag56
(g72
g58
NtRp1796
(dp1797
g61
(dp1798
sg70
g66
sg63
(lp1799
g56
(g77
g58
NtRp1800
(dp1801
g61
(dp1802
g81
g82
ssg70
g1796
sg63
(lp1803
S'is_local'
p1804
asbag56
(g77
g58
NtRp1805
(dp1806
g61
(dp1807
g88
g89
ssg70
g1796
sg63
(lp1808
S':'
asbag56
(g77
g58
NtRp1809
(dp1810
g61
(dp1811
sg70
g1796
sg63
(lp1812
g56
(g57
g58
NtRp1813
(dp1814
g61
(dp1815
g69
I5
ssg70
g1809
sg63
(lp1816
g1591
asbasbasbag56
(g72
g58
NtRp1817
(dp1818
g61
(dp1819
sg70
g66
sg63
(lp1820
g56
(g77
g58
NtRp1821
(dp1822
g61
(dp1823
g81
g82
ssg70
g1817
sg63
(lp1824
S'is_restful'
p1825
asbag56
(g77
g58
NtRp1826
(dp1827
g61
(dp1828
g88
g89
ssg70
g1817
sg63
(lp1829
S':'
asbag56
(g77
g58
NtRp1830
(dp1831
g61
(dp1832
sg70
g1817
sg63
(lp1833
g56
(g57
g58
NtRp1834
(dp1835
g61
(dp1836
g69
I5
ssg70
g1830
sg63
(lp1837
g99
asbasbasbag56
(g72
g58
NtRp1838
(dp1839
g61
(dp1840
sg70
g66
sg63
(lp1841
g56
(g77
g58
NtRp1842
(dp1843
g61
(dp1844
g81
g82
ssg70
g1838
sg63
(lp1845
S'now'
p1846
asbag56
(g77
g58
NtRp1847
(dp1848
g61
(dp1849
g88
g89
ssg70
g1838
sg63
(lp1850
S':'
asbag56
(g77
g58
NtRp1851
(dp1852
g61
(dp1853
sg70
g1838
sg63
(lp1854
g56
(g57
g58
NtRp1855
(dp1856
g61
(dp1857
g69
I5
ssg70
g1851
sg63
(lp1858
S'datetime.datetime(2011, 6, 19, 0, 3, 10, 36556)'
p1859
asbasbasbag56
(g72
g58
NtRp1860
(dp1861
g61
(dp1862
sg70
g66
sg63
(lp1863
g56
(g77
g58
NtRp1864
(dp1865
g61
(dp1866
g81
g82
ssg70
g1860
sg63
(lp1867
S'post_vars'
p1868
asbag56
(g77
g58
NtRp1869
(dp1870
g61
(dp1871
g88
g89
ssg70
g1860
sg63
(lp1872
S':'
asbag56
(g77
g58
NtRp1873
(dp1874
g61
(dp1875
sg70
g1860
sg63
(lp1876
g56
(g57
g58
NtRp1877
(dp1878
g61
(dp1879
g69
I5
ssg70
g1873
sg63
(lp1880
g56
(g65
g58
NtRp1881
(dp1882
g61
(dp1883
g69
I4
ssg70
Nsg63
(lp1884
sbasbasbasbag56
(g72
g58
NtRp1885
(dp1886
g61
(dp1887
sg70
g66
sg63
(lp1888
g56
(g77
g58
NtRp1889
(dp1890
g61
(dp1891
g81
g82
ssg70
g1885
sg63
(lp1892
S'url'
p1893
asbag56
(g77
g58
NtRp1894
(dp1895
g61
(dp1896
g88
g89
ssg70
g1885
sg63
(lp1897
S':'
asbag56
(g77
g58
NtRp1898
(dp1899
g61
(dp1900
sg70
g1885
sg63
(lp1901
g56
(g57
g58
NtRp1902
(dp1903
g61
(dp1904
g69
I5
ssg70
g1898
sg63
(lp1905
S'/mvstore/default/index'
p1906
asbasbasbag56
(g72
g58
NtRp1907
(dp1908
g61
(dp1909
sg70
g66
sg63
(lp1910
g56
(g77
g58
NtRp1911
(dp1912
g61
(dp1913
g81
g82
ssg70
g1907
sg63
(lp1914
S'uuid'
p1915
asbag56
(g77
g58
NtRp1916
(dp1917
g61
(dp1918
g88
g89
ssg70
g1907
sg63
(lp1919
S':'
asbag56
(g77
g58
NtRp1920
(dp1921
g61
(dp1922
sg70
g1907
sg63
(lp1923
g56
(g57
g58
NtRp1924
(dp1925
g61
(dp1926
g69
I5
ssg70
g1920
sg63
(lp1927
S'mvstore/127.0.0.1.2011-06-19.00-03-10.e8aeca6d-859a-41cb-a515-d214a0f79650'
p1928
asbasbasbag56
(g72
g58
NtRp1929
(dp1930
g61
(dp1931
sg70
g66
sg63
(lp1932
g56
(g77
g58
NtRp1933
(dp1934
g61
(dp1935
g81
g82
ssg70
g1929
sg63
(lp1936
S'vars'
p1937
asbag56
(g77
g58
NtRp1938
(dp1939
g61
(dp1940
g88
g89
ssg70
g1929
sg63
(lp1941
S':'
asbag56
(g77
g58
NtRp1942
(dp1943
g61
(dp1944
sg70
g1929
sg63
(lp1945
g56
(g57
g58
NtRp1946
(dp1947
g61
(dp1948
g69
I5
ssg70
g1942
sg63
(lp1949
g56
(g65
g58
NtRp1950
(dp1951
g61
(dp1952
g69
I4
ssg70
Nsg63
(lp1953
sbasbasbasbag56
(g72
g58
NtRp1954
(dp1955
g61
(dp1956
sg70
g66
sg63
(lp1957
g56
(g77
g58
NtRp1958
(dp1959
g61
(dp1960
g81
g82
ssg70
g1954
sg63
(lp1961
S'wsgi'
p1962
asbag56
(g77
g58
NtRp1963
(dp1964
g61
(dp1965
g88
g89
ssg70
g1954
sg63
(lp1966
S':'
asbag56
(g77
g58
NtRp1967
(dp1968
g61
(dp1969
sg70
g1954
sg63
(lp1970
g56
(g57
g58
NtRp1971
(dp1972
g61
(dp1973
g69
I5
ssg70
g1967
sg63
(lp1974
g56
(g65
g58
NtRp1975
(dp1976
g61
(dp1977
g69
I4
ssg70
Nsg63
(lp1978
g56
(g72
g58
NtRp1979
(dp1980
g61
(dp1981
sg70
g1975
sg63
(lp1982
g56
(g77
g58
NtRp1983
(dp1984
g61
(dp1985
g81
g82
ssg70
g1979
sg63
(lp1986
S'environ'
p1987
asbag56
(g77
g58
NtRp1988
(dp1989
g61
(dp1990
g88
g89
ssg70
g1979
sg63
(lp1991
S':'
asbag56
(g77
g58
NtRp1992
(dp1993
g61
(dp1994
sg70
g1979
sg63
(lp1995
g56
(g57
g58
NtRp1996
(dp1997
g61
(dp1998
g69
I4
ssg70
g1992
sg63
(lp1999
g56
(g65
g58
NtRp2000
(dp2001
g61
(dp2002
g69
I3
ssg70
Nsg63
(lp2003
g56
(g72
g58
NtRp2004
(dp2005
g61
(dp2006
sg70
g2000
sg63
(lp2007
g56
(g77
g58
NtRp2008
(dp2009
g61
(dp2010
g81
g82
ssg70
g2004
sg63
(lp2011
S'HTTP_ACCEPT'
p2012
asbag56
(g77
g58
NtRp2013
(dp2014
g61
(dp2015
g88
g89
ssg70
g2004
sg63
(lp2016
S':'
asbag56
(g77
g58
NtRp2017
(dp2018
g61
(dp2019
sg70
g2004
sg63
(lp2020
g56
(g57
g58
NtRp2021
(dp2022
g61
(dp2023
g69
I3
ssg70
g2017
sg63
(lp2024
g1002
asbasbasbag56
(g72
g58
NtRp2025
(dp2026
g61
(dp2027
sg70
g2000
sg63
(lp2028
g56
(g77
g58
NtRp2029
(dp2030
g61
(dp2031
g81
g82
ssg70
g2025
sg63
(lp2032
S'HTTP_ACCEPT_CHARSET'
p2033
asbag56
(g77
g58
NtRp2034
(dp2035
g61
(dp2036
g88
g89
ssg70
g2025
sg63
(lp2037
S':'
asbag56
(g77
g58
NtRp2038
(dp2039
g61
(dp2040
sg70
g2025
sg63
(lp2041
g56
(g57
g58
NtRp2042
(dp2043
g61
(dp2044
g69
I3
ssg70
g2038
sg63
(lp2045
g1024
asbasbasbag56
(g72
g58
NtRp2046
(dp2047
g61
(dp2048
sg70
g2000
sg63
(lp2049
g56
(g77
g58
NtRp2050
(dp2051
g61
(dp2052
g81
g82
ssg70
g2046
sg63
(lp2053
S'HTTP_ACCEPT_ENCODING'
p2054
asbag56
(g77
g58
NtRp2055
(dp2056
g61
(dp2057
g88
g89
ssg70
g2046
sg63
(lp2058
S':'
asbag56
(g77
g58
NtRp2059
(dp2060
g61
(dp2061
sg70
g2046
sg63
(lp2062
g56
(g57
g58
NtRp2063
(dp2064
g61
(dp2065
g69
I3
ssg70
g2059
sg63
(lp2066
g1046
asbasbasbag56
(g72
g58
NtRp2067
(dp2068
g61
(dp2069
sg70
g2000
sg63
(lp2070
g56
(g77
g58
NtRp2071
(dp2072
g61
(dp2073
g81
g82
ssg70
g2067
sg63
(lp2074
S'HTTP_ACCEPT_LANGUAGE'
p2075
asbag56
(g77
g58
NtRp2076
(dp2077
g61
(dp2078
g88
g89
ssg70
g2067
sg63
(lp2079
S':'
asbag56
(g77
g58
NtRp2080
(dp2081
g61
(dp2082
sg70
g2067
sg63
(lp2083
g56
(g57
g58
NtRp2084
(dp2085
g61
(dp2086
g69
I3
ssg70
g2080
sg63
(lp2087
g1068
asbasbasbag56
(g72
g58
NtRp2088
(dp2089
g61
(dp2090
sg70
g2000
sg63
(lp2091
g56
(g77
g58
NtRp2092
(dp2093
g61
(dp2094
g81
g82
ssg70
g2088
sg63
(lp2095
S'HTTP_CACHE_CONTROL'
p2096
asbag56
(g77
g58
NtRp2097
(dp2098
g61
(dp2099
g88
g89
ssg70
g2088
sg63
(lp2100
S':'
asbag56
(g77
g58
NtRp2101
(dp2102
g61
(dp2103
sg70
g2088
sg63
(lp2104
g56
(g57
g58
NtRp2105
(dp2106
g61
(dp2107
g69
I3
ssg70
g2101
sg63
(lp2108
g1090
asbasbasbag56
(g72
g58
NtRp2109
(dp2110
g61
(dp2111
sg70
g2000
sg63
(lp2112
g56
(g77
g58
NtRp2113
(dp2114
g61
(dp2115
g81
g82
ssg70
g2109
sg63
(lp2116
S'HTTP_CONNECTION'
p2117
asbag56
(g77
g58
NtRp2118
(dp2119
g61
(dp2120
g88
g89
ssg70
g2109
sg63
(lp2121
S':'
asbag56
(g77
g58
NtRp2122
(dp2123
g61
(dp2124
sg70
g2109
sg63
(lp2125
g56
(g57
g58
NtRp2126
(dp2127
g61
(dp2128
g69
I3
ssg70
g2122
sg63
(lp2129
g1112
asbasbasbag56
(g72
g58
NtRp2130
(dp2131
g61
(dp2132
sg70
g2000
sg63
(lp2133
g56
(g77
g58
NtRp2134
(dp2135
g61
(dp2136
g81
g82
ssg70
g2130
sg63
(lp2137
S'HTTP_COOKIE'
p2138
asbag56
(g77
g58
NtRp2139
(dp2140
g61
(dp2141
g88
g89
ssg70
g2130
sg63
(lp2142
S':'
asbag56
(g77
g58
NtRp2143
(dp2144
g61
(dp2145
sg70
g2130
sg63
(lp2146
g56
(g57
g58
NtRp2147
(dp2148
g61
(dp2149
g69
I3
ssg70
g2143
sg63
(lp2150
g1134
asbasbasbag56
(g72
g58
NtRp2151
(dp2152
g61
(dp2153
sg70
g2000
sg63
(lp2154
g56
(g77
g58
NtRp2155
(dp2156
g61
(dp2157
g81
g82
ssg70
g2151
sg63
(lp2158
S'HTTP_HOST'
p2159
asbag56
(g77
g58
NtRp2160
(dp2161
g61
(dp2162
g88
g89
ssg70
g2151
sg63
(lp2163
S':'
asbag56
(g77
g58
NtRp2164
(dp2165
g61
(dp2166
sg70
g2151
sg63
(lp2167
g56
(g57
g58
NtRp2168
(dp2169
g61
(dp2170
g69
I3
ssg70
g2164
sg63
(lp2171
g1156
asbasbasbag56
(g72
g58
NtRp2172
(dp2173
g61
(dp2174
sg70
g2000
sg63
(lp2175
g56
(g77
g58
NtRp2176
(dp2177
g61
(dp2178
g81
g82
ssg70
g2172
sg63
(lp2179
S'HTTP_REFERER'
p2180
asbag56
(g77
g58
NtRp2181
(dp2182
g61
(dp2183
g88
g89
ssg70
g2172
sg63
(lp2184
S':'
asbag56
(g77
g58
NtRp2185
(dp2186
g61
(dp2187
sg70
g2172
sg63
(lp2188
g56
(g57
g58
NtRp2189
(dp2190
g61
(dp2191
g69
I3
ssg70
g2185
sg63
(lp2192
g1178
asbasbasbag56
(g72
g58
NtRp2193
(dp2194
g61
(dp2195
sg70
g2000
sg63
(lp2196
g56
(g77
g58
NtRp2197
(dp2198
g61
(dp2199
g81
g82
ssg70
g2193
sg63
(lp2200
S'HTTP_USER_AGENT'
p2201
asbag56
(g77
g58
NtRp2202
(dp2203
g61
(dp2204
g88
g89
ssg70
g2193
sg63
(lp2205
S':'
asbag56
(g77
g58
NtRp2206
(dp2207
g61
(dp2208
sg70
g2193
sg63
(lp2209
g56
(g57
g58
NtRp2210
(dp2211
g61
(dp2212
g69
I3
ssg70
g2206
sg63
(lp2213
g1200
asbasbasbag56
(g72
g58
NtRp2214
(dp2215
g61
(dp2216
sg70
g2000
sg63
(lp2217
g56
(g77
g58
NtRp2218
(dp2219
g61
(dp2220
g81
g82
ssg70
g2214
sg63
(lp2221
S'PATH_INFO'
p2222
asbag56
(g77
g58
NtRp2223
(dp2224
g61
(dp2225
g88
g89
ssg70
g2214
sg63
(lp2226
S':'
asbag56
(g77
g58
NtRp2227
(dp2228
g61
(dp2229
sg70
g2214
sg63
(lp2230
g56
(g57
g58
NtRp2231
(dp2232
g61
(dp2233
g69
I3
ssg70
g2227
sg63
(lp2234
g1222
asbasbasbag56
(g72
g58
NtRp2235
(dp2236
g61
(dp2237
sg70
g2000
sg63
(lp2238
g56
(g77
g58
NtRp2239
(dp2240
g61
(dp2241
g81
g82
ssg70
g2235
sg63
(lp2242
S'QUERY_STRING'
p2243
asbag56
(g77
g58
NtRp2244
(dp2245
g61
(dp2246
g88
g89
ssg70
g2235
sg63
(lp2247
S':'
asbag56
(g77
g58
NtRp2248
(dp2249
g61
(dp2250
sg70
g2235
sg63
(lp2251
g56
(g57
g58
NtRp2252
(dp2253
g61
(dp2254
g69
I3
ssg70
g2248
sg63
(lp2255
S''
asbasbasbag56
(g72
g58
NtRp2256
(dp2257
g61
(dp2258
sg70
g2000
sg63
(lp2259
g56
(g77
g58
NtRp2260
(dp2261
g61
(dp2262
g81
g82
ssg70
g2256
sg63
(lp2263
S'REMOTE_ADDR'
p2264
asbag56
(g77
g58
NtRp2265
(dp2266
g61
(dp2267
g88
g89
ssg70
g2256
sg63
(lp2268
S':'
asbag56
(g77
g58
NtRp2269
(dp2270
g61
(dp2271
sg70
g2256
sg63
(lp2272
g56
(g57
g58
NtRp2273
(dp2274
g61
(dp2275
g69
I3
ssg70
g2269
sg63
(lp2276
g189
asbasbasbag56
(g72
g58
NtRp2277
(dp2278
g61
(dp2279
sg70
g2000
sg63
(lp2280
g56
(g77
g58
NtRp2281
(dp2282
g61
(dp2283
g81
g82
ssg70
g2277
sg63
(lp2284
S'REMOTE_PORT'
p2285
asbag56
(g77
g58
NtRp2286
(dp2287
g61
(dp2288
g88
g89
ssg70
g2277
sg63
(lp2289
S':'
asbag56
(g77
g58
NtRp2290
(dp2291
g61
(dp2292
sg70
g2277
sg63
(lp2293
g56
(g57
g58
NtRp2294
(dp2295
g61
(dp2296
g69
I3
ssg70
g2290
sg63
(lp2297
g1286
asbasbasbag56
(g72
g58
NtRp2298
(dp2299
g61
(dp2300
sg70
g2000
sg63
(lp2301
g56
(g77
g58
NtRp2302
(dp2303
g61
(dp2304
g81
g82
ssg70
g2298
sg63
(lp2305
S'REQUEST_METHOD'
p2306
asbag56
(g77
g58
NtRp2307
(dp2308
g61
(dp2309
g88
g89
ssg70
g2298
sg63
(lp2310
S':'
asbag56
(g77
g58
NtRp2311
(dp2312
g61
(dp2313
sg70
g2298
sg63
(lp2314
g56
(g57
g58
NtRp2315
(dp2316
g61
(dp2317
g69
I3
ssg70
g2311
sg63
(lp2318
g1308
asbasbasbag56
(g72
g58
NtRp2319
(dp2320
g61
(dp2321
sg70
g2000
sg63
(lp2322
g56
(g77
g58
NtRp2323
(dp2324
g61
(dp2325
g81
g82
ssg70
g2319
sg63
(lp2326
S'SCRIPT_NAME'
p2327
asbag56
(g77
g58
NtRp2328
(dp2329
g61
(dp2330
g88
g89
ssg70
g2319
sg63
(lp2331
S':'
asbag56
(g77
g58
NtRp2332
(dp2333
g61
(dp2334
sg70
g2319
sg63
(lp2335
g56
(g57
g58
NtRp2336
(dp2337
g61
(dp2338
g69
I3
ssg70
g2332
sg63
(lp2339
S''
asbasbasbag56
(g72
g58
NtRp2340
(dp2341
g61
(dp2342
sg70
g2000
sg63
(lp2343
g56
(g77
g58
NtRp2344
(dp2345
g61
(dp2346
g81
g82
ssg70
g2340
sg63
(lp2347
S'SERVER_NAME'
p2348
asbag56
(g77
g58
NtRp2349
(dp2350
g61
(dp2351
g88
g89
ssg70
g2340
sg63
(lp2352
S':'
asbag56
(g77
g58
NtRp2353
(dp2354
g61
(dp2355
sg70
g2340
sg63
(lp2356
g56
(g57
g58
NtRp2357
(dp2358
g61
(dp2359
g69
I3
ssg70
g2353
sg63
(lp2360
g1351
asbasbasbag56
(g72
g58
NtRp2361
(dp2362
g61
(dp2363
sg70
g2000
sg63
(lp2364
g56
(g77
g58
NtRp2365
(dp2366
g61
(dp2367
g81
g82
ssg70
g2361
sg63
(lp2368
S'SERVER_PORT'
p2369
asbag56
(g77
g58
NtRp2370
(dp2371
g61
(dp2372
g88
g89
ssg70
g2361
sg63
(lp2373
S':'
asbag56
(g77
g58
NtRp2374
(dp2375
g61
(dp2376
sg70
g2361
sg63
(lp2377
g56
(g57
g58
NtRp2378
(dp2379
g61
(dp2380
g69
I3
ssg70
g2374
sg63
(lp2381
g1373
asbasbasbag56
(g72
g58
NtRp2382
(dp2383
g61
(dp2384
sg70
g2000
sg63
(lp2385
g56
(g77
g58
NtRp2386
(dp2387
g61
(dp2388
g81
g82
ssg70
g2382
sg63
(lp2389
S'SERVER_PROTOCOL'
p2390
asbag56
(g77
g58
NtRp2391
(dp2392
g61
(dp2393
g88
g89
ssg70
g2382
sg63
(lp2394
S':'
asbag56
(g77
g58
NtRp2395
(dp2396
g61
(dp2397
sg70
g2382
sg63
(lp2398
g56
(g57
g58
NtRp2399
(dp2400
g61
(dp2401
g69
I3
ssg70
g2395
sg63
(lp2402
g1395
asbasbasbag56
(g72
g58
NtRp2403
(dp2404
g61
(dp2405
sg70
g2000
sg63
(lp2406
g56
(g77
g58
NtRp2407
(dp2408
g61
(dp2409
g81
g82
ssg70
g2403
sg63
(lp2410
S'SERVER_SOFTWARE'
p2411
asbag56
(g77
g58
NtRp2412
(dp2413
g61
(dp2414
g88
g89
ssg70
g2403
sg63
(lp2415
S':'
asbag56
(g77
g58
NtRp2416
(dp2417
g61
(dp2418
sg70
g2403
sg63
(lp2419
g56
(g57
g58
NtRp2420
(dp2421
g61
(dp2422
g69
I3
ssg70
g2416
sg63
(lp2423
g1417
asbasbasbag56
(g72
g58
NtRp2424
(dp2425
g61
(dp2426
sg70
g2000
sg63
(lp2427
g56
(g77
g58
NtRp2428
(dp2429
g61
(dp2430
g81
g82
ssg70
g2424
sg63
(lp2431
S'wsgi.errors'
p2432
asbag56
(g77
g58
NtRp2433
(dp2434
g61
(dp2435
g88
g89
ssg70
g2424
sg63
(lp2436
S':'
asbag56
(g77
g58
NtRp2437
(dp2438
g61
(dp2439
sg70
g2424
sg63
(lp2440
g56
(g57
g58
NtRp2441
(dp2442
g61
(dp2443
g69
I3
ssg70
g2437
sg63
(lp2444
S"<open file '<stderr>', mode 'w' at 0x7fd2753531e0>"
p2445
asbasbasbag56
(g72
g58
NtRp2446
(dp2447
g61
(dp2448
sg70
g2000
sg63
(lp2449
g56
(g77
g58
NtRp2450
(dp2451
g61
(dp2452
g81
g82
ssg70
g2446
sg63
(lp2453
S'wsgi.file_wrapper'
p2454
asbag56
(g77
g58
NtRp2455
(dp2456
g61
(dp2457
g88
g89
ssg70
g2446
sg63
(lp2458
S':'
asbag56
(g77
g58
NtRp2459
(dp2460
g61
(dp2461
sg70
g2446
sg63
(lp2462
g56
(g57
g58
NtRp2463
(dp2464
g61
(dp2465
g69
I3
ssg70
g2459
sg63
(lp2466
S'<class gluon.rocket.FileWrapper at 0x19683b0>'
p2467
asbasbasbag56
(g72
g58
NtRp2468
(dp2469
g61
(dp2470
sg70
g2000
sg63
(lp2471
g56
(g77
g58
NtRp2472
(dp2473
g61
(dp2474
g81
g82
ssg70
g2468
sg63
(lp2475
S'wsgi.input'
p2476
asbag56
(g77
g58
NtRp2477
(dp2478
g61
(dp2479
g88
g89
ssg70
g2468
sg63
(lp2480
S':'
asbag56
(g77
g58
NtRp2481
(dp2482
g61
(dp2483
sg70
g2468
sg63
(lp2484
g56
(g57
g58
NtRp2485
(dp2486
g61
(dp2487
g69
I3
ssg70
g2481
sg63
(lp2488
S'<cStringIO.StringO object at 0x1cda298>'
p2489
asbasbasbag56
(g72
g58
NtRp2490
(dp2491
g61
(dp2492
sg70
g2000
sg63
(lp2493
g56
(g77
g58
NtRp2494
(dp2495
g61
(dp2496
g81
g82
ssg70
g2490
sg63
(lp2497
S'wsgi.multiprocess'
p2498
asbag56
(g77
g58
NtRp2499
(dp2500
g61
(dp2501
g88
g89
ssg70
g2490
sg63
(lp2502
S':'
asbag56
(g77
g58
NtRp2503
(dp2504
g61
(dp2505
sg70
g2490
sg63
(lp2506
g56
(g57
g58
NtRp2507
(dp2508
g61
(dp2509
g69
I3
ssg70
g2503
sg63
(lp2510
g99
asbasbasbag56
(g72
g58
NtRp2511
(dp2512
g61
(dp2513
sg70
g2000
sg63
(lp2514
g56
(g77
g58
NtRp2515
(dp2516
g61
(dp2517
g81
g82
ssg70
g2511
sg63
(lp2518
S'wsgi.multithread'
p2519
asbag56
(g77
g58
NtRp2520
(dp2521
g61
(dp2522
g88
g89
ssg70
g2511
sg63
(lp2523
S':'
asbag56
(g77
g58
NtRp2524
(dp2525
g61
(dp2526
sg70
g2511
sg63
(lp2527
g56
(g57
g58
NtRp2528
(dp2529
g61
(dp2530
g69
I3
ssg70
g2524
sg63
(lp2531
g1591
asbasbasbag56
(g72
g58
NtRp2532
(dp2533
g61
(dp2534
sg70
g2000
sg63
(lp2535
g56
(g77
g58
NtRp2536
(dp2537
g61
(dp2538
g81
g82
ssg70
g2532
sg63
(lp2539
S'wsgi.run_once'
p2540
asbag56
(g77
g58
NtRp2541
(dp2542
g61
(dp2543
g88
g89
ssg70
g2532
sg63
(lp2544
S':'
asbag56
(g77
g58
NtRp2545
(dp2546
g61
(dp2547
sg70
g2532
sg63
(lp2548
g56
(g57
g58
NtRp2549
(dp2550
g61
(dp2551
g69
I3
ssg70
g2545
sg63
(lp2552
g99
asbasbasbag56
(g72
g58
NtRp2553
(dp2554
g61
(dp2555
sg70
g2000
sg63
(lp2556
g56
(g77
g58
NtRp2557
(dp2558
g61
(dp2559
g81
g82
ssg70
g2553
sg63
(lp2560
S'wsgi.url_scheme'
p2561
asbag56
(g77
g58
NtRp2562
(dp2563
g61
(dp2564
g88
g89
ssg70
g2553
sg63
(lp2565
S':'
asbag56
(g77
g58
NtRp2566
(dp2567
g61
(dp2568
sg70
g2553
sg63
(lp2569
g56
(g57
g58
NtRp2570
(dp2571
g61
(dp2572
g69
I3
ssg70
g2566
sg63
(lp2573
g1634
asbasbasbag56
(g72
g58
NtRp2574
(dp2575
g61
(dp2576
sg70
g2000
sg63
(lp2577
g56
(g77
g58
NtRp2578
(dp2579
g61
(dp2580
g81
g82
ssg70
g2574
sg63
(lp2581
S'wsgi.version'
p2582
asbag56
(g77
g58
NtRp2583
(dp2584
g61
(dp2585
g88
g89
ssg70
g2574
sg63
(lp2586
S':'
asbag56
(g77
g58
NtRp2587
(dp2588
g61
(dp2589
sg70
g2574
sg63
(lp2590
g56
(g57
g58
NtRp2591
(dp2592
g61
(dp2593
g69
I3
ssg70
g2587
sg63
(lp2594
S'1'
asbasbasbasbasbasbasbasbasbasbasbasbasbsS'frames'
p2595
(lp2596
(dp2597
S'file'
p2598
S'/home/marco/proyectos/web2py-trunk/gluon/restricted.py'
p2599
sS'dump'
p2600
(dp2601
S'environment'
p2602
S"{'A': <class 'gluon.html.A'>, 'Auth': <class 'gluon.tools.Auth'>, 'B': <class 'gluon.html.B'>, 'BEAUTIFY': <class 'gluon.html.BEAUTIFY'>, 'BODY': <class 'gluon.html.BODY'>, 'BR': <class 'gluon.html.BR'>, 'BUTTON': <class 'gluon.html.BUTTON'>, 'CENTER': <class 'gluon.html.CENTER'>, 'CLEANUP': <class 'gluon.validators.CLEANUP'>, 'CODE': <class 'gluon.html.CODE'>, ...}"
p2603
sS'ccode'
p2604
S'<code object <module> at 0x2363eb8, file "/home/...ations/mvstore/views/default/index.html", line 1>'
p2605
ssS'lnum'
p2606
I192
sS'lines'
p2607
(dp2608
I192
S'        exec ccode in environment'
p2609
sI193
S'    except HTTP:'
p2610
sI194
S'        raise'
p2611
sI195
S'    except Exception:'
p2612
sI196
S'        # XXX Show exception in Wing IDE if running in debugger'
p2613
sI187
S'    try:'
p2614
sI188
S'        if type(code) == types.CodeType:'
p2615
sI189
S'            ccode = code'
p2616
sI190
S'        else:'
p2617
sI191
S'            ccode = compile2(code,layer)'
p2618
ssS'call'
p2619
S'(code=\'response.write(\\\'<!DOCTYPE html>\\\\n<html lang="\\\', ...t   -->    \\\\n  </body>\\\\n</html>\\\\n\\\', escape=False)\', environment={\'A\': <class \'gluon.html.A\'>, \'Auth\': <class \'gluon.tools.Auth\'>, \'B\': <class \'gluon.html.B\'>, \'BEAUTIFY\': <class \'gluon.html.BEAUTIFY\'>, \'BODY\': <class \'gluon.html.BODY\'>, \'BR\': <class \'gluon.html.BR\'>, \'BUTTON\': <class \'gluon.html.BUTTON\'>, \'CENTER\': <class \'gluon.html.CENTER\'>, \'CLEANUP\': <class \'gluon.validators.CLEANUP\'>, \'CODE\': <class \'gluon.html.CODE\'>, ...}, layer=\'/home/marco/proyectos/web2py-trunk/applications/mvstore/views/default/index.html\')'
p2620
sS'func'
p2621
S'restricted'
p2622
sa(dp2623
g2598
S'/home/marco/proyectos/web2py-trunk/applications/mvstore/views/default/index.html'
p2624
sg2600
(dp2625
sg2606
I85
sg2607
(dp2626
I76
S"    response.write(auth.navbar(action=URL('default','user')))"
p2627
sI77
S'except:pass'
p2628
sI78
S'response.write(\'\\t\\t          \\n\\t  <h1><span id="appname">\', escape=False)'
p2629
sI79
S'response.write(request.application.capitalize())'
p2630
sI80
S'response.write(\'</span>App</h1>\\n\\t  <div style="clear: both;"></div><!-- Clear the divs -->\\n\\t  \', escape=False)'
p2631
sI81
S'response.write(\'\\t\\t\\t\\t  \\t\\t\\t\\t\\t  \\n\\t</div><!-- header  -->\\n\\t\\n\\t<div id="statusbar"><!-- statusbar is menu zone -->\\n\\t  \', escape=False)'
p2632
sI82
S"response.write(' <!-- this is default statusbar -->\\n\\t  ', escape=False)"
p2633
sI83
S'#------ superfish menu ------'
p2634
sI84
S"response.write('\\n\\t  ', escape=False)"
p2635
sI85
S"response.write(MENU(response.menu,_class='sf-menu'))"
p2636
sI86
S'response.write(\'\\n\\t  <script type="text/javascript">\\n\\t    jQuery(document).ready(function(){\\n\\t    jQuery(\\\'ul.sf-menu\\\').superfish();});\\n\\t  </script>\\n\\t  <div style="clear: both;"></div><!-- Clear the divs -->\\t\\n\\t  \', escape=False)'
p2637
sI87
S'response.write(\'\\t\\t\\t\\t\\n\\t</div><!-- statusbar -->\\n\\t\\n\\t<div id="page"> <!-- Here my central body -->\\t  \\n\\n\\t  \', escape=False)'
p2638
sI88
S'if left_sidebar_enabled:'
p2639
sI89
S'    response.write(\'\\n          <div id="left_sidebar" \', escape=False)'
p2640
sI90
S'    response.write(XML(left_sidebar_style))'
p2641
sI91
S'    response.write(\' >\\n            <div style="padding: 4px;">\\n\\t      \', escape=False)'
p2642
sI92
S"    response.write('Content Left Sidebar', escape=False)"
p2643
sI93
S"    response.write('\\t\\t  \\n            </div>\\n          </div><!-- left_sidebar -->\\n\\t  ', escape=False)"
p2644
sI94
S'    pass'
p2645
sI95
S'response.write(\'\\n\\n\\t  <!-- content -->\\n\\t  <div id="content" \', escape=False)'
p2646
ssg2619
S'()'
p2647
sg2621
S'<module>'
p2648
sa(dp2649
g2598
S'/home/marco/proyectos/web2py-trunk/gluon/globals.py'
p2650
sg2600
(dp2651
S'self.body.write'
p2652
S'<built-in method write of cStringIO.StringO object>'
p2653
sS'self.body'
p2654
S'<cStringIO.StringO object>'
p2655
sS'self'
p2656
S"<Storage {'body': <cStringIO.StringO object at 0...da> at 0x2338c08>, 'view': 'default/index.html'}>"
p2657
sS'global xmlescape'
p2658
S'<function xmlescape>'
p2659
sS'data'
p2660
S'<gluon.html.MENU object>'
p2661
ssg2606
I146
sg2607
(dp2662
I141
S''
sI142
S'    def write(self, data, escape=True):'
p2663
sI143
S'        if not escape:'
p2664
sI144
S'            self.body.write(str(data))'
p2665
sI145
S'        else:'
p2666
sI146
S'            self.body.write(xmlescape(data))'
p2667
sI147
S''
sI148
S'    def render(self, *a, **b):'
p2668
sI149
S'        from compileapp import run_view_in'
p2669
sI150
S'        if len(a) > 2:'
p2670
ssg2619
S"(self=<Storage {'body': <cStringIO.StringO object at 0...da> at 0x2338c08>, 'view': 'default/index.html'}>, data=<gluon.html.MENU object>, escape=True)"
p2671
sg2621
S'write'
p2672
sa(dp2673
g2598
S'/home/marco/proyectos/web2py-trunk/gluon/html.py'
p2674
sg2600
(dp2675
S'data'
p2676
S'<gluon.html.MENU object>'
p2677
sS'data.xml'
p2678
S'<bound method MENU.xml of <gluon.html.MENU object>>'
p2679
ssg2606
I111
sg2607
(dp2680
I106
S'    :param quote: optional (default False)'
p2681
sI107
S'    """'
p2682
sI108
S''
sI109
S'    # first try the xml function'
p2683
sI110
S"    if hasattr(data,'xml') and callable(data.xml):"
p2684
sI111
S'        return data.xml()'
p2685
sI112
S''
sI113
S'    # otherwise, make it a string'
p2686
sI114
S'    if not isinstance(data, (str, unicode)):'
p2687
sI115
S'        data = str(data)'
p2688
ssg2619
S'(data=<gluon.html.MENU object>, quote=True)'
p2689
sg2621
S'xmlescape'
p2690
sa(dp2691
g2598
S'/home/marco/proyectos/web2py-trunk/gluon/html.py'
p2692
sg2600
(dp2693
S'self.serialize'
p2694
S'<bound method MENU.serialize of <gluon.html.MENU object>>'
p2695
sS').xml'
p2696
S'undefined'
p2697
sS'self'
p2698
S'<gluon.html.MENU object>'
p2699
sS'self.data'
p2700
S"[(<lazyT 'Home'>, False, '/mvstore/default/index', []), (<lazyT 'This App'>, False, '/admin/default/design/mvstore', [(<lazyT 'Controller'>, False, '/admin/default/edit/mvstore/controllers/default.py'), (<lazyT 'View'>, False, '/admin/default/edit/mvstore/views/default/index.html'), (<lazyT 'Layout'>, False, '/admin/default/edit/mvstore/views/layout.html'), (<lazyT 'Stylesheet'>, False, '/admin/default/edit/mvstore/static/base.css'), (<lazyT 'DB Model'>, False, '/admin/default/edit/mvstore/models/db.py'), (<lazyT 'Menu Model'>, False, '/admin/default/edit/mvstore/models/menu.py'), (<lazyT 'Database'>, False, '/mvstore/appadmin/index'), (<lazyT 'Errors'>, False, '/admin/default/errors/mvstore'), (<lazyT 'About'>, False, '/admin/default/about/mvstore')]), 'ABM', False, None, [(<lazyT 'Add user'>, False, '/mvstore/default/empleados', [])], (<lazyT 'Resources'>, False, None, [(<lazyT 'Documentation'>, False, 'http://www.web2py.com/book', [(<lazyT 'Preface'>, False, 'http://www.web2py.com/book/default/chapter/00'), (<lazyT 'Introduction'>, False, 'http://www.web2py.com/book/default/chapter/01'), (<lazyT 'Python'>, False, 'http://www.web2py.com/book/default/chapter/02'), (<lazyT 'Overview'>, False, 'http://www.web2py.com/book/default/chapter/03'), (<lazyT 'The Core'>, False, 'http://www.web2py.com/book/default/chapter/04'), (<lazyT 'The Views'>, False, 'http://www.web2py.com/book/default/chapter/05'), (<lazyT 'Database'>, False, 'http://www.web2py.com/book/default/chapter/06'), (<lazyT 'Forms and Validators'>, False, 'http://www.web2py.com/book/default/chapter/07'), (<lazyT 'Access Control'>, False, 'http://www.web2py.com/book/default/chapter/08'), (<lazyT 'Services'>, False, 'http://www.web2py.com/book/default/chapter/09'), (<lazyT 'Ajax Recipes'>, False, 'http://www.web2py.com/book/default/chapter/10'), (<lazyT 'Deployment Recipes'>, False, 'http://www.web2py.com/book/default/chapter/11'), (<lazyT 'Other Recipes'>, False, 'http://www.web2py.com/book/default/chapter/12'), (<lazyT 'Buy this book'>, False, 'http://stores.lulu.com/web2py')]), (<lazyT 'Community'>, False, None, [(<lazyT 'Groups'>, False, 'http://www.web2py.com/examples/default/usergroups'), (<lazyT 'Twitter'>, False, 'http://twitter.com/web2py'), (<lazyT 'Live chat'>, False, 'http://mibbit.com/?channel=%23web2py&server=irc.mibbit.net'), (<lazyT 'User Voice'>, False, 'http://web2py.uservoice.com/')]), (<lazyT 'Web2py'>, False, 'http://www.web2py.com', [(<lazyT 'Download'>, False, 'http://www.web2py.com/examples/default/download'), (<lazyT 'Support'>, False, 'http://www.web2py.com/examples/default/support'), (<lazyT 'Quick Examples'>, False, 'http://web2py.com/examples/default/examples'), (<lazyT 'FAQ'>, False, 'http://web2py.com/AlterEgo'), (<lazyT 'Free Applications'>, False, 'http://web2py.com/appliances'), (<lazyT 'Plugins'>, False, 'http://web2py.com/plugins'), (<lazyT 'Recipes'>, False, 'http://web2pyslices.com/'), (<lazyT 'Demo'>, False, 'http://web2py.com/demo_admin'), (<lazyT 'Semantic'>, False, 'http://web2py.com/semantic'), (<lazyT 'Layouts'>, False, 'http://web2py.com/layouts'), (<lazyT 'Videos'>, False, 'http://www.web2py.com/examples/default/videos/')])])]"
p2701
ssg2606
I1927
sg2607
(dp2702
I1922
S"                    li['_class'] = self['li_active']"
p2703
sI1923
S'            ul.append(li)'
p2704
sI1924
S'        return ul'
p2705
sI1925
S''
sI1926
S'    def xml(self):'
p2706
sI1927
S'        return self.serialize(self.data, 0).xml()'
p2707
sI1928
S''
sI1929
S''
sI1930
S'def embed64('
p2708
sI1931
S'    filename = None,'
p2709
ssg2619
S'(self=<gluon.html.MENU object>)'
p2710
sg2621
S'xml'
p2711
sa(dp2712
g2598
S'/home/marco/proyectos/web2py-trunk/gluon/html.py'
p2713
sg2600
(dp2714
S'active'
p2715
S"'B'"
p2716
sS'item'
p2717
g99
sS'link'
p2718
S"'M'"
p2719
sS'name'
p2720
S"'A'"
p2721
ssg2606
I1905
sg2607
(dp2722
I1900
S'        if level == 0:'
p2723
sI1901
S'            ul = UL(**self.attributes)'
p2724
sI1902
S'        else:'
p2725
sI1903
S"            ul = UL(_class=self['ul_class'])"
p2726
sI1904
S'        for item in data:'
p2727
sI1905
S'            (name, active, link) = item[:3]'
p2728
sI1906
S'            if isinstance(link,DIV):'
p2729
sI1907
S'                li = LI(link)'
p2730
sI1908
S"            elif 'no_link_url' in self.attributes and self['no_link_url']==link:"
p2731
sI1909
S'                li = LI(DIV(name))'
p2732
ssg2619
S"(self=<gluon.html.MENU object>, data=[(<lazyT 'Home'>, False, '/mvstore/default/index', []), (<lazyT 'This App'>, False, '/admin/default/design/mvstore', [(<lazyT 'Controller'>, False, '/admin/default/edit/mvstore/controllers/default.py'), (<lazyT 'View'>, False, '/admin/default/edit/mvstore/views/default/index.html'), (<lazyT 'Layout'>, False, '/admin/default/edit/mvstore/views/layout.html'), (<lazyT 'Stylesheet'>, False, '/admin/default/edit/mvstore/static/base.css'), (<lazyT 'DB Model'>, False, '/admin/default/edit/mvstore/models/db.py'), (<lazyT 'Menu Model'>, False, '/admin/default/edit/mvstore/models/menu.py'), (<lazyT 'Database'>, False, '/mvstore/appadmin/index'), (<lazyT 'Errors'>, False, '/admin/default/errors/mvstore'), (<lazyT 'About'>, False, '/admin/default/about/mvstore')]), 'ABM', False, None, [(<lazyT 'Add user'>, False, '/mvstore/default/empleados', [])], (<lazyT 'Resources'>, False, None, [(<lazyT 'Documentation'>, False, 'http://www.web2py.com/book', [(<lazyT 'Preface'>, False, 'http://www.web2py.com/book/default/chapter/00'), (<lazyT 'Introduction'>, False, 'http://www.web2py.com/book/default/chapter/01'), (<lazyT 'Python'>, False, 'http://www.web2py.com/book/default/chapter/02'), (<lazyT 'Overview'>, False, 'http://www.web2py.com/book/default/chapter/03'), (<lazyT 'The Core'>, False, 'http://www.web2py.com/book/default/chapter/04'), (<lazyT 'The Views'>, False, 'http://www.web2py.com/book/default/chapter/05'), (<lazyT 'Database'>, False, 'http://www.web2py.com/book/default/chapter/06'), (<lazyT 'Forms and Validators'>, False, 'http://www.web2py.com/book/default/chapter/07'), (<lazyT 'Access Control'>, False, 'http://www.web2py.com/book/default/chapter/08'), (<lazyT 'Services'>, False, 'http://www.web2py.com/book/default/chapter/09'), (<lazyT 'Ajax Recipes'>, False, 'http://www.web2py.com/book/default/chapter/10'), (<lazyT 'Deployment Recipes'>, False, 'http://www.web2py.com/book/default/chapter/11'), (<lazyT 'Other Recipes'>, False, 'http://www.web2py.com/book/default/chapter/12'), (<lazyT 'Buy this book'>, False, 'http://stores.lulu.com/web2py')]), (<lazyT 'Community'>, False, None, [(<lazyT 'Groups'>, False, 'http://www.web2py.com/examples/default/usergroups'), (<lazyT 'Twitter'>, False, 'http://twitter.com/web2py'), (<lazyT 'Live chat'>, False, 'http://mibbit.com/?channel=%23web2py&server=irc.mibbit.net'), (<lazyT 'User Voice'>, False, 'http://web2py.uservoice.com/')]), (<lazyT 'Web2py'>, False, 'http://www.web2py.com', [(<lazyT 'Download'>, False, 'http://www.web2py.com/examples/default/download'), (<lazyT 'Support'>, False, 'http://www.web2py.com/examples/default/support'), (<lazyT 'Quick Examples'>, False, 'http://web2py.com/examples/default/examples'), (<lazyT 'FAQ'>, False, 'http://web2py.com/AlterEgo'), (<lazyT 'Free Applications'>, False, 'http://web2py.com/appliances'), (<lazyT 'Plugins'>, False, 'http://web2py.com/plugins'), (<lazyT 'Recipes'>, False, 'http://web2pyslices.com/'), (<lazyT 'Demo'>, False, 'http://web2py.com/demo_admin'), (<lazyT 'Semantic'>, False, 'http://web2py.com/semantic'), (<lazyT 'Layouts'>, False, 'http://web2py.com/layouts'), (<lazyT 'Videos'>, False, 'http://www.web2py.com/examples/default/videos/')])])], level=0)"
p2733
sg2621
S'serialize'
p2734
sasS'pyver'
p2735
S'Python 2.6.6: /usr/bin/python'
p2736
sS'session'
p2737
g56
(g57
g58
NtRp2738
(dp2739
g61
(dp2740
sg63
(lp2741
g56
(g65
g58
NtRp2742
(dp2743
g61
(dp2744
g69
I5
ssg70
Nsg63
(lp2745
sbasbsS'etype'
p2746
S"<type 'exceptions.TypeError'>"
p2747
sS'date'
p2748
S'Sun Jun 19 00:03:10 2011'
p2749
sS'response'
p2750
g56
(g57
g58
NtRp2751
(dp2752
g61
(dp2753
sg63
(lp2754
g56
(g65
g58
NtRp2755
(dp2756
g61
(dp2757
g69
I5
ssg70
Nsg63
(lp2758
g56
(g72
g58
NtRp2759
(dp2760
g61
(dp2761
sg70
g2755
sg63
(lp2762
g56
(g77
g58
NtRp2763
(dp2764
g61
(dp2765
g81
g82
ssg70
g2759
sg63
(lp2766
g154
asbag56
(g77
g58
NtRp2767
(dp2768
g61
(dp2769
g88
g89
ssg70
g2759
sg63
(lp2770
S':'
asbag56
(g77
g58
NtRp2771
(dp2772
g61
(dp2773
sg70
g2759
sg63
(lp2774
g56
(g57
g58
NtRp2775
(dp2776
g61
(dp2777
g69
I5
ssg70
g2771
sg63
(lp2778
S'<cStringIO.StringO object at 0x2c9cc00>'
p2779
asbasbasbag56
(g72
g58
NtRp2780
(dp2781
g61
(dp2782
sg70
g2755
sg63
(lp2783
g56
(g77
g58
NtRp2784
(dp2785
g61
(dp2786
g81
g82
ssg70
g2780
sg63
(lp2787
g220
asbag56
(g77
g58
NtRp2788
(dp2789
g61
(dp2790
g88
g89
ssg70
g2780
sg63
(lp2791
S':'
asbag56
(g77
g58
NtRp2792
(dp2793
g61
(dp2794
sg70
g2780
sg63
(lp2795
g56
(g57
g58
NtRp2796
(dp2797
g61
(dp2798
g69
I5
ssg70
g2792
sg63
(lp2799
g56
(g65
g58
NtRp2800
(dp2801
g61
(dp2802
g69
I4
ssg70
Nsg63
(lp2803
g56
(g72
g58
NtRp2804
(dp2805
g61
(dp2806
sg70
g2800
sg63
(lp2807
g56
(g77
g58
NtRp2808
(dp2809
g61
(dp2810
g81
g82
ssg70
g2804
sg63
(lp2811
S'session_id_mvstore'
p2812
asbag56
(g77
g58
NtRp2813
(dp2814
g61
(dp2815
g88
g89
ssg70
g2804
sg63
(lp2816
S':'
asbag56
(g77
g58
NtRp2817
(dp2818
g61
(dp2819
sg70
g2804
sg63
(lp2820
g56
(g57
g58
NtRp2821
(dp2822
g61
(dp2823
g69
I4
ssg70
g2817
sg63
(lp2824
g56
(g65
g58
NtRp2825
(dp2826
g61
(dp2827
g69
I3
ssg70
Nsg63
(lp2828
g56
(g72
g58
NtRp2829
(dp2830
g61
(dp2831
sg70
g2825
sg63
(lp2832
g56
(g77
g58
NtRp2833
(dp2834
g61
(dp2835
g81
g82
ssg70
g2829
sg63
(lp2836
g270
asbag56
(g77
g58
NtRp2837
(dp2838
g61
(dp2839
g88
g89
ssg70
g2829
sg63
(lp2840
S':'
asbag56
(g77
g58
NtRp2841
(dp2842
g61
(dp2843
sg70
g2829
sg63
(lp2844
g56
(g57
g58
NtRp2845
(dp2846
g61
(dp2847
g69
I3
ssg70
g2841
sg63
(lp2848
S''
asbasbasbag56
(g72
g58
NtRp2849
(dp2850
g61
(dp2851
sg70
g2825
sg63
(lp2852
g56
(g77
g58
NtRp2853
(dp2854
g61
(dp2855
g81
g82
ssg70
g2849
sg63
(lp2856
g291
asbag56
(g77
g58
NtRp2857
(dp2858
g61
(dp2859
g88
g89
ssg70
g2849
sg63
(lp2860
S':'
asbag56
(g77
g58
NtRp2861
(dp2862
g61
(dp2863
sg70
g2849
sg63
(lp2864
g56
(g57
g58
NtRp2865
(dp2866
g61
(dp2867
g69
I3
ssg70
g2861
sg63
(lp2868
S''
asbasbasbag56
(g72
g58
NtRp2869
(dp2870
g61
(dp2871
sg70
g2825
sg63
(lp2872
g56
(g77
g58
NtRp2873
(dp2874
g61
(dp2875
g81
g82
ssg70
g2869
sg63
(lp2876
g312
asbag56
(g77
g58
NtRp2877
(dp2878
g61
(dp2879
g88
g89
ssg70
g2869
sg63
(lp2880
S':'
asbag56
(g77
g58
NtRp2881
(dp2882
g61
(dp2883
sg70
g2869
sg63
(lp2884
g56
(g57
g58
NtRp2885
(dp2886
g61
(dp2887
g69
I3
ssg70
g2881
sg63
(lp2888
S''
asbasbasbag56
(g72
g58
NtRp2889
(dp2890
g61
(dp2891
sg70
g2825
sg63
(lp2892
g56
(g77
g58
NtRp2893
(dp2894
g61
(dp2895
g81
g82
ssg70
g2889
sg63
(lp2896
g333
asbag56
(g77
g58
NtRp2897
(dp2898
g61
(dp2899
g88
g89
ssg70
g2889
sg63
(lp2900
S':'
asbag56
(g77
g58
NtRp2901
(dp2902
g61
(dp2903
sg70
g2889
sg63
(lp2904
g56
(g57
g58
NtRp2905
(dp2906
g61
(dp2907
g69
I3
ssg70
g2901
sg63
(lp2908
S''
asbasbasbag56
(g72
g58
NtRp2909
(dp2910
g61
(dp2911
sg70
g2825
sg63
(lp2912
g56
(g77
g58
NtRp2913
(dp2914
g61
(dp2915
g81
g82
ssg70
g2909
sg63
(lp2916
g354
asbag56
(g77
g58
NtRp2917
(dp2918
g61
(dp2919
g88
g89
ssg70
g2909
sg63
(lp2920
S':'
asbag56
(g77
g58
NtRp2921
(dp2922
g61
(dp2923
sg70
g2909
sg63
(lp2924
g56
(g57
g58
NtRp2925
(dp2926
g61
(dp2927
g69
I3
ssg70
g2921
sg63
(lp2928
S''
asbasbasbag56
(g72
g58
NtRp2929
(dp2930
g61
(dp2931
sg70
g2825
sg63
(lp2932
g56
(g77
g58
NtRp2933
(dp2934
g61
(dp2935
g81
g82
ssg70
g2929
sg63
(lp2936
g375
asbag56
(g77
g58
NtRp2937
(dp2938
g61
(dp2939
g88
g89
ssg70
g2929
sg63
(lp2940
S':'
asbag56
(g77
g58
NtRp2941
(dp2942
g61
(dp2943
sg70
g2929
sg63
(lp2944
g56
(g57
g58
NtRp2945
(dp2946
g61
(dp2947
g69
I3
ssg70
g2941
sg63
(lp2948
S'/'
asbasbasbag56
(g72
g58
NtRp2949
(dp2950
g61
(dp2951
sg70
g2825
sg63
(lp2952
g56
(g77
g58
NtRp2953
(dp2954
g61
(dp2955
g81
g82
ssg70
g2949
sg63
(lp2956
g396
asbag56
(g77
g58
NtRp2957
(dp2958
g61
(dp2959
g88
g89
ssg70
g2949
sg63
(lp2960
S':'
asbag56
(g77
g58
NtRp2961
(dp2962
g61
(dp2963
sg70
g2949
sg63
(lp2964
g56
(g57
g58
NtRp2965
(dp2966
g61
(dp2967
g69
I3
ssg70
g2961
sg63
(lp2968
S''
asbasbasbag56
(g72
g58
NtRp2969
(dp2970
g61
(dp2971
sg70
g2825
sg63
(lp2972
g56
(g77
g58
NtRp2973
(dp2974
g61
(dp2975
g81
g82
ssg70
g2969
sg63
(lp2976
g417
asbag56
(g77
g58
NtRp2977
(dp2978
g61
(dp2979
g88
g89
ssg70
g2969
sg63
(lp2980
S':'
asbag56
(g77
g58
NtRp2981
(dp2982
g61
(dp2983
sg70
g2969
sg63
(lp2984
g56
(g57
g58
NtRp2985
(dp2986
g61
(dp2987
g69
I3
ssg70
g2981
sg63
(lp2988
S''
asbasbasbasbasbasbasbasbasbasbasbag56
(g72
g58
NtRp2989
(dp2990
g61
(dp2991
sg70
g2755
sg63
(lp2992
g56
(g77
g58
NtRp2993
(dp2994
g61
(dp2995
g81
g82
ssg70
g2989
sg63
(lp2996
S'files'
p2997
asbag56
(g77
g58
NtRp2998
(dp2999
g61
(dp3000
g88
g89
ssg70
g2989
sg63
(lp3001
S':'
asbag56
(g77
g58
NtRp3002
(dp3003
g61
(dp3004
sg70
g2989
sg63
(lp3005
g56
(g57
g58
NtRp3006
(dp3007
g61
(dp3008
g69
I5
ssg70
g3002
sg63
(lp3009
g56
(g65
g58
NtRp3010
(dp3011
g61
(dp3012
g69
I4
ssg70
Nsg63
(lp3013
g56
(g72
g58
NtRp3014
(dp3015
g61
(dp3016
sg70
g3010
sg63
(lp3017
g56
(g77
g58
NtRp3018
(dp3019
g61
(dp3020
sg70
g3014
sg63
(lp3021
g56
(g57
g58
NtRp3022
(dp3023
g61
(dp3024
g69
I4
ssg70
g3018
sg63
(lp3025
S'/mvstore/static/js/jquery.js'
p3026
asbasbasbag56
(g72
g58
NtRp3027
(dp3028
g61
(dp3029
sg70
g3010
sg63
(lp3030
g56
(g77
g58
NtRp3031
(dp3032
g61
(dp3033
sg70
g3027
sg63
(lp3034
g56
(g57
g58
NtRp3035
(dp3036
g61
(dp3037
g69
I4
ssg70
g3031
sg63
(lp3038
S'/mvstore/static/css/calendar.css'
p3039
asbasbasbag56
(g72
g58
NtRp3040
(dp3041
g61
(dp3042
sg70
g3010
sg63
(lp3043
g56
(g77
g58
NtRp3044
(dp3045
g61
(dp3046
sg70
g3040
sg63
(lp3047
g56
(g57
g58
NtRp3048
(dp3049
g61
(dp3050
g69
I4
ssg70
g3044
sg63
(lp3051
S'/mvstore/static/js/calendar.js'
p3052
asbasbasbag56
(g72
g58
NtRp3053
(dp3054
g61
(dp3055
sg70
g3010
sg63
(lp3056
g56
(g77
g58
NtRp3057
(dp3058
g61
(dp3059
sg70
g3053
sg63
(lp3060
g56
(g57
g58
NtRp3061
(dp3062
g61
(dp3063
g69
I4
ssg70
g3057
sg63
(lp3064
S'/mvstore/static/css/base.css'
p3065
asbasbasbag56
(g72
g58
NtRp3066
(dp3067
g61
(dp3068
sg70
g3010
sg63
(lp3069
g56
(g77
g58
NtRp3070
(dp3071
g61
(dp3072
sg70
g3066
sg63
(lp3073
g56
(g57
g58
NtRp3074
(dp3075
g61
(dp3076
g69
I4
ssg70
g3070
sg63
(lp3077
S'/mvstore/static/css/superfish.css'
p3078
asbasbasbag56
(g72
g58
NtRp3079
(dp3080
g61
(dp3081
sg70
g3010
sg63
(lp3082
g56
(g77
g58
NtRp3083
(dp3084
g61
(dp3085
sg70
g3079
sg63
(lp3086
g56
(g57
g58
NtRp3087
(dp3088
g61
(dp3089
g69
I4
ssg70
g3083
sg63
(lp3090
S'/mvstore/static/js/superfish.js'
p3091
asbasbasbasbasbasbasbag56
(g72
g58
NtRp3092
(dp3093
g61
(dp3094
sg70
g2755
sg63
(lp3095
g56
(g77
g58
NtRp3096
(dp3097
g61
(dp3098
g81
g82
ssg70
g3092
sg63
(lp3099
S'flash'
p3100
asbag56
(g77
g58
NtRp3101
(dp3102
g61
(dp3103
g88
g89
ssg70
g3092
sg63
(lp3104
S':'
asbag56
(g77
g58
NtRp3105
(dp3106
g61
(dp3107
sg70
g3092
sg63
(lp3108
g56
(g57
g58
NtRp3109
(dp3110
g61
(dp3111
g69
I5
ssg70
g3105
sg63
(lp3112
S''
asbasbasbag56
(g72
g58
NtRp3113
(dp3114
g61
(dp3115
sg70
g2755
sg63
(lp3116
g56
(g77
g58
NtRp3117
(dp3118
g61
(dp3119
g81
g82
ssg70
g3113
sg63
(lp3120
S'headers'
p3121
asbag56
(g77
g58
NtRp3122
(dp3123
g61
(dp3124
g88
g89
ssg70
g3113
sg63
(lp3125
S':'
asbag56
(g77
g58
NtRp3126
(dp3127
g61
(dp3128
sg70
g3113
sg63
(lp3129
g56
(g57
g58
NtRp3130
(dp3131
g61
(dp3132
g69
I5
ssg70
g3126
sg63
(lp3133
g56
(g65
g58
NtRp3134
(dp3135
g61
(dp3136
g69
I4
ssg70
Nsg63
(lp3137
g56
(g72
g58
NtRp3138
(dp3139
g61
(dp3140
sg70
g3134
sg63
(lp3141
g56
(g77
g58
NtRp3142
(dp3143
g61
(dp3144
g81
g82
ssg70
g3138
sg63
(lp3145
S'Cache-Control'
p3146
asbag56
(g77
g58
NtRp3147
(dp3148
g61
(dp3149
g88
g89
ssg70
g3138
sg63
(lp3150
S':'
asbag56
(g77
g58
NtRp3151
(dp3152
g61
(dp3153
sg70
g3138
sg63
(lp3154
g56
(g57
g58
NtRp3155
(dp3156
g61
(dp3157
g69
I4
ssg70
g3151
sg63
(lp3158
S'no-store, no-cache, must-revalidate, post-check=0, pre-check=0'
p3159
asbasbasbag56
(g72
g58
NtRp3160
(dp3161
g61
(dp3162
sg70
g3134
sg63
(lp3163
g56
(g77
g58
NtRp3164
(dp3165
g61
(dp3166
g81
g82
ssg70
g3160
sg63
(lp3167
S'Content-Type'
p3168
asbag56
(g77
g58
NtRp3169
(dp3170
g61
(dp3171
g88
g89
ssg70
g3160
sg63
(lp3172
S':'
asbag56
(g77
g58
NtRp3173
(dp3174
g61
(dp3175
sg70
g3160
sg63
(lp3176
g56
(g57
g58
NtRp3177
(dp3178
g61
(dp3179
g69
I4
ssg70
g3173
sg63
(lp3180
S'text/html; charset=utf-8'
p3181
asbasbasbag56
(g72
g58
NtRp3182
(dp3183
g61
(dp3184
sg70
g3134
sg63
(lp3185
g56
(g77
g58
NtRp3186
(dp3187
g61
(dp3188
g81
g82
ssg70
g3182
sg63
(lp3189
S'Expires'
p3190
asbag56
(g77
g58
NtRp3191
(dp3192
g61
(dp3193
g88
g89
ssg70
g3182
sg63
(lp3194
S':'
asbag56
(g77
g58
NtRp3195
(dp3196
g61
(dp3197
sg70
g3182
sg63
(lp3198
g56
(g57
g58
NtRp3199
(dp3200
g61
(dp3201
g69
I4
ssg70
g3195
sg63
(lp3202
S'Sun, 19 Jun 2011 03:03:10 GMT'
p3203
asbasbasbag56
(g72
g58
NtRp3204
(dp3205
g61
(dp3206
sg70
g3134
sg63
(lp3207
g56
(g77
g58
NtRp3208
(dp3209
g61
(dp3210
g81
g82
ssg70
g3204
sg63
(lp3211
S'Pragma'
p3212
asbag56
(g77
g58
NtRp3213
(dp3214
g61
(dp3215
g88
g89
ssg70
g3204
sg63
(lp3216
S':'
asbag56
(g77
g58
NtRp3217
(dp3218
g61
(dp3219
sg70
g3204
sg63
(lp3220
g56
(g57
g58
NtRp3221
(dp3222
g61
(dp3223
g69
I4
ssg70
g3217
sg63
(lp3224
S'no-cache'
p3225
asbasbasbag56
(g72
g58
NtRp3226
(dp3227
g61
(dp3228
sg70
g3134
sg63
(lp3229
g56
(g77
g58
NtRp3230
(dp3231
g61
(dp3232
g81
g82
ssg70
g3226
sg63
(lp3233
S'X-Powered-By'
p3234
asbag56
(g77
g58
NtRp3235
(dp3236
g61
(dp3237
g88
g89
ssg70
g3226
sg63
(lp3238
S':'
asbag56
(g77
g58
NtRp3239
(dp3240
g61
(dp3241
sg70
g3226
sg63
(lp3242
g56
(g57
g58
NtRp3243
(dp3244
g61
(dp3245
g69
I4
ssg70
g3239
sg63
(lp3246
S'web2py'
p3247
asbasbasbasbasbasbasbag56
(g72
g58
NtRp3248
(dp3249
g61
(dp3250
sg70
g2755
sg63
(lp3251
g56
(g77
g58
NtRp3252
(dp3253
g61
(dp3254
g81
g82
ssg70
g3248
sg63
(lp3255
S'menu'
p3256
asbag56
(g77
g58
NtRp3257
(dp3258
g61
(dp3259
g88
g89
ssg70
g3248
sg63
(lp3260
S':'
asbag56
(g77
g58
NtRp3261
(dp3262
g61
(dp3263
sg70
g3248
sg63
(lp3264
g56
(g57
g58
NtRp3265
(dp3266
g61
(dp3267
g69
I5
ssg70
g3261
sg63
(lp3268
g56
(g65
g58
NtRp3269
(dp3270
g61
(dp3271
g69
I4
ssg70
Nsg63
(lp3272
g56
(g72
g58
NtRp3273
(dp3274
g61
(dp3275
sg70
g3269
sg63
(lp3276
g56
(g77
g58
NtRp3277
(dp3278
g61
(dp3279
sg70
g3273
sg63
(lp3280
g56
(g57
g58
NtRp3281
(dp3282
g61
(dp3283
g69
I4
ssg70
g3277
sg63
(lp3284
g56
(g65
g58
NtRp3285
(dp3286
g61
(dp3287
g69
I3
ssg70
Nsg63
(lp3288
g56
(g72
g58
NtRp3289
(dp3290
g61
(dp3291
sg70
g3285
sg63
(lp3292
g56
(g77
g58
NtRp3293
(dp3294
g61
(dp3295
sg70
g3289
sg63
(lp3296
g56
(g57
g58
NtRp3297
(dp3298
g61
(dp3299
g69
I3
ssg70
g3293
sg63
(lp3300
cgluon.languages
lazyT_unpickle
p3301
(S's\x04\x00\x00\x00Home'
tRp3302
asbasbasbag56
(g72
g58
NtRp3303
(dp3304
g61
(dp3305
sg70
g3285
sg63
(lp3306
g56
(g77
g58
NtRp3307
(dp3308
g61
(dp3309
sg70
g3303
sg63
(lp3310
g56
(g57
g58
NtRp3311
(dp3312
g61
(dp3313
g69
I3
ssg70
g3307
sg63
(lp3314
g99
asbasbasbag56
(g72
g58
NtRp3315
(dp3316
g61
(dp3317
sg70
g3285
sg63
(lp3318
g56
(g77
g58
NtRp3319
(dp3320
g61
(dp3321
sg70
g3315
sg63
(lp3322
g56
(g57
g58
NtRp3323
(dp3324
g61
(dp3325
g69
I3
ssg70
g3319
sg63
(lp3326
S'/mvstore/default/index'
p3327
asbasbasbag56
(g72
g58
NtRp3328
(dp3329
g61
(dp3330
sg70
g3285
sg63
(lp3331
g56
(g77
g58
NtRp3332
(dp3333
g61
(dp3334
sg70
g3328
sg63
(lp3335
g56
(g57
g58
NtRp3336
(dp3337
g61
(dp3338
g69
I3
ssg70
g3332
sg63
(lp3339
g56
(g65
g58
NtRp3340
(dp3341
g61
(dp3342
g69
I2
ssg70
Nsg63
(lp3343
sbasbasbasbasbasbasbasbag56
(g72
g58
NtRp3344
(dp3345
g61
(dp3346
sg70
g3269
sg63
(lp3347
g56
(g77
g58
NtRp3348
(dp3349
g61
(dp3350
sg70
g3344
sg63
(lp3351
g56
(g57
g58
NtRp3352
(dp3353
g61
(dp3354
g69
I4
ssg70
g3348
sg63
(lp3355
g56
(g65
g58
NtRp3356
(dp3357
g61
(dp3358
g69
I3
ssg70
Nsg63
(lp3359
g56
(g72
g58
NtRp3360
(dp3361
g61
(dp3362
sg70
g3356
sg63
(lp3363
g56
(g77
g58
NtRp3364
(dp3365
g61
(dp3366
sg70
g3360
sg63
(lp3367
g56
(g57
g58
NtRp3368
(dp3369
g61
(dp3370
g69
I3
ssg70
g3364
sg63
(lp3371
g3301
(S's\x08\x00\x00\x00This App'
tRp3372
asbasbasbag56
(g72
g58
NtRp3373
(dp3374
g61
(dp3375
sg70
g3356
sg63
(lp3376
g56
(g77
g58
NtRp3377
(dp3378
g61
(dp3379
sg70
g3373
sg63
(lp3380
g56
(g57
g58
NtRp3381
(dp3382
g61
(dp3383
g69
I3
ssg70
g3377
sg63
(lp3384
g99
asbasbasbag56
(g72
g58
NtRp3385
(dp3386
g61
(dp3387
sg70
g3356
sg63
(lp3388
g56
(g77
g58
NtRp3389
(dp3390
g61
(dp3391
sg70
g3385
sg63
(lp3392
g56
(g57
g58
NtRp3393
(dp3394
g61
(dp3395
g69
I3
ssg70
g3389
sg63
(lp3396
S'/admin/default/design/mvstore'
p3397
asbasbasbag56
(g72
g58
NtRp3398
(dp3399
g61
(dp3400
sg70
g3356
sg63
(lp3401
g56
(g77
g58
NtRp3402
(dp3403
g61
(dp3404
sg70
g3398
sg63
(lp3405
g56
(g57
g58
NtRp3406
(dp3407
g61
(dp3408
g69
I3
ssg70
g3402
sg63
(lp3409
g56
(g65
g58
NtRp3410
(dp3411
g61
(dp3412
g69
I2
ssg70
Nsg63
(lp3413
g56
(g72
g58
NtRp3414
(dp3415
g61
(dp3416
sg70
g3410
sg63
(lp3417
g56
(g77
g58
NtRp3418
(dp3419
g61
(dp3420
sg70
g3414
sg63
(lp3421
g56
(g57
g58
NtRp3422
(dp3423
g61
(dp3424
g69
I2
ssg70
g3418
sg63
(lp3425
g56
(g65
g58
NtRp3426
(dp3427
g61
(dp3428
g69
I1
ssg70
Nsg63
(lp3429
g56
(g72
g58
NtRp3430
(dp3431
g61
(dp3432
sg70
g3426
sg63
(lp3433
g56
(g77
g58
NtRp3434
(dp3435
g61
(dp3436
sg70
g3430
sg63
(lp3437
g56
(g57
g58
NtRp3438
(dp3439
g61
(dp3440
g69
I1
ssg70
g3434
sg63
(lp3441
g3301
(S's\n\x00\x00\x00Controller'
tRp3442
asbasbasbag56
(g72
g58
NtRp3443
(dp3444
g61
(dp3445
sg70
g3426
sg63
(lp3446
g56
(g77
g58
NtRp3447
(dp3448
g61
(dp3449
sg70
g3443
sg63
(lp3450
g56
(g57
g58
NtRp3451
(dp3452
g61
(dp3453
g69
I1
ssg70
g3447
sg63
(lp3454
I00
asbasbasbag56
(g72
g58
NtRp3455
(dp3456
g61
(dp3457
sg70
g3426
sg63
(lp3458
g56
(g77
g58
NtRp3459
(dp3460
g61
(dp3461
sg70
g3455
sg63
(lp3462
g56
(g57
g58
NtRp3463
(dp3464
g61
(dp3465
g69
I1
ssg70
g3459
sg63
(lp3466
S'/admin/default/edit/mvstore/controllers/default.py'
p3467
asbasbasbasbasbasbasbag56
(g72
g58
NtRp3468
(dp3469
g61
(dp3470
sg70
g3410
sg63
(lp3471
g56
(g77
g58
NtRp3472
(dp3473
g61
(dp3474
sg70
g3468
sg63
(lp3475
g56
(g57
g58
NtRp3476
(dp3477
g61
(dp3478
g69
I2
ssg70
g3472
sg63
(lp3479
g56
(g65
g58
NtRp3480
(dp3481
g61
(dp3482
g69
I1
ssg70
Nsg63
(lp3483
g56
(g72
g58
NtRp3484
(dp3485
g61
(dp3486
sg70
g3480
sg63
(lp3487
g56
(g77
g58
NtRp3488
(dp3489
g61
(dp3490
sg70
g3484
sg63
(lp3491
g56
(g57
g58
NtRp3492
(dp3493
g61
(dp3494
g69
I1
ssg70
g3488
sg63
(lp3495
g3301
(S's\x04\x00\x00\x00View'
tRp3496
asbasbasbag56
(g72
g58
NtRp3497
(dp3498
g61
(dp3499
sg70
g3480
sg63
(lp3500
g56
(g77
g58
NtRp3501
(dp3502
g61
(dp3503
sg70
g3497
sg63
(lp3504
g56
(g57
g58
NtRp3505
(dp3506
g61
(dp3507
g69
I1
ssg70
g3501
sg63
(lp3508
I00
asbasbasbag56
(g72
g58
NtRp3509
(dp3510
g61
(dp3511
sg70
g3480
sg63
(lp3512
g56
(g77
g58
NtRp3513
(dp3514
g61
(dp3515
sg70
g3509
sg63
(lp3516
g56
(g57
g58
NtRp3517
(dp3518
g61
(dp3519
g69
I1
ssg70
g3513
sg63
(lp3520
S'/admin/default/edit/mvstore/views/default/index.html'
p3521
asbasbasbasbasbasbasbag56
(g72
g58
NtRp3522
(dp3523
g61
(dp3524
sg70
g3410
sg63
(lp3525
g56
(g77
g58
NtRp3526
(dp3527
g61
(dp3528
sg70
g3522
sg63
(lp3529
g56
(g57
g58
NtRp3530
(dp3531
g61
(dp3532
g69
I2
ssg70
g3526
sg63
(lp3533
g56
(g65
g58
NtRp3534
(dp3535
g61
(dp3536
g69
I1
ssg70
Nsg63
(lp3537
g56
(g72
g58
NtRp3538
(dp3539
g61
(dp3540
sg70
g3534
sg63
(lp3541
g56
(g77
g58
NtRp3542
(dp3543
g61
(dp3544
sg70
g3538
sg63
(lp3545
g56
(g57
g58
NtRp3546
(dp3547
g61
(dp3548
g69
I1
ssg70
g3542
sg63
(lp3549
g3301
(S's\x06\x00\x00\x00Layout'
tRp3550
asbasbasbag56
(g72
g58
NtRp3551
(dp3552
g61
(dp3553
sg70
g3534
sg63
(lp3554
g56
(g77
g58
NtRp3555
(dp3556
g61
(dp3557
sg70
g3551
sg63
(lp3558
g56
(g57
g58
NtRp3559
(dp3560
g61
(dp3561
g69
I1
ssg70
g3555
sg63
(lp3562
I00
asbasbasbag56
(g72
g58
NtRp3563
(dp3564
g61
(dp3565
sg70
g3534
sg63
(lp3566
g56
(g77
g58
NtRp3567
(dp3568
g61
(dp3569
sg70
g3563
sg63
(lp3570
g56
(g57
g58
NtRp3571
(dp3572
g61
(dp3573
g69
I1
ssg70
g3567
sg63
(lp3574
S'/admin/default/edit/mvstore/views/layout.html'
p3575
asbasbasbasbasbasbasbag56
(g72
g58
NtRp3576
(dp3577
g61
(dp3578
sg70
g3410
sg63
(lp3579
g56
(g77
g58
NtRp3580
(dp3581
g61
(dp3582
sg70
g3576
sg63
(lp3583
g56
(g57
g58
NtRp3584
(dp3585
g61
(dp3586
g69
I2
ssg70
g3580
sg63
(lp3587
g56
(g65
g58
NtRp3588
(dp3589
g61
(dp3590
g69
I1
ssg70
Nsg63
(lp3591
g56
(g72
g58
NtRp3592
(dp3593
g61
(dp3594
sg70
g3588
sg63
(lp3595
g56
(g77
g58
NtRp3596
(dp3597
g61
(dp3598
sg70
g3592
sg63
(lp3599
g56
(g57
g58
NtRp3600
(dp3601
g61
(dp3602
g69
I1
ssg70
g3596
sg63
(lp3603
g3301
(S's\n\x00\x00\x00Stylesheet'
tRp3604
asbasbasbag56
(g72
g58
NtRp3605
(dp3606
g61
(dp3607
sg70
g3588
sg63
(lp3608
g56
(g77
g58
NtRp3609
(dp3610
g61
(dp3611
sg70
g3605
sg63
(lp3612
g56
(g57
g58
NtRp3613
(dp3614
g61
(dp3615
g69
I1
ssg70
g3609
sg63
(lp3616
I00
asbasbasbag56
(g72
g58
NtRp3617
(dp3618
g61
(dp3619
sg70
g3588
sg63
(lp3620
g56
(g77
g58
NtRp3621
(dp3622
g61
(dp3623
sg70
g3617
sg63
(lp3624
g56
(g57
g58
NtRp3625
(dp3626
g61
(dp3627
g69
I1
ssg70
g3621
sg63
(lp3628
S'/admin/default/edit/mvstore/static/base.css'
p3629
asbasbasbasbasbasbasbag56
(g72
g58
NtRp3630
(dp3631
g61
(dp3632
sg70
g3410
sg63
(lp3633
g56
(g77
g58
NtRp3634
(dp3635
g61
(dp3636
sg70
g3630
sg63
(lp3637
g56
(g57
g58
NtRp3638
(dp3639
g61
(dp3640
g69
I2
ssg70
g3634
sg63
(lp3641
g56
(g65
g58
NtRp3642
(dp3643
g61
(dp3644
g69
I1
ssg70
Nsg63
(lp3645
g56
(g72
g58
NtRp3646
(dp3647
g61
(dp3648
sg70
g3642
sg63
(lp3649
g56
(g77
g58
NtRp3650
(dp3651
g61
(dp3652
sg70
g3646
sg63
(lp3653
g56
(g57
g58
NtRp3654
(dp3655
g61
(dp3656
g69
I1
ssg70
g3650
sg63
(lp3657
g3301
(S's\x08\x00\x00\x00DB Model'
tRp3658
asbasbasbag56
(g72
g58
NtRp3659
(dp3660
g61
(dp3661
sg70
g3642
sg63
(lp3662
g56
(g77
g58
NtRp3663
(dp3664
g61
(dp3665
sg70
g3659
sg63
(lp3666
g56
(g57
g58
NtRp3667
(dp3668
g61
(dp3669
g69
I1
ssg70
g3663
sg63
(lp3670
I00
asbasbasbag56
(g72
g58
NtRp3671
(dp3672
g61
(dp3673
sg70
g3642
sg63
(lp3674
g56
(g77
g58
NtRp3675
(dp3676
g61
(dp3677
sg70
g3671
sg63
(lp3678
g56
(g57
g58
NtRp3679
(dp3680
g61
(dp3681
g69
I1
ssg70
g3675
sg63
(lp3682
S'/admin/default/edit/mvstore/models/db.py'
p3683
asbasbasbasbasbasbasbag56
(g72
g58
NtRp3684
(dp3685
g61
(dp3686
sg70
g3410
sg63
(lp3687
g56
(g77
g58
NtRp3688
(dp3689
g61
(dp3690
sg70
g3684
sg63
(lp3691
g56
(g57
g58
NtRp3692
(dp3693
g61
(dp3694
g69
I2
ssg70
g3688
sg63
(lp3695
g56
(g65
g58
NtRp3696
(dp3697
g61
(dp3698
g69
I1
ssg70
Nsg63
(lp3699
g56
(g72
g58
NtRp3700
(dp3701
g61
(dp3702
sg70
g3696
sg63
(lp3703
g56
(g77
g58
NtRp3704
(dp3705
g61
(dp3706
sg70
g3700
sg63
(lp3707
g56
(g57
g58
NtRp3708
(dp3709
g61
(dp3710
g69
I1
ssg70
g3704
sg63
(lp3711
g3301
(S's\n\x00\x00\x00Menu Model'
tRp3712
asbasbasbag56
(g72
g58
NtRp3713
(dp3714
g61
(dp3715
sg70
g3696
sg63
(lp3716
g56
(g77
g58
NtRp3717
(dp3718
g61
(dp3719
sg70
g3713
sg63
(lp3720
g56
(g57
g58
NtRp3721
(dp3722
g61
(dp3723
g69
I1
ssg70
g3717
sg63
(lp3724
I00
asbasbasbag56
(g72
g58
NtRp3725
(dp3726
g61
(dp3727
sg70
g3696
sg63
(lp3728
g56
(g77
g58
NtRp3729
(dp3730
g61
(dp3731
sg70
g3725
sg63
(lp3732
g56
(g57
g58
NtRp3733
(dp3734
g61
(dp3735
g69
I1
ssg70
g3729
sg63
(lp3736
S'/admin/default/edit/mvstore/models/menu.py'
p3737
asbasbasbasbasbasbasbag56
(g72
g58
NtRp3738
(dp3739
g61
(dp3740
sg70
g3410
sg63
(lp3741
g56
(g77
g58
NtRp3742
(dp3743
g61
(dp3744
sg70
g3738
sg63
(lp3745
g56
(g57
g58
NtRp3746
(dp3747
g61
(dp3748
g69
I2
ssg70
g3742
sg63
(lp3749
g56
(g65
g58
NtRp3750
(dp3751
g61
(dp3752
g69
I1
ssg70
Nsg63
(lp3753
g56
(g72
g58
NtRp3754
(dp3755
g61
(dp3756
sg70
g3750
sg63
(lp3757
g56
(g77
g58
NtRp3758
(dp3759
g61
(dp3760
sg70
g3754
sg63
(lp3761
g56
(g57
g58
NtRp3762
(dp3763
g61
(dp3764
g69
I1
ssg70
g3758
sg63
(lp3765
g3301
(S's\x08\x00\x00\x00Database'
tRp3766
asbasbasbag56
(g72
g58
NtRp3767
(dp3768
g61
(dp3769
sg70
g3750
sg63
(lp3770
g56
(g77
g58
NtRp3771
(dp3772
g61
(dp3773
sg70
g3767
sg63
(lp3774
g56
(g57
g58
NtRp3775
(dp3776
g61
(dp3777
g69
I1
ssg70
g3771
sg63
(lp3778
I00
asbasbasbag56
(g72
g58
NtRp3779
(dp3780
g61
(dp3781
sg70
g3750
sg63
(lp3782
g56
(g77
g58
NtRp3783
(dp3784
g61
(dp3785
sg70
g3779
sg63
(lp3786
g56
(g57
g58
NtRp3787
(dp3788
g61
(dp3789
g69
I1
ssg70
g3783
sg63
(lp3790
S'/mvstore/appadmin/index'
p3791
asbasbasbasbasbasbasbag56
(g72
g58
NtRp3792
(dp3793
g61
(dp3794
sg70
g3410
sg63
(lp3795
g56
(g77
g58
NtRp3796
(dp3797
g61
(dp3798
sg70
g3792
sg63
(lp3799
g56
(g57
g58
NtRp3800
(dp3801
g61
(dp3802
g69
I2
ssg70
g3796
sg63
(lp3803
g56
(g65
g58
NtRp3804
(dp3805
g61
(dp3806
g69
I1
ssg70
Nsg63
(lp3807
g56
(g72
g58
NtRp3808
(dp3809
g61
(dp3810
sg70
g3804
sg63
(lp3811
g56
(g77
g58
NtRp3812
(dp3813
g61
(dp3814
sg70
g3808
sg63
(lp3815
g56
(g57
g58
NtRp3816
(dp3817
g61
(dp3818
g69
I1
ssg70
g3812
sg63
(lp3819
g3301
(S's\x06\x00\x00\x00Errors'
tRp3820
asbasbasbag56
(g72
g58
NtRp3821
(dp3822
g61
(dp3823
sg70
g3804
sg63
(lp3824
g56
(g77
g58
NtRp3825
(dp3826
g61
(dp3827
sg70
g3821
sg63
(lp3828
g56
(g57
g58
NtRp3829
(dp3830
g61
(dp3831
g69
I1
ssg70
g3825
sg63
(lp3832
I00
asbasbasbag56
(g72
g58
NtRp3833
(dp3834
g61
(dp3835
sg70
g3804
sg63
(lp3836
g56
(g77
g58
NtRp3837
(dp3838
g61
(dp3839
sg70
g3833
sg63
(lp3840
g56
(g57
g58
NtRp3841
(dp3842
g61
(dp3843
g69
I1
ssg70
g3837
sg63
(lp3844
S'/admin/default/errors/mvstore'
p3845
asbasbasbasbasbasbasbag56
(g72
g58
NtRp3846
(dp3847
g61
(dp3848
sg70
g3410
sg63
(lp3849
g56
(g77
g58
NtRp3850
(dp3851
g61
(dp3852
sg70
g3846
sg63
(lp3853
g56
(g57
g58
NtRp3854
(dp3855
g61
(dp3856
g69
I2
ssg70
g3850
sg63
(lp3857
g56
(g65
g58
NtRp3858
(dp3859
g61
(dp3860
g69
I1
ssg70
Nsg63
(lp3861
g56
(g72
g58
NtRp3862
(dp3863
g61
(dp3864
sg70
g3858
sg63
(lp3865
g56
(g77
g58
NtRp3866
(dp3867
g61
(dp3868
sg70
g3862
sg63
(lp3869
g56
(g57
g58
NtRp3870
(dp3871
g61
(dp3872
g69
I1
ssg70
g3866
sg63
(lp3873
g3301
(S's\x05\x00\x00\x00About'
tRp3874
asbasbasbag56
(g72
g58
NtRp3875
(dp3876
g61
(dp3877
sg70
g3858
sg63
(lp3878
g56
(g77
g58
NtRp3879
(dp3880
g61
(dp3881
sg70
g3875
sg63
(lp3882
g56
(g57
g58
NtRp3883
(dp3884
g61
(dp3885
g69
I1
ssg70
g3879
sg63
(lp3886
I00
asbasbasbag56
(g72
g58
NtRp3887
(dp3888
g61
(dp3889
sg70
g3858
sg63
(lp3890
g56
(g77
g58
NtRp3891
(dp3892
g61
(dp3893
sg70
g3887
sg63
(lp3894
g56
(g57
g58
NtRp3895
(dp3896
g61
(dp3897
g69
I1
ssg70
g3891
sg63
(lp3898
S'/admin/default/about/mvstore'
p3899
asbasbasbasbasbasbasbasbasbasbasbasbasbasbasbag56
(g72
g58
NtRp3900
(dp3901
g61
(dp3902
sg70
g3269
sg63
(lp3903
g56
(g77
g58
NtRp3904
(dp3905
g61
(dp3906
sg70
g3900
sg63
(lp3907
g56
(g57
g58
NtRp3908
(dp3909
g61
(dp3910
g69
I4
ssg70
g3904
sg63
(lp3911
S'ABM'
p3912
asbasbasbag56
(g72
g58
NtRp3913
(dp3914
g61
(dp3915
sg70
g3269
sg63
(lp3916
g56
(g77
g58
NtRp3917
(dp3918
g61
(dp3919
sg70
g3913
sg63
(lp3920
g56
(g57
g58
NtRp3921
(dp3922
g61
(dp3923
g69
I4
ssg70
g3917
sg63
(lp3924
g99
asbasbasbag56
(g72
g58
NtRp3925
(dp3926
g61
(dp3927
sg70
g3269
sg63
(lp3928
g56
(g77
g58
NtRp3929
(dp3930
g61
(dp3931
sg70
g3925
sg63
(lp3932
g56
(g57
g58
NtRp3933
(dp3934
g61
(dp3935
g69
I4
ssg70
g3929
sg63
(lp3936
S'None'
p3937
asbasbasbag56
(g72
g58
NtRp3938
(dp3939
g61
(dp3940
sg70
g3269
sg63
(lp3941
g56
(g77
g58
NtRp3942
(dp3943
g61
(dp3944
sg70
g3938
sg63
(lp3945
g56
(g57
g58
NtRp3946
(dp3947
g61
(dp3948
g69
I4
ssg70
g3942
sg63
(lp3949
g56
(g65
g58
NtRp3950
(dp3951
g61
(dp3952
g69
I3
ssg70
Nsg63
(lp3953
g56
(g72
g58
NtRp3954
(dp3955
g61
(dp3956
sg70
g3950
sg63
(lp3957
g56
(g77
g58
NtRp3958
(dp3959
g61
(dp3960
sg70
g3954
sg63
(lp3961
g56
(g57
g58
NtRp3962
(dp3963
g61
(dp3964
g69
I3
ssg70
g3958
sg63
(lp3965
g56
(g65
g58
NtRp3966
(dp3967
g61
(dp3968
g69
I2
ssg70
Nsg63
(lp3969
g56
(g72
g58
NtRp3970
(dp3971
g61
(dp3972
sg70
g3966
sg63
(lp3973
g56
(g77
g58
NtRp3974
(dp3975
g61
(dp3976
sg70
g3970
sg63
(lp3977
g56
(g57
g58
NtRp3978
(dp3979
g61
(dp3980
g69
I2
ssg70
g3974
sg63
(lp3981
g3301
(S's\x08\x00\x00\x00Add user'
tRp3982
asbasbasbag56
(g72
g58
NtRp3983
(dp3984
g61
(dp3985
sg70
g3966
sg63
(lp3986
g56
(g77
g58
NtRp3987
(dp3988
g61
(dp3989
sg70
g3983
sg63
(lp3990
g56
(g57
g58
NtRp3991
(dp3992
g61
(dp3993
g69
I2
ssg70
g3987
sg63
(lp3994
g99
asbasbasbag56
(g72
g58
NtRp3995
(dp3996
g61
(dp3997
sg70
g3966
sg63
(lp3998
g56
(g77
g58
NtRp3999
(dp4000
g61
(dp4001
sg70
g3995
sg63
(lp4002
g56
(g57
g58
NtRp4003
(dp4004
g61
(dp4005
g69
I2
ssg70
g3999
sg63
(lp4006
S'/mvstore/default/empleados'
p4007
asbasbasbag56
(g72
g58
NtRp4008
(dp4009
g61
(dp4010
sg70
g3966
sg63
(lp4011
g56
(g77
g58
NtRp4012
(dp4013
g61
(dp4014
sg70
g4008
sg63
(lp4015
g56
(g57
g58
NtRp4016
(dp4017
g61
(dp4018
g69
I2
ssg70
g4012
sg63
(lp4019
g56
(g65
g58
NtRp4020
(dp4021
g61
(dp4022
g69
I1
ssg70
Nsg63
(lp4023
sbasbasbasbasbasbasbasbasbasbasbasbag56
(g72
g58
NtRp4024
(dp4025
g61
(dp4026
sg70
g3269
sg63
(lp4027
g56
(g77
g58
NtRp4028
(dp4029
g61
(dp4030
sg70
g4024
sg63
(lp4031
g56
(g57
g58
NtRp4032
(dp4033
g61
(dp4034
g69
I4
ssg70
g4028
sg63
(lp4035
g56
(g65
g58
NtRp4036
(dp4037
g61
(dp4038
g69
I3
ssg70
Nsg63
(lp4039
g56
(g72
g58
NtRp4040
(dp4041
g61
(dp4042
sg70
g4036
sg63
(lp4043
g56
(g77
g58
NtRp4044
(dp4045
g61
(dp4046
sg70
g4040
sg63
(lp4047
g56
(g57
g58
NtRp4048
(dp4049
g61
(dp4050
g69
I3
ssg70
g4044
sg63
(lp4051
g3301
(S's\t\x00\x00\x00Resources'
tRp4052
asbasbasbag56
(g72
g58
NtRp4053
(dp4054
g61
(dp4055
sg70
g4036
sg63
(lp4056
g56
(g77
g58
NtRp4057
(dp4058
g61
(dp4059
sg70
g4053
sg63
(lp4060
g56
(g57
g58
NtRp4061
(dp4062
g61
(dp4063
g69
I3
ssg70
g4057
sg63
(lp4064
g99
asbasbasbag56
(g72
g58
NtRp4065
(dp4066
g61
(dp4067
sg70
g4036
sg63
(lp4068
g56
(g77
g58
NtRp4069
(dp4070
g61
(dp4071
sg70
g4065
sg63
(lp4072
g56
(g57
g58
NtRp4073
(dp4074
g61
(dp4075
g69
I3
ssg70
g4069
sg63
(lp4076
S'None'
p4077
asbasbasbag56
(g72
g58
NtRp4078
(dp4079
g61
(dp4080
sg70
g4036
sg63
(lp4081
g56
(g77
g58
NtRp4082
(dp4083
g61
(dp4084
sg70
g4078
sg63
(lp4085
g56
(g57
g58
NtRp4086
(dp4087
g61
(dp4088
g69
I3
ssg70
g4082
sg63
(lp4089
g56
(g65
g58
NtRp4090
(dp4091
g61
(dp4092
g69
I2
ssg70
Nsg63
(lp4093
g56
(g72
g58
NtRp4094
(dp4095
g61
(dp4096
sg70
g4090
sg63
(lp4097
g56
(g77
g58
NtRp4098
(dp4099
g61
(dp4100
sg70
g4094
sg63
(lp4101
g56
(g57
g58
NtRp4102
(dp4103
g61
(dp4104
g69
I2
ssg70
g4098
sg63
(lp4105
g56
(g65
g58
NtRp4106
(dp4107
g61
(dp4108
g69
I1
ssg70
Nsg63
(lp4109
g56
(g72
g58
NtRp4110
(dp4111
g61
(dp4112
sg70
g4106
sg63
(lp4113
g56
(g77
g58
NtRp4114
(dp4115
g61
(dp4116
sg70
g4110
sg63
(lp4117
g56
(g57
g58
NtRp4118
(dp4119
g61
(dp4120
g69
I1
ssg70
g4114
sg63
(lp4121
g3301
(S's\r\x00\x00\x00Documentation'
tRp4122
asbasbasbag56
(g72
g58
NtRp4123
(dp4124
g61
(dp4125
sg70
g4106
sg63
(lp4126
g56
(g77
g58
NtRp4127
(dp4128
g61
(dp4129
sg70
g4123
sg63
(lp4130
g56
(g57
g58
NtRp4131
(dp4132
g61
(dp4133
g69
I1
ssg70
g4127
sg63
(lp4134
I00
asbasbasbag56
(g72
g58
NtRp4135
(dp4136
g61
(dp4137
sg70
g4106
sg63
(lp4138
g56
(g77
g58
NtRp4139
(dp4140
g61
(dp4141
sg70
g4135
sg63
(lp4142
g56
(g57
g58
NtRp4143
(dp4144
g61
(dp4145
g69
I1
ssg70
g4139
sg63
(lp4146
S'http://www.web2py.com/book'
p4147
asbasbasbag56
(g72
g58
NtRp4148
(dp4149
g61
(dp4150
sg70
g4106
sg63
(lp4151
g56
(g77
g58
NtRp4152
(dp4153
g61
(dp4154
sg70
g4148
sg63
(lp4155
g56
(g57
g58
NtRp4156
(dp4157
g61
(dp4158
g69
I1
ssg70
g4152
sg63
(lp4159
(lp4160
(g3301
(S's\x07\x00\x00\x00Preface'
tRp4161
I00
S'http://www.web2py.com/book/default/chapter/00'
tp4162
a(g3301
(S's\x0c\x00\x00\x00Introduction'
tRp4163
I00
S'http://www.web2py.com/book/default/chapter/01'
tp4164
a(g3301
(S's\x06\x00\x00\x00Python'
tRp4165
I00
S'http://www.web2py.com/book/default/chapter/02'
tp4166
a(g3301
(S's\x08\x00\x00\x00Overview'
tRp4167
I00
S'http://www.web2py.com/book/default/chapter/03'
tp4168
a(g3301
(S's\x08\x00\x00\x00The Core'
tRp4169
I00
S'http://www.web2py.com/book/default/chapter/04'
tp4170
a(g3301
(S's\t\x00\x00\x00The Views'
tRp4171
I00
S'http://www.web2py.com/book/default/chapter/05'
tp4172
a(g3301
(S's\x08\x00\x00\x00Database'
tRp4173
I00
S'http://www.web2py.com/book/default/chapter/06'
tp4174
a(g3301
(S's\x14\x00\x00\x00Forms and Validators'
tRp4175
I00
S'http://www.web2py.com/book/default/chapter/07'
tp4176
a(g3301
(S's\x0e\x00\x00\x00Access Control'
tRp4177
I00
S'http://www.web2py.com/book/default/chapter/08'
tp4178
a(g3301
(S's\x08\x00\x00\x00Services'
tRp4179
I00
S'http://www.web2py.com/book/default/chapter/09'
tp4180
a(g3301
(S's\x0c\x00\x00\x00Ajax Recipes'
tRp4181
I00
S'http://www.web2py.com/book/default/chapter/10'
tp4182
a(g3301
(S's\x12\x00\x00\x00Deployment Recipes'
tRp4183
I00
S'http://www.web2py.com/book/default/chapter/11'
tp4184
a(g3301
(S's\r\x00\x00\x00Other Recipes'
tRp4185
I00
S'http://www.web2py.com/book/default/chapter/12'
tp4186
a(g3301
(S's\r\x00\x00\x00Buy this book'
tRp4187
I00
S'http://stores.lulu.com/web2py'
tp4188
aasbasbasbasbasbasbasbag56
(g72
g58
NtRp4189
(dp4190
g61
(dp4191
sg70
g4090
sg63
(lp4192
g56
(g77
g58
NtRp4193
(dp4194
g61
(dp4195
sg70
g4189
sg63
(lp4196
g56
(g57
g58
NtRp4197
(dp4198
g61
(dp4199
g69
I2
ssg70
g4193
sg63
(lp4200
g56
(g65
g58
NtRp4201
(dp4202
g61
(dp4203
g69
I1
ssg70
Nsg63
(lp4204
g56
(g72
g58
NtRp4205
(dp4206
g61
(dp4207
sg70
g4201
sg63
(lp4208
g56
(g77
g58
NtRp4209
(dp4210
g61
(dp4211
sg70
g4205
sg63
(lp4212
g56
(g57
g58
NtRp4213
(dp4214
g61
(dp4215
g69
I1
ssg70
g4209
sg63
(lp4216
g3301
(S's\t\x00\x00\x00Community'
tRp4217
asbasbasbag56
(g72
g58
NtRp4218
(dp4219
g61
(dp4220
sg70
g4201
sg63
(lp4221
g56
(g77
g58
NtRp4222
(dp4223
g61
(dp4224
sg70
g4218
sg63
(lp4225
g56
(g57
g58
NtRp4226
(dp4227
g61
(dp4228
g69
I1
ssg70
g4222
sg63
(lp4229
I00
asbasbasbag56
(g72
g58
NtRp4230
(dp4231
g61
(dp4232
sg70
g4201
sg63
(lp4233
g56
(g77
g58
NtRp4234
(dp4235
g61
(dp4236
sg70
g4230
sg63
(lp4237
g56
(g57
g58
NtRp4238
(dp4239
g61
(dp4240
g69
I1
ssg70
g4234
sg63
(lp4241
Nasbasbasbag56
(g72
g58
NtRp4242
(dp4243
g61
(dp4244
sg70
g4201
sg63
(lp4245
g56
(g77
g58
NtRp4246
(dp4247
g61
(dp4248
sg70
g4242
sg63
(lp4249
g56
(g57
g58
NtRp4250
(dp4251
g61
(dp4252
g69
I1
ssg70
g4246
sg63
(lp4253
(lp4254
(g3301
(S's\x06\x00\x00\x00Groups'
tRp4255
I00
S'http://www.web2py.com/examples/default/usergroups'
tp4256
a(g3301
(S's\x07\x00\x00\x00Twitter'
tRp4257
I00
S'http://twitter.com/web2py'
tp4258
a(g3301
(S's\t\x00\x00\x00Live chat'
tRp4259
I00
S'http://mibbit.com/?channel=%23web2py&server=irc.mibbit.net'
tp4260
a(g3301
(S's\n\x00\x00\x00User Voice'
tRp4261
I00
S'http://web2py.uservoice.com/'
tp4262
aasbasbasbasbasbasbasbag56
(g72
g58
NtRp4263
(dp4264
g61
(dp4265
sg70
g4090
sg63
(lp4266
g56
(g77
g58
NtRp4267
(dp4268
g61
(dp4269
sg70
g4263
sg63
(lp4270
g56
(g57
g58
NtRp4271
(dp4272
g61
(dp4273
g69
I2
ssg70
g4267
sg63
(lp4274
g56
(g65
g58
NtRp4275
(dp4276
g61
(dp4277
g69
I1
ssg70
Nsg63
(lp4278
g56
(g72
g58
NtRp4279
(dp4280
g61
(dp4281
sg70
g4275
sg63
(lp4282
g56
(g77
g58
NtRp4283
(dp4284
g61
(dp4285
sg70
g4279
sg63
(lp4286
g56
(g57
g58
NtRp4287
(dp4288
g61
(dp4289
g69
I1
ssg70
g4283
sg63
(lp4290
g3301
(S's\x06\x00\x00\x00Web2py'
tRp4291
asbasbasbag56
(g72
g58
NtRp4292
(dp4293
g61
(dp4294
sg70
g4275
sg63
(lp4295
g56
(g77
g58
NtRp4296
(dp4297
g61
(dp4298
sg70
g4292
sg63
(lp4299
g56
(g57
g58
NtRp4300
(dp4301
g61
(dp4302
g69
I1
ssg70
g4296
sg63
(lp4303
I00
asbasbasbag56
(g72
g58
NtRp4304
(dp4305
g61
(dp4306
sg70
g4275
sg63
(lp4307
g56
(g77
g58
NtRp4308
(dp4309
g61
(dp4310
sg70
g4304
sg63
(lp4311
g56
(g57
g58
NtRp4312
(dp4313
g61
(dp4314
g69
I1
ssg70
g4308
sg63
(lp4315
S'http://www.web2py.com'
p4316
asbasbasbag56
(g72
g58
NtRp4317
(dp4318
g61
(dp4319
sg70
g4275
sg63
(lp4320
g56
(g77
g58
NtRp4321
(dp4322
g61
(dp4323
sg70
g4317
sg63
(lp4324
g56
(g57
g58
NtRp4325
(dp4326
g61
(dp4327
g69
I1
ssg70
g4321
sg63
(lp4328
(lp4329
(g3301
(S's\x08\x00\x00\x00Download'
tRp4330
I00
S'http://www.web2py.com/examples/default/download'
tp4331
a(g3301
(S's\x07\x00\x00\x00Support'
tRp4332
I00
S'http://www.web2py.com/examples/default/support'
tp4333
a(g3301
(S's\x0e\x00\x00\x00Quick Examples'
tRp4334
I00
S'http://web2py.com/examples/default/examples'
tp4335
a(g3301
(S's\x03\x00\x00\x00FAQ'
tRp4336
I00
S'http://web2py.com/AlterEgo'
tp4337
a(g3301
(S's\x11\x00\x00\x00Free Applications'
tRp4338
I00
S'http://web2py.com/appliances'
tp4339
a(g3301
(S's\x07\x00\x00\x00Plugins'
tRp4340
I00
S'http://web2py.com/plugins'
tp4341
a(g3301
(S's\x07\x00\x00\x00Recipes'
tRp4342
I00
S'http://web2pyslices.com/'
tp4343
a(g3301
(S's\x04\x00\x00\x00Demo'
tRp4344
I00
S'http://web2py.com/demo_admin'
tp4345
a(g3301
(S's\x08\x00\x00\x00Semantic'
tRp4346
I00
S'http://web2py.com/semantic'
tp4347
a(g3301
(S's\x07\x00\x00\x00Layouts'
tRp4348
I00
S'http://web2py.com/layouts'
tp4349
a(g3301
(S's\x06\x00\x00\x00Videos'
tRp4350
I00
S'http://www.web2py.com/examples/default/videos/'
tp4351
aasbasbasbasbasbasbasbasbasbasbasbasbasbasbasbasbasbasbasbag56
(g72
g58
NtRp4352
(dp4353
g61
(dp4354
sg70
g2755
sg63
(lp4355
g56
(g77
g58
NtRp4356
(dp4357
g61
(dp4358
g81
g82
ssg70
g4352
sg63
(lp4359
S'meta'
p4360
asbag56
(g77
g58
NtRp4361
(dp4362
g61
(dp4363
g88
g89
ssg70
g4352
sg63
(lp4364
S':'
asbag56
(g77
g58
NtRp4365
(dp4366
g61
(dp4367
sg70
g4352
sg63
(lp4368
g56
(g57
g58
NtRp4369
(dp4370
g61
(dp4371
g69
I5
ssg70
g4365
sg63
(lp4372
g56
(g65
g58
NtRp4373
(dp4374
g61
(dp4375
g69
I4
ssg70
Nsg63
(lp4376
g56
(g72
g58
NtRp4377
(dp4378
g61
(dp4379
sg70
g4373
sg63
(lp4380
g56
(g77
g58
NtRp4381
(dp4382
g61
(dp4383
g81
g82
ssg70
g4377
sg63
(lp4384
S'author'
p4385
asbag56
(g77
g58
NtRp4386
(dp4387
g61
(dp4388
g88
g89
ssg70
g4377
sg63
(lp4389
S':'
asbag56
(g77
g58
NtRp4390
(dp4391
g61
(dp4392
sg70
g4377
sg63
(lp4393
g56
(g57
g58
NtRp4394
(dp4395
g61
(dp4396
g69
I4
ssg70
g4390
sg63
(lp4397
S'Marco Mansilla'
p4398
asbasbasbag56
(g72
g58
NtRp4399
(dp4400
g61
(dp4401
sg70
g4373
sg63
(lp4402
g56
(g77
g58
NtRp4403
(dp4404
g61
(dp4405
g81
g82
ssg70
g4399
sg63
(lp4406
S'copyright'
p4407
asbag56
(g77
g58
NtRp4408
(dp4409
g61
(dp4410
g88
g89
ssg70
g4399
sg63
(lp4411
S':'
asbag56
(g77
g58
NtRp4412
(dp4413
g61
(dp4414
sg70
g4399
sg63
(lp4415
g56
(g57
g58
NtRp4416
(dp4417
g61
(dp4418
g69
I4
ssg70
g4412
sg63
(lp4419
S'Copyright 2007-2010'
p4420
asbasbasbag56
(g72
g58
NtRp4421
(dp4422
g61
(dp4423
sg70
g4373
sg63
(lp4424
g56
(g77
g58
NtRp4425
(dp4426
g61
(dp4427
g81
g82
ssg70
g4421
sg63
(lp4428
S'description'
p4429
asbag56
(g77
g58
NtRp4430
(dp4431
g61
(dp4432
g88
g89
ssg70
g4421
sg63
(lp4433
S':'
asbag56
(g77
g58
NtRp4434
(dp4435
g61
(dp4436
sg70
g4421
sg63
(lp4437
g56
(g57
g58
NtRp4438
(dp4439
g61
(dp4440
g69
I4
ssg70
g4434
sg63
(lp4441
S'Free and open source full-stack enterprise framework for agile development of fast, scalable, secure and portable database-driven web-based applications. Written and programmable in Python'
p4442
asbasbasbag56
(g72
g58
NtRp4443
(dp4444
g61
(dp4445
sg70
g4373
sg63
(lp4446
g56
(g77
g58
NtRp4447
(dp4448
g61
(dp4449
g81
g82
ssg70
g4443
sg63
(lp4450
S'generator'
p4451
asbag56
(g77
g58
NtRp4452
(dp4453
g61
(dp4454
g88
g89
ssg70
g4443
sg63
(lp4455
S':'
asbag56
(g77
g58
NtRp4456
(dp4457
g61
(dp4458
sg70
g4443
sg63
(lp4459
g56
(g57
g58
NtRp4460
(dp4461
g61
(dp4462
g69
I4
ssg70
g4456
sg63
(lp4463
S'Web2py Enterprise Framework'
p4464
asbasbasbag56
(g72
g58
NtRp4465
(dp4466
g61
(dp4467
sg70
g4373
sg63
(lp4468
g56
(g77
g58
NtRp4469
(dp4470
g61
(dp4471
g81
g82
ssg70
g4465
sg63
(lp4472
S'keywords'
p4473
asbag56
(g77
g58
NtRp4474
(dp4475
g61
(dp4476
g88
g89
ssg70
g4465
sg63
(lp4477
S':'
asbag56
(g77
g58
NtRp4478
(dp4479
g61
(dp4480
sg70
g4465
sg63
(lp4481
g56
(g57
g58
NtRp4482
(dp4483
g61
(dp4484
g69
I4
ssg70
g4478
sg63
(lp4485
S'web2py, python, framework'
p4486
asbasbasbasbasbasbasbag56
(g72
g58
NtRp4487
(dp4488
g61
(dp4489
sg70
g2755
sg63
(lp4490
g56
(g77
g58
NtRp4491
(dp4492
g61
(dp4493
g81
g82
ssg70
g4487
sg63
(lp4494
S'postprocessing'
p4495
asbag56
(g77
g58
NtRp4496
(dp4497
g61
(dp4498
g88
g89
ssg70
g4487
sg63
(lp4499
S':'
asbag56
(g77
g58
NtRp4500
(dp4501
g61
(dp4502
sg70
g4487
sg63
(lp4503
g56
(g57
g58
NtRp4504
(dp4505
g61
(dp4506
g69
I5
ssg70
g4500
sg63
(lp4507
g56
(g65
g58
NtRp4508
(dp4509
g61
(dp4510
g69
I4
ssg70
Nsg63
(lp4511
sbasbasbasbag56
(g72
g58
NtRp4512
(dp4513
g61
(dp4514
sg70
g2755
sg63
(lp4515
g56
(g77
g58
NtRp4516
(dp4517
g61
(dp4518
g81
g82
ssg70
g4512
sg63
(lp4519
S'session_file'
p4520
asbag56
(g77
g58
NtRp4521
(dp4522
g61
(dp4523
g88
g89
ssg70
g4512
sg63
(lp4524
S':'
asbag56
(g77
g58
NtRp4525
(dp4526
g61
(dp4527
sg70
g4512
sg63
(lp4528
g56
(g57
g58
NtRp4529
(dp4530
g61
(dp4531
g69
I5
ssg70
g4525
sg63
(lp4532
S"<open file '/home/marco/proyectos/web2py-trunk/applications/mvstore/sessions/127.0.0.1-50654ecb-cdf9-4d07-aebd-7df319d2e714', mode 'rb+' at 0x2965420>"
p4533
asbasbasbag56
(g72
g58
NtRp4534
(dp4535
g61
(dp4536
sg70
g2755
sg63
(lp4537
g56
(g77
g58
NtRp4538
(dp4539
g61
(dp4540
g81
g82
ssg70
g4534
sg63
(lp4541
S'session_filename'
p4542
asbag56
(g77
g58
NtRp4543
(dp4544
g61
(dp4545
g88
g89
ssg70
g4534
sg63
(lp4546
S':'
asbag56
(g77
g58
NtRp4547
(dp4548
g61
(dp4549
sg70
g4534
sg63
(lp4550
g56
(g57
g58
NtRp4551
(dp4552
g61
(dp4553
g69
I5
ssg70
g4547
sg63
(lp4554
S'/home/marco/proyectos/web2py-trunk/applications/mvstore/sessions/127.0.0.1-50654ecb-cdf9-4d07-aebd-7df319d2e714'
p4555
asbasbasbag56
(g72
g58
NtRp4556
(dp4557
g61
(dp4558
sg70
g2755
sg63
(lp4559
g56
(g77
g58
NtRp4560
(dp4561
g61
(dp4562
g81
g82
ssg70
g4556
sg63
(lp4563
S'session_id'
p4564
asbag56
(g77
g58
NtRp4565
(dp4566
g61
(dp4567
g88
g89
ssg70
g4556
sg63
(lp4568
S':'
asbag56
(g77
g58
NtRp4569
(dp4570
g61
(dp4571
sg70
g4556
sg63
(lp4572
g56
(g57
g58
NtRp4573
(dp4574
g61
(dp4575
g69
I5
ssg70
g4569
sg63
(lp4576
S'127.0.0.1-50654ecb-cdf9-4d07-aebd-7df319d2e714'
p4577
asbasbasbag56
(g72
g58
NtRp4578
(dp4579
g61
(dp4580
sg70
g2755
sg63
(lp4581
g56
(g77
g58
NtRp4582
(dp4583
g61
(dp4584
g81
g82
ssg70
g4578
sg63
(lp4585
S'session_id_name'
p4586
asbag56
(g77
g58
NtRp4587
(dp4588
g61
(dp4589
g88
g89
ssg70
g4578
sg63
(lp4590
S':'
asbag56
(g77
g58
NtRp4591
(dp4592
g61
(dp4593
sg70
g4578
sg63
(lp4594
g56
(g57
g58
NtRp4595
(dp4596
g61
(dp4597
g69
I5
ssg70
g4591
sg63
(lp4598
g2812
asbasbasbag56
(g72
g58
NtRp4599
(dp4600
g61
(dp4601
sg70
g2755
sg63
(lp4602
g56
(g77
g58
NtRp4603
(dp4604
g61
(dp4605
g81
g82
ssg70
g4599
sg63
(lp4606
S'session_locked'
p4607
asbag56
(g77
g58
NtRp4608
(dp4609
g61
(dp4610
g88
g89
ssg70
g4599
sg63
(lp4611
S':'
asbag56
(g77
g58
NtRp4612
(dp4613
g61
(dp4614
sg70
g4599
sg63
(lp4615
g56
(g57
g58
NtRp4616
(dp4617
g61
(dp4618
g69
I5
ssg70
g4612
sg63
(lp4619
g1591
asbasbasbag56
(g72
g58
NtRp4620
(dp4621
g61
(dp4622
sg70
g2755
sg63
(lp4623
g56
(g77
g58
NtRp4624
(dp4625
g61
(dp4626
g81
g82
ssg70
g4620
sg63
(lp4627
S'session_new'
p4628
asbag56
(g77
g58
NtRp4629
(dp4630
g61
(dp4631
g88
g89
ssg70
g4620
sg63
(lp4632
S':'
asbag56
(g77
g58
NtRp4633
(dp4634
g61
(dp4635
sg70
g4620
sg63
(lp4636
g56
(g57
g58
NtRp4637
(dp4638
g61
(dp4639
g69
I5
ssg70
g4633
sg63
(lp4640
g99
asbasbasbag56
(g72
g58
NtRp4641
(dp4642
g61
(dp4643
sg70
g2755
sg63
(lp4644
g56
(g77
g58
NtRp4645
(dp4646
g61
(dp4647
g81
g82
ssg70
g4641
sg63
(lp4648
S'status'
p4649
asbag56
(g77
g58
NtRp4650
(dp4651
g61
(dp4652
g88
g89
ssg70
g4641
sg63
(lp4653
S':'
asbag56
(g77
g58
NtRp4654
(dp4655
g61
(dp4656
sg70
g4641
sg63
(lp4657
g56
(g57
g58
NtRp4658
(dp4659
g61
(dp4660
g69
I5
ssg70
g4654
sg63
(lp4661
S'200'
p4662
asbasbasbag56
(g72
g58
NtRp4663
(dp4664
g61
(dp4665
sg70
g2755
sg63
(lp4666
g56
(g77
g58
NtRp4667
(dp4668
g61
(dp4669
g81
g82
ssg70
g4663
sg63
(lp4670
S'subtitle'
p4671
asbag56
(g77
g58
NtRp4672
(dp4673
g61
(dp4674
g88
g89
ssg70
g4663
sg63
(lp4675
S':'
asbag56
(g77
g58
NtRp4676
(dp4677
g61
(dp4678
sg70
g4663
sg63
(lp4679
g56
(g57
g58
NtRp4680
(dp4681
g61
(dp4682
g69
I5
ssg70
g4676
sg63
(lp4683
g3301
(S's\r\x00\x00\x00customize me!'
tRp4684
asbasbasbag56
(g72
g58
NtRp4685
(dp4686
g61
(dp4687
sg70
g2755
sg63
(lp4688
g56
(g77
g58
NtRp4689
(dp4690
g61
(dp4691
g81
g82
ssg70
g4685
sg63
(lp4692
S'title'
p4693
asbag56
(g77
g58
NtRp4694
(dp4695
g61
(dp4696
g88
g89
ssg70
g4685
sg63
(lp4697
S':'
asbag56
(g77
g58
NtRp4698
(dp4699
g61
(dp4700
sg70
g4685
sg63
(lp4701
g56
(g57
g58
NtRp4702
(dp4703
g61
(dp4704
g69
I5
ssg70
g4698
sg63
(lp4705
g121
asbasbasbag56
(g72
g58
NtRp4706
(dp4707
g61
(dp4708
sg70
g2755
sg63
(lp4709
g56
(g77
g58
NtRp4710
(dp4711
g61
(dp4712
g81
g82
ssg70
g4706
sg63
(lp4713
g1915
asbag56
(g77
g58
NtRp4714
(dp4715
g61
(dp4716
g88
g89
ssg70
g4706
sg63
(lp4717
S':'
asbag56
(g77
g58
NtRp4718
(dp4719
g61
(dp4720
sg70
g4706
sg63
(lp4721
g56
(g57
g58
NtRp4722
(dp4723
g61
(dp4724
g69
I5
ssg70
g4718
sg63
(lp4725
g1928
asbasbasbag56
(g72
g58
NtRp4726
(dp4727
g61
(dp4728
sg70
g2755
sg63
(lp4729
g56
(g77
g58
NtRp4730
(dp4731
g61
(dp4732
g81
g82
ssg70
g4726
sg63
(lp4733
S'view'
p4734
asbag56
(g77
g58
NtRp4735
(dp4736
g61
(dp4737
g88
g89
ssg70
g4726
sg63
(lp4738
S':'
asbag56
(g77
g58
NtRp4739
(dp4740
g61
(dp4741
sg70
g4726
sg63
(lp4742
g56
(g57
g58
NtRp4743
(dp4744
g61
(dp4745
g69
I5
ssg70
g4739
sg63
(lp4746
S'default/index.html'
p4747
asbasbasbasbasbsS'locals'
p4748
(dp4749
S'name'
p4750
S"'A'"
p4751
sS'item'
p4752
g99
sS'self'
p4753
S'<gluon.html.MENU object>'
p4754
sg69
S'0'
sS'li'
p4755
S'<gluon.html.LI object>'
p4756
sS'ul'
p4757
S'<gluon.html.UL object>'
p4758
sS'link'
p4759
S"'M'"
p4760
sS'active'
p4761
S"'B'"
p4762
sS'data'
p4763
S"[(<lazyT 'Home'>, False, '/mvstore/default/index', []), (<lazyT 'This App'>, False, '/admin/default/design/mvstore', [(<lazyT 'Controller'>, False, '/admin/default/edit/mvstore/controllers/default.py'), (<lazyT 'View'>, False, '/admin/default/edit/mvstore/views/default/index.html'), (<lazyT 'Layout'>, False, '/admin/default/edit/mvstore/views/layout.html'), (<lazyT 'Stylesheet'>, False, '/admin/default/edit/mvstore/static/base.css'), (<lazyT 'DB Model'>, False, '/admin/default/edit/mvstore/models/db.py'), (<lazyT 'Menu Model'>, False, '/admin/default/edit/mvstore/models/menu.py'), (<lazyT 'Database'>, False, '/mvstore/appadmin/index'), (<lazyT 'Errors'>, False, '/admin/default/errors/mvstore'), (<lazyT 'About'>, False, '/admin/default/about/mvstore')]), 'ABM', False, None, [(<lazyT 'Add user'>, False, '/mvstore/default/empleados', [])], (<lazyT 'Resources'>, False, None, [(<lazyT 'Documentation'>, False, 'http://www.web2py.com/book', [(<lazyT 'Preface'>, False, 'http://www.web2py.com/book/default/chapter/00'), (<lazyT 'Introduction'>, False, 'http://www.web2py.com/book/default/chapter/01'), (<lazyT 'Python'>, False, 'http://www.web2py.com/book/default/chapter/02'), (<lazyT 'Overview'>, False, 'http://www.web2py.com/book/default/chapter/03'), (<lazyT 'The Core'>, False, 'http://www.web2py.com/book/default/chapter/04'), (<lazyT 'The Views'>, False, 'http://www.web2py.com/book/default/chapter/05'), (<lazyT 'Database'>, False, 'http://www.web2py.com/book/default/chapter/06'), (<lazyT 'Forms and Validators'>, False, 'http://www.web2py.com/book/default/chapter/07'), (<lazyT 'Access Control'>, False, 'http://www.web2py.com/book/default/chapter/08'), (<lazyT 'Services'>, False, 'http://www.web2py.com/book/default/chapter/09'), (<lazyT 'Ajax Recipes'>, False, 'http://www.web2py.com/book/default/chapter/10'), (<lazyT 'Deployment Recipes'>, False, 'http://www.web2py.com/book/default/chapter/11'), (<lazyT 'Other Recipes'>, False, 'http://www.web2py.com/book/default/chapter/12'), (<lazyT 'Buy this book'>, False, 'http://stores.lulu.com/web2py')]), (<lazyT 'Community'>, False, None, [(<lazyT 'Groups'>, False, 'http://www.web2py.com/examples/default/usergroups'), (<lazyT 'Twitter'>, False, 'http://twitter.com/web2py'), (<lazyT 'Live chat'>, False, 'http://mibbit.com/?channel=%23web2py&server=irc.mibbit.net'), (<lazyT 'User Voice'>, False, 'http://web2py.uservoice.com/')]), (<lazyT 'Web2py'>, False, 'http://www.web2py.com', [(<lazyT 'Download'>, False, 'http://www.web2py.com/examples/default/download'), (<lazyT 'Support'>, False, 'http://www.web2py.com/examples/default/support'), (<lazyT 'Quick Examples'>, False, 'http://web2py.com/examples/default/examples'), (<lazyT 'FAQ'>, False, 'http://web2py.com/AlterEgo'), (<lazyT 'Free Applications'>, False, 'http://web2py.com/appliances'), (<lazyT 'Plugins'>, False, 'http://web2py.com/plugins'), (<lazyT 'Recipes'>, False, 'http://web2pyslices.com/'), (<lazyT 'Demo'>, False, 'http://web2py.com/demo_admin'), (<lazyT 'Semantic'>, False, 'http://web2py.com/semantic'), (<lazyT 'Layouts'>, False, 'http://web2py.com/layouts'), (<lazyT 'Videos'>, False, 'http://www.web2py.com/examples/default/videos/')])])]"
p4764
sssS'traceback'
p4765
S'Traceback (most recent call last):\n  File "/home/marco/proyectos/web2py-trunk/gluon/restricted.py", line 192, in restricted\n    exec ccode in environment\n  File "/home/marco/proyectos/web2py-trunk/applications/mvstore/views/default/index.html", line 85, in <module>\n  File "/home/marco/proyectos/web2py-trunk/gluon/globals.py", line 146, in write\n    self.body.write(xmlescape(data))\n  File "/home/marco/proyectos/web2py-trunk/gluon/html.py", line 111, in xmlescape\n    return data.xml()\n  File "/home/marco/proyectos/web2py-trunk/gluon/html.py", line 1927, in xml\n    return self.serialize(self.data, 0).xml()\n  File "/home/marco/proyectos/web2py-trunk/gluon/html.py", line 1905, in serialize\n    (name, active, link) = item[:3]\nTypeError: \'bool\' object is unsubscriptable\n'
p4766
s.